ARM GAS  /var/folders/ck/g3dcd5x55xs4107jgdl0snvr0000gn/T//ccw7oLz4.s 			page 1


   1              		.cpu cortex-m4
   2              		.arch armv7e-m
   3              		.fpu fpv4-sp-d16
   4              		.eabi_attribute 27, 1
   5              		.eabi_attribute 28, 1
   6              		.eabi_attribute 20, 1
   7              		.eabi_attribute 21, 1
   8              		.eabi_attribute 23, 3
   9              		.eabi_attribute 24, 1
  10              		.eabi_attribute 25, 1
  11              		.eabi_attribute 26, 1
  12              		.eabi_attribute 30, 1
  13              		.eabi_attribute 34, 1
  14              		.eabi_attribute 18, 4
  15              		.file	"arm_fir_interpolate_init_q31.c"
  16              		.text
  17              	.Ltext0:
  18              		.cfi_sections	.debug_frame
  19              		.file 1 "DSP/Source/FilteringFunctions/arm_fir_interpolate_init_q31.c"
  20              		.section	.text.arm_fir_interpolate_init_q31,"ax",%progbits
  21              		.align	1
  22              		.global	arm_fir_interpolate_init_q31
  23              		.syntax unified
  24              		.thumb
  25              		.thumb_func
  27              	arm_fir_interpolate_init_q31:
  28              	.LVL0:
  29              	.LFB139:
   1:DSP/Source/FilteringFunctions/arm_fir_interpolate_init_q31.c **** /* ----------------------------------------------------------------------
   2:DSP/Source/FilteringFunctions/arm_fir_interpolate_init_q31.c ****  * Project:      CMSIS DSP Library
   3:DSP/Source/FilteringFunctions/arm_fir_interpolate_init_q31.c ****  * Title:        arm_fir_interpolate_init_q31.c
   4:DSP/Source/FilteringFunctions/arm_fir_interpolate_init_q31.c ****  * Description:  Q31 FIR interpolator initialization function
   5:DSP/Source/FilteringFunctions/arm_fir_interpolate_init_q31.c ****  *
   6:DSP/Source/FilteringFunctions/arm_fir_interpolate_init_q31.c ****  * $Date:        27. January 2017
   7:DSP/Source/FilteringFunctions/arm_fir_interpolate_init_q31.c ****  * $Revision:    V.1.5.1
   8:DSP/Source/FilteringFunctions/arm_fir_interpolate_init_q31.c ****  *
   9:DSP/Source/FilteringFunctions/arm_fir_interpolate_init_q31.c ****  * Target Processor: Cortex-M cores
  10:DSP/Source/FilteringFunctions/arm_fir_interpolate_init_q31.c ****  * -------------------------------------------------------------------- */
  11:DSP/Source/FilteringFunctions/arm_fir_interpolate_init_q31.c **** /*
  12:DSP/Source/FilteringFunctions/arm_fir_interpolate_init_q31.c ****  * Copyright (C) 2010-2017 ARM Limited or its affiliates. All rights reserved.
  13:DSP/Source/FilteringFunctions/arm_fir_interpolate_init_q31.c ****  *
  14:DSP/Source/FilteringFunctions/arm_fir_interpolate_init_q31.c ****  * SPDX-License-Identifier: Apache-2.0
  15:DSP/Source/FilteringFunctions/arm_fir_interpolate_init_q31.c ****  *
  16:DSP/Source/FilteringFunctions/arm_fir_interpolate_init_q31.c ****  * Licensed under the Apache License, Version 2.0 (the License); you may
  17:DSP/Source/FilteringFunctions/arm_fir_interpolate_init_q31.c ****  * not use this file except in compliance with the License.
  18:DSP/Source/FilteringFunctions/arm_fir_interpolate_init_q31.c ****  * You may obtain a copy of the License at
  19:DSP/Source/FilteringFunctions/arm_fir_interpolate_init_q31.c ****  *
  20:DSP/Source/FilteringFunctions/arm_fir_interpolate_init_q31.c ****  * www.apache.org/licenses/LICENSE-2.0
  21:DSP/Source/FilteringFunctions/arm_fir_interpolate_init_q31.c ****  *
  22:DSP/Source/FilteringFunctions/arm_fir_interpolate_init_q31.c ****  * Unless required by applicable law or agreed to in writing, software
  23:DSP/Source/FilteringFunctions/arm_fir_interpolate_init_q31.c ****  * distributed under the License is distributed on an AS IS BASIS, WITHOUT
  24:DSP/Source/FilteringFunctions/arm_fir_interpolate_init_q31.c ****  * WARRANTIES OR CONDITIONS OF ANY KIND, either express or implied.
  25:DSP/Source/FilteringFunctions/arm_fir_interpolate_init_q31.c ****  * See the License for the specific language governing permissions and
  26:DSP/Source/FilteringFunctions/arm_fir_interpolate_init_q31.c ****  * limitations under the License.
  27:DSP/Source/FilteringFunctions/arm_fir_interpolate_init_q31.c ****  */
  28:DSP/Source/FilteringFunctions/arm_fir_interpolate_init_q31.c **** 
  29:DSP/Source/FilteringFunctions/arm_fir_interpolate_init_q31.c **** #include "arm_math.h"
ARM GAS  /var/folders/ck/g3dcd5x55xs4107jgdl0snvr0000gn/T//ccw7oLz4.s 			page 2


  30:DSP/Source/FilteringFunctions/arm_fir_interpolate_init_q31.c **** 
  31:DSP/Source/FilteringFunctions/arm_fir_interpolate_init_q31.c **** /**
  32:DSP/Source/FilteringFunctions/arm_fir_interpolate_init_q31.c ****  * @ingroup groupFilters
  33:DSP/Source/FilteringFunctions/arm_fir_interpolate_init_q31.c ****  */
  34:DSP/Source/FilteringFunctions/arm_fir_interpolate_init_q31.c **** 
  35:DSP/Source/FilteringFunctions/arm_fir_interpolate_init_q31.c **** /**
  36:DSP/Source/FilteringFunctions/arm_fir_interpolate_init_q31.c ****  * @addtogroup FIR_Interpolate
  37:DSP/Source/FilteringFunctions/arm_fir_interpolate_init_q31.c ****  * @{
  38:DSP/Source/FilteringFunctions/arm_fir_interpolate_init_q31.c ****  */
  39:DSP/Source/FilteringFunctions/arm_fir_interpolate_init_q31.c **** 
  40:DSP/Source/FilteringFunctions/arm_fir_interpolate_init_q31.c **** 
  41:DSP/Source/FilteringFunctions/arm_fir_interpolate_init_q31.c **** /**
  42:DSP/Source/FilteringFunctions/arm_fir_interpolate_init_q31.c ****  * @brief  Initialization function for the Q31 FIR interpolator.
  43:DSP/Source/FilteringFunctions/arm_fir_interpolate_init_q31.c ****  * @param[in,out] *S        points to an instance of the Q31 FIR interpolator structure.
  44:DSP/Source/FilteringFunctions/arm_fir_interpolate_init_q31.c ****  * @param[in]     L         upsample factor.
  45:DSP/Source/FilteringFunctions/arm_fir_interpolate_init_q31.c ****  * @param[in]     numTaps   number of filter coefficients in the filter.
  46:DSP/Source/FilteringFunctions/arm_fir_interpolate_init_q31.c ****  * @param[in]     *pCoeffs  points to the filter coefficient buffer.
  47:DSP/Source/FilteringFunctions/arm_fir_interpolate_init_q31.c ****  * @param[in]     *pState   points to the state buffer.
  48:DSP/Source/FilteringFunctions/arm_fir_interpolate_init_q31.c ****  * @param[in]     blockSize number of input samples to process per call.
  49:DSP/Source/FilteringFunctions/arm_fir_interpolate_init_q31.c ****  * @return        The function returns ARM_MATH_SUCCESS if initialization was successful or ARM_MAT
  50:DSP/Source/FilteringFunctions/arm_fir_interpolate_init_q31.c ****  * the filter length <code>numTaps</code> is not a multiple of the interpolation factor <code>L</co
  51:DSP/Source/FilteringFunctions/arm_fir_interpolate_init_q31.c ****  *
  52:DSP/Source/FilteringFunctions/arm_fir_interpolate_init_q31.c ****  * <b>Description:</b>
  53:DSP/Source/FilteringFunctions/arm_fir_interpolate_init_q31.c ****  * \par
  54:DSP/Source/FilteringFunctions/arm_fir_interpolate_init_q31.c ****  * <code>pCoeffs</code> points to the array of filter coefficients stored in time reversed order:
  55:DSP/Source/FilteringFunctions/arm_fir_interpolate_init_q31.c ****  * <pre>
  56:DSP/Source/FilteringFunctions/arm_fir_interpolate_init_q31.c ****  *    {b[numTaps-1], b[numTaps-2], b[numTaps-2], ..., b[1], b[0]}
  57:DSP/Source/FilteringFunctions/arm_fir_interpolate_init_q31.c ****  * </pre>
  58:DSP/Source/FilteringFunctions/arm_fir_interpolate_init_q31.c ****  * The length of the filter <code>numTaps</code> must be a multiple of the interpolation factor <co
  59:DSP/Source/FilteringFunctions/arm_fir_interpolate_init_q31.c ****  * \par
  60:DSP/Source/FilteringFunctions/arm_fir_interpolate_init_q31.c ****  * <code>pState</code> points to the array of state variables.
  61:DSP/Source/FilteringFunctions/arm_fir_interpolate_init_q31.c ****  * <code>pState</code> is of length <code>(numTaps/L)+blockSize-1</code> words
  62:DSP/Source/FilteringFunctions/arm_fir_interpolate_init_q31.c ****  * where <code>blockSize</code> is the number of input samples processed by each call to <code>arm_
  63:DSP/Source/FilteringFunctions/arm_fir_interpolate_init_q31.c ****  */
  64:DSP/Source/FilteringFunctions/arm_fir_interpolate_init_q31.c **** 
  65:DSP/Source/FilteringFunctions/arm_fir_interpolate_init_q31.c **** arm_status arm_fir_interpolate_init_q31(
  66:DSP/Source/FilteringFunctions/arm_fir_interpolate_init_q31.c ****   arm_fir_interpolate_instance_q31 * S,
  67:DSP/Source/FilteringFunctions/arm_fir_interpolate_init_q31.c ****   uint8_t L,
  68:DSP/Source/FilteringFunctions/arm_fir_interpolate_init_q31.c ****   uint16_t numTaps,
  69:DSP/Source/FilteringFunctions/arm_fir_interpolate_init_q31.c ****   q31_t * pCoeffs,
  70:DSP/Source/FilteringFunctions/arm_fir_interpolate_init_q31.c ****   q31_t * pState,
  71:DSP/Source/FilteringFunctions/arm_fir_interpolate_init_q31.c ****   uint32_t blockSize)
  72:DSP/Source/FilteringFunctions/arm_fir_interpolate_init_q31.c **** {
  30              		.loc 1 72 1 view -0
  31              		.cfi_startproc
  32              		@ args = 8, pretend = 0, frame = 0
  33              		@ frame_needed = 0, uses_anonymous_args = 0
  34              		.loc 1 72 1 is_stmt 0 view .LVU1
  35 0000 38B5     		push	{r3, r4, r5, lr}
  36              	.LCFI0:
  37              		.cfi_def_cfa_offset 16
  38              		.cfi_offset 3, -16
  39              		.cfi_offset 4, -12
  40              		.cfi_offset 5, -8
  41              		.cfi_offset 14, -4
  42 0002 0446     		mov	r4, r0
  43 0004 049D     		ldr	r5, [sp, #16]
ARM GAS  /var/folders/ck/g3dcd5x55xs4107jgdl0snvr0000gn/T//ccw7oLz4.s 			page 3


  73:DSP/Source/FilteringFunctions/arm_fir_interpolate_init_q31.c ****   arm_status status;
  44              		.loc 1 73 3 is_stmt 1 view .LVU2
  74:DSP/Source/FilteringFunctions/arm_fir_interpolate_init_q31.c **** 
  75:DSP/Source/FilteringFunctions/arm_fir_interpolate_init_q31.c ****   /* The filter length must be a multiple of the interpolation factor */
  76:DSP/Source/FilteringFunctions/arm_fir_interpolate_init_q31.c ****   if ((numTaps % L) != 0U)
  45              		.loc 1 76 3 view .LVU3
  46              		.loc 1 76 16 is_stmt 0 view .LVU4
  47 0006 92FBF1F0 		sdiv	r0, r2, r1
  48              	.LVL1:
  49              		.loc 1 76 16 view .LVU5
  50 000a 01FB1020 		mls	r0, r1, r0, r2
  51              		.loc 1 76 6 view .LVU6
  52 000e 78B9     		cbnz	r0, .L3
  77:DSP/Source/FilteringFunctions/arm_fir_interpolate_init_q31.c ****   {
  78:DSP/Source/FilteringFunctions/arm_fir_interpolate_init_q31.c ****     /* Set status as ARM_MATH_LENGTH_ERROR */
  79:DSP/Source/FilteringFunctions/arm_fir_interpolate_init_q31.c ****     status = ARM_MATH_LENGTH_ERROR;
  80:DSP/Source/FilteringFunctions/arm_fir_interpolate_init_q31.c ****   }
  81:DSP/Source/FilteringFunctions/arm_fir_interpolate_init_q31.c ****   else
  82:DSP/Source/FilteringFunctions/arm_fir_interpolate_init_q31.c ****   {
  83:DSP/Source/FilteringFunctions/arm_fir_interpolate_init_q31.c **** 
  84:DSP/Source/FilteringFunctions/arm_fir_interpolate_init_q31.c ****     /* Assign coefficient pointer */
  85:DSP/Source/FilteringFunctions/arm_fir_interpolate_init_q31.c ****     S->pCoeffs = pCoeffs;
  53              		.loc 1 85 5 is_stmt 1 view .LVU7
  54              		.loc 1 85 16 is_stmt 0 view .LVU8
  55 0010 6360     		str	r3, [r4, #4]
  86:DSP/Source/FilteringFunctions/arm_fir_interpolate_init_q31.c **** 
  87:DSP/Source/FilteringFunctions/arm_fir_interpolate_init_q31.c ****     /* Assign Interpolation factor */
  88:DSP/Source/FilteringFunctions/arm_fir_interpolate_init_q31.c ****     S->L = L;
  56              		.loc 1 88 5 is_stmt 1 view .LVU9
  57              		.loc 1 88 10 is_stmt 0 view .LVU10
  58 0012 2170     		strb	r1, [r4]
  89:DSP/Source/FilteringFunctions/arm_fir_interpolate_init_q31.c **** 
  90:DSP/Source/FilteringFunctions/arm_fir_interpolate_init_q31.c ****     /* Assign polyPhaseLength */
  91:DSP/Source/FilteringFunctions/arm_fir_interpolate_init_q31.c ****     S->phaseLength = numTaps / L;
  59              		.loc 1 91 5 is_stmt 1 view .LVU11
  60              		.loc 1 91 30 is_stmt 0 view .LVU12
  61 0014 92FBF1F2 		sdiv	r2, r2, r1
  62              	.LVL2:
  63              		.loc 1 91 20 view .LVU13
  64 0018 6280     		strh	r2, [r4, #2]	@ movhi
  92:DSP/Source/FilteringFunctions/arm_fir_interpolate_init_q31.c **** 
  93:DSP/Source/FilteringFunctions/arm_fir_interpolate_init_q31.c ****     /* Clear state buffer and size of buffer is always phaseLength + blockSize - 1 */
  94:DSP/Source/FilteringFunctions/arm_fir_interpolate_init_q31.c ****     memset(pState, 0,
  65              		.loc 1 94 5 is_stmt 1 view .LVU14
  95:DSP/Source/FilteringFunctions/arm_fir_interpolate_init_q31.c ****            (blockSize + ((uint32_t) S->phaseLength - 1U)) * sizeof(q31_t));
  66              		.loc 1 95 23 is_stmt 0 view .LVU15
  67 001a 059B     		ldr	r3, [sp, #20]
  68              	.LVL3:
  69              		.loc 1 95 23 view .LVU16
  70 001c 1A44     		add	r2, r2, r3
  71 001e 013A     		subs	r2, r2, #1
  94:DSP/Source/FilteringFunctions/arm_fir_interpolate_init_q31.c ****            (blockSize + ((uint32_t) S->phaseLength - 1U)) * sizeof(q31_t));
  72              		.loc 1 94 5 view .LVU17
  73 0020 9200     		lsls	r2, r2, #2
  74 0022 0021     		movs	r1, #0
  75              	.LVL4:
  94:DSP/Source/FilteringFunctions/arm_fir_interpolate_init_q31.c ****            (blockSize + ((uint32_t) S->phaseLength - 1U)) * sizeof(q31_t));
ARM GAS  /var/folders/ck/g3dcd5x55xs4107jgdl0snvr0000gn/T//ccw7oLz4.s 			page 4


  76              		.loc 1 94 5 view .LVU18
  77 0024 2846     		mov	r0, r5
  78 0026 FFF7FEFF 		bl	memset
  79              	.LVL5:
  96:DSP/Source/FilteringFunctions/arm_fir_interpolate_init_q31.c **** 
  97:DSP/Source/FilteringFunctions/arm_fir_interpolate_init_q31.c ****     /* Assign state pointer */
  98:DSP/Source/FilteringFunctions/arm_fir_interpolate_init_q31.c ****     S->pState = pState;
  80              		.loc 1 98 5 is_stmt 1 view .LVU19
  81              		.loc 1 98 15 is_stmt 0 view .LVU20
  82 002a A560     		str	r5, [r4, #8]
  99:DSP/Source/FilteringFunctions/arm_fir_interpolate_init_q31.c **** 
 100:DSP/Source/FilteringFunctions/arm_fir_interpolate_init_q31.c ****     status = ARM_MATH_SUCCESS;
  83              		.loc 1 100 5 is_stmt 1 view .LVU21
  84              	.LVL6:
  85              		.loc 1 100 12 is_stmt 0 view .LVU22
  86 002c 0020     		movs	r0, #0
  87              	.LVL7:
  88              	.L2:
 101:DSP/Source/FilteringFunctions/arm_fir_interpolate_init_q31.c ****   }
 102:DSP/Source/FilteringFunctions/arm_fir_interpolate_init_q31.c **** 
 103:DSP/Source/FilteringFunctions/arm_fir_interpolate_init_q31.c ****   return (status);
  89              		.loc 1 103 3 is_stmt 1 view .LVU23
 104:DSP/Source/FilteringFunctions/arm_fir_interpolate_init_q31.c **** 
 105:DSP/Source/FilteringFunctions/arm_fir_interpolate_init_q31.c **** }
  90              		.loc 1 105 1 is_stmt 0 view .LVU24
  91 002e 38BD     		pop	{r3, r4, r5, pc}
  92              	.LVL8:
  93              	.L3:
  79:DSP/Source/FilteringFunctions/arm_fir_interpolate_init_q31.c ****   }
  94              		.loc 1 79 12 view .LVU25
  95 0030 6FF00100 		mvn	r0, #1
  96 0034 FBE7     		b	.L2
  97              		.cfi_endproc
  98              	.LFE139:
 100              		.text
 101              	.Letext0:
 102              		.file 2 "/Users/luban/.local/xPacks/arm-none-eabi-gcc/xpack-arm-none-eabi-gcc-13.2.1-1.1/arm-none-
 103              		.file 3 "/Users/luban/.local/xPacks/arm-none-eabi-gcc/xpack-arm-none-eabi-gcc-13.2.1-1.1/arm-none-
 104              		.file 4 "/Users/luban/.local/xPacks/arm-none-eabi-gcc/xpack-arm-none-eabi-gcc-13.2.1-1.1/lib/gcc/a
 105              		.file 5 "DSP/Inc/arm_math.h"
 106              		.file 6 "/Users/luban/.local/xPacks/arm-none-eabi-gcc/xpack-arm-none-eabi-gcc-13.2.1-1.1/arm-none-
 107              		.file 7 "<built-in>"
ARM GAS  /var/folders/ck/g3dcd5x55xs4107jgdl0snvr0000gn/T//ccw7oLz4.s 			page 5

