ARM GAS  /var/folders/ck/g3dcd5x55xs4107jgdl0snvr0000gn/T//cct7wkTD.s 			page 1


   1              		.cpu cortex-m4
   2              		.arch armv7e-m
   3              		.fpu fpv4-sp-d16
   4              		.eabi_attribute 27, 1
   5              		.eabi_attribute 28, 1
   6              		.eabi_attribute 20, 1
   7              		.eabi_attribute 21, 1
   8              		.eabi_attribute 23, 3
   9              		.eabi_attribute 24, 1
  10              		.eabi_attribute 25, 1
  11              		.eabi_attribute 26, 1
  12              		.eabi_attribute 30, 1
  13              		.eabi_attribute 34, 1
  14              		.eabi_attribute 18, 4
  15              		.file	"arm_biquad_cascade_df1_fast_q31.c"
  16              		.text
  17              	.Ltext0:
  18              		.cfi_sections	.debug_frame
  19              		.file 1 "DSP/Source/FilteringFunctions/arm_biquad_cascade_df1_fast_q31.c"
  20              		.section	.text.arm_biquad_cascade_df1_fast_q31,"ax",%progbits
  21              		.align	1
  22              		.global	arm_biquad_cascade_df1_fast_q31
  23              		.syntax unified
  24              		.thumb
  25              		.thumb_func
  27              	arm_biquad_cascade_df1_fast_q31:
  28              	.LVL0:
  29              	.LFB139:
   1:DSP/Source/FilteringFunctions/arm_biquad_cascade_df1_fast_q31.c **** /* ----------------------------------------------------------------------
   2:DSP/Source/FilteringFunctions/arm_biquad_cascade_df1_fast_q31.c ****  * Project:      CMSIS DSP Library
   3:DSP/Source/FilteringFunctions/arm_biquad_cascade_df1_fast_q31.c ****  * Title:        arm_biquad_cascade_df1_fast_q31.c
   4:DSP/Source/FilteringFunctions/arm_biquad_cascade_df1_fast_q31.c ****  * Description:  Processing function for the Q31 Fast Biquad cascade DirectFormI(DF1) filter
   5:DSP/Source/FilteringFunctions/arm_biquad_cascade_df1_fast_q31.c ****  *
   6:DSP/Source/FilteringFunctions/arm_biquad_cascade_df1_fast_q31.c ****  * $Date:        27. January 2017
   7:DSP/Source/FilteringFunctions/arm_biquad_cascade_df1_fast_q31.c ****  * $Revision:    V.1.5.1
   8:DSP/Source/FilteringFunctions/arm_biquad_cascade_df1_fast_q31.c ****  *
   9:DSP/Source/FilteringFunctions/arm_biquad_cascade_df1_fast_q31.c ****  * Target Processor: Cortex-M cores
  10:DSP/Source/FilteringFunctions/arm_biquad_cascade_df1_fast_q31.c ****  * -------------------------------------------------------------------- */
  11:DSP/Source/FilteringFunctions/arm_biquad_cascade_df1_fast_q31.c **** /*
  12:DSP/Source/FilteringFunctions/arm_biquad_cascade_df1_fast_q31.c ****  * Copyright (C) 2010-2017 ARM Limited or its affiliates. All rights reserved.
  13:DSP/Source/FilteringFunctions/arm_biquad_cascade_df1_fast_q31.c ****  *
  14:DSP/Source/FilteringFunctions/arm_biquad_cascade_df1_fast_q31.c ****  * SPDX-License-Identifier: Apache-2.0
  15:DSP/Source/FilteringFunctions/arm_biquad_cascade_df1_fast_q31.c ****  *
  16:DSP/Source/FilteringFunctions/arm_biquad_cascade_df1_fast_q31.c ****  * Licensed under the Apache License, Version 2.0 (the License); you may
  17:DSP/Source/FilteringFunctions/arm_biquad_cascade_df1_fast_q31.c ****  * not use this file except in compliance with the License.
  18:DSP/Source/FilteringFunctions/arm_biquad_cascade_df1_fast_q31.c ****  * You may obtain a copy of the License at
  19:DSP/Source/FilteringFunctions/arm_biquad_cascade_df1_fast_q31.c ****  *
  20:DSP/Source/FilteringFunctions/arm_biquad_cascade_df1_fast_q31.c ****  * www.apache.org/licenses/LICENSE-2.0
  21:DSP/Source/FilteringFunctions/arm_biquad_cascade_df1_fast_q31.c ****  *
  22:DSP/Source/FilteringFunctions/arm_biquad_cascade_df1_fast_q31.c ****  * Unless required by applicable law or agreed to in writing, software
  23:DSP/Source/FilteringFunctions/arm_biquad_cascade_df1_fast_q31.c ****  * distributed under the License is distributed on an AS IS BASIS, WITHOUT
  24:DSP/Source/FilteringFunctions/arm_biquad_cascade_df1_fast_q31.c ****  * WARRANTIES OR CONDITIONS OF ANY KIND, either express or implied.
  25:DSP/Source/FilteringFunctions/arm_biquad_cascade_df1_fast_q31.c ****  * See the License for the specific language governing permissions and
  26:DSP/Source/FilteringFunctions/arm_biquad_cascade_df1_fast_q31.c ****  * limitations under the License.
  27:DSP/Source/FilteringFunctions/arm_biquad_cascade_df1_fast_q31.c ****  */
  28:DSP/Source/FilteringFunctions/arm_biquad_cascade_df1_fast_q31.c **** 
  29:DSP/Source/FilteringFunctions/arm_biquad_cascade_df1_fast_q31.c **** #include "arm_math.h"
ARM GAS  /var/folders/ck/g3dcd5x55xs4107jgdl0snvr0000gn/T//cct7wkTD.s 			page 2


  30:DSP/Source/FilteringFunctions/arm_biquad_cascade_df1_fast_q31.c **** 
  31:DSP/Source/FilteringFunctions/arm_biquad_cascade_df1_fast_q31.c **** /**
  32:DSP/Source/FilteringFunctions/arm_biquad_cascade_df1_fast_q31.c ****  * @ingroup groupFilters
  33:DSP/Source/FilteringFunctions/arm_biquad_cascade_df1_fast_q31.c ****  */
  34:DSP/Source/FilteringFunctions/arm_biquad_cascade_df1_fast_q31.c **** 
  35:DSP/Source/FilteringFunctions/arm_biquad_cascade_df1_fast_q31.c **** /**
  36:DSP/Source/FilteringFunctions/arm_biquad_cascade_df1_fast_q31.c ****  * @addtogroup BiquadCascadeDF1
  37:DSP/Source/FilteringFunctions/arm_biquad_cascade_df1_fast_q31.c ****  * @{
  38:DSP/Source/FilteringFunctions/arm_biquad_cascade_df1_fast_q31.c ****  */
  39:DSP/Source/FilteringFunctions/arm_biquad_cascade_df1_fast_q31.c **** 
  40:DSP/Source/FilteringFunctions/arm_biquad_cascade_df1_fast_q31.c **** /**
  41:DSP/Source/FilteringFunctions/arm_biquad_cascade_df1_fast_q31.c ****  * @details
  42:DSP/Source/FilteringFunctions/arm_biquad_cascade_df1_fast_q31.c ****  *
  43:DSP/Source/FilteringFunctions/arm_biquad_cascade_df1_fast_q31.c ****  * @param[in]  *S        points to an instance of the Q31 Biquad cascade structure.
  44:DSP/Source/FilteringFunctions/arm_biquad_cascade_df1_fast_q31.c ****  * @param[in]  *pSrc     points to the block of input data.
  45:DSP/Source/FilteringFunctions/arm_biquad_cascade_df1_fast_q31.c ****  * @param[out] *pDst     points to the block of output data.
  46:DSP/Source/FilteringFunctions/arm_biquad_cascade_df1_fast_q31.c ****  * @param[in]  blockSize number of samples to process per call.
  47:DSP/Source/FilteringFunctions/arm_biquad_cascade_df1_fast_q31.c ****  * @return     none.
  48:DSP/Source/FilteringFunctions/arm_biquad_cascade_df1_fast_q31.c ****  *
  49:DSP/Source/FilteringFunctions/arm_biquad_cascade_df1_fast_q31.c ****  * <b>Scaling and Overflow Behavior:</b>
  50:DSP/Source/FilteringFunctions/arm_biquad_cascade_df1_fast_q31.c ****  * \par
  51:DSP/Source/FilteringFunctions/arm_biquad_cascade_df1_fast_q31.c ****  * This function is optimized for speed at the expense of fixed-point precision and overflow protec
  52:DSP/Source/FilteringFunctions/arm_biquad_cascade_df1_fast_q31.c ****  * The result of each 1.31 x 1.31 multiplication is truncated to 2.30 format.
  53:DSP/Source/FilteringFunctions/arm_biquad_cascade_df1_fast_q31.c ****  * These intermediate results are added to a 2.30 accumulator.
  54:DSP/Source/FilteringFunctions/arm_biquad_cascade_df1_fast_q31.c ****  * Finally, the accumulator is saturated and converted to a 1.31 result.
  55:DSP/Source/FilteringFunctions/arm_biquad_cascade_df1_fast_q31.c ****  * The fast version has the same overflow behavior as the standard version and provides less precis
  56:DSP/Source/FilteringFunctions/arm_biquad_cascade_df1_fast_q31.c ****  * In order to avoid overflows completely the input signal must be scaled down by two bits and lie 
  57:DSP/Source/FilteringFunctions/arm_biquad_cascade_df1_fast_q31.c ****  * arm_biquad_cascade_df1_init_q31() to initialize filter structure.
  58:DSP/Source/FilteringFunctions/arm_biquad_cascade_df1_fast_q31.c ****  *
  59:DSP/Source/FilteringFunctions/arm_biquad_cascade_df1_fast_q31.c ****  * \par
  60:DSP/Source/FilteringFunctions/arm_biquad_cascade_df1_fast_q31.c ****  * Refer to the function <code>arm_biquad_cascade_df1_q31()</code> for a slower implementation of t
  61:DSP/Source/FilteringFunctions/arm_biquad_cascade_df1_fast_q31.c ****  * Use the function <code>arm_biquad_cascade_df1_init_q31()</code> to initialize the filter structu
  62:DSP/Source/FilteringFunctions/arm_biquad_cascade_df1_fast_q31.c ****  */
  63:DSP/Source/FilteringFunctions/arm_biquad_cascade_df1_fast_q31.c **** 
  64:DSP/Source/FilteringFunctions/arm_biquad_cascade_df1_fast_q31.c **** void arm_biquad_cascade_df1_fast_q31(
  65:DSP/Source/FilteringFunctions/arm_biquad_cascade_df1_fast_q31.c ****   const arm_biquad_casd_df1_inst_q31 * S,
  66:DSP/Source/FilteringFunctions/arm_biquad_cascade_df1_fast_q31.c ****   q31_t * pSrc,
  67:DSP/Source/FilteringFunctions/arm_biquad_cascade_df1_fast_q31.c ****   q31_t * pDst,
  68:DSP/Source/FilteringFunctions/arm_biquad_cascade_df1_fast_q31.c ****   uint32_t blockSize)
  69:DSP/Source/FilteringFunctions/arm_biquad_cascade_df1_fast_q31.c **** {
  30              		.loc 1 69 1 view -0
  31              		.cfi_startproc
  32              		@ args = 0, pretend = 0, frame = 88
  33              		@ frame_needed = 0, uses_anonymous_args = 0
  34              		.loc 1 69 1 is_stmt 0 view .LVU1
  35 0000 2DE9F04F 		push	{r4, r5, r6, r7, r8, r9, r10, fp, lr}
  36              	.LCFI0:
  37              		.cfi_def_cfa_offset 36
  38              		.cfi_offset 4, -36
  39              		.cfi_offset 5, -32
  40              		.cfi_offset 6, -28
  41              		.cfi_offset 7, -24
  42              		.cfi_offset 8, -20
  43              		.cfi_offset 9, -16
  44              		.cfi_offset 10, -12
  45              		.cfi_offset 11, -8
  46              		.cfi_offset 14, -4
ARM GAS  /var/folders/ck/g3dcd5x55xs4107jgdl0snvr0000gn/T//cct7wkTD.s 			page 3


  47 0004 97B0     		sub	sp, sp, #92
  48              	.LCFI1:
  49              		.cfi_def_cfa_offset 128
  50 0006 0591     		str	r1, [sp, #20]
  51 0008 1592     		str	r2, [sp, #84]
  52 000a 9946     		mov	r9, r3
  70:DSP/Source/FilteringFunctions/arm_biquad_cascade_df1_fast_q31.c ****   q31_t acc = 0;                                 /*  accumulator                   */
  53              		.loc 1 70 3 is_stmt 1 view .LVU2
  54              	.LVL1:
  71:DSP/Source/FilteringFunctions/arm_biquad_cascade_df1_fast_q31.c ****   q31_t Xn1, Xn2, Yn1, Yn2;                      /*  Filter state variables        */
  55              		.loc 1 71 3 view .LVU3
  72:DSP/Source/FilteringFunctions/arm_biquad_cascade_df1_fast_q31.c ****   q31_t b0, b1, b2, a1, a2;                      /*  Filter coefficients           */
  56              		.loc 1 72 3 view .LVU4
  73:DSP/Source/FilteringFunctions/arm_biquad_cascade_df1_fast_q31.c ****   q31_t *pIn = pSrc;                             /*  input pointer initialization  */
  57              		.loc 1 73 3 view .LVU5
  74:DSP/Source/FilteringFunctions/arm_biquad_cascade_df1_fast_q31.c ****   q31_t *pOut = pDst;                            /*  output pointer initialization */
  58              		.loc 1 74 3 view .LVU6
  75:DSP/Source/FilteringFunctions/arm_biquad_cascade_df1_fast_q31.c ****   q31_t *pState = S->pState;                     /*  pState pointer initialization */
  59              		.loc 1 75 3 view .LVU7
  60              		.loc 1 75 10 is_stmt 0 view .LVU8
  61 000c 4368     		ldr	r3, [r0, #4]
  62              	.LVL2:
  76:DSP/Source/FilteringFunctions/arm_biquad_cascade_df1_fast_q31.c ****   q31_t *pCoeffs = S->pCoeffs;                   /*  coeff pointer initialization  */
  63              		.loc 1 76 3 is_stmt 1 view .LVU9
  64              		.loc 1 76 10 is_stmt 0 view .LVU10
  65 000e D0F808B0 		ldr	fp, [r0, #8]
  66              	.LVL3:
  77:DSP/Source/FilteringFunctions/arm_biquad_cascade_df1_fast_q31.c ****   q31_t Xn;                                      /*  temporary input               */
  67              		.loc 1 77 3 is_stmt 1 view .LVU11
  78:DSP/Source/FilteringFunctions/arm_biquad_cascade_df1_fast_q31.c ****   int32_t shift = (int32_t) S->postShift + 1;    /*  Shift to be applied to the output */
  68              		.loc 1 78 3 view .LVU12
  69              		.loc 1 78 30 is_stmt 0 view .LVU13
  70 0012 027B     		ldrb	r2, [r0, #12]	@ zero_extendqisi2
  71              	.LVL4:
  72              		.loc 1 78 11 view .LVU14
  73 0014 0132     		adds	r2, r2, #1
  74 0016 0692     		str	r2, [sp, #24]
  75              	.LVL5:
  79:DSP/Source/FilteringFunctions/arm_biquad_cascade_df1_fast_q31.c ****   uint32_t sample, stage = S->numStages;         /*  loop counters                     */
  76              		.loc 1 79 3 is_stmt 1 view .LVU15
  77              		.loc 1 79 20 is_stmt 0 view .LVU16
  78 0018 D0F80080 		ldr	r8, [r0]
  79              	.LVL6:
  80              		.loc 1 79 20 view .LVU17
  81 001c 5A46     		mov	r2, fp
  82              	.LVL7:
  83              		.loc 1 79 20 view .LVU18
  84 001e CDF84480 		str	r8, [sp, #68]
  85 0022 CDF84890 		str	r9, [sp, #72]
  86 0026 DBE1     		b	.L6
  87              	.LVL8:
  88              	.L3:
  80:DSP/Source/FilteringFunctions/arm_biquad_cascade_df1_fast_q31.c **** 
  81:DSP/Source/FilteringFunctions/arm_biquad_cascade_df1_fast_q31.c **** 
  82:DSP/Source/FilteringFunctions/arm_biquad_cascade_df1_fast_q31.c ****   do
  83:DSP/Source/FilteringFunctions/arm_biquad_cascade_df1_fast_q31.c ****   {
  84:DSP/Source/FilteringFunctions/arm_biquad_cascade_df1_fast_q31.c ****     /* Reading the coefficients */
ARM GAS  /var/folders/ck/g3dcd5x55xs4107jgdl0snvr0000gn/T//cct7wkTD.s 			page 4


  85:DSP/Source/FilteringFunctions/arm_biquad_cascade_df1_fast_q31.c ****     b0 = *pCoeffs++;
  86:DSP/Source/FilteringFunctions/arm_biquad_cascade_df1_fast_q31.c ****     b1 = *pCoeffs++;
  87:DSP/Source/FilteringFunctions/arm_biquad_cascade_df1_fast_q31.c ****     b2 = *pCoeffs++;
  88:DSP/Source/FilteringFunctions/arm_biquad_cascade_df1_fast_q31.c ****     a1 = *pCoeffs++;
  89:DSP/Source/FilteringFunctions/arm_biquad_cascade_df1_fast_q31.c ****     a2 = *pCoeffs++;
  90:DSP/Source/FilteringFunctions/arm_biquad_cascade_df1_fast_q31.c **** 
  91:DSP/Source/FilteringFunctions/arm_biquad_cascade_df1_fast_q31.c ****     /* Reading the state values */
  92:DSP/Source/FilteringFunctions/arm_biquad_cascade_df1_fast_q31.c ****     Xn1 = pState[0];
  93:DSP/Source/FilteringFunctions/arm_biquad_cascade_df1_fast_q31.c ****     Xn2 = pState[1];
  94:DSP/Source/FilteringFunctions/arm_biquad_cascade_df1_fast_q31.c ****     Yn1 = pState[2];
  95:DSP/Source/FilteringFunctions/arm_biquad_cascade_df1_fast_q31.c ****     Yn2 = pState[3];
  96:DSP/Source/FilteringFunctions/arm_biquad_cascade_df1_fast_q31.c **** 
  97:DSP/Source/FilteringFunctions/arm_biquad_cascade_df1_fast_q31.c ****     /* Apply loop unrolling and compute 4 output values simultaneously. */
  98:DSP/Source/FilteringFunctions/arm_biquad_cascade_df1_fast_q31.c ****     /*      The variables acc ... acc3 hold output values that are being computed:
  99:DSP/Source/FilteringFunctions/arm_biquad_cascade_df1_fast_q31.c ****      *
 100:DSP/Source/FilteringFunctions/arm_biquad_cascade_df1_fast_q31.c ****      *    acc =  b0 * x[n] + b1 * x[n-1] + b2 * x[n-2] + a1 * y[n-1] + a2 * y[n-2]
 101:DSP/Source/FilteringFunctions/arm_biquad_cascade_df1_fast_q31.c ****      */
 102:DSP/Source/FilteringFunctions/arm_biquad_cascade_df1_fast_q31.c **** 
 103:DSP/Source/FilteringFunctions/arm_biquad_cascade_df1_fast_q31.c ****     sample = blockSize >> 2U;
 104:DSP/Source/FilteringFunctions/arm_biquad_cascade_df1_fast_q31.c **** 
 105:DSP/Source/FilteringFunctions/arm_biquad_cascade_df1_fast_q31.c ****     /* First part of the processing with loop unrolling.  Compute 4 outputs at a time.
 106:DSP/Source/FilteringFunctions/arm_biquad_cascade_df1_fast_q31.c ****      ** a second loop below computes the remaining 1 to 3 samples. */
 107:DSP/Source/FilteringFunctions/arm_biquad_cascade_df1_fast_q31.c ****     while (sample > 0U)
 108:DSP/Source/FilteringFunctions/arm_biquad_cascade_df1_fast_q31.c ****     {
 109:DSP/Source/FilteringFunctions/arm_biquad_cascade_df1_fast_q31.c ****       /* Read the input */
 110:DSP/Source/FilteringFunctions/arm_biquad_cascade_df1_fast_q31.c ****       Xn = *pIn;
  89              		.loc 1 110 7 is_stmt 1 view .LVU19
  90              		.loc 1 110 10 is_stmt 0 view .LVU20
  91 0028 059B     		ldr	r3, [sp, #20]
  92              	.LVL9:
  93              		.loc 1 110 10 view .LVU21
  94 002a 1D68     		ldr	r5, [r3]
  95              	.LVL10:
 111:DSP/Source/FilteringFunctions/arm_biquad_cascade_df1_fast_q31.c **** 
 112:DSP/Source/FilteringFunctions/arm_biquad_cascade_df1_fast_q31.c ****       /* acc =  b0 * x[n] + b1 * x[n-1] + b2 * x[n-2] + a1 * y[n-1] + a2 * y[n-2] */
 113:DSP/Source/FilteringFunctions/arm_biquad_cascade_df1_fast_q31.c ****       /* acc =  b0 * x[n] */
 114:DSP/Source/FilteringFunctions/arm_biquad_cascade_df1_fast_q31.c ****       /*acc = (q31_t) (((q63_t) b1 * Xn1) >> 32);*/
 115:DSP/Source/FilteringFunctions/arm_biquad_cascade_df1_fast_q31.c ****       mult_32x32_keep32_R(acc, b1, Xn1);
  96              		.loc 1 115 7 is_stmt 1 view .LVU22
  97 002c 4FEAEC73 		asr	r3, ip, #31
  98 0030 4FEAE87B 		asr	fp, r8, #31
  99 0034 0CFB0BF7 		mul	r7, ip, fp
 100 0038 0993     		str	r3, [sp, #36]
 101 003a 08FB0377 		mla	r7, r8, r3, r7
 102 003e ACFB0834 		umull	r3, r4, ip, r8
 103 0042 13F10043 		adds	r3, r3, #-2147483648
 104 0046 47EB0407 		adc	r7, r7, r4
 105              	.LVL11:
 116:DSP/Source/FilteringFunctions/arm_biquad_cascade_df1_fast_q31.c ****       /* acc +=  b1 * x[n-1] */
 117:DSP/Source/FilteringFunctions/arm_biquad_cascade_df1_fast_q31.c ****       /*acc = (q31_t) ((((q63_t) acc << 32) + ((q63_t) b0 * (Xn))) >> 32);*/
 118:DSP/Source/FilteringFunctions/arm_biquad_cascade_df1_fast_q31.c ****       multAcc_32x32_keep32_R(acc, b0, Xn);
 106              		.loc 1 118 7 view .LVU23
 107 004a 0023     		movs	r3, #0
 108 004c 4FEAEE74 		asr	r4, lr, #31
 109 0050 EA17     		asrs	r2, r5, #31
 110 0052 0F92     		str	r2, [sp, #60]
 111 0054 0EFB02F9 		mul	r9, lr, r2
ARM GAS  /var/folders/ck/g3dcd5x55xs4107jgdl0snvr0000gn/T//cct7wkTD.s 			page 5


 112 0058 A246     		mov	r10, r4
 113 005a 05FB0499 		mla	r9, r5, r4, r9
 114 005e 0795     		str	r5, [sp, #28]
 115 0060 AEFB0545 		umull	r4, r5, lr, r5
 116              	.LVL12:
 117              		.loc 1 118 7 is_stmt 0 view .LVU24
 118 0064 4D44     		add	r5, r5, r9
 119 0066 1C19     		adds	r4, r3, r4
 120 0068 14F10044 		adds	r4, r4, #-2147483648
 121 006c 45EB0705 		adc	r5, r5, r7
 119:DSP/Source/FilteringFunctions/arm_biquad_cascade_df1_fast_q31.c ****       /* acc +=  b[2] * x[n-2] */
 120:DSP/Source/FilteringFunctions/arm_biquad_cascade_df1_fast_q31.c ****       /*acc = (q31_t) ((((q63_t) acc << 32) + ((q63_t) b2 * (Xn2))) >> 32);*/
 121:DSP/Source/FilteringFunctions/arm_biquad_cascade_df1_fast_q31.c ****       multAcc_32x32_keep32_R(acc, b2, Xn2);
 122              		.loc 1 121 7 is_stmt 1 view .LVU25
 123 0070 019C     		ldr	r4, [sp, #4]
 124 0072 E417     		asrs	r4, r4, #31
 125 0074 C717     		asrs	r7, r0, #31
 126 0076 0A94     		str	r4, [sp, #40]
 127 0078 00FB04F4 		mul	r4, r0, r4
 128 007c 019A     		ldr	r2, [sp, #4]
 129 007e 02FB0744 		mla	r4, r2, r7, r4
 130 0082 A0FB0207 		umull	r0, r7, r0, r2
 131              	.LVL13:
 132              		.loc 1 121 7 is_stmt 0 view .LVU26
 133 0086 2744     		add	r7, r7, r4
 134 0088 1818     		adds	r0, r3, r0
 135 008a 10F10040 		adds	r0, r0, #-2147483648
 136 008e 47EB0505 		adc	r5, r7, r5
 122:DSP/Source/FilteringFunctions/arm_biquad_cascade_df1_fast_q31.c ****       /* acc +=  a1 * y[n-1] */
 123:DSP/Source/FilteringFunctions/arm_biquad_cascade_df1_fast_q31.c ****       /*acc = (q31_t) ((((q63_t) acc << 32) + ((q63_t) a1 * (Yn1))) >> 32);*/
 124:DSP/Source/FilteringFunctions/arm_biquad_cascade_df1_fast_q31.c ****       multAcc_32x32_keep32_R(acc, a1, Yn1);
 137              		.loc 1 124 7 is_stmt 1 view .LVU27
 138 0092 029C     		ldr	r4, [sp, #8]
 139 0094 E017     		asrs	r0, r4, #31
 140 0096 F717     		asrs	r7, r6, #31
 141 0098 04FB07F9 		mul	r9, r4, r7
 142 009c 0B90     		str	r0, [sp, #44]
 143 009e 06FB0099 		mla	r9, r6, r0, r9
 144 00a2 A4FB0604 		umull	r0, r4, r4, r6
 145 00a6 4C44     		add	r4, r4, r9
 146 00a8 1818     		adds	r0, r3, r0
 147 00aa 10F10040 		adds	r0, r0, #-2147483648
 148 00ae 44EB0504 		adc	r4, r4, r5
 125:DSP/Source/FilteringFunctions/arm_biquad_cascade_df1_fast_q31.c ****       /* acc +=  a2 * y[n-2] */
 126:DSP/Source/FilteringFunctions/arm_biquad_cascade_df1_fast_q31.c ****       /*acc = (q31_t) ((((q63_t) acc << 32) + ((q63_t) a2 * (Yn2))) >> 32);*/
 127:DSP/Source/FilteringFunctions/arm_biquad_cascade_df1_fast_q31.c ****       multAcc_32x32_keep32_R(acc, a2, Yn2);
 149              		.loc 1 127 7 view .LVU28
 150 00b2 049A     		ldr	r2, [sp, #16]
 151 00b4 D017     		asrs	r0, r2, #31
 152 00b6 CD17     		asrs	r5, r1, #31
 153 00b8 0C90     		str	r0, [sp, #48]
 154 00ba 01FB00F0 		mul	r0, r1, r0
 155 00be 02FB0500 		mla	r0, r2, r5, r0
 156 00c2 A1FB0215 		umull	r1, r5, r1, r2
 157              	.LVL14:
 158              		.loc 1 127 7 is_stmt 0 view .LVU29
 159 00c6 0544     		add	r5, r5, r0
ARM GAS  /var/folders/ck/g3dcd5x55xs4107jgdl0snvr0000gn/T//cct7wkTD.s 			page 6


 160 00c8 5918     		adds	r1, r3, r1
 161 00ca 11F10041 		adds	r1, r1, #-2147483648
 162 00ce 45EB0405 		adc	r5, r5, r4
 163              	.LVL15:
 128:DSP/Source/FilteringFunctions/arm_biquad_cascade_df1_fast_q31.c **** 
 129:DSP/Source/FilteringFunctions/arm_biquad_cascade_df1_fast_q31.c ****       /* The result is converted to 1.31 , Yn2 variable is reused */
 130:DSP/Source/FilteringFunctions/arm_biquad_cascade_df1_fast_q31.c ****       Yn2 = acc << shift;
 164              		.loc 1 130 7 is_stmt 1 view .LVU30
 165              		.loc 1 130 11 is_stmt 0 view .LVU31
 166 00d2 0699     		ldr	r1, [sp, #24]
 167 00d4 05FA01F1 		lsl	r1, r5, r1
 168              	.LVL16:
 131:DSP/Source/FilteringFunctions/arm_biquad_cascade_df1_fast_q31.c **** 
 132:DSP/Source/FilteringFunctions/arm_biquad_cascade_df1_fast_q31.c ****       /* Read the second input */
 133:DSP/Source/FilteringFunctions/arm_biquad_cascade_df1_fast_q31.c ****       Xn2 = *(pIn + 1U);
 169              		.loc 1 133 7 is_stmt 1 view .LVU32
 170              		.loc 1 133 11 is_stmt 0 view .LVU33
 171 00d8 059D     		ldr	r5, [sp, #20]
 172              	.LVL17:
 173              		.loc 1 133 11 view .LVU34
 174 00da 6C68     		ldr	r4, [r5, #4]
 175              	.LVL18:
 134:DSP/Source/FilteringFunctions/arm_biquad_cascade_df1_fast_q31.c **** 
 135:DSP/Source/FilteringFunctions/arm_biquad_cascade_df1_fast_q31.c ****       /* Store the output in the destination buffer. */
 136:DSP/Source/FilteringFunctions/arm_biquad_cascade_df1_fast_q31.c ****       *pOut = Yn2;
 176              		.loc 1 136 7 is_stmt 1 view .LVU35
 177              		.loc 1 136 13 is_stmt 0 view .LVU36
 178 00dc 0398     		ldr	r0, [sp, #12]
 179 00de 0160     		str	r1, [r0]
 180              	.LVL19:
 137:DSP/Source/FilteringFunctions/arm_biquad_cascade_df1_fast_q31.c **** 
 138:DSP/Source/FilteringFunctions/arm_biquad_cascade_df1_fast_q31.c ****       /* acc =  b0 * x[n] + b1 * x[n-1] + b2 * x[n-2] + a1 * y[n-1] + a2 * y[n-2] */
 139:DSP/Source/FilteringFunctions/arm_biquad_cascade_df1_fast_q31.c ****       /* acc =  b0 * x[n] */
 140:DSP/Source/FilteringFunctions/arm_biquad_cascade_df1_fast_q31.c ****       /*acc = (q31_t) (((q63_t) b0 * (Xn2)) >> 32);*/
 141:DSP/Source/FilteringFunctions/arm_biquad_cascade_df1_fast_q31.c ****       mult_32x32_keep32_R(acc, b0, Xn2);
 181              		.loc 1 141 7 is_stmt 1 view .LVU37
 182 00e0 E517     		asrs	r5, r4, #31
 183 00e2 1095     		str	r5, [sp, #64]
 184 00e4 0EFB05F9 		mul	r9, lr, r5
 185 00e8 CDF838A0 		str	r10, [sp, #56]
 186 00ec 04FB0A99 		mla	r9, r4, r10, r9
 187 00f0 AEFB0405 		umull	r0, r5, lr, r4
 188 00f4 10F10040 		adds	r0, r0, #-2147483648
 189              		.loc 1 141 7 is_stmt 0 view .LVU38
 190 00f8 49EB0509 		adc	r9, r9, r5
 142:DSP/Source/FilteringFunctions/arm_biquad_cascade_df1_fast_q31.c ****       /* acc +=  b1 * x[n-1] */
 143:DSP/Source/FilteringFunctions/arm_biquad_cascade_df1_fast_q31.c ****       /*acc = (q31_t) ((((q63_t) acc << 32) + ((q63_t) b1 * (Xn))) >> 32);*/
 144:DSP/Source/FilteringFunctions/arm_biquad_cascade_df1_fast_q31.c ****       multAcc_32x32_keep32_R(acc, b1, Xn);
 191              		.loc 1 144 7 is_stmt 1 view .LVU39
 192 00fc 0F9D     		ldr	r5, [sp, #60]
 193 00fe 0CFB05FA 		mul	r10, ip, r5
 194 0102 099D     		ldr	r5, [sp, #36]
 195 0104 079A     		ldr	r2, [sp, #28]
 196 0106 02FB05AA 		mla	r10, r2, r5, r10
 197 010a ACFB0205 		umull	r0, r5, ip, r2
 198 010e 5544     		add	r5, r5, r10
 199 0110 1818     		adds	r0, r3, r0
ARM GAS  /var/folders/ck/g3dcd5x55xs4107jgdl0snvr0000gn/T//cct7wkTD.s 			page 7


 200 0112 10F10040 		adds	r0, r0, #-2147483648
 201 0116 45EB0905 		adc	r5, r5, r9
 145:DSP/Source/FilteringFunctions/arm_biquad_cascade_df1_fast_q31.c ****       /* acc +=  b[2] * x[n-2] */
 146:DSP/Source/FilteringFunctions/arm_biquad_cascade_df1_fast_q31.c ****       /*acc = (q31_t) ((((q63_t) acc << 32) + ((q63_t) b2 * (Xn1))) >> 32);*/
 147:DSP/Source/FilteringFunctions/arm_biquad_cascade_df1_fast_q31.c ****       multAcc_32x32_keep32_R(acc, b2, Xn1);
 202              		.loc 1 147 7 view .LVU40
 203 011a 0A98     		ldr	r0, [sp, #40]
 204 011c 08FB00F0 		mul	r0, r8, r0
 205 0120 019A     		ldr	r2, [sp, #4]
 206 0122 02FB0B00 		mla	r0, r2, fp, r0
 207 0126 A8FB0289 		umull	r8, r9, r8, r2
 208              	.LVL20:
 209              		.loc 1 147 7 is_stmt 0 view .LVU41
 210 012a 8144     		add	r9, r9, r0
 211 012c 13EB0808 		adds	r8, r3, r8
 212 0130 18F10048 		adds	r8, r8, #-2147483648
 213 0134 49EB0509 		adc	r9, r9, r5
 148:DSP/Source/FilteringFunctions/arm_biquad_cascade_df1_fast_q31.c ****       /* acc +=  a1 * y[n-1] */
 149:DSP/Source/FilteringFunctions/arm_biquad_cascade_df1_fast_q31.c ****       /*acc = (q31_t) ((((q63_t) acc << 32) + ((q63_t) a1 * (Yn2))) >> 32);*/
 150:DSP/Source/FilteringFunctions/arm_biquad_cascade_df1_fast_q31.c ****       multAcc_32x32_keep32_R(acc, a1, Yn2);
 214              		.loc 1 150 7 is_stmt 1 view .LVU42
 215 0138 4FEAE178 		asr	r8, r1, #31
 216 013c 0298     		ldr	r0, [sp, #8]
 217 013e 00FB08FA 		mul	r10, r0, r8
 218 0142 0B9D     		ldr	r5, [sp, #44]
 219 0144 01FB05AA 		mla	r10, r1, r5, r10
 220 0148 A0FB0105 		umull	r0, r5, r0, r1
 221 014c 5544     		add	r5, r5, r10
 222 014e 1818     		adds	r0, r3, r0
 223 0150 10F10040 		adds	r0, r0, #-2147483648
 224 0154 45EB0905 		adc	r5, r5, r9
 151:DSP/Source/FilteringFunctions/arm_biquad_cascade_df1_fast_q31.c ****       /* acc +=  a2 * y[n-2] */
 152:DSP/Source/FilteringFunctions/arm_biquad_cascade_df1_fast_q31.c ****       /*acc = (q31_t) ((((q63_t) acc << 32) + ((q63_t) a2 * (Yn1))) >> 32);*/
 153:DSP/Source/FilteringFunctions/arm_biquad_cascade_df1_fast_q31.c ****       multAcc_32x32_keep32_R(acc, a2, Yn1);
 225              		.loc 1 153 7 view .LVU43
 226 0158 0C98     		ldr	r0, [sp, #48]
 227 015a 06FB00F0 		mul	r0, r6, r0
 228 015e 049A     		ldr	r2, [sp, #16]
 229 0160 02FB0700 		mla	r0, r2, r7, r0
 230 0164 A6FB0267 		umull	r6, r7, r6, r2
 231              	.LVL21:
 232              		.loc 1 153 7 is_stmt 0 view .LVU44
 233 0168 0744     		add	r7, r7, r0
 234 016a 9E19     		adds	r6, r3, r6
 235 016c 16F10046 		adds	r6, r6, #-2147483648
 236 0170 47EB0507 		adc	r7, r7, r5
 237              	.LVL22:
 154:DSP/Source/FilteringFunctions/arm_biquad_cascade_df1_fast_q31.c **** 
 155:DSP/Source/FilteringFunctions/arm_biquad_cascade_df1_fast_q31.c ****       /* The result is converted to 1.31, Yn1 variable is reused  */
 156:DSP/Source/FilteringFunctions/arm_biquad_cascade_df1_fast_q31.c ****       Yn1 = acc << shift;
 238              		.loc 1 156 7 is_stmt 1 view .LVU45
 239              		.loc 1 156 11 is_stmt 0 view .LVU46
 240 0174 069E     		ldr	r6, [sp, #24]
 241 0176 07FA06F6 		lsl	r6, r7, r6
 242              	.LVL23:
 157:DSP/Source/FilteringFunctions/arm_biquad_cascade_df1_fast_q31.c **** 
 158:DSP/Source/FilteringFunctions/arm_biquad_cascade_df1_fast_q31.c ****       /* Read the third input  */
ARM GAS  /var/folders/ck/g3dcd5x55xs4107jgdl0snvr0000gn/T//cct7wkTD.s 			page 8


 159:DSP/Source/FilteringFunctions/arm_biquad_cascade_df1_fast_q31.c ****       Xn1 = *(pIn + 2U);
 243              		.loc 1 159 7 is_stmt 1 view .LVU47
 244              		.loc 1 159 11 is_stmt 0 view .LVU48
 245 017a 059F     		ldr	r7, [sp, #20]
 246              	.LVL24:
 247              		.loc 1 159 11 view .LVU49
 248 017c B868     		ldr	r0, [r7, #8]
 249              	.LVL25:
 160:DSP/Source/FilteringFunctions/arm_biquad_cascade_df1_fast_q31.c **** 
 161:DSP/Source/FilteringFunctions/arm_biquad_cascade_df1_fast_q31.c ****       /* Store the output in the destination buffer. */
 162:DSP/Source/FilteringFunctions/arm_biquad_cascade_df1_fast_q31.c ****       *(pOut + 1U) = Yn1;
 250              		.loc 1 162 7 is_stmt 1 view .LVU50
 251              		.loc 1 162 20 is_stmt 0 view .LVU51
 252 017e 039F     		ldr	r7, [sp, #12]
 253 0180 0896     		str	r6, [sp, #32]
 254 0182 7E60     		str	r6, [r7, #4]
 163:DSP/Source/FilteringFunctions/arm_biquad_cascade_df1_fast_q31.c **** 
 164:DSP/Source/FilteringFunctions/arm_biquad_cascade_df1_fast_q31.c ****       /* acc =  b0 * x[n] + b1 * x[n-1] + b2 * x[n-2] + a1 * y[n-1] + a2 * y[n-2] */
 165:DSP/Source/FilteringFunctions/arm_biquad_cascade_df1_fast_q31.c ****       /* acc =  b0 * x[n] */
 166:DSP/Source/FilteringFunctions/arm_biquad_cascade_df1_fast_q31.c ****       /*acc = (q31_t) (((q63_t) b0 * (Xn1)) >> 32);*/
 167:DSP/Source/FilteringFunctions/arm_biquad_cascade_df1_fast_q31.c ****       mult_32x32_keep32_R(acc, b0, Xn1);
 255              		.loc 1 167 7 is_stmt 1 view .LVU52
 256 0184 C717     		asrs	r7, r0, #31
 257 0186 0EFB07FA 		mul	r10, lr, r7
 258 018a 0E9D     		ldr	r5, [sp, #56]
 259 018c 00FB05AA 		mla	r10, r0, r5, r10
 260 0190 AEFB0069 		umull	r6, r9, lr, r0
 261              	.LVL26:
 262              		.loc 1 167 7 is_stmt 0 view .LVU53
 263 0194 16F10046 		adds	r6, r6, #-2147483648
 264              		.loc 1 167 7 view .LVU54
 265 0198 4AEB090A 		adc	r10, r10, r9
 168:DSP/Source/FilteringFunctions/arm_biquad_cascade_df1_fast_q31.c ****       /* acc +=  b1 * x[n-1] */
 169:DSP/Source/FilteringFunctions/arm_biquad_cascade_df1_fast_q31.c ****       /*acc = (q31_t) ((((q63_t) acc << 32) + ((q63_t) b1 * (Xn2))) >> 32);*/
 170:DSP/Source/FilteringFunctions/arm_biquad_cascade_df1_fast_q31.c ****       multAcc_32x32_keep32_R(acc, b1, Xn2);
 266              		.loc 1 170 7 is_stmt 1 view .LVU55
 267 019c 109E     		ldr	r6, [sp, #64]
 268 019e 0CFB06FB 		mul	fp, ip, r6
 269 01a2 099D     		ldr	r5, [sp, #36]
 270 01a4 04FB05BB 		mla	fp, r4, r5, fp
 271 01a8 ACFB0469 		umull	r6, r9, ip, r4
 272 01ac D944     		add	r9, r9, fp
 273 01ae 9E19     		adds	r6, r3, r6
 274 01b0 16F10046 		adds	r6, r6, #-2147483648
 275 01b4 49EB0A09 		adc	r9, r9, r10
 171:DSP/Source/FilteringFunctions/arm_biquad_cascade_df1_fast_q31.c ****       /* acc +=  b[2] * x[n-2] */
 172:DSP/Source/FilteringFunctions/arm_biquad_cascade_df1_fast_q31.c ****       /*acc = (q31_t) ((((q63_t) acc << 32) + ((q63_t) b2 * (Xn))) >> 32);*/
 173:DSP/Source/FilteringFunctions/arm_biquad_cascade_df1_fast_q31.c ****       multAcc_32x32_keep32_R(acc, b2, Xn);
 276              		.loc 1 173 7 view .LVU56
 277 01b8 0A9A     		ldr	r2, [sp, #40]
 278 01ba 079D     		ldr	r5, [sp, #28]
 279 01bc 05FB02F6 		mul	r6, r5, r2
 280 01c0 0F9D     		ldr	r5, [sp, #60]
 281 01c2 019A     		ldr	r2, [sp, #4]
 282 01c4 02FB0566 		mla	r6, r2, r5, r6
 283 01c8 079D     		ldr	r5, [sp, #28]
 284 01ca A5FB022A 		umull	r2, r10, r5, r2
ARM GAS  /var/folders/ck/g3dcd5x55xs4107jgdl0snvr0000gn/T//cct7wkTD.s 			page 9


 285 01ce B244     		add	r10, r10, r6
 286 01d0 9A18     		adds	r2, r3, r2
 287 01d2 12F10042 		adds	r2, r2, #-2147483648
 288 01d6 4AEB090A 		adc	r10, r10, r9
 174:DSP/Source/FilteringFunctions/arm_biquad_cascade_df1_fast_q31.c ****       /* acc +=  a1 * y[n-1] */
 175:DSP/Source/FilteringFunctions/arm_biquad_cascade_df1_fast_q31.c ****       /*acc = (q31_t) ((((q63_t) acc << 32) + ((q63_t) a1 * (Yn1))) >> 32);*/
 176:DSP/Source/FilteringFunctions/arm_biquad_cascade_df1_fast_q31.c ****       multAcc_32x32_keep32_R(acc, a1, Yn1);
 289              		.loc 1 176 7 view .LVU57
 290 01da 089A     		ldr	r2, [sp, #32]
 291 01dc D517     		asrs	r5, r2, #31
 292 01de 0795     		str	r5, [sp, #28]
 293              	.LVL27:
 294              		.loc 1 176 7 is_stmt 0 view .LVU58
 295 01e0 029E     		ldr	r6, [sp, #8]
 296 01e2 06FB05FB 		mul	fp, r6, r5
 297 01e6 0B9D     		ldr	r5, [sp, #44]
 298 01e8 02FB05BB 		mla	fp, r2, r5, fp
 299 01ec A6FB0269 		umull	r6, r9, r6, r2
 300 01f0 D944     		add	r9, r9, fp
 301 01f2 9E19     		adds	r6, r3, r6
 302 01f4 16F10046 		adds	r6, r6, #-2147483648
 303 01f8 49EB0A09 		adc	r9, r9, r10
 177:DSP/Source/FilteringFunctions/arm_biquad_cascade_df1_fast_q31.c ****       /* acc +=  a2 * y[n-2] */
 178:DSP/Source/FilteringFunctions/arm_biquad_cascade_df1_fast_q31.c ****       /*acc = (q31_t) ((((q63_t) acc << 32) + ((q63_t) a2 * (Yn2))) >> 32);*/
 179:DSP/Source/FilteringFunctions/arm_biquad_cascade_df1_fast_q31.c ****       multAcc_32x32_keep32_R(acc, a2, Yn2);
 304              		.loc 1 179 7 is_stmt 1 view .LVU59
 305 01fc 049A     		ldr	r2, [sp, #16]
 306 01fe 02FB08F8 		mul	r8, r2, r8
 307 0202 0C9D     		ldr	r5, [sp, #48]
 308 0204 01FB0588 		mla	r8, r1, r5, r8
 309 0208 A2FB0116 		umull	r1, r6, r2, r1
 310              	.LVL28:
 311              		.loc 1 179 7 is_stmt 0 view .LVU60
 312 020c 4644     		add	r6, r6, r8
 313 020e 5918     		adds	r1, r3, r1
 314 0210 11F10041 		adds	r1, r1, #-2147483648
 315 0214 46EB0906 		adc	r6, r6, r9
 316              	.LVL29:
 180:DSP/Source/FilteringFunctions/arm_biquad_cascade_df1_fast_q31.c **** 
 181:DSP/Source/FilteringFunctions/arm_biquad_cascade_df1_fast_q31.c ****       /* The result is converted to 1.31, Yn2 variable is reused  */
 182:DSP/Source/FilteringFunctions/arm_biquad_cascade_df1_fast_q31.c ****       Yn2 = acc << shift;
 317              		.loc 1 182 7 is_stmt 1 view .LVU61
 318              		.loc 1 182 11 is_stmt 0 view .LVU62
 319 0218 0699     		ldr	r1, [sp, #24]
 320 021a 06FA01F1 		lsl	r1, r6, r1
 321              	.LVL30:
 183:DSP/Source/FilteringFunctions/arm_biquad_cascade_df1_fast_q31.c **** 
 184:DSP/Source/FilteringFunctions/arm_biquad_cascade_df1_fast_q31.c ****       /* Read the forth input */
 185:DSP/Source/FilteringFunctions/arm_biquad_cascade_df1_fast_q31.c ****       Xn = *(pIn + 3U);
 322              		.loc 1 185 7 is_stmt 1 view .LVU63
 323              		.loc 1 185 10 is_stmt 0 view .LVU64
 324 021e 059E     		ldr	r6, [sp, #20]
 325              	.LVL31:
 326              		.loc 1 185 10 view .LVU65
 327 0220 D6F80C80 		ldr	r8, [r6, #12]
 328              	.LVL32:
 186:DSP/Source/FilteringFunctions/arm_biquad_cascade_df1_fast_q31.c **** 
ARM GAS  /var/folders/ck/g3dcd5x55xs4107jgdl0snvr0000gn/T//cct7wkTD.s 			page 10


 187:DSP/Source/FilteringFunctions/arm_biquad_cascade_df1_fast_q31.c ****       /* Store the output in the destination buffer. */
 188:DSP/Source/FilteringFunctions/arm_biquad_cascade_df1_fast_q31.c ****       *(pOut + 2U) = Yn2;
 329              		.loc 1 188 7 is_stmt 1 view .LVU66
 330              		.loc 1 188 20 is_stmt 0 view .LVU67
 331 0224 039D     		ldr	r5, [sp, #12]
 332              	.LVL33:
 333              		.loc 1 188 20 view .LVU68
 334 0226 A960     		str	r1, [r5, #8]
 189:DSP/Source/FilteringFunctions/arm_biquad_cascade_df1_fast_q31.c ****       pIn += 4U;
 335              		.loc 1 189 7 is_stmt 1 view .LVU69
 336              		.loc 1 189 11 is_stmt 0 view .LVU70
 337 0228 06F11009 		add	r9, r6, #16
 338              	.LVL34:
 339              		.loc 1 189 11 view .LVU71
 340 022c CDF81490 		str	r9, [sp, #20]
 341              	.LVL35:
 190:DSP/Source/FilteringFunctions/arm_biquad_cascade_df1_fast_q31.c **** 
 191:DSP/Source/FilteringFunctions/arm_biquad_cascade_df1_fast_q31.c ****       /* acc =  b0 * x[n] + b1 * x[n-1] + b2 * x[n-2] + a1 * y[n-1] + a2 * y[n-2] */
 192:DSP/Source/FilteringFunctions/arm_biquad_cascade_df1_fast_q31.c ****       /* acc =  b0 * x[n] */
 193:DSP/Source/FilteringFunctions/arm_biquad_cascade_df1_fast_q31.c ****       /*acc = (q31_t) (((q63_t) b0 * (Xn)) >> 32);*/
 194:DSP/Source/FilteringFunctions/arm_biquad_cascade_df1_fast_q31.c ****       mult_32x32_keep32_R(acc, b0, Xn);
 342              		.loc 1 194 7 is_stmt 1 view .LVU72
 343 0230 4FEAE879 		asr	r9, r8, #31
 344              	.LVL36:
 345              		.loc 1 194 7 is_stmt 0 view .LVU73
 346 0234 0E9E     		ldr	r6, [sp, #56]
 347 0236 08FB06F6 		mul	r6, r8, r6
 348 023a 0EFB0966 		mla	r6, lr, r9, r6
 349 023e A8FB0E9A 		umull	r9, r10, r8, lr
 350              	.LVL37:
 351              		.loc 1 194 7 view .LVU74
 352 0242 19F10049 		adds	r9, r9, #-2147483648
 353              		.loc 1 194 7 view .LVU75
 354 0246 46EB0A06 		adc	r6, r6, r10
 195:DSP/Source/FilteringFunctions/arm_biquad_cascade_df1_fast_q31.c ****       /* acc +=  b1 * x[n-1] */
 196:DSP/Source/FilteringFunctions/arm_biquad_cascade_df1_fast_q31.c ****       /*acc = (q31_t) ((((q63_t) acc << 32) + ((q63_t) b1 * (Xn1))) >> 32);*/
 197:DSP/Source/FilteringFunctions/arm_biquad_cascade_df1_fast_q31.c ****       multAcc_32x32_keep32_R(acc, b1, Xn1);
 355              		.loc 1 197 7 is_stmt 1 view .LVU76
 356 024a 0CFB07F7 		mul	r7, ip, r7
 357 024e 099D     		ldr	r5, [sp, #36]
 358 0250 00FB0577 		mla	r7, r0, r5, r7
 359 0254 ACFB009A 		umull	r9, r10, ip, r0
 360 0258 BA44     		add	r10, r10, r7
 361 025a 13EB0909 		adds	r9, r3, r9
 362 025e 19F10049 		adds	r9, r9, #-2147483648
 363 0262 4AEB060A 		adc	r10, r10, r6
 198:DSP/Source/FilteringFunctions/arm_biquad_cascade_df1_fast_q31.c ****       /* acc +=  b[2] * x[n-2] */
 199:DSP/Source/FilteringFunctions/arm_biquad_cascade_df1_fast_q31.c ****       /*acc = (q31_t) ((((q63_t) acc << 32) + ((q63_t) b2 * (Xn2))) >> 32);*/
 200:DSP/Source/FilteringFunctions/arm_biquad_cascade_df1_fast_q31.c ****       multAcc_32x32_keep32_R(acc, b2, Xn2);
 364              		.loc 1 200 7 view .LVU77
 365 0266 109D     		ldr	r5, [sp, #64]
 366 0268 019F     		ldr	r7, [sp, #4]
 367 026a 07FB05F6 		mul	r6, r7, r5
 368 026e 0A9D     		ldr	r5, [sp, #40]
 369 0270 04FB0566 		mla	r6, r4, r5, r6
 370 0274 A7FB0447 		umull	r4, r7, r7, r4
 371              	.LVL38:
ARM GAS  /var/folders/ck/g3dcd5x55xs4107jgdl0snvr0000gn/T//cct7wkTD.s 			page 11


 372              		.loc 1 200 7 is_stmt 0 view .LVU78
 373 0278 3744     		add	r7, r7, r6
 374 027a 1C19     		adds	r4, r3, r4
 375 027c 14F10044 		adds	r4, r4, #-2147483648
 376 0280 47EB0A0A 		adc	r10, r7, r10
 201:DSP/Source/FilteringFunctions/arm_biquad_cascade_df1_fast_q31.c ****       /* acc +=  a1 * y[n-1] */
 202:DSP/Source/FilteringFunctions/arm_biquad_cascade_df1_fast_q31.c ****       /*acc = (q31_t) ((((q63_t) acc << 32) + ((q63_t) a1 * (Yn2))) >> 32);*/
 203:DSP/Source/FilteringFunctions/arm_biquad_cascade_df1_fast_q31.c ****       multAcc_32x32_keep32_R(acc, a1, Yn2);
 377              		.loc 1 203 7 is_stmt 1 view .LVU79
 378 0284 CE17     		asrs	r6, r1, #31
 379 0286 0B9C     		ldr	r4, [sp, #44]
 380 0288 01FB04F4 		mul	r4, r1, r4
 381 028c 029F     		ldr	r7, [sp, #8]
 382 028e 07FB0644 		mla	r4, r7, r6, r4
 383 0292 A1FB0767 		umull	r6, r7, r1, r7
 384 0296 2744     		add	r7, r7, r4
 385 0298 9E19     		adds	r6, r3, r6
 386 029a 16F10046 		adds	r6, r6, #-2147483648
 387 029e 47EB0A07 		adc	r7, r7, r10
 204:DSP/Source/FilteringFunctions/arm_biquad_cascade_df1_fast_q31.c ****       /* acc +=  a2 * y[n-2] */
 205:DSP/Source/FilteringFunctions/arm_biquad_cascade_df1_fast_q31.c ****       /*acc = (q31_t) ((((q63_t) acc << 32) + ((q63_t) a2 * (Yn1))) >> 32);*/
 206:DSP/Source/FilteringFunctions/arm_biquad_cascade_df1_fast_q31.c ****       multAcc_32x32_keep32_R(acc, a2, Yn1);
 388              		.loc 1 206 7 view .LVU80
 389 02a2 1446     		mov	r4, r2
 390 02a4 079A     		ldr	r2, [sp, #28]
 391 02a6 04FB02F2 		mul	r2, r4, r2
 392 02aa 0C9E     		ldr	r6, [sp, #48]
 393 02ac 089D     		ldr	r5, [sp, #32]
 394 02ae 05FB0622 		mla	r2, r5, r6, r2
 395 02b2 A4FB0556 		umull	r5, r6, r4, r5
 396 02b6 3244     		add	r2, r2, r6
 397 02b8 5B19     		adds	r3, r3, r5
 398 02ba 13F10043 		adds	r3, r3, #-2147483648
 399 02be 42EB0702 		adc	r2, r2, r7
 400              	.LVL39:
 207:DSP/Source/FilteringFunctions/arm_biquad_cascade_df1_fast_q31.c **** 
 208:DSP/Source/FilteringFunctions/arm_biquad_cascade_df1_fast_q31.c ****       /* Every time after the output is computed state should be updated. */
 209:DSP/Source/FilteringFunctions/arm_biquad_cascade_df1_fast_q31.c ****       /* The states should be updated as:  */
 210:DSP/Source/FilteringFunctions/arm_biquad_cascade_df1_fast_q31.c ****       /* Xn2 = Xn1    */
 211:DSP/Source/FilteringFunctions/arm_biquad_cascade_df1_fast_q31.c ****       Xn2 = Xn1;
 401              		.loc 1 211 7 view .LVU81
 212:DSP/Source/FilteringFunctions/arm_biquad_cascade_df1_fast_q31.c **** 
 213:DSP/Source/FilteringFunctions/arm_biquad_cascade_df1_fast_q31.c ****       /* The result is converted to 1.31, Yn1 variable is reused  */
 214:DSP/Source/FilteringFunctions/arm_biquad_cascade_df1_fast_q31.c ****       Yn1 = acc << shift;
 402              		.loc 1 214 7 view .LVU82
 403              		.loc 1 214 11 is_stmt 0 view .LVU83
 404 02c2 069E     		ldr	r6, [sp, #24]
 405 02c4 02FA06F6 		lsl	r6, r2, r6
 406              	.LVL40:
 215:DSP/Source/FilteringFunctions/arm_biquad_cascade_df1_fast_q31.c **** 
 216:DSP/Source/FilteringFunctions/arm_biquad_cascade_df1_fast_q31.c ****       /* Xn1 = Xn     */
 217:DSP/Source/FilteringFunctions/arm_biquad_cascade_df1_fast_q31.c ****       Xn1 = Xn;
 407              		.loc 1 217 7 is_stmt 1 view .LVU84
 218:DSP/Source/FilteringFunctions/arm_biquad_cascade_df1_fast_q31.c **** 
 219:DSP/Source/FilteringFunctions/arm_biquad_cascade_df1_fast_q31.c ****       /* Store the output in the destination buffer. */
 220:DSP/Source/FilteringFunctions/arm_biquad_cascade_df1_fast_q31.c ****       *(pOut + 3U) = Yn1;
 408              		.loc 1 220 7 view .LVU85
ARM GAS  /var/folders/ck/g3dcd5x55xs4107jgdl0snvr0000gn/T//cct7wkTD.s 			page 12


 409              		.loc 1 220 20 is_stmt 0 view .LVU86
 410 02c8 039D     		ldr	r5, [sp, #12]
 411 02ca EE60     		str	r6, [r5, #12]
 221:DSP/Source/FilteringFunctions/arm_biquad_cascade_df1_fast_q31.c ****       pOut += 4U;
 412              		.loc 1 221 7 is_stmt 1 view .LVU87
 413              		.loc 1 221 12 is_stmt 0 view .LVU88
 414 02cc 05F11003 		add	r3, r5, #16
 415 02d0 0393     		str	r3, [sp, #12]
 416              	.LVL41:
 222:DSP/Source/FilteringFunctions/arm_biquad_cascade_df1_fast_q31.c **** 
 223:DSP/Source/FilteringFunctions/arm_biquad_cascade_df1_fast_q31.c ****       /* decrement the loop counter */
 224:DSP/Source/FilteringFunctions/arm_biquad_cascade_df1_fast_q31.c ****       sample--;
 417              		.loc 1 224 7 is_stmt 1 view .LVU89
 418              		.loc 1 224 13 is_stmt 0 view .LVU90
 419 02d2 0D9B     		ldr	r3, [sp, #52]
 420              	.LVL42:
 421              		.loc 1 224 13 view .LVU91
 422 02d4 013B     		subs	r3, r3, #1
 423 02d6 0D93     		str	r3, [sp, #52]
 424              	.LVL43:
 425              	.L2:
 107:DSP/Source/FilteringFunctions/arm_biquad_cascade_df1_fast_q31.c ****     {
 426              		.loc 1 107 19 is_stmt 1 view .LVU92
 427 02d8 0D9B     		ldr	r3, [sp, #52]
 428 02da 002B     		cmp	r3, #0
 429 02dc 7FF4A4AE 		bne	.L3
 225:DSP/Source/FilteringFunctions/arm_biquad_cascade_df1_fast_q31.c ****     }
 226:DSP/Source/FilteringFunctions/arm_biquad_cascade_df1_fast_q31.c **** 
 227:DSP/Source/FilteringFunctions/arm_biquad_cascade_df1_fast_q31.c ****     /* If the blockSize is not a multiple of 4, compute any remaining output samples here.
 228:DSP/Source/FilteringFunctions/arm_biquad_cascade_df1_fast_q31.c ****      ** No loop unrolling is used. */
 229:DSP/Source/FilteringFunctions/arm_biquad_cascade_df1_fast_q31.c ****     sample = (blockSize & 0x3U);
 430              		.loc 1 229 12 is_stmt 0 view .LVU93
 431 02e0 8B46     		mov	fp, r1
 432 02e2 139B     		ldr	r3, [sp, #76]
 433 02e4 149A     		ldr	r2, [sp, #80]
 434              		.loc 1 229 5 is_stmt 1 view .LVU94
 435              		.loc 1 229 12 is_stmt 0 view .LVU95
 436 02e6 1299     		ldr	r1, [sp, #72]
 437              	.LVL44:
 438              		.loc 1 229 12 view .LVU96
 439 02e8 01F00307 		and	r7, r1, #3
 440              	.LVL45:
 230:DSP/Source/FilteringFunctions/arm_biquad_cascade_df1_fast_q31.c **** 
 231:DSP/Source/FilteringFunctions/arm_biquad_cascade_df1_fast_q31.c ****    while (sample > 0U)
 441              		.loc 1 231 4 is_stmt 1 view .LVU97
 442 02ec B146     		mov	r9, r6
 443 02ee 0793     		str	r3, [sp, #28]
 444 02f0 0892     		str	r2, [sp, #32]
 445 02f2 0246     		mov	r2, r0
 446 02f4 DDF810A0 		ldr	r10, [sp, #16]
 447 02f8 059B     		ldr	r3, [sp, #20]
 448              		.loc 1 231 10 is_stmt 0 view .LVU98
 449 02fa 5CE0     		b	.L4
 450              	.LVL46:
 451              	.L5:
 232:DSP/Source/FilteringFunctions/arm_biquad_cascade_df1_fast_q31.c ****    {
 233:DSP/Source/FilteringFunctions/arm_biquad_cascade_df1_fast_q31.c ****       /* Read the input */
ARM GAS  /var/folders/ck/g3dcd5x55xs4107jgdl0snvr0000gn/T//cct7wkTD.s 			page 13


 234:DSP/Source/FilteringFunctions/arm_biquad_cascade_df1_fast_q31.c ****       Xn = *pIn++;
 452              		.loc 1 234 7 is_stmt 1 view .LVU99
 453              		.loc 1 234 10 is_stmt 0 view .LVU100
 454 02fc 53F8045B 		ldr	r5, [r3], #4
 455              	.LVL47:
 456              		.loc 1 234 10 view .LVU101
 457 0300 0493     		str	r3, [sp, #16]
 458              	.LVL48:
 235:DSP/Source/FilteringFunctions/arm_biquad_cascade_df1_fast_q31.c **** 
 236:DSP/Source/FilteringFunctions/arm_biquad_cascade_df1_fast_q31.c ****       /* acc =  b0 * x[n] + b1 * x[n-1] + b2 * x[n-2] + a1 * y[n-1] + a2 * y[n-2] */
 237:DSP/Source/FilteringFunctions/arm_biquad_cascade_df1_fast_q31.c ****       /* acc =  b0 * x[n] */
 238:DSP/Source/FilteringFunctions/arm_biquad_cascade_df1_fast_q31.c ****       /*acc = (q31_t) (((q63_t) b0 * (Xn)) >> 32);*/
 239:DSP/Source/FilteringFunctions/arm_biquad_cascade_df1_fast_q31.c ****       mult_32x32_keep32_R(acc, b0, Xn);
 459              		.loc 1 239 7 is_stmt 1 view .LVU102
 460 0302 4FEAEE71 		asr	r1, lr, #31
 461 0306 EB17     		asrs	r3, r5, #31
 462              	.LVL49:
 463              		.loc 1 239 7 is_stmt 0 view .LVU103
 464 0308 05FB01F1 		mul	r1, r5, r1
 465 030c 0EFB0311 		mla	r1, lr, r3, r1
 466 0310 A5FB0E30 		umull	r3, r0, r5, lr
 467 0314 13F10043 		adds	r3, r3, #-2147483648
 468 0318 41EB0001 		adc	r1, r1, r0
 469              	.LVL50:
 240:DSP/Source/FilteringFunctions/arm_biquad_cascade_df1_fast_q31.c ****       /* acc +=  b1 * x[n-1] */
 241:DSP/Source/FilteringFunctions/arm_biquad_cascade_df1_fast_q31.c ****       /*acc = (q31_t) ((((q63_t) acc << 32) + ((q63_t) b1 * (Xn1))) >> 32);*/
 242:DSP/Source/FilteringFunctions/arm_biquad_cascade_df1_fast_q31.c ****       multAcc_32x32_keep32_R(acc, b1, Xn1);
 470              		.loc 1 242 7 is_stmt 1 view .LVU104
 471 031c 0023     		movs	r3, #0
 472 031e 4FEAEC74 		asr	r4, ip, #31
 473 0322 4FEAE870 		asr	r0, r8, #31
 474 0326 08FB04F4 		mul	r4, r8, r4
 475 032a 0CFB0044 		mla	r4, ip, r0, r4
 476 032e A8FB0C06 		umull	r0, r6, r8, ip
 477 0332 2644     		add	r6, r6, r4
 478 0334 1818     		adds	r0, r3, r0
 479 0336 10F10040 		adds	r0, r0, #-2147483648
 480 033a 46EB0106 		adc	r6, r6, r1
 243:DSP/Source/FilteringFunctions/arm_biquad_cascade_df1_fast_q31.c ****       /* acc +=  b[2] * x[n-2] */
 244:DSP/Source/FilteringFunctions/arm_biquad_cascade_df1_fast_q31.c ****       /*acc = (q31_t) ((((q63_t) acc << 32) + ((q63_t) b2 * (Xn2))) >> 32);*/
 245:DSP/Source/FilteringFunctions/arm_biquad_cascade_df1_fast_q31.c ****       multAcc_32x32_keep32_R(acc, b2, Xn2);
 481              		.loc 1 245 7 view .LVU105
 482 033e 019C     		ldr	r4, [sp, #4]
 483 0340 E117     		asrs	r1, r4, #31
 484 0342 D017     		asrs	r0, r2, #31
 485 0344 02FB01F1 		mul	r1, r2, r1
 486 0348 04FB0011 		mla	r1, r4, r0, r1
 487 034c A2FB0420 		umull	r2, r0, r2, r4
 488              	.LVL51:
 489              		.loc 1 245 7 is_stmt 0 view .LVU106
 490 0350 0844     		add	r0, r0, r1
 491 0352 9A18     		adds	r2, r3, r2
 492 0354 12F10042 		adds	r2, r2, #-2147483648
 493 0358 40EB0606 		adc	r6, r0, r6
 246:DSP/Source/FilteringFunctions/arm_biquad_cascade_df1_fast_q31.c ****       /* acc +=  a1 * y[n-1] */
 247:DSP/Source/FilteringFunctions/arm_biquad_cascade_df1_fast_q31.c ****       /*acc = (q31_t) ((((q63_t) acc << 32) + ((q63_t) a1 * (Yn1))) >> 32);*/
 248:DSP/Source/FilteringFunctions/arm_biquad_cascade_df1_fast_q31.c ****       multAcc_32x32_keep32_R(acc, a1, Yn1);
ARM GAS  /var/folders/ck/g3dcd5x55xs4107jgdl0snvr0000gn/T//cct7wkTD.s 			page 14


 494              		.loc 1 248 7 is_stmt 1 view .LVU107
 495 035c 0298     		ldr	r0, [sp, #8]
 496 035e C117     		asrs	r1, r0, #31
 497 0360 4FEAE972 		asr	r2, r9, #31
 498 0364 09FB01F1 		mul	r1, r9, r1
 499 0368 00FB0211 		mla	r1, r0, r2, r1
 500 036c A9FB0020 		umull	r2, r0, r9, r0
 501 0370 0844     		add	r0, r0, r1
 502 0372 9A18     		adds	r2, r3, r2
 503 0374 12F10042 		adds	r2, r2, #-2147483648
 504 0378 40EB0600 		adc	r0, r0, r6
 249:DSP/Source/FilteringFunctions/arm_biquad_cascade_df1_fast_q31.c ****       /* acc +=  a2 * y[n-2] */
 250:DSP/Source/FilteringFunctions/arm_biquad_cascade_df1_fast_q31.c ****       /*acc = (q31_t) ((((q63_t) acc << 32) + ((q63_t) a2 * (Yn2))) >> 32);*/
 251:DSP/Source/FilteringFunctions/arm_biquad_cascade_df1_fast_q31.c ****       multAcc_32x32_keep32_R(acc, a2, Yn2);
 505              		.loc 1 251 7 view .LVU108
 506 037c 4FEAEA72 		asr	r2, r10, #31
 507 0380 4FEAEB71 		asr	r1, fp, #31
 508 0384 0BFB02F2 		mul	r2, fp, r2
 509 0388 0AFB0122 		mla	r2, r10, r1, r2
 510 038c ABFB0AB1 		umull	fp, r1, fp, r10
 511              	.LVL52:
 512              		.loc 1 251 7 is_stmt 0 view .LVU109
 513 0390 0A44     		add	r2, r2, r1
 514 0392 13EB0B03 		adds	r3, r3, fp
 515 0396 13F10043 		adds	r3, r3, #-2147483648
 516 039a 42EB0002 		adc	r2, r2, r0
 517              	.LVL53:
 252:DSP/Source/FilteringFunctions/arm_biquad_cascade_df1_fast_q31.c **** 
 253:DSP/Source/FilteringFunctions/arm_biquad_cascade_df1_fast_q31.c ****       /* The result is converted to 1.31  */
 254:DSP/Source/FilteringFunctions/arm_biquad_cascade_df1_fast_q31.c ****       acc = acc << shift;
 518              		.loc 1 254 7 is_stmt 1 view .LVU110
 519              		.loc 1 254 11 is_stmt 0 view .LVU111
 520 039e 0699     		ldr	r1, [sp, #24]
 521 03a0 8A40     		lsls	r2, r2, r1
 522              	.LVL54:
 255:DSP/Source/FilteringFunctions/arm_biquad_cascade_df1_fast_q31.c **** 
 256:DSP/Source/FilteringFunctions/arm_biquad_cascade_df1_fast_q31.c ****       /* Every time after the output is computed state should be updated. */
 257:DSP/Source/FilteringFunctions/arm_biquad_cascade_df1_fast_q31.c ****       /* The states should be updated as:  */
 258:DSP/Source/FilteringFunctions/arm_biquad_cascade_df1_fast_q31.c ****       /* Xn2 = Xn1    */
 259:DSP/Source/FilteringFunctions/arm_biquad_cascade_df1_fast_q31.c ****       /* Xn1 = Xn     */
 260:DSP/Source/FilteringFunctions/arm_biquad_cascade_df1_fast_q31.c ****       /* Yn2 = Yn1    */
 261:DSP/Source/FilteringFunctions/arm_biquad_cascade_df1_fast_q31.c ****       /* Yn1 = acc    */
 262:DSP/Source/FilteringFunctions/arm_biquad_cascade_df1_fast_q31.c ****       Xn2 = Xn1;
 523              		.loc 1 262 7 is_stmt 1 view .LVU112
 263:DSP/Source/FilteringFunctions/arm_biquad_cascade_df1_fast_q31.c ****       Xn1 = Xn;
 524              		.loc 1 263 7 view .LVU113
 264:DSP/Source/FilteringFunctions/arm_biquad_cascade_df1_fast_q31.c ****       Yn2 = Yn1;
 525              		.loc 1 264 7 view .LVU114
 265:DSP/Source/FilteringFunctions/arm_biquad_cascade_df1_fast_q31.c ****       Yn1 = acc;
 526              		.loc 1 265 7 view .LVU115
 266:DSP/Source/FilteringFunctions/arm_biquad_cascade_df1_fast_q31.c **** 
 267:DSP/Source/FilteringFunctions/arm_biquad_cascade_df1_fast_q31.c ****       /* Store the output in the destination buffer. */
 268:DSP/Source/FilteringFunctions/arm_biquad_cascade_df1_fast_q31.c ****       *pOut++ = acc;
 527              		.loc 1 268 7 view .LVU116
 528              		.loc 1 268 12 is_stmt 0 view .LVU117
 529 03a2 039B     		ldr	r3, [sp, #12]
 530              	.LVL55:
ARM GAS  /var/folders/ck/g3dcd5x55xs4107jgdl0snvr0000gn/T//cct7wkTD.s 			page 15


 531              		.loc 1 268 15 view .LVU118
 532 03a4 43F8042B 		str	r2, [r3], #4
 533              	.LVL56:
 269:DSP/Source/FilteringFunctions/arm_biquad_cascade_df1_fast_q31.c **** 
 270:DSP/Source/FilteringFunctions/arm_biquad_cascade_df1_fast_q31.c ****       /* decrement the loop counter */
 271:DSP/Source/FilteringFunctions/arm_biquad_cascade_df1_fast_q31.c ****       sample--;
 534              		.loc 1 271 7 is_stmt 1 view .LVU119
 535              		.loc 1 271 13 is_stmt 0 view .LVU120
 536 03a8 013F     		subs	r7, r7, #1
 537              	.LVL57:
 268:DSP/Source/FilteringFunctions/arm_biquad_cascade_df1_fast_q31.c **** 
 538              		.loc 1 268 12 view .LVU121
 539 03aa 0393     		str	r3, [sp, #12]
 234:DSP/Source/FilteringFunctions/arm_biquad_cascade_df1_fast_q31.c **** 
 540              		.loc 1 234 16 view .LVU122
 541 03ac 049B     		ldr	r3, [sp, #16]
 542              	.LVL58:
 264:DSP/Source/FilteringFunctions/arm_biquad_cascade_df1_fast_q31.c ****       Yn1 = acc;
 543              		.loc 1 264 11 view .LVU123
 544 03ae CB46     		mov	fp, r9
 265:DSP/Source/FilteringFunctions/arm_biquad_cascade_df1_fast_q31.c **** 
 545              		.loc 1 265 11 view .LVU124
 546 03b0 9146     		mov	r9, r2
 547              	.LVL59:
 262:DSP/Source/FilteringFunctions/arm_biquad_cascade_df1_fast_q31.c ****       Xn1 = Xn;
 548              		.loc 1 262 11 view .LVU125
 549 03b2 4246     		mov	r2, r8
 550              	.LVL60:
 263:DSP/Source/FilteringFunctions/arm_biquad_cascade_df1_fast_q31.c ****       Yn2 = Yn1;
 551              		.loc 1 263 11 view .LVU126
 552 03b4 A846     		mov	r8, r5
 553              	.LVL61:
 554              	.L4:
 231:DSP/Source/FilteringFunctions/arm_biquad_cascade_df1_fast_q31.c ****    {
 555              		.loc 1 231 18 is_stmt 1 view .LVU127
 556 03b6 002F     		cmp	r7, #0
 557 03b8 A0D1     		bne	.L5
 272:DSP/Source/FilteringFunctions/arm_biquad_cascade_df1_fast_q31.c ****    }
 273:DSP/Source/FilteringFunctions/arm_biquad_cascade_df1_fast_q31.c **** 
 274:DSP/Source/FilteringFunctions/arm_biquad_cascade_df1_fast_q31.c ****     /*  The first stage goes from the input buffer to the output buffer. */
 275:DSP/Source/FilteringFunctions/arm_biquad_cascade_df1_fast_q31.c ****     /*  Subsequent stages occur in-place in the output buffer */
 276:DSP/Source/FilteringFunctions/arm_biquad_cascade_df1_fast_q31.c ****     pIn = pDst;
 277:DSP/Source/FilteringFunctions/arm_biquad_cascade_df1_fast_q31.c **** 
 278:DSP/Source/FilteringFunctions/arm_biquad_cascade_df1_fast_q31.c ****     /* Reset to destination pointer */
 279:DSP/Source/FilteringFunctions/arm_biquad_cascade_df1_fast_q31.c ****     pOut = pDst;
 280:DSP/Source/FilteringFunctions/arm_biquad_cascade_df1_fast_q31.c **** 
 281:DSP/Source/FilteringFunctions/arm_biquad_cascade_df1_fast_q31.c ****     /*  Store the updated state variables back into the pState array */
 282:DSP/Source/FilteringFunctions/arm_biquad_cascade_df1_fast_q31.c ****     *pState++ = Xn1;
 558              		.loc 1 282 15 is_stmt 0 view .LVU128
 559 03ba 1146     		mov	r1, r2
 560 03bc 079B     		ldr	r3, [sp, #28]
 561              	.LVL62:
 562              		.loc 1 282 15 view .LVU129
 563 03be 089A     		ldr	r2, [sp, #32]
 564              	.LVL63:
 276:DSP/Source/FilteringFunctions/arm_biquad_cascade_df1_fast_q31.c **** 
 565              		.loc 1 276 5 is_stmt 1 view .LVU130
ARM GAS  /var/folders/ck/g3dcd5x55xs4107jgdl0snvr0000gn/T//cct7wkTD.s 			page 16


 279:DSP/Source/FilteringFunctions/arm_biquad_cascade_df1_fast_q31.c **** 
 566              		.loc 1 279 5 view .LVU131
 567              		.loc 1 282 5 view .LVU132
 568              		.loc 1 282 15 is_stmt 0 view .LVU133
 569 03c0 C3F80080 		str	r8, [r3]
 283:DSP/Source/FilteringFunctions/arm_biquad_cascade_df1_fast_q31.c ****     *pState++ = Xn2;
 570              		.loc 1 283 5 is_stmt 1 view .LVU134
 571              	.LVL64:
 572              		.loc 1 283 15 is_stmt 0 view .LVU135
 573 03c4 5960     		str	r1, [r3, #4]
 284:DSP/Source/FilteringFunctions/arm_biquad_cascade_df1_fast_q31.c ****     *pState++ = Yn1;
 574              		.loc 1 284 5 is_stmt 1 view .LVU136
 575              	.LVL65:
 576              		.loc 1 284 15 is_stmt 0 view .LVU137
 577 03c6 C3F80890 		str	r9, [r3, #8]
 285:DSP/Source/FilteringFunctions/arm_biquad_cascade_df1_fast_q31.c ****     *pState++ = Yn2;
 578              		.loc 1 285 5 is_stmt 1 view .LVU138
 579              		.loc 1 285 12 is_stmt 0 view .LVU139
 580 03ca 03F11000 		add	r0, r3, #16
 581              	.LVL66:
 582              		.loc 1 285 15 view .LVU140
 583 03ce C3F80CB0 		str	fp, [r3, #12]
 286:DSP/Source/FilteringFunctions/arm_biquad_cascade_df1_fast_q31.c **** 
 287:DSP/Source/FilteringFunctions/arm_biquad_cascade_df1_fast_q31.c ****   } while (--stage);
 584              		.loc 1 287 12 is_stmt 1 view .LVU141
 585              	.LVL67:
 586              		.loc 1 287 12 is_stmt 0 view .LVU142
 587 03d2 119B     		ldr	r3, [sp, #68]
 588 03d4 013B     		subs	r3, r3, #1
 589              	.LVL68:
 590              		.loc 1 287 12 view .LVU143
 591 03d6 1193     		str	r3, [sp, #68]
 592 03d8 1CD0     		beq	.L9
 285:DSP/Source/FilteringFunctions/arm_biquad_cascade_df1_fast_q31.c ****     *pState++ = Yn2;
 593              		.loc 1 285 12 view .LVU144
 594 03da 0346     		mov	r3, r0
 595              	.LVL69:
 276:DSP/Source/FilteringFunctions/arm_biquad_cascade_df1_fast_q31.c **** 
 596              		.loc 1 276 9 view .LVU145
 597 03dc 1599     		ldr	r1, [sp, #84]
 598              	.LVL70:
 276:DSP/Source/FilteringFunctions/arm_biquad_cascade_df1_fast_q31.c **** 
 599              		.loc 1 276 9 view .LVU146
 600 03de 0591     		str	r1, [sp, #20]
 601              	.LVL71:
 602              	.L6:
  82:DSP/Source/FilteringFunctions/arm_biquad_cascade_df1_fast_q31.c ****   {
 603              		.loc 1 82 3 is_stmt 1 view .LVU147
  85:DSP/Source/FilteringFunctions/arm_biquad_cascade_df1_fast_q31.c ****     b1 = *pCoeffs++;
 604              		.loc 1 85 5 view .LVU148
  85:DSP/Source/FilteringFunctions/arm_biquad_cascade_df1_fast_q31.c ****     b1 = *pCoeffs++;
 605              		.loc 1 85 8 is_stmt 0 view .LVU149
 606 03e0 D2F800E0 		ldr	lr, [r2]
 607              	.LVL72:
  86:DSP/Source/FilteringFunctions/arm_biquad_cascade_df1_fast_q31.c ****     b2 = *pCoeffs++;
 608              		.loc 1 86 5 is_stmt 1 view .LVU150
  86:DSP/Source/FilteringFunctions/arm_biquad_cascade_df1_fast_q31.c ****     b2 = *pCoeffs++;
ARM GAS  /var/folders/ck/g3dcd5x55xs4107jgdl0snvr0000gn/T//cct7wkTD.s 			page 17


 609              		.loc 1 86 8 is_stmt 0 view .LVU151
 610 03e4 D2F804C0 		ldr	ip, [r2, #4]
 611              	.LVL73:
  87:DSP/Source/FilteringFunctions/arm_biquad_cascade_df1_fast_q31.c ****     a1 = *pCoeffs++;
 612              		.loc 1 87 5 is_stmt 1 view .LVU152
  87:DSP/Source/FilteringFunctions/arm_biquad_cascade_df1_fast_q31.c ****     a1 = *pCoeffs++;
 613              		.loc 1 87 8 is_stmt 0 view .LVU153
 614 03e8 9168     		ldr	r1, [r2, #8]
 615 03ea 0191     		str	r1, [sp, #4]
 616              	.LVL74:
  88:DSP/Source/FilteringFunctions/arm_biquad_cascade_df1_fast_q31.c ****     a2 = *pCoeffs++;
 617              		.loc 1 88 5 is_stmt 1 view .LVU154
  88:DSP/Source/FilteringFunctions/arm_biquad_cascade_df1_fast_q31.c ****     a2 = *pCoeffs++;
 618              		.loc 1 88 8 is_stmt 0 view .LVU155
 619 03ec D168     		ldr	r1, [r2, #12]
 620              	.LVL75:
  88:DSP/Source/FilteringFunctions/arm_biquad_cascade_df1_fast_q31.c ****     a2 = *pCoeffs++;
 621              		.loc 1 88 8 view .LVU156
 622 03ee 0291     		str	r1, [sp, #8]
 623              	.LVL76:
  89:DSP/Source/FilteringFunctions/arm_biquad_cascade_df1_fast_q31.c **** 
 624              		.loc 1 89 5 is_stmt 1 view .LVU157
  89:DSP/Source/FilteringFunctions/arm_biquad_cascade_df1_fast_q31.c **** 
 625              		.loc 1 89 8 is_stmt 0 view .LVU158
 626 03f0 1169     		ldr	r1, [r2, #16]
 627              	.LVL77:
  89:DSP/Source/FilteringFunctions/arm_biquad_cascade_df1_fast_q31.c **** 
 628              		.loc 1 89 8 view .LVU159
 629 03f2 0491     		str	r1, [sp, #16]
 630 03f4 1432     		adds	r2, r2, #20
 631              	.LVL78:
  92:DSP/Source/FilteringFunctions/arm_biquad_cascade_df1_fast_q31.c ****     Xn2 = pState[1];
 632              		.loc 1 92 5 is_stmt 1 view .LVU160
  92:DSP/Source/FilteringFunctions/arm_biquad_cascade_df1_fast_q31.c ****     Xn2 = pState[1];
 633              		.loc 1 92 9 is_stmt 0 view .LVU161
 634 03f6 D3F80080 		ldr	r8, [r3]
 635              	.LVL79:
  93:DSP/Source/FilteringFunctions/arm_biquad_cascade_df1_fast_q31.c ****     Yn1 = pState[2];
 636              		.loc 1 93 5 is_stmt 1 view .LVU162
  93:DSP/Source/FilteringFunctions/arm_biquad_cascade_df1_fast_q31.c ****     Yn1 = pState[2];
 637              		.loc 1 93 9 is_stmt 0 view .LVU163
 638 03fa 5868     		ldr	r0, [r3, #4]
 639              	.LVL80:
  94:DSP/Source/FilteringFunctions/arm_biquad_cascade_df1_fast_q31.c ****     Yn2 = pState[3];
 640              		.loc 1 94 5 is_stmt 1 view .LVU164
  94:DSP/Source/FilteringFunctions/arm_biquad_cascade_df1_fast_q31.c ****     Yn2 = pState[3];
 641              		.loc 1 94 9 is_stmt 0 view .LVU165
 642 03fc 9E68     		ldr	r6, [r3, #8]
 643              	.LVL81:
  95:DSP/Source/FilteringFunctions/arm_biquad_cascade_df1_fast_q31.c **** 
 644              		.loc 1 95 5 is_stmt 1 view .LVU166
  95:DSP/Source/FilteringFunctions/arm_biquad_cascade_df1_fast_q31.c **** 
 645              		.loc 1 95 9 is_stmt 0 view .LVU167
 646 03fe D3F80CB0 		ldr	fp, [r3, #12]
 647              	.LVL82:
 103:DSP/Source/FilteringFunctions/arm_biquad_cascade_df1_fast_q31.c **** 
 648              		.loc 1 103 5 is_stmt 1 view .LVU168
ARM GAS  /var/folders/ck/g3dcd5x55xs4107jgdl0snvr0000gn/T//cct7wkTD.s 			page 18


 103:DSP/Source/FilteringFunctions/arm_biquad_cascade_df1_fast_q31.c **** 
 649              		.loc 1 103 12 is_stmt 0 view .LVU169
 650 0402 1299     		ldr	r1, [sp, #72]
 651              	.LVL83:
 103:DSP/Source/FilteringFunctions/arm_biquad_cascade_df1_fast_q31.c **** 
 652              		.loc 1 103 12 view .LVU170
 653 0404 8908     		lsrs	r1, r1, #2
 654 0406 0D91     		str	r1, [sp, #52]
 655              	.LVL84:
 107:DSP/Source/FilteringFunctions/arm_biquad_cascade_df1_fast_q31.c ****     {
 656              		.loc 1 107 5 is_stmt 1 view .LVU171
 107:DSP/Source/FilteringFunctions/arm_biquad_cascade_df1_fast_q31.c ****     {
 657              		.loc 1 107 11 is_stmt 0 view .LVU172
 658 0408 1599     		ldr	r1, [sp, #84]
 659              	.LVL85:
 107:DSP/Source/FilteringFunctions/arm_biquad_cascade_df1_fast_q31.c ****     {
 660              		.loc 1 107 11 view .LVU173
 661 040a 0391     		str	r1, [sp, #12]
 662 040c 5946     		mov	r1, fp
 663 040e 1393     		str	r3, [sp, #76]
 664 0410 1492     		str	r2, [sp, #80]
 665 0412 61E7     		b	.L2
 666              	.LVL86:
 667              	.L9:
 288:DSP/Source/FilteringFunctions/arm_biquad_cascade_df1_fast_q31.c **** }
 668              		.loc 1 288 1 view .LVU174
 669 0414 17B0     		add	sp, sp, #92
 670              	.LCFI2:
 671              		.cfi_def_cfa_offset 36
 672              		@ sp needed
 673 0416 BDE8F08F 		pop	{r4, r5, r6, r7, r8, r9, r10, fp, pc}
 674              		.loc 1 288 1 view .LVU175
 675              		.cfi_endproc
 676              	.LFE139:
 678              		.text
 679              	.Letext0:
 680              		.file 2 "/Users/luban/.local/xPacks/arm-none-eabi-gcc/xpack-arm-none-eabi-gcc-13.2.1-1.1/arm-none-
 681              		.file 3 "/Users/luban/.local/xPacks/arm-none-eabi-gcc/xpack-arm-none-eabi-gcc-13.2.1-1.1/arm-none-
 682              		.file 4 "DSP/Inc/arm_math.h"
ARM GAS  /var/folders/ck/g3dcd5x55xs4107jgdl0snvr0000gn/T//cct7wkTD.s 			page 19

