ARM GAS  /var/folders/ck/g3dcd5x55xs4107jgdl0snvr0000gn/T//ccc8jccf.s 			page 1


   1              		.cpu cortex-m4
   2              		.arch armv7e-m
   3              		.fpu fpv4-sp-d16
   4              		.eabi_attribute 27, 1
   5              		.eabi_attribute 28, 1
   6              		.eabi_attribute 20, 1
   7              		.eabi_attribute 21, 1
   8              		.eabi_attribute 23, 3
   9              		.eabi_attribute 24, 1
  10              		.eabi_attribute 25, 1
  11              		.eabi_attribute 26, 1
  12              		.eabi_attribute 30, 1
  13              		.eabi_attribute 34, 1
  14              		.eabi_attribute 18, 4
  15              		.file	"arm_fir_interpolate_q31.c"
  16              		.text
  17              	.Ltext0:
  18              		.cfi_sections	.debug_frame
  19              		.file 1 "DSP/Source/FilteringFunctions/arm_fir_interpolate_q31.c"
  20              		.section	.text.arm_fir_interpolate_q31,"ax",%progbits
  21              		.align	1
  22              		.global	arm_fir_interpolate_q31
  23              		.syntax unified
  24              		.thumb
  25              		.thumb_func
  27              	arm_fir_interpolate_q31:
  28              	.LVL0:
  29              	.LFB139:
   1:DSP/Source/FilteringFunctions/arm_fir_interpolate_q31.c **** /* ----------------------------------------------------------------------
   2:DSP/Source/FilteringFunctions/arm_fir_interpolate_q31.c ****  * Project:      CMSIS DSP Library
   3:DSP/Source/FilteringFunctions/arm_fir_interpolate_q31.c ****  * Title:        arm_fir_interpolate_q31.c
   4:DSP/Source/FilteringFunctions/arm_fir_interpolate_q31.c ****  * Description:  Q31 FIR interpolation
   5:DSP/Source/FilteringFunctions/arm_fir_interpolate_q31.c ****  *
   6:DSP/Source/FilteringFunctions/arm_fir_interpolate_q31.c ****  * $Date:        27. January 2017
   7:DSP/Source/FilteringFunctions/arm_fir_interpolate_q31.c ****  * $Revision:    V.1.5.1
   8:DSP/Source/FilteringFunctions/arm_fir_interpolate_q31.c ****  *
   9:DSP/Source/FilteringFunctions/arm_fir_interpolate_q31.c ****  * Target Processor: Cortex-M cores
  10:DSP/Source/FilteringFunctions/arm_fir_interpolate_q31.c ****  * -------------------------------------------------------------------- */
  11:DSP/Source/FilteringFunctions/arm_fir_interpolate_q31.c **** /*
  12:DSP/Source/FilteringFunctions/arm_fir_interpolate_q31.c ****  * Copyright (C) 2010-2017 ARM Limited or its affiliates. All rights reserved.
  13:DSP/Source/FilteringFunctions/arm_fir_interpolate_q31.c ****  *
  14:DSP/Source/FilteringFunctions/arm_fir_interpolate_q31.c ****  * SPDX-License-Identifier: Apache-2.0
  15:DSP/Source/FilteringFunctions/arm_fir_interpolate_q31.c ****  *
  16:DSP/Source/FilteringFunctions/arm_fir_interpolate_q31.c ****  * Licensed under the Apache License, Version 2.0 (the License); you may
  17:DSP/Source/FilteringFunctions/arm_fir_interpolate_q31.c ****  * not use this file except in compliance with the License.
  18:DSP/Source/FilteringFunctions/arm_fir_interpolate_q31.c ****  * You may obtain a copy of the License at
  19:DSP/Source/FilteringFunctions/arm_fir_interpolate_q31.c ****  *
  20:DSP/Source/FilteringFunctions/arm_fir_interpolate_q31.c ****  * www.apache.org/licenses/LICENSE-2.0
  21:DSP/Source/FilteringFunctions/arm_fir_interpolate_q31.c ****  *
  22:DSP/Source/FilteringFunctions/arm_fir_interpolate_q31.c ****  * Unless required by applicable law or agreed to in writing, software
  23:DSP/Source/FilteringFunctions/arm_fir_interpolate_q31.c ****  * distributed under the License is distributed on an AS IS BASIS, WITHOUT
  24:DSP/Source/FilteringFunctions/arm_fir_interpolate_q31.c ****  * WARRANTIES OR CONDITIONS OF ANY KIND, either express or implied.
  25:DSP/Source/FilteringFunctions/arm_fir_interpolate_q31.c ****  * See the License for the specific language governing permissions and
  26:DSP/Source/FilteringFunctions/arm_fir_interpolate_q31.c ****  * limitations under the License.
  27:DSP/Source/FilteringFunctions/arm_fir_interpolate_q31.c ****  */
  28:DSP/Source/FilteringFunctions/arm_fir_interpolate_q31.c **** 
  29:DSP/Source/FilteringFunctions/arm_fir_interpolate_q31.c **** #include "arm_math.h"
ARM GAS  /var/folders/ck/g3dcd5x55xs4107jgdl0snvr0000gn/T//ccc8jccf.s 			page 2


  30:DSP/Source/FilteringFunctions/arm_fir_interpolate_q31.c **** 
  31:DSP/Source/FilteringFunctions/arm_fir_interpolate_q31.c **** /**
  32:DSP/Source/FilteringFunctions/arm_fir_interpolate_q31.c ****  * @ingroup groupFilters
  33:DSP/Source/FilteringFunctions/arm_fir_interpolate_q31.c ****  */
  34:DSP/Source/FilteringFunctions/arm_fir_interpolate_q31.c **** 
  35:DSP/Source/FilteringFunctions/arm_fir_interpolate_q31.c **** /**
  36:DSP/Source/FilteringFunctions/arm_fir_interpolate_q31.c ****  * @addtogroup FIR_Interpolate
  37:DSP/Source/FilteringFunctions/arm_fir_interpolate_q31.c ****  * @{
  38:DSP/Source/FilteringFunctions/arm_fir_interpolate_q31.c ****  */
  39:DSP/Source/FilteringFunctions/arm_fir_interpolate_q31.c **** 
  40:DSP/Source/FilteringFunctions/arm_fir_interpolate_q31.c **** /**
  41:DSP/Source/FilteringFunctions/arm_fir_interpolate_q31.c ****  * @brief Processing function for the Q31 FIR interpolator.
  42:DSP/Source/FilteringFunctions/arm_fir_interpolate_q31.c ****  * @param[in] *S        points to an instance of the Q31 FIR interpolator structure.
  43:DSP/Source/FilteringFunctions/arm_fir_interpolate_q31.c ****  * @param[in] *pSrc     points to the block of input data.
  44:DSP/Source/FilteringFunctions/arm_fir_interpolate_q31.c ****  * @param[out] *pDst    points to the block of output data.
  45:DSP/Source/FilteringFunctions/arm_fir_interpolate_q31.c ****  * @param[in] blockSize number of input samples to process per call.
  46:DSP/Source/FilteringFunctions/arm_fir_interpolate_q31.c ****  * @return none.
  47:DSP/Source/FilteringFunctions/arm_fir_interpolate_q31.c ****  *
  48:DSP/Source/FilteringFunctions/arm_fir_interpolate_q31.c ****  * <b>Scaling and Overflow Behavior:</b>
  49:DSP/Source/FilteringFunctions/arm_fir_interpolate_q31.c ****  * \par
  50:DSP/Source/FilteringFunctions/arm_fir_interpolate_q31.c ****  * The function is implemented using an internal 64-bit accumulator.
  51:DSP/Source/FilteringFunctions/arm_fir_interpolate_q31.c ****  * The accumulator has a 2.62 format and maintains full precision of the intermediate multiplicatio
  52:DSP/Source/FilteringFunctions/arm_fir_interpolate_q31.c ****  * Thus, if the accumulator result overflows it wraps around rather than clip.
  53:DSP/Source/FilteringFunctions/arm_fir_interpolate_q31.c ****  * In order to avoid overflows completely the input signal must be scaled down by <code>1/(numTaps/
  54:DSP/Source/FilteringFunctions/arm_fir_interpolate_q31.c ****  * since <code>numTaps/L</code> additions occur per output sample.
  55:DSP/Source/FilteringFunctions/arm_fir_interpolate_q31.c ****  * After all multiply-accumulates are performed, the 2.62 accumulator is truncated to 1.32 format a
  56:DSP/Source/FilteringFunctions/arm_fir_interpolate_q31.c ****  */
  57:DSP/Source/FilteringFunctions/arm_fir_interpolate_q31.c **** 
  58:DSP/Source/FilteringFunctions/arm_fir_interpolate_q31.c **** #if defined (ARM_MATH_DSP)
  59:DSP/Source/FilteringFunctions/arm_fir_interpolate_q31.c **** 
  60:DSP/Source/FilteringFunctions/arm_fir_interpolate_q31.c ****   /* Run the below code for Cortex-M4 and Cortex-M3 */
  61:DSP/Source/FilteringFunctions/arm_fir_interpolate_q31.c **** 
  62:DSP/Source/FilteringFunctions/arm_fir_interpolate_q31.c **** void arm_fir_interpolate_q31(
  63:DSP/Source/FilteringFunctions/arm_fir_interpolate_q31.c ****   const arm_fir_interpolate_instance_q31 * S,
  64:DSP/Source/FilteringFunctions/arm_fir_interpolate_q31.c ****   q31_t * pSrc,
  65:DSP/Source/FilteringFunctions/arm_fir_interpolate_q31.c ****   q31_t * pDst,
  66:DSP/Source/FilteringFunctions/arm_fir_interpolate_q31.c ****   uint32_t blockSize)
  67:DSP/Source/FilteringFunctions/arm_fir_interpolate_q31.c **** {
  30              		.loc 1 67 1 view -0
  31              		.cfi_startproc
  32              		@ args = 0, pretend = 0, frame = 48
  33              		@ frame_needed = 0, uses_anonymous_args = 0
  34              		.loc 1 67 1 is_stmt 0 view .LVU1
  35 0000 2DE9F04F 		push	{r4, r5, r6, r7, r8, r9, r10, fp, lr}
  36              	.LCFI0:
  37              		.cfi_def_cfa_offset 36
  38              		.cfi_offset 4, -36
  39              		.cfi_offset 5, -32
  40              		.cfi_offset 6, -28
  41              		.cfi_offset 7, -24
  42              		.cfi_offset 8, -20
  43              		.cfi_offset 9, -16
  44              		.cfi_offset 10, -12
  45              		.cfi_offset 11, -8
  46              		.cfi_offset 14, -4
  47 0004 8DB0     		sub	sp, sp, #52
  48              	.LCFI1:
ARM GAS  /var/folders/ck/g3dcd5x55xs4107jgdl0snvr0000gn/T//ccc8jccf.s 			page 3


  49              		.cfi_def_cfa_offset 88
  50 0006 8346     		mov	fp, r0
  51 0008 0C46     		mov	r4, r1
  68:DSP/Source/FilteringFunctions/arm_fir_interpolate_q31.c ****   q31_t *pState = S->pState;                     /* State pointer */
  52              		.loc 1 68 3 is_stmt 1 view .LVU2
  53              		.loc 1 68 10 is_stmt 0 view .LVU3
  54 000a 8168     		ldr	r1, [r0, #8]
  55              	.LVL1:
  56              		.loc 1 68 10 view .LVU4
  57 000c 0391     		str	r1, [sp, #12]
  58              	.LVL2:
  69:DSP/Source/FilteringFunctions/arm_fir_interpolate_q31.c ****   q31_t *pCoeffs = S->pCoeffs;                   /* Coefficient pointer */
  59              		.loc 1 69 3 is_stmt 1 view .LVU5
  60              		.loc 1 69 10 is_stmt 0 view .LVU6
  61 000e 4068     		ldr	r0, [r0, #4]
  62              	.LVL3:
  63              		.loc 1 69 10 view .LVU7
  64 0010 0690     		str	r0, [sp, #24]
  65              	.LVL4:
  70:DSP/Source/FilteringFunctions/arm_fir_interpolate_q31.c ****   q31_t *pStateCurnt;                            /* Points to the current sample of the state */
  66              		.loc 1 70 3 is_stmt 1 view .LVU8
  71:DSP/Source/FilteringFunctions/arm_fir_interpolate_q31.c ****   q31_t *ptr1, *ptr2;                            /* Temporary pointers for state and coefficient bu
  67              		.loc 1 71 3 view .LVU9
  72:DSP/Source/FilteringFunctions/arm_fir_interpolate_q31.c ****   q63_t sum0;                                    /* Accumulators */
  68              		.loc 1 72 3 view .LVU10
  73:DSP/Source/FilteringFunctions/arm_fir_interpolate_q31.c ****   q31_t x0, c0;                                  /* Temporary variables to hold state and coefficie
  69              		.loc 1 73 3 view .LVU11
  74:DSP/Source/FilteringFunctions/arm_fir_interpolate_q31.c ****   uint32_t i, blkCnt, j;                         /* Loop counters */
  70              		.loc 1 74 3 view .LVU12
  75:DSP/Source/FilteringFunctions/arm_fir_interpolate_q31.c ****   uint16_t phaseLen = S->phaseLength, tapCnt;    /* Length of each polyphase filter component */
  71              		.loc 1 75 3 view .LVU13
  72              		.loc 1 75 12 is_stmt 0 view .LVU14
  73 0012 BBF80200 		ldrh	r0, [fp, #2]
  74              	.LVL5:
  75              		.loc 1 75 12 view .LVU15
  76 0016 0590     		str	r0, [sp, #20]
  77              	.LVL6:
  76:DSP/Source/FilteringFunctions/arm_fir_interpolate_q31.c **** 
  77:DSP/Source/FilteringFunctions/arm_fir_interpolate_q31.c ****   uint32_t blkCntN2;
  78              		.loc 1 77 3 is_stmt 1 view .LVU16
  78:DSP/Source/FilteringFunctions/arm_fir_interpolate_q31.c ****   q63_t acc0, acc1;
  79              		.loc 1 78 3 view .LVU17
  79:DSP/Source/FilteringFunctions/arm_fir_interpolate_q31.c ****   q31_t x1;
  80              		.loc 1 79 3 view .LVU18
  80:DSP/Source/FilteringFunctions/arm_fir_interpolate_q31.c **** 
  81:DSP/Source/FilteringFunctions/arm_fir_interpolate_q31.c ****   /* S->pState buffer contains previous frame (phaseLen - 1) samples */
  82:DSP/Source/FilteringFunctions/arm_fir_interpolate_q31.c ****   /* pStateCurnt points to the location where the new input data should be written */
  83:DSP/Source/FilteringFunctions/arm_fir_interpolate_q31.c ****   pStateCurnt = S->pState + ((q31_t) phaseLen - 1);
  81              		.loc 1 83 3 view .LVU19
  82              		.loc 1 83 27 is_stmt 0 view .LVU20
  83 0018 00F1804E 		add	lr, r0, #1073741824
  84 001c 0EF1FF3E 		add	lr, lr, #-1
  85              		.loc 1 83 15 view .LVU21
  86 0020 01EB8E0E 		add	lr, r1, lr, lsl #2
  87              	.LVL7:
  84:DSP/Source/FilteringFunctions/arm_fir_interpolate_q31.c **** 
  85:DSP/Source/FilteringFunctions/arm_fir_interpolate_q31.c ****   /* Initialise  blkCnt */
ARM GAS  /var/folders/ck/g3dcd5x55xs4107jgdl0snvr0000gn/T//ccc8jccf.s 			page 4


  86:DSP/Source/FilteringFunctions/arm_fir_interpolate_q31.c ****   blkCnt = blockSize / 2;
  88              		.loc 1 86 3 is_stmt 1 view .LVU22
  89              		.loc 1 86 10 is_stmt 0 view .LVU23
  90 0024 5D08     		lsrs	r5, r3, #1
  91              	.LVL8:
  87:DSP/Source/FilteringFunctions/arm_fir_interpolate_q31.c ****   blkCntN2 = blockSize - (2 * blkCnt);
  92              		.loc 1 87 3 is_stmt 1 view .LVU24
  93 0026 03F00101 		and	r1, r3, #1
  94              	.LVL9:
  88:DSP/Source/FilteringFunctions/arm_fir_interpolate_q31.c **** 
  89:DSP/Source/FilteringFunctions/arm_fir_interpolate_q31.c ****   /* Samples loop unrolled by 2 */
  90:DSP/Source/FilteringFunctions/arm_fir_interpolate_q31.c ****   while (blkCnt > 0U)
  95              		.loc 1 90 3 view .LVU25
  96 002a 0B91     		str	r1, [sp, #44]
  97 002c 1646     		mov	r6, r2
  98 002e 5A46     		mov	r2, fp
  99              	.LVL10:
 100              		.loc 1 90 9 is_stmt 0 view .LVU26
 101 0030 E6E0     		b	.L2
 102              	.LVL11:
 103              	.L5:
  91:DSP/Source/FilteringFunctions/arm_fir_interpolate_q31.c ****   {
  92:DSP/Source/FilteringFunctions/arm_fir_interpolate_q31.c ****     /* Copy new input sample into the state buffer */
  93:DSP/Source/FilteringFunctions/arm_fir_interpolate_q31.c ****     *pStateCurnt++ = *pSrc++;
  94:DSP/Source/FilteringFunctions/arm_fir_interpolate_q31.c ****     *pStateCurnt++ = *pSrc++;
  95:DSP/Source/FilteringFunctions/arm_fir_interpolate_q31.c **** 
  96:DSP/Source/FilteringFunctions/arm_fir_interpolate_q31.c ****     /* Address modifier index of coefficient buffer */
  97:DSP/Source/FilteringFunctions/arm_fir_interpolate_q31.c ****     j = 1U;
  98:DSP/Source/FilteringFunctions/arm_fir_interpolate_q31.c **** 
  99:DSP/Source/FilteringFunctions/arm_fir_interpolate_q31.c ****     /* Loop over the Interpolation factor. */
 100:DSP/Source/FilteringFunctions/arm_fir_interpolate_q31.c ****     i = (S->L);
 101:DSP/Source/FilteringFunctions/arm_fir_interpolate_q31.c **** 
 102:DSP/Source/FilteringFunctions/arm_fir_interpolate_q31.c ****     while (i > 0U)
 103:DSP/Source/FilteringFunctions/arm_fir_interpolate_q31.c ****     {
 104:DSP/Source/FilteringFunctions/arm_fir_interpolate_q31.c ****       /* Set accumulator to zero */
 105:DSP/Source/FilteringFunctions/arm_fir_interpolate_q31.c ****       acc0 = 0;
 106:DSP/Source/FilteringFunctions/arm_fir_interpolate_q31.c ****       acc1 = 0;
 107:DSP/Source/FilteringFunctions/arm_fir_interpolate_q31.c **** 
 108:DSP/Source/FilteringFunctions/arm_fir_interpolate_q31.c ****       /* Initialize state pointer */
 109:DSP/Source/FilteringFunctions/arm_fir_interpolate_q31.c ****       ptr1 = pState;
 110:DSP/Source/FilteringFunctions/arm_fir_interpolate_q31.c **** 
 111:DSP/Source/FilteringFunctions/arm_fir_interpolate_q31.c ****       /* Initialize coefficient pointer */
 112:DSP/Source/FilteringFunctions/arm_fir_interpolate_q31.c ****       ptr2 = pCoeffs + (S->L - j);
 113:DSP/Source/FilteringFunctions/arm_fir_interpolate_q31.c **** 
 114:DSP/Source/FilteringFunctions/arm_fir_interpolate_q31.c ****       /* Loop over the polyPhase length. Unroll by a factor of 4.
 115:DSP/Source/FilteringFunctions/arm_fir_interpolate_q31.c ****        ** Repeat until we've computed numTaps-(4*S->L) coefficients. */
 116:DSP/Source/FilteringFunctions/arm_fir_interpolate_q31.c ****       tapCnt = phaseLen >> 2U;
 117:DSP/Source/FilteringFunctions/arm_fir_interpolate_q31.c **** 
 118:DSP/Source/FilteringFunctions/arm_fir_interpolate_q31.c ****       x0 = *(ptr1++);
 119:DSP/Source/FilteringFunctions/arm_fir_interpolate_q31.c **** 
 120:DSP/Source/FilteringFunctions/arm_fir_interpolate_q31.c ****       while (tapCnt > 0U)
 121:DSP/Source/FilteringFunctions/arm_fir_interpolate_q31.c ****       {
 122:DSP/Source/FilteringFunctions/arm_fir_interpolate_q31.c **** 
 123:DSP/Source/FilteringFunctions/arm_fir_interpolate_q31.c ****         /* Read the input sample */
 124:DSP/Source/FilteringFunctions/arm_fir_interpolate_q31.c ****         x1 = *(ptr1++);
 104              		.loc 1 124 9 is_stmt 1 view .LVU27
 105              		.loc 1 124 12 is_stmt 0 view .LVU28
ARM GAS  /var/folders/ck/g3dcd5x55xs4107jgdl0snvr0000gn/T//ccc8jccf.s 			page 5


 106 0032 3568     		ldr	r5, [r6]
 107              	.LVL12:
 125:DSP/Source/FilteringFunctions/arm_fir_interpolate_q31.c **** 
 126:DSP/Source/FilteringFunctions/arm_fir_interpolate_q31.c ****         /* Read the coefficient */
 127:DSP/Source/FilteringFunctions/arm_fir_interpolate_q31.c ****         c0 = *(ptr2);
 108              		.loc 1 127 9 is_stmt 1 view .LVU29
 109              		.loc 1 127 12 is_stmt 0 view .LVU30
 110 0034 3B68     		ldr	r3, [r7]
 111              	.LVL13:
 128:DSP/Source/FilteringFunctions/arm_fir_interpolate_q31.c **** 
 129:DSP/Source/FilteringFunctions/arm_fir_interpolate_q31.c ****         /* Perform the multiply-accumulate */
 130:DSP/Source/FilteringFunctions/arm_fir_interpolate_q31.c ****         acc0 += (q63_t) x0 *c0;
 112              		.loc 1 130 9 is_stmt 1 view .LVU31
 113              		.loc 1 130 17 is_stmt 0 view .LVU32
 114 0036 4FEAE479 		asr	r9, r4, #31
 115              		.loc 1 130 28 view .LVU33
 116 003a 4FEAE37E 		asr	lr, r3, #31
 117 003e 04FB0EFA 		mul	r10, r4, lr
 118 0042 03FB09AA 		mla	r10, r3, r9, r10
 119 0046 A4FB0349 		umull	r4, r9, r4, r3
 120              	.LVL14:
 121              		.loc 1 130 28 view .LVU34
 122 004a D144     		add	r9, r9, r10
 123              		.loc 1 130 14 view .LVU35
 124 004c A418     		adds	r4, r4, r2
 125 004e 49EB0009 		adc	r9, r9, r0
 126              	.LVL15:
 131:DSP/Source/FilteringFunctions/arm_fir_interpolate_q31.c ****         acc1 += (q63_t) x1 *c0;
 127              		.loc 1 131 9 is_stmt 1 view .LVU36
 128              		.loc 1 131 17 is_stmt 0 view .LVU37
 129 0052 EA17     		asrs	r2, r5, #31
 130              		.loc 1 131 28 view .LVU38
 131 0054 03FB02F0 		mul	r0, r3, r2
 132 0058 05FB0E0E 		mla	lr, r5, lr, r0
 133 005c A3FB0503 		umull	r0, r3, r3, r5
 134              	.LVL16:
 135              		.loc 1 131 28 view .LVU39
 136 0060 7344     		add	r3, r3, lr
 137              		.loc 1 131 14 view .LVU40
 138 0062 10EB0808 		adds	r8, r0, r8
 139              	.LVL17:
 140              		.loc 1 131 14 view .LVU41
 141 0066 43EB0103 		adc	r3, r3, r1
 142              	.LVL18:
 132:DSP/Source/FilteringFunctions/arm_fir_interpolate_q31.c **** 
 133:DSP/Source/FilteringFunctions/arm_fir_interpolate_q31.c **** 
 134:DSP/Source/FilteringFunctions/arm_fir_interpolate_q31.c ****         /* Read the coefficient */
 135:DSP/Source/FilteringFunctions/arm_fir_interpolate_q31.c ****         c0 = *(ptr2 + S->L);
 143              		.loc 1 135 9 is_stmt 1 view .LVU42
 144              		.loc 1 135 12 is_stmt 0 view .LVU43
 145 006a 57F82C10 		ldr	r1, [r7, ip, lsl #2]
 146              	.LVL19:
 136:DSP/Source/FilteringFunctions/arm_fir_interpolate_q31.c **** 
 137:DSP/Source/FilteringFunctions/arm_fir_interpolate_q31.c ****         /* Read the input sample */
 138:DSP/Source/FilteringFunctions/arm_fir_interpolate_q31.c ****         x0 = *(ptr1++);
 147              		.loc 1 138 9 is_stmt 1 view .LVU44
 148              		.loc 1 138 12 is_stmt 0 view .LVU45
ARM GAS  /var/folders/ck/g3dcd5x55xs4107jgdl0snvr0000gn/T//ccc8jccf.s 			page 6


 149 006e 7068     		ldr	r0, [r6, #4]
 150              	.LVL20:
 139:DSP/Source/FilteringFunctions/arm_fir_interpolate_q31.c **** 
 140:DSP/Source/FilteringFunctions/arm_fir_interpolate_q31.c ****         /* Perform the multiply-accumulate */
 141:DSP/Source/FilteringFunctions/arm_fir_interpolate_q31.c ****         acc0 += (q63_t) x1 *c0;
 151              		.loc 1 141 9 is_stmt 1 view .LVU46
 152              		.loc 1 141 28 is_stmt 0 view .LVU47
 153 0070 4FEAE17A 		asr	r10, r1, #31
 154 0074 05FB0AFE 		mul	lr, r5, r10
 155 0078 01FB02EE 		mla	lr, r1, r2, lr
 156 007c A5FB0125 		umull	r2, r5, r5, r1
 157              	.LVL21:
 158              		.loc 1 141 28 view .LVU48
 159 0080 AE44     		add	lr, lr, r5
 160              		.loc 1 141 14 view .LVU49
 161 0082 1219     		adds	r2, r2, r4
 162 0084 4EEB090E 		adc	lr, lr, r9
 163              	.LVL22:
 142:DSP/Source/FilteringFunctions/arm_fir_interpolate_q31.c ****         acc1 += (q63_t) x0 *c0;
 164              		.loc 1 142 9 is_stmt 1 view .LVU50
 165              		.loc 1 142 17 is_stmt 0 view .LVU51
 166 0088 4FEAE079 		asr	r9, r0, #31
 167              		.loc 1 142 28 view .LVU52
 168 008c 01FB09F5 		mul	r5, r1, r9
 169 0090 00FB0A55 		mla	r5, r0, r10, r5
 170 0094 A1FB00A4 		umull	r10, r4, r1, r0
 171 0098 2C44     		add	r4, r4, r5
 172              		.loc 1 142 14 view .LVU53
 173 009a 1AEB080A 		adds	r10, r10, r8
 174 009e 44EB0304 		adc	r4, r4, r3
 175              	.LVL23:
 143:DSP/Source/FilteringFunctions/arm_fir_interpolate_q31.c **** 
 144:DSP/Source/FilteringFunctions/arm_fir_interpolate_q31.c **** 
 145:DSP/Source/FilteringFunctions/arm_fir_interpolate_q31.c ****         /* Read the coefficient */
 146:DSP/Source/FilteringFunctions/arm_fir_interpolate_q31.c ****         c0 = *(ptr2 + S->L * 2);
 176              		.loc 1 146 9 is_stmt 1 view .LVU54
 177              		.loc 1 146 12 is_stmt 0 view .LVU55
 178 00a2 57F83C10 		ldr	r1, [r7, ip, lsl #3]
 179              	.LVL24:
 147:DSP/Source/FilteringFunctions/arm_fir_interpolate_q31.c **** 
 148:DSP/Source/FilteringFunctions/arm_fir_interpolate_q31.c ****         /* Read the input sample */
 149:DSP/Source/FilteringFunctions/arm_fir_interpolate_q31.c ****         x1 = *(ptr1++);
 180              		.loc 1 149 9 is_stmt 1 view .LVU56
 181              		.loc 1 149 12 is_stmt 0 view .LVU57
 182 00a6 B568     		ldr	r5, [r6, #8]
 183              	.LVL25:
 150:DSP/Source/FilteringFunctions/arm_fir_interpolate_q31.c **** 
 151:DSP/Source/FilteringFunctions/arm_fir_interpolate_q31.c ****         /* Perform the multiply-accumulate */
 152:DSP/Source/FilteringFunctions/arm_fir_interpolate_q31.c ****         acc0 += (q63_t) x0 *c0;
 184              		.loc 1 152 9 is_stmt 1 view .LVU58
 185              		.loc 1 152 28 is_stmt 0 view .LVU59
 186 00a8 CB17     		asrs	r3, r1, #31
 187 00aa 00FB03F8 		mul	r8, r0, r3
 188 00ae 01FB0988 		mla	r8, r1, r9, r8
 189 00b2 A0FB0190 		umull	r9, r0, r0, r1
 190              	.LVL26:
 191              		.loc 1 152 28 view .LVU60
ARM GAS  /var/folders/ck/g3dcd5x55xs4107jgdl0snvr0000gn/T//ccc8jccf.s 			page 7


 192 00b6 8044     		add	r8, r8, r0
 193              		.loc 1 152 14 view .LVU61
 194 00b8 19EB0209 		adds	r9, r9, r2
 195 00bc 48EB0E08 		adc	r8, r8, lr
 196              	.LVL27:
 153:DSP/Source/FilteringFunctions/arm_fir_interpolate_q31.c ****         acc1 += (q63_t) x1 *c0;
 197              		.loc 1 153 9 is_stmt 1 view .LVU62
 198              		.loc 1 153 17 is_stmt 0 view .LVU63
 199 00c0 EA17     		asrs	r2, r5, #31
 200              		.loc 1 153 28 view .LVU64
 201 00c2 01FB02F0 		mul	r0, r1, r2
 202 00c6 05FB0300 		mla	r0, r5, r3, r0
 203 00ca A1FB053E 		umull	r3, lr, r1, r5
 204 00ce 8644     		add	lr, lr, r0
 205              		.loc 1 153 14 view .LVU65
 206 00d0 13EB0A0A 		adds	r10, r3, r10
 207              	.LVL28:
 208              		.loc 1 153 14 view .LVU66
 209 00d4 4EEB040E 		adc	lr, lr, r4
 210              	.LVL29:
 154:DSP/Source/FilteringFunctions/arm_fir_interpolate_q31.c **** 
 155:DSP/Source/FilteringFunctions/arm_fir_interpolate_q31.c ****         /* Read the coefficient */
 156:DSP/Source/FilteringFunctions/arm_fir_interpolate_q31.c ****         c0 = *(ptr2 + S->L * 3);
 211              		.loc 1 156 9 is_stmt 1 view .LVU67
 212              		.loc 1 156 21 is_stmt 0 view .LVU68
 213 00d8 0CEB4C03 		add	r3, ip, ip, lsl #1
 214              		.loc 1 156 12 view .LVU69
 215 00dc 57F82330 		ldr	r3, [r7, r3, lsl #2]
 216              	.LVL30:
 157:DSP/Source/FilteringFunctions/arm_fir_interpolate_q31.c **** 
 158:DSP/Source/FilteringFunctions/arm_fir_interpolate_q31.c ****         /* Read the input sample */
 159:DSP/Source/FilteringFunctions/arm_fir_interpolate_q31.c ****         x0 = *(ptr1++);
 217              		.loc 1 159 9 is_stmt 1 view .LVU70
 218              		.loc 1 159 12 is_stmt 0 view .LVU71
 219 00e0 F468     		ldr	r4, [r6, #12]
 220              	.LVL31:
 160:DSP/Source/FilteringFunctions/arm_fir_interpolate_q31.c **** 
 161:DSP/Source/FilteringFunctions/arm_fir_interpolate_q31.c ****         /* Perform the multiply-accumulate */
 162:DSP/Source/FilteringFunctions/arm_fir_interpolate_q31.c ****         acc0 += (q63_t) x1 *c0;
 221              		.loc 1 162 9 is_stmt 1 view .LVU72
 222              		.loc 1 162 28 is_stmt 0 view .LVU73
 223 00e2 D917     		asrs	r1, r3, #31
 224 00e4 05FB01F0 		mul	r0, r5, r1
 225 00e8 03FB0200 		mla	r0, r3, r2, r0
 226 00ec A5FB0325 		umull	r2, r5, r5, r3
 227              	.LVL32:
 228              		.loc 1 162 28 view .LVU74
 229 00f0 2844     		add	r0, r0, r5
 230              		.loc 1 162 14 view .LVU75
 231 00f2 12EB0902 		adds	r2, r2, r9
 232 00f6 40EB0800 		adc	r0, r0, r8
 233              	.LVL33:
 163:DSP/Source/FilteringFunctions/arm_fir_interpolate_q31.c ****         acc1 += (q63_t) x0 *c0;
 234              		.loc 1 163 9 is_stmt 1 view .LVU76
 235              		.loc 1 163 17 is_stmt 0 view .LVU77
 236 00fa E517     		asrs	r5, r4, #31
 237              		.loc 1 163 28 view .LVU78
ARM GAS  /var/folders/ck/g3dcd5x55xs4107jgdl0snvr0000gn/T//ccc8jccf.s 			page 8


 238 00fc 03FB05F5 		mul	r5, r3, r5
 239 0100 04FB0155 		mla	r5, r4, r1, r5
 240 0104 A3FB0481 		umull	r8, r1, r3, r4
 241 0108 2944     		add	r1, r1, r5
 242              		.loc 1 163 14 view .LVU79
 243 010a 18EB0A08 		adds	r8, r8, r10
 244 010e 41EB0E01 		adc	r1, r1, lr
 245              	.LVL34:
 164:DSP/Source/FilteringFunctions/arm_fir_interpolate_q31.c **** 
 165:DSP/Source/FilteringFunctions/arm_fir_interpolate_q31.c **** 
 166:DSP/Source/FilteringFunctions/arm_fir_interpolate_q31.c ****         /* Upsampling is done by stuffing L-1 zeros between each sample.
 167:DSP/Source/FilteringFunctions/arm_fir_interpolate_q31.c ****          * So instead of multiplying zeros with coefficients,
 168:DSP/Source/FilteringFunctions/arm_fir_interpolate_q31.c ****          * Increment the coefficient pointer by interpolation factor times. */
 169:DSP/Source/FilteringFunctions/arm_fir_interpolate_q31.c ****         ptr2 += 4 * S->L;
 246              		.loc 1 169 9 is_stmt 1 view .LVU80
 247              		.loc 1 169 14 is_stmt 0 view .LVU81
 248 0112 07EB0C17 		add	r7, r7, ip, lsl #4
 249              	.LVL35:
 170:DSP/Source/FilteringFunctions/arm_fir_interpolate_q31.c **** 
 171:DSP/Source/FilteringFunctions/arm_fir_interpolate_q31.c ****         /* Decrement the loop counter */
 172:DSP/Source/FilteringFunctions/arm_fir_interpolate_q31.c ****         tapCnt--;
 250              		.loc 1 172 9 is_stmt 1 view .LVU82
 251              		.loc 1 172 15 is_stmt 0 view .LVU83
 252 0116 0BF1FF33 		add	r3, fp, #-1
 253              	.LVL36:
 254              		.loc 1 172 15 view .LVU84
 255 011a 1FFA83FB 		uxth	fp, r3
 256              	.LVL37:
 159:DSP/Source/FilteringFunctions/arm_fir_interpolate_q31.c **** 
 257              		.loc 1 159 20 view .LVU85
 258 011e 1036     		adds	r6, r6, #16
 259              	.LVL38:
 260              	.L4:
 120:DSP/Source/FilteringFunctions/arm_fir_interpolate_q31.c ****       {
 261              		.loc 1 120 21 is_stmt 1 view .LVU86
 262 0120 BBF1000F 		cmp	fp, #0
 263 0124 85D1     		bne	.L5
 173:DSP/Source/FilteringFunctions/arm_fir_interpolate_q31.c ****       }
 174:DSP/Source/FilteringFunctions/arm_fir_interpolate_q31.c **** 
 175:DSP/Source/FilteringFunctions/arm_fir_interpolate_q31.c ****       /* If the polyPhase length is not a multiple of 4, compute the remaining filter taps */
 176:DSP/Source/FilteringFunctions/arm_fir_interpolate_q31.c ****       tapCnt = phaseLen % 0x4U;
 264              		.loc 1 176 14 is_stmt 0 view .LVU87
 265 0126 A646     		mov	lr, r4
 266 0128 4346     		mov	r3, r8
 267              		.loc 1 176 7 is_stmt 1 view .LVU88
 268              		.loc 1 176 14 is_stmt 0 view .LVU89
 269 012a 059C     		ldr	r4, [sp, #20]
 270              	.LVL39:
 271              		.loc 1 176 14 view .LVU90
 272 012c 04F0030A 		and	r10, r4, #3
 273              	.LVL40:
 177:DSP/Source/FilteringFunctions/arm_fir_interpolate_q31.c **** 
 178:DSP/Source/FilteringFunctions/arm_fir_interpolate_q31.c ****       while (tapCnt > 0U)
 274              		.loc 1 178 7 is_stmt 1 view .LVU91
 275 0130 B946     		mov	r9, r7
 276 0132 5746     		mov	r7, r10
 277              	.LVL41:
ARM GAS  /var/folders/ck/g3dcd5x55xs4107jgdl0snvr0000gn/T//ccc8jccf.s 			page 9


 278              		.loc 1 178 13 is_stmt 0 view .LVU92
 279 0134 25E0     		b	.L6
 280              	.LVL42:
 281              	.L7:
 179:DSP/Source/FilteringFunctions/arm_fir_interpolate_q31.c ****       {
 180:DSP/Source/FilteringFunctions/arm_fir_interpolate_q31.c **** 
 181:DSP/Source/FilteringFunctions/arm_fir_interpolate_q31.c ****         /* Read the input sample */
 182:DSP/Source/FilteringFunctions/arm_fir_interpolate_q31.c ****         x1 = *(ptr1++);
 282              		.loc 1 182 9 is_stmt 1 view .LVU93
 283              		.loc 1 182 12 is_stmt 0 view .LVU94
 284 0136 56F8045B 		ldr	r5, [r6], #4
 285              	.LVL43:
 183:DSP/Source/FilteringFunctions/arm_fir_interpolate_q31.c **** 
 184:DSP/Source/FilteringFunctions/arm_fir_interpolate_q31.c ****         /* Read the coefficient */
 185:DSP/Source/FilteringFunctions/arm_fir_interpolate_q31.c ****         c0 = *(ptr2);
 286              		.loc 1 185 9 is_stmt 1 view .LVU95
 287              		.loc 1 185 12 is_stmt 0 view .LVU96
 288 013a D9F80040 		ldr	r4, [r9]
 289              	.LVL44:
 186:DSP/Source/FilteringFunctions/arm_fir_interpolate_q31.c **** 
 187:DSP/Source/FilteringFunctions/arm_fir_interpolate_q31.c ****         /* Perform the multiply-accumulate */
 188:DSP/Source/FilteringFunctions/arm_fir_interpolate_q31.c ****         acc0 += (q63_t) x0 *c0;
 290              		.loc 1 188 9 is_stmt 1 view .LVU97
 291              		.loc 1 188 17 is_stmt 0 view .LVU98
 292 013e 4FEAEE7B 		asr	fp, lr, #31
 293              		.loc 1 188 28 view .LVU99
 294 0142 4FEAE47A 		asr	r10, r4, #31
 295 0146 0EFB0AF8 		mul	r8, lr, r10
 296 014a 04FB0B88 		mla	r8, r4, fp, r8
 297 014e AEFB04EB 		umull	lr, fp, lr, r4
 298              	.LVL45:
 299              		.loc 1 188 28 view .LVU100
 300 0152 D844     		add	r8, r8, fp
 301              		.loc 1 188 14 view .LVU101
 302 0154 1EEB020E 		adds	lr, lr, r2
 303 0158 7246     		mov	r2, lr
 304              	.LVL46:
 305              		.loc 1 188 14 view .LVU102
 306 015a 48EB0000 		adc	r0, r8, r0
 307              	.LVL47:
 189:DSP/Source/FilteringFunctions/arm_fir_interpolate_q31.c ****         acc1 += (q63_t) x1 *c0;
 308              		.loc 1 189 9 is_stmt 1 view .LVU103
 309              		.loc 1 189 17 is_stmt 0 view .LVU104
 310 015e 4FEAE57E 		asr	lr, r5, #31
 311              		.loc 1 189 28 view .LVU105
 312 0162 04FB0EFE 		mul	lr, r4, lr
 313 0166 05FB0AEE 		mla	lr, r5, r10, lr
 314 016a A4FB0548 		umull	r4, r8, r4, r5
 315              	.LVL48:
 316              		.loc 1 189 28 view .LVU106
 317 016e C644     		add	lr, lr, r8
 318              		.loc 1 189 14 view .LVU107
 319 0170 E418     		adds	r4, r4, r3
 320 0172 2346     		mov	r3, r4
 321              	.LVL49:
 322              		.loc 1 189 14 view .LVU108
 323 0174 4EEB0101 		adc	r1, lr, r1
ARM GAS  /var/folders/ck/g3dcd5x55xs4107jgdl0snvr0000gn/T//ccc8jccf.s 			page 10


 324              	.LVL50:
 190:DSP/Source/FilteringFunctions/arm_fir_interpolate_q31.c **** 
 191:DSP/Source/FilteringFunctions/arm_fir_interpolate_q31.c ****         /* Increment the coefficient pointer by interpolation factor times. */
 192:DSP/Source/FilteringFunctions/arm_fir_interpolate_q31.c ****         ptr2 += S->L;
 325              		.loc 1 192 9 is_stmt 1 view .LVU109
 326              		.loc 1 192 14 is_stmt 0 view .LVU110
 327 0178 09EB8C09 		add	r9, r9, ip, lsl #2
 328              	.LVL51:
 193:DSP/Source/FilteringFunctions/arm_fir_interpolate_q31.c **** 
 194:DSP/Source/FilteringFunctions/arm_fir_interpolate_q31.c ****         /* update states for next sample processing */
 195:DSP/Source/FilteringFunctions/arm_fir_interpolate_q31.c ****         x0 = x1;
 329              		.loc 1 195 9 is_stmt 1 view .LVU111
 196:DSP/Source/FilteringFunctions/arm_fir_interpolate_q31.c **** 
 197:DSP/Source/FilteringFunctions/arm_fir_interpolate_q31.c ****         /* Decrement the loop counter */
 198:DSP/Source/FilteringFunctions/arm_fir_interpolate_q31.c ****         tapCnt--;
 330              		.loc 1 198 9 view .LVU112
 331              		.loc 1 198 15 is_stmt 0 view .LVU113
 332 017c 013F     		subs	r7, r7, #1
 333              	.LVL52:
 334              		.loc 1 198 15 view .LVU114
 335 017e BFB2     		uxth	r7, r7
 336              	.LVL53:
 195:DSP/Source/FilteringFunctions/arm_fir_interpolate_q31.c **** 
 337              		.loc 1 195 12 view .LVU115
 338 0180 AE46     		mov	lr, r5
 339              	.LVL54:
 340              	.L6:
 178:DSP/Source/FilteringFunctions/arm_fir_interpolate_q31.c ****       {
 341              		.loc 1 178 21 is_stmt 1 view .LVU116
 342 0182 002F     		cmp	r7, #0
 343 0184 D7D1     		bne	.L7
 199:DSP/Source/FilteringFunctions/arm_fir_interpolate_q31.c ****       }
 200:DSP/Source/FilteringFunctions/arm_fir_interpolate_q31.c **** 
 201:DSP/Source/FilteringFunctions/arm_fir_interpolate_q31.c ****       /* The result is in the accumulator, store in the destination buffer. */
 202:DSP/Source/FilteringFunctions/arm_fir_interpolate_q31.c ****       *pDst = (q31_t) (acc0 >> 31);
 344              		.loc 1 202 29 is_stmt 0 view .LVU117
 345 0186 DDF81C80 		ldr	r8, [sp, #28]
 346              		.loc 1 202 7 is_stmt 1 view .LVU118
 347              		.loc 1 202 29 is_stmt 0 view .LVU119
 348 018a D20F     		lsrs	r2, r2, #31
 349              	.LVL55:
 350              		.loc 1 202 29 view .LVU120
 351 018c 42EA4002 		orr	r2, r2, r0, lsl #1
 352              		.loc 1 202 13 view .LVU121
 353 0190 C8F80020 		str	r2, [r8]
 203:DSP/Source/FilteringFunctions/arm_fir_interpolate_q31.c ****       *(pDst + S->L) = (q31_t) (acc1 >> 31);
 354              		.loc 1 203 7 is_stmt 1 view .LVU122
 355              		.loc 1 203 38 is_stmt 0 view .LVU123
 356 0194 DB0F     		lsrs	r3, r3, #31
 357              	.LVL56:
 358              		.loc 1 203 38 view .LVU124
 359 0196 43EA4103 		orr	r3, r3, r1, lsl #1
 360              		.loc 1 203 17 view .LVU125
 361 019a 049A     		ldr	r2, [sp, #16]
 362 019c 1278     		ldrb	r2, [r2]	@ zero_extendqisi2
 363              		.loc 1 203 22 view .LVU126
 364 019e 48F82230 		str	r3, [r8, r2, lsl #2]
ARM GAS  /var/folders/ck/g3dcd5x55xs4107jgdl0snvr0000gn/T//ccc8jccf.s 			page 11


 204:DSP/Source/FilteringFunctions/arm_fir_interpolate_q31.c **** 
 205:DSP/Source/FilteringFunctions/arm_fir_interpolate_q31.c **** 
 206:DSP/Source/FilteringFunctions/arm_fir_interpolate_q31.c ****       pDst++;
 365              		.loc 1 206 7 is_stmt 1 view .LVU127
 366              		.loc 1 206 11 is_stmt 0 view .LVU128
 367 01a2 08F10408 		add	r8, r8, #4
 368              	.LVL57:
 207:DSP/Source/FilteringFunctions/arm_fir_interpolate_q31.c **** 
 208:DSP/Source/FilteringFunctions/arm_fir_interpolate_q31.c ****       /* Increment the address modifier index of coefficient buffer */
 209:DSP/Source/FilteringFunctions/arm_fir_interpolate_q31.c ****       j++;
 369              		.loc 1 209 7 is_stmt 1 view .LVU129
 370              		.loc 1 209 8 is_stmt 0 view .LVU130
 371 01a6 029B     		ldr	r3, [sp, #8]
 372 01a8 0133     		adds	r3, r3, #1
 373 01aa 0293     		str	r3, [sp, #8]
 374              	.LVL58:
 210:DSP/Source/FilteringFunctions/arm_fir_interpolate_q31.c **** 
 211:DSP/Source/FilteringFunctions/arm_fir_interpolate_q31.c ****       /* Decrement the loop counter */
 212:DSP/Source/FilteringFunctions/arm_fir_interpolate_q31.c ****       i--;
 375              		.loc 1 212 7 is_stmt 1 view .LVU131
 376              		.loc 1 212 8 is_stmt 0 view .LVU132
 377 01ac 019B     		ldr	r3, [sp, #4]
 378              	.LVL59:
 379              		.loc 1 212 8 view .LVU133
 380 01ae 013B     		subs	r3, r3, #1
 381 01b0 0193     		str	r3, [sp, #4]
 382              	.LVL60:
 383              	.L3:
 102:DSP/Source/FilteringFunctions/arm_fir_interpolate_q31.c ****     {
 384              		.loc 1 102 14 is_stmt 1 view .LVU134
 385 01b2 019B     		ldr	r3, [sp, #4]
 386 01b4 BBB1     		cbz	r3, .L23
 105:DSP/Source/FilteringFunctions/arm_fir_interpolate_q31.c ****       acc1 = 0;
 387              		.loc 1 105 7 view .LVU135
 388              	.LVL61:
 106:DSP/Source/FilteringFunctions/arm_fir_interpolate_q31.c **** 
 389              		.loc 1 106 7 view .LVU136
 109:DSP/Source/FilteringFunctions/arm_fir_interpolate_q31.c **** 
 390              		.loc 1 109 7 view .LVU137
 112:DSP/Source/FilteringFunctions/arm_fir_interpolate_q31.c **** 
 391              		.loc 1 112 7 view .LVU138
 112:DSP/Source/FilteringFunctions/arm_fir_interpolate_q31.c **** 
 392              		.loc 1 112 26 is_stmt 0 view .LVU139
 393 01b6 049B     		ldr	r3, [sp, #16]
 394 01b8 93F800C0 		ldrb	ip, [r3]	@ zero_extendqisi2
 112:DSP/Source/FilteringFunctions/arm_fir_interpolate_q31.c **** 
 395              		.loc 1 112 30 view .LVU140
 396 01bc 029B     		ldr	r3, [sp, #8]
 397 01be ACEB0307 		sub	r7, ip, r3
 112:DSP/Source/FilteringFunctions/arm_fir_interpolate_q31.c **** 
 398              		.loc 1 112 12 view .LVU141
 399 01c2 069B     		ldr	r3, [sp, #24]
 400 01c4 03EB8707 		add	r7, r3, r7, lsl #2
 401              	.LVL62:
 116:DSP/Source/FilteringFunctions/arm_fir_interpolate_q31.c **** 
 402              		.loc 1 116 7 is_stmt 1 view .LVU142
 116:DSP/Source/FilteringFunctions/arm_fir_interpolate_q31.c **** 
ARM GAS  /var/folders/ck/g3dcd5x55xs4107jgdl0snvr0000gn/T//ccc8jccf.s 			page 12


 403              		.loc 1 116 14 is_stmt 0 view .LVU143
 404 01c8 059B     		ldr	r3, [sp, #20]
 405 01ca 4FEA930B 		lsr	fp, r3, #2
 406              	.LVL63:
 118:DSP/Source/FilteringFunctions/arm_fir_interpolate_q31.c **** 
 407              		.loc 1 118 7 is_stmt 1 view .LVU144
 118:DSP/Source/FilteringFunctions/arm_fir_interpolate_q31.c **** 
 408              		.loc 1 118 18 is_stmt 0 view .LVU145
 409 01ce 039E     		ldr	r6, [sp, #12]
 410              	.LVL64:
 118:DSP/Source/FilteringFunctions/arm_fir_interpolate_q31.c **** 
 411              		.loc 1 118 10 view .LVU146
 412 01d0 56F804EB 		ldr	lr, [r6], #4
 413              	.LVL65:
 120:DSP/Source/FilteringFunctions/arm_fir_interpolate_q31.c ****       {
 414              		.loc 1 120 7 is_stmt 1 view .LVU147
 106:DSP/Source/FilteringFunctions/arm_fir_interpolate_q31.c **** 
 415              		.loc 1 106 12 is_stmt 0 view .LVU148
 416 01d4 0023     		movs	r3, #0
 417 01d6 1946     		mov	r1, r3
 105:DSP/Source/FilteringFunctions/arm_fir_interpolate_q31.c ****       acc1 = 0;
 418              		.loc 1 105 12 view .LVU149
 419 01d8 1A46     		mov	r2, r3
 420 01da 1846     		mov	r0, r3
 421 01dc 7446     		mov	r4, lr
 422 01de CDF81C80 		str	r8, [sp, #28]
 423 01e2 9846     		mov	r8, r3
 424              	.LVL66:
 120:DSP/Source/FilteringFunctions/arm_fir_interpolate_q31.c ****       {
 425              		.loc 1 120 13 view .LVU150
 426 01e4 9CE7     		b	.L4
 427              	.LVL67:
 428              	.L23:
 213:DSP/Source/FilteringFunctions/arm_fir_interpolate_q31.c ****     }
 214:DSP/Source/FilteringFunctions/arm_fir_interpolate_q31.c **** 
 215:DSP/Source/FilteringFunctions/arm_fir_interpolate_q31.c ****     /* Advance the state pointer by 1
 216:DSP/Source/FilteringFunctions/arm_fir_interpolate_q31.c ****      * to process the next group of interpolation factor number samples */
 217:DSP/Source/FilteringFunctions/arm_fir_interpolate_q31.c ****     pState = pState + 2;
 429              		.loc 1 217 12 view .LVU151
 430 01e6 089D     		ldr	r5, [sp, #32]
 431 01e8 0998     		ldr	r0, [sp, #36]
 432 01ea 0A99     		ldr	r1, [sp, #40]
 433 01ec 049A     		ldr	r2, [sp, #16]
 434              		.loc 1 217 5 is_stmt 1 view .LVU152
 435              		.loc 1 217 12 is_stmt 0 view .LVU153
 436 01ee 039B     		ldr	r3, [sp, #12]
 437              	.LVL68:
 438              		.loc 1 217 12 view .LVU154
 439 01f0 0833     		adds	r3, r3, #8
 440 01f2 0393     		str	r3, [sp, #12]
 441              	.LVL69:
 218:DSP/Source/FilteringFunctions/arm_fir_interpolate_q31.c **** 
 219:DSP/Source/FilteringFunctions/arm_fir_interpolate_q31.c ****     pDst += S->L;
 442              		.loc 1 219 5 is_stmt 1 view .LVU155
 443              		.loc 1 219 14 is_stmt 0 view .LVU156
 444 01f4 1378     		ldrb	r3, [r2]	@ zero_extendqisi2
 445              	.LVL70:
ARM GAS  /var/folders/ck/g3dcd5x55xs4107jgdl0snvr0000gn/T//ccc8jccf.s 			page 13


 446              		.loc 1 219 10 view .LVU157
 447 01f6 08EB8306 		add	r6, r8, r3, lsl #2
 448              	.LVL71:
 220:DSP/Source/FilteringFunctions/arm_fir_interpolate_q31.c **** 
 221:DSP/Source/FilteringFunctions/arm_fir_interpolate_q31.c ****     /* Decrement the loop counter */
 222:DSP/Source/FilteringFunctions/arm_fir_interpolate_q31.c ****     blkCnt--;
 449              		.loc 1 222 5 is_stmt 1 view .LVU158
 450              		.loc 1 222 11 is_stmt 0 view .LVU159
 451 01fa 013D     		subs	r5, r5, #1
 452              	.LVL72:
  94:DSP/Source/FilteringFunctions/arm_fir_interpolate_q31.c **** 
 453              		.loc 1 94 17 view .LVU160
 454 01fc 8E46     		mov	lr, r1
  94:DSP/Source/FilteringFunctions/arm_fir_interpolate_q31.c **** 
 455              		.loc 1 94 27 view .LVU161
 456 01fe 0446     		mov	r4, r0
 457              	.LVL73:
 458              	.L2:
  90:DSP/Source/FilteringFunctions/arm_fir_interpolate_q31.c ****   {
 459              		.loc 1 90 17 is_stmt 1 view .LVU162
 460 0200 B5B1     		cbz	r5, .L24
  93:DSP/Source/FilteringFunctions/arm_fir_interpolate_q31.c ****     *pStateCurnt++ = *pSrc++;
 461              		.loc 1 93 5 view .LVU163
 462              	.LVL74:
  93:DSP/Source/FilteringFunctions/arm_fir_interpolate_q31.c ****     *pStateCurnt++ = *pSrc++;
 463              		.loc 1 93 22 is_stmt 0 view .LVU164
 464 0202 2046     		mov	r0, r4
 465 0204 50F8083B 		ldr	r3, [r0], #8
  93:DSP/Source/FilteringFunctions/arm_fir_interpolate_q31.c ****     *pStateCurnt++ = *pSrc++;
 466              		.loc 1 93 20 view .LVU165
 467 0208 7146     		mov	r1, lr
 468 020a 41F8083B 		str	r3, [r1], #8
  94:DSP/Source/FilteringFunctions/arm_fir_interpolate_q31.c **** 
 469              		.loc 1 94 5 is_stmt 1 view .LVU166
 470              	.LVL75:
  94:DSP/Source/FilteringFunctions/arm_fir_interpolate_q31.c **** 
 471              		.loc 1 94 22 is_stmt 0 view .LVU167
 472 020e 6368     		ldr	r3, [r4, #4]
  94:DSP/Source/FilteringFunctions/arm_fir_interpolate_q31.c **** 
 473              		.loc 1 94 20 view .LVU168
 474 0210 CEF80430 		str	r3, [lr, #4]
  97:DSP/Source/FilteringFunctions/arm_fir_interpolate_q31.c **** 
 475              		.loc 1 97 5 is_stmt 1 view .LVU169
 476              	.LVL76:
 100:DSP/Source/FilteringFunctions/arm_fir_interpolate_q31.c **** 
 477              		.loc 1 100 5 view .LVU170
 100:DSP/Source/FilteringFunctions/arm_fir_interpolate_q31.c **** 
 478              		.loc 1 100 11 is_stmt 0 view .LVU171
 479 0214 92F800B0 		ldrb	fp, [r2]	@ zero_extendqisi2
 480              	.LVL77:
 102:DSP/Source/FilteringFunctions/arm_fir_interpolate_q31.c ****     {
 481              		.loc 1 102 5 is_stmt 1 view .LVU172
  97:DSP/Source/FilteringFunctions/arm_fir_interpolate_q31.c **** 
 482              		.loc 1 97 7 is_stmt 0 view .LVU173
 483 0218 4FF00109 		mov	r9, #1
 484 021c CDF804B0 		str	fp, [sp, #4]
 485 0220 0895     		str	r5, [sp, #32]
ARM GAS  /var/folders/ck/g3dcd5x55xs4107jgdl0snvr0000gn/T//ccc8jccf.s 			page 14


 486 0222 CDF80890 		str	r9, [sp, #8]
 487 0226 0990     		str	r0, [sp, #36]
 488 0228 0A91     		str	r1, [sp, #40]
 489 022a 0492     		str	r2, [sp, #16]
 490 022c B046     		mov	r8, r6
 102:DSP/Source/FilteringFunctions/arm_fir_interpolate_q31.c ****     {
 491              		.loc 1 102 11 view .LVU174
 492 022e C0E7     		b	.L3
 493              	.LVL78:
 494              	.L24:
 102:DSP/Source/FilteringFunctions/arm_fir_interpolate_q31.c ****     {
 495              		.loc 1 102 11 view .LVU175
 496 0230 0B99     		ldr	r1, [sp, #44]
 497 0232 9346     		mov	fp, r2
 498 0234 DDF814A0 		ldr	r10, [sp, #20]
 499 0238 3346     		mov	r3, r6
 500 023a 7246     		mov	r2, lr
 501 023c 98E0     		b	.L10
 502              	.LVL79:
 503              	.L13:
 223:DSP/Source/FilteringFunctions/arm_fir_interpolate_q31.c ****   }
 224:DSP/Source/FilteringFunctions/arm_fir_interpolate_q31.c **** 
 225:DSP/Source/FilteringFunctions/arm_fir_interpolate_q31.c ****   /* If the blockSize is not a multiple of 2, compute any remaining output samples here.
 226:DSP/Source/FilteringFunctions/arm_fir_interpolate_q31.c ****    ** No loop unrolling is used. */
 227:DSP/Source/FilteringFunctions/arm_fir_interpolate_q31.c ****   blkCnt = blkCntN2;
 228:DSP/Source/FilteringFunctions/arm_fir_interpolate_q31.c **** 
 229:DSP/Source/FilteringFunctions/arm_fir_interpolate_q31.c ****   /* Loop over the blockSize. */
 230:DSP/Source/FilteringFunctions/arm_fir_interpolate_q31.c ****   while (blkCnt > 0U)
 231:DSP/Source/FilteringFunctions/arm_fir_interpolate_q31.c ****   {
 232:DSP/Source/FilteringFunctions/arm_fir_interpolate_q31.c ****     /* Copy new input sample into the state buffer */
 233:DSP/Source/FilteringFunctions/arm_fir_interpolate_q31.c ****     *pStateCurnt++ = *pSrc++;
 234:DSP/Source/FilteringFunctions/arm_fir_interpolate_q31.c **** 
 235:DSP/Source/FilteringFunctions/arm_fir_interpolate_q31.c ****     /* Address modifier index of coefficient buffer */
 236:DSP/Source/FilteringFunctions/arm_fir_interpolate_q31.c ****     j = 1U;
 237:DSP/Source/FilteringFunctions/arm_fir_interpolate_q31.c **** 
 238:DSP/Source/FilteringFunctions/arm_fir_interpolate_q31.c ****     /* Loop over the Interpolation factor. */
 239:DSP/Source/FilteringFunctions/arm_fir_interpolate_q31.c ****     i = S->L;
 240:DSP/Source/FilteringFunctions/arm_fir_interpolate_q31.c ****     while (i > 0U)
 241:DSP/Source/FilteringFunctions/arm_fir_interpolate_q31.c ****     {
 242:DSP/Source/FilteringFunctions/arm_fir_interpolate_q31.c ****       /* Set accumulator to zero */
 243:DSP/Source/FilteringFunctions/arm_fir_interpolate_q31.c ****       sum0 = 0;
 244:DSP/Source/FilteringFunctions/arm_fir_interpolate_q31.c **** 
 245:DSP/Source/FilteringFunctions/arm_fir_interpolate_q31.c ****       /* Initialize state pointer */
 246:DSP/Source/FilteringFunctions/arm_fir_interpolate_q31.c ****       ptr1 = pState;
 247:DSP/Source/FilteringFunctions/arm_fir_interpolate_q31.c **** 
 248:DSP/Source/FilteringFunctions/arm_fir_interpolate_q31.c ****       /* Initialize coefficient pointer */
 249:DSP/Source/FilteringFunctions/arm_fir_interpolate_q31.c ****       ptr2 = pCoeffs + (S->L - j);
 250:DSP/Source/FilteringFunctions/arm_fir_interpolate_q31.c **** 
 251:DSP/Source/FilteringFunctions/arm_fir_interpolate_q31.c ****       /* Loop over the polyPhase length. Unroll by a factor of 4.
 252:DSP/Source/FilteringFunctions/arm_fir_interpolate_q31.c ****        ** Repeat until we've computed numTaps-(4*S->L) coefficients. */
 253:DSP/Source/FilteringFunctions/arm_fir_interpolate_q31.c ****       tapCnt = phaseLen >> 2;
 254:DSP/Source/FilteringFunctions/arm_fir_interpolate_q31.c ****       while (tapCnt > 0U)
 255:DSP/Source/FilteringFunctions/arm_fir_interpolate_q31.c ****       {
 256:DSP/Source/FilteringFunctions/arm_fir_interpolate_q31.c **** 
 257:DSP/Source/FilteringFunctions/arm_fir_interpolate_q31.c ****         /* Read the coefficient */
 258:DSP/Source/FilteringFunctions/arm_fir_interpolate_q31.c ****         c0 = *(ptr2);
 504              		.loc 1 258 9 is_stmt 1 view .LVU176
ARM GAS  /var/folders/ck/g3dcd5x55xs4107jgdl0snvr0000gn/T//ccc8jccf.s 			page 15


 505              		.loc 1 258 12 is_stmt 0 view .LVU177
 506 023e 2868     		ldr	r0, [r5]
 507              	.LVL80:
 259:DSP/Source/FilteringFunctions/arm_fir_interpolate_q31.c **** 
 260:DSP/Source/FilteringFunctions/arm_fir_interpolate_q31.c ****         /* Upsampling is done by stuffing L-1 zeros between each sample.
 261:DSP/Source/FilteringFunctions/arm_fir_interpolate_q31.c ****          * So instead of multiplying zeros with coefficients,
 262:DSP/Source/FilteringFunctions/arm_fir_interpolate_q31.c ****          * Increment the coefficient pointer by interpolation factor times. */
 263:DSP/Source/FilteringFunctions/arm_fir_interpolate_q31.c ****         ptr2 += S->L;
 508              		.loc 1 263 9 is_stmt 1 view .LVU178
 264:DSP/Source/FilteringFunctions/arm_fir_interpolate_q31.c **** 
 265:DSP/Source/FilteringFunctions/arm_fir_interpolate_q31.c ****         /* Read the input sample */
 266:DSP/Source/FilteringFunctions/arm_fir_interpolate_q31.c ****         x0 = *(ptr1++);
 509              		.loc 1 266 9 view .LVU179
 510              		.loc 1 266 12 is_stmt 0 view .LVU180
 511 0240 D1F800C0 		ldr	ip, [r1]
 512              	.LVL81:
 267:DSP/Source/FilteringFunctions/arm_fir_interpolate_q31.c **** 
 268:DSP/Source/FilteringFunctions/arm_fir_interpolate_q31.c ****         /* Perform the multiply-accumulate */
 269:DSP/Source/FilteringFunctions/arm_fir_interpolate_q31.c ****         sum0 += (q63_t) x0 *c0;
 513              		.loc 1 269 9 is_stmt 1 view .LVU181
 514              		.loc 1 269 17 is_stmt 0 view .LVU182
 515 0244 4FEAEC7E 		asr	lr, ip, #31
 516              		.loc 1 269 28 view .LVU183
 517 0248 4FEAE079 		asr	r9, r0, #31
 518 024c 00FB0EFE 		mul	lr, r0, lr
 519 0250 0CFB09E9 		mla	r9, ip, r9, lr
 520 0254 A0FB0CCE 		umull	ip, lr, r0, ip
 521              	.LVL82:
 522              		.loc 1 269 28 view .LVU184
 523 0258 CE44     		add	lr, lr, r9
 524              		.loc 1 269 14 view .LVU185
 525 025a 1CEB080C 		adds	ip, ip, r8
 526 025e 4EEB040E 		adc	lr, lr, r4
 527              	.LVL83:
 270:DSP/Source/FilteringFunctions/arm_fir_interpolate_q31.c **** 
 271:DSP/Source/FilteringFunctions/arm_fir_interpolate_q31.c ****         /* Read the coefficient */
 272:DSP/Source/FilteringFunctions/arm_fir_interpolate_q31.c ****         c0 = *(ptr2);
 528              		.loc 1 272 9 is_stmt 1 view .LVU186
 529              		.loc 1 272 12 is_stmt 0 view .LVU187
 530 0262 55F82640 		ldr	r4, [r5, r6, lsl #2]
 531              	.LVL84:
 273:DSP/Source/FilteringFunctions/arm_fir_interpolate_q31.c **** 
 274:DSP/Source/FilteringFunctions/arm_fir_interpolate_q31.c ****         /* Increment the coefficient pointer by interpolation factor times. */
 275:DSP/Source/FilteringFunctions/arm_fir_interpolate_q31.c ****         ptr2 += S->L;
 532              		.loc 1 275 9 is_stmt 1 view .LVU188
 533              		.loc 1 275 14 is_stmt 0 view .LVU189
 534 0266 05EBC609 		add	r9, r5, r6, lsl #3
 535              	.LVL85:
 276:DSP/Source/FilteringFunctions/arm_fir_interpolate_q31.c **** 
 277:DSP/Source/FilteringFunctions/arm_fir_interpolate_q31.c ****         /* Read the input sample */
 278:DSP/Source/FilteringFunctions/arm_fir_interpolate_q31.c ****         x0 = *(ptr1++);
 536              		.loc 1 278 9 is_stmt 1 view .LVU190
 537              		.loc 1 278 12 is_stmt 0 view .LVU191
 538 026a 4868     		ldr	r0, [r1, #4]
 539              	.LVL86:
 279:DSP/Source/FilteringFunctions/arm_fir_interpolate_q31.c **** 
 280:DSP/Source/FilteringFunctions/arm_fir_interpolate_q31.c ****         /* Perform the multiply-accumulate */
ARM GAS  /var/folders/ck/g3dcd5x55xs4107jgdl0snvr0000gn/T//ccc8jccf.s 			page 16


 281:DSP/Source/FilteringFunctions/arm_fir_interpolate_q31.c ****         sum0 += (q63_t) x0 *c0;
 540              		.loc 1 281 9 is_stmt 1 view .LVU192
 541              		.loc 1 281 17 is_stmt 0 view .LVU193
 542 026c 4FEAE078 		asr	r8, r0, #31
 543              		.loc 1 281 28 view .LVU194
 544 0270 4FEAE47A 		asr	r10, r4, #31
 545 0274 04FB08F8 		mul	r8, r4, r8
 546 0278 00FB0A88 		mla	r8, r0, r10, r8
 547 027c A4FB0004 		umull	r0, r4, r4, r0
 548              	.LVL87:
 549              		.loc 1 281 28 view .LVU195
 550 0280 4444     		add	r4, r4, r8
 551              		.loc 1 281 14 view .LVU196
 552 0282 10EB0C0C 		adds	ip, r0, ip
 553              	.LVL88:
 554              		.loc 1 281 14 view .LVU197
 555 0286 44EB0E04 		adc	r4, r4, lr
 556              	.LVL89:
 282:DSP/Source/FilteringFunctions/arm_fir_interpolate_q31.c **** 
 283:DSP/Source/FilteringFunctions/arm_fir_interpolate_q31.c ****         /* Read the coefficient */
 284:DSP/Source/FilteringFunctions/arm_fir_interpolate_q31.c ****         c0 = *(ptr2);
 557              		.loc 1 284 9 is_stmt 1 view .LVU198
 558              		.loc 1 284 12 is_stmt 0 view .LVU199
 559 028a 55F83650 		ldr	r5, [r5, r6, lsl #3]
 560              	.LVL90:
 285:DSP/Source/FilteringFunctions/arm_fir_interpolate_q31.c **** 
 286:DSP/Source/FilteringFunctions/arm_fir_interpolate_q31.c ****         /* Increment the coefficient pointer by interpolation factor times. */
 287:DSP/Source/FilteringFunctions/arm_fir_interpolate_q31.c ****         ptr2 += S->L;
 561              		.loc 1 287 9 is_stmt 1 view .LVU200
 288:DSP/Source/FilteringFunctions/arm_fir_interpolate_q31.c **** 
 289:DSP/Source/FilteringFunctions/arm_fir_interpolate_q31.c ****         /* Read the input sample */
 290:DSP/Source/FilteringFunctions/arm_fir_interpolate_q31.c ****         x0 = *(ptr1++);
 562              		.loc 1 290 9 view .LVU201
 563              		.loc 1 290 12 is_stmt 0 view .LVU202
 564 028e 8868     		ldr	r0, [r1, #8]
 565              	.LVL91:
 291:DSP/Source/FilteringFunctions/arm_fir_interpolate_q31.c **** 
 292:DSP/Source/FilteringFunctions/arm_fir_interpolate_q31.c ****         /* Perform the multiply-accumulate */
 293:DSP/Source/FilteringFunctions/arm_fir_interpolate_q31.c ****         sum0 += (q63_t) x0 *c0;
 566              		.loc 1 293 9 is_stmt 1 view .LVU203
 567              		.loc 1 293 17 is_stmt 0 view .LVU204
 568 0290 4FEAE07E 		asr	lr, r0, #31
 569              		.loc 1 293 28 view .LVU205
 570 0294 4FEAE578 		asr	r8, r5, #31
 571 0298 05FB0EFE 		mul	lr, r5, lr
 572 029c 00FB08E8 		mla	r8, r0, r8, lr
 573 02a0 A5FB000E 		umull	r0, lr, r5, r0
 574              	.LVL92:
 575              		.loc 1 293 28 view .LVU206
 576 02a4 C644     		add	lr, lr, r8
 577              		.loc 1 293 14 view .LVU207
 578 02a6 10EB0C0C 		adds	ip, r0, ip
 579              	.LVL93:
 580              		.loc 1 293 14 view .LVU208
 581 02aa 4EEB040E 		adc	lr, lr, r4
 582              	.LVL94:
 294:DSP/Source/FilteringFunctions/arm_fir_interpolate_q31.c **** 
ARM GAS  /var/folders/ck/g3dcd5x55xs4107jgdl0snvr0000gn/T//ccc8jccf.s 			page 17


 295:DSP/Source/FilteringFunctions/arm_fir_interpolate_q31.c ****         /* Read the coefficient */
 296:DSP/Source/FilteringFunctions/arm_fir_interpolate_q31.c ****         c0 = *(ptr2);
 583              		.loc 1 296 9 is_stmt 1 view .LVU209
 584              		.loc 1 296 12 is_stmt 0 view .LVU210
 585 02ae 59F82640 		ldr	r4, [r9, r6, lsl #2]
 586              	.LVL95:
 297:DSP/Source/FilteringFunctions/arm_fir_interpolate_q31.c **** 
 298:DSP/Source/FilteringFunctions/arm_fir_interpolate_q31.c ****         /* Increment the coefficient pointer by interpolation factor times. */
 299:DSP/Source/FilteringFunctions/arm_fir_interpolate_q31.c ****         ptr2 += S->L;
 587              		.loc 1 299 9 is_stmt 1 view .LVU211
 588              		.loc 1 299 14 is_stmt 0 view .LVU212
 589 02b2 09EBC605 		add	r5, r9, r6, lsl #3
 590              	.LVL96:
 300:DSP/Source/FilteringFunctions/arm_fir_interpolate_q31.c **** 
 301:DSP/Source/FilteringFunctions/arm_fir_interpolate_q31.c ****         /* Read the input sample */
 302:DSP/Source/FilteringFunctions/arm_fir_interpolate_q31.c ****         x0 = *(ptr1++);
 591              		.loc 1 302 9 is_stmt 1 view .LVU213
 592              		.loc 1 302 12 is_stmt 0 view .LVU214
 593 02b6 C868     		ldr	r0, [r1, #12]
 594              	.LVL97:
 303:DSP/Source/FilteringFunctions/arm_fir_interpolate_q31.c **** 
 304:DSP/Source/FilteringFunctions/arm_fir_interpolate_q31.c ****         /* Perform the multiply-accumulate */
 305:DSP/Source/FilteringFunctions/arm_fir_interpolate_q31.c ****         sum0 += (q63_t) x0 *c0;
 595              		.loc 1 305 9 is_stmt 1 view .LVU215
 596              		.loc 1 305 17 is_stmt 0 view .LVU216
 597 02b8 4FEAE078 		asr	r8, r0, #31
 598              		.loc 1 305 28 view .LVU217
 599 02bc 4FEAE479 		asr	r9, r4, #31
 600 02c0 04FB08F8 		mul	r8, r4, r8
 601 02c4 00FB0988 		mla	r8, r0, r9, r8
 602 02c8 A4FB0004 		umull	r0, r4, r4, r0
 603              	.LVL98:
 604              		.loc 1 305 28 view .LVU218
 605 02cc 4444     		add	r4, r4, r8
 606              		.loc 1 305 14 view .LVU219
 607 02ce 10EB0C08 		adds	r8, r0, ip
 608 02d2 44EB0E04 		adc	r4, r4, lr
 609              	.LVL99:
 306:DSP/Source/FilteringFunctions/arm_fir_interpolate_q31.c **** 
 307:DSP/Source/FilteringFunctions/arm_fir_interpolate_q31.c ****         /* Decrement the loop counter */
 308:DSP/Source/FilteringFunctions/arm_fir_interpolate_q31.c ****         tapCnt--;
 610              		.loc 1 308 9 is_stmt 1 view .LVU220
 611              		.loc 1 308 15 is_stmt 0 view .LVU221
 612 02d6 013B     		subs	r3, r3, #1
 613              	.LVL100:
 614              		.loc 1 308 15 view .LVU222
 615 02d8 9BB2     		uxth	r3, r3
 616              	.LVL101:
 302:DSP/Source/FilteringFunctions/arm_fir_interpolate_q31.c **** 
 617              		.loc 1 302 20 view .LVU223
 618 02da 1031     		adds	r1, r1, #16
 619              	.LVL102:
 620              	.L12:
 254:DSP/Source/FilteringFunctions/arm_fir_interpolate_q31.c ****       {
 621              		.loc 1 254 21 is_stmt 1 view .LVU224
 622 02dc 002B     		cmp	r3, #0
 623 02de AED1     		bne	.L13
ARM GAS  /var/folders/ck/g3dcd5x55xs4107jgdl0snvr0000gn/T//ccc8jccf.s 			page 18


 309:DSP/Source/FilteringFunctions/arm_fir_interpolate_q31.c ****       }
 310:DSP/Source/FilteringFunctions/arm_fir_interpolate_q31.c **** 
 311:DSP/Source/FilteringFunctions/arm_fir_interpolate_q31.c ****       /* If the polyPhase length is not a multiple of 4, compute the remaining filter taps */
 312:DSP/Source/FilteringFunctions/arm_fir_interpolate_q31.c ****       tapCnt = phaseLen & 0x3U;
 624              		.loc 1 312 14 is_stmt 0 view .LVU225
 625 02e0 DDF810A0 		ldr	r10, [sp, #16]
 626 02e4 4046     		mov	r0, r8
 627              		.loc 1 312 7 is_stmt 1 view .LVU226
 628              		.loc 1 312 14 is_stmt 0 view .LVU227
 629 02e6 0AF00303 		and	r3, r10, #3
 630              	.LVL103:
 313:DSP/Source/FilteringFunctions/arm_fir_interpolate_q31.c **** 
 314:DSP/Source/FilteringFunctions/arm_fir_interpolate_q31.c ****       while (tapCnt > 0U)
 631              		.loc 1 314 7 is_stmt 1 view .LVU228
 632 02ea 8E46     		mov	lr, r1
 633 02ec A846     		mov	r8, r5
 634              	.LVL104:
 635              		.loc 1 314 13 is_stmt 0 view .LVU229
 636 02ee 16E0     		b	.L14
 637              	.LVL105:
 638              	.L15:
 315:DSP/Source/FilteringFunctions/arm_fir_interpolate_q31.c ****       {
 316:DSP/Source/FilteringFunctions/arm_fir_interpolate_q31.c ****         /* Read the coefficient */
 317:DSP/Source/FilteringFunctions/arm_fir_interpolate_q31.c ****         c0 = *(ptr2);
 639              		.loc 1 317 9 is_stmt 1 view .LVU230
 640              		.loc 1 317 12 is_stmt 0 view .LVU231
 641 02f0 D8F80050 		ldr	r5, [r8]
 642              	.LVL106:
 318:DSP/Source/FilteringFunctions/arm_fir_interpolate_q31.c **** 
 319:DSP/Source/FilteringFunctions/arm_fir_interpolate_q31.c ****         /* Increment the coefficient pointer by interpolation factor times. */
 320:DSP/Source/FilteringFunctions/arm_fir_interpolate_q31.c ****         ptr2 += S->L;
 643              		.loc 1 320 9 is_stmt 1 view .LVU232
 644              		.loc 1 320 14 is_stmt 0 view .LVU233
 645 02f4 08EB8608 		add	r8, r8, r6, lsl #2
 646              	.LVL107:
 321:DSP/Source/FilteringFunctions/arm_fir_interpolate_q31.c **** 
 322:DSP/Source/FilteringFunctions/arm_fir_interpolate_q31.c ****         /* Read the input sample */
 323:DSP/Source/FilteringFunctions/arm_fir_interpolate_q31.c ****         x0 = *(ptr1++);
 647              		.loc 1 323 9 is_stmt 1 view .LVU234
 648              		.loc 1 323 12 is_stmt 0 view .LVU235
 649 02f8 5EF8041B 		ldr	r1, [lr], #4
 650              	.LVL108:
 324:DSP/Source/FilteringFunctions/arm_fir_interpolate_q31.c **** 
 325:DSP/Source/FilteringFunctions/arm_fir_interpolate_q31.c ****         /* Perform the multiply-accumulate */
 326:DSP/Source/FilteringFunctions/arm_fir_interpolate_q31.c ****         sum0 += (q63_t) x0 *c0;
 651              		.loc 1 326 9 is_stmt 1 view .LVU236
 652              		.loc 1 326 17 is_stmt 0 view .LVU237
 653 02fc 4FEAE17C 		asr	ip, r1, #31
 654              		.loc 1 326 28 view .LVU238
 655 0300 4FEAE579 		asr	r9, r5, #31
 656 0304 05FB0CFC 		mul	ip, r5, ip
 657 0308 01FB09CC 		mla	ip, r1, r9, ip
 658 030c A5FB0151 		umull	r5, r1, r5, r1
 659              	.LVL109:
 660              		.loc 1 326 28 view .LVU239
 661 0310 8C44     		add	ip, ip, r1
 662              		.loc 1 326 14 view .LVU240
ARM GAS  /var/folders/ck/g3dcd5x55xs4107jgdl0snvr0000gn/T//ccc8jccf.s 			page 19


 663 0312 2D18     		adds	r5, r5, r0
 664 0314 2846     		mov	r0, r5
 665              	.LVL110:
 666              		.loc 1 326 14 view .LVU241
 667 0316 4CEB0404 		adc	r4, ip, r4
 668              	.LVL111:
 327:DSP/Source/FilteringFunctions/arm_fir_interpolate_q31.c **** 
 328:DSP/Source/FilteringFunctions/arm_fir_interpolate_q31.c ****         /* Decrement the loop counter */
 329:DSP/Source/FilteringFunctions/arm_fir_interpolate_q31.c ****         tapCnt--;
 669              		.loc 1 329 9 is_stmt 1 view .LVU242
 670              		.loc 1 329 15 is_stmt 0 view .LVU243
 671 031a 013B     		subs	r3, r3, #1
 672              	.LVL112:
 673              		.loc 1 329 15 view .LVU244
 674 031c 9BB2     		uxth	r3, r3
 675              	.LVL113:
 676              	.L14:
 314:DSP/Source/FilteringFunctions/arm_fir_interpolate_q31.c ****       {
 677              		.loc 1 314 21 is_stmt 1 view .LVU245
 678 031e 002B     		cmp	r3, #0
 679 0320 E6D1     		bne	.L15
 330:DSP/Source/FilteringFunctions/arm_fir_interpolate_q31.c ****       }
 331:DSP/Source/FilteringFunctions/arm_fir_interpolate_q31.c **** 
 332:DSP/Source/FilteringFunctions/arm_fir_interpolate_q31.c ****       /* The result is in the accumulator, store in the destination buffer. */
 333:DSP/Source/FilteringFunctions/arm_fir_interpolate_q31.c ****       *pDst++ = (q31_t) (sum0 >> 31);
 680              		.loc 1 333 7 view .LVU246
 681              		.loc 1 333 31 is_stmt 0 view .LVU247
 682 0322 C00F     		lsrs	r0, r0, #31
 683              	.LVL114:
 684              		.loc 1 333 31 view .LVU248
 685 0324 40EA4400 		orr	r0, r0, r4, lsl #1
 686              		.loc 1 333 12 view .LVU249
 687 0328 3946     		mov	r1, r7
 688              	.LVL115:
 689              		.loc 1 333 15 view .LVU250
 690 032a 41F8040B 		str	r0, [r1], #4
 691              	.LVL116:
 334:DSP/Source/FilteringFunctions/arm_fir_interpolate_q31.c **** 
 335:DSP/Source/FilteringFunctions/arm_fir_interpolate_q31.c ****       /* Increment the address modifier index of coefficient buffer */
 336:DSP/Source/FilteringFunctions/arm_fir_interpolate_q31.c ****       j++;
 692              		.loc 1 336 7 is_stmt 1 view .LVU251
 693              		.loc 1 336 8 is_stmt 0 view .LVU252
 694 032e 029B     		ldr	r3, [sp, #8]
 695              	.LVL117:
 696              		.loc 1 336 8 view .LVU253
 697 0330 0133     		adds	r3, r3, #1
 698 0332 0293     		str	r3, [sp, #8]
 699              	.LVL118:
 337:DSP/Source/FilteringFunctions/arm_fir_interpolate_q31.c **** 
 338:DSP/Source/FilteringFunctions/arm_fir_interpolate_q31.c ****       /* Decrement the loop counter */
 339:DSP/Source/FilteringFunctions/arm_fir_interpolate_q31.c ****       i--;
 700              		.loc 1 339 7 is_stmt 1 view .LVU254
 701              		.loc 1 339 8 is_stmt 0 view .LVU255
 702 0334 019B     		ldr	r3, [sp, #4]
 703              	.LVL119:
 704              		.loc 1 339 8 view .LVU256
 705 0336 013B     		subs	r3, r3, #1
ARM GAS  /var/folders/ck/g3dcd5x55xs4107jgdl0snvr0000gn/T//ccc8jccf.s 			page 20


 706 0338 0193     		str	r3, [sp, #4]
 707              	.LVL120:
 333:DSP/Source/FilteringFunctions/arm_fir_interpolate_q31.c **** 
 708              		.loc 1 333 12 view .LVU257
 709 033a 0F46     		mov	r7, r1
 710              	.LVL121:
 711              	.L11:
 240:DSP/Source/FilteringFunctions/arm_fir_interpolate_q31.c ****     {
 712              		.loc 1 240 14 is_stmt 1 view .LVU258
 713 033c 019B     		ldr	r3, [sp, #4]
 714 033e 7BB1     		cbz	r3, .L25
 243:DSP/Source/FilteringFunctions/arm_fir_interpolate_q31.c **** 
 715              		.loc 1 243 7 view .LVU259
 716              	.LVL122:
 246:DSP/Source/FilteringFunctions/arm_fir_interpolate_q31.c **** 
 717              		.loc 1 246 7 view .LVU260
 249:DSP/Source/FilteringFunctions/arm_fir_interpolate_q31.c **** 
 718              		.loc 1 249 7 view .LVU261
 249:DSP/Source/FilteringFunctions/arm_fir_interpolate_q31.c **** 
 719              		.loc 1 249 26 is_stmt 0 view .LVU262
 720 0340 9BF80060 		ldrb	r6, [fp]	@ zero_extendqisi2
 249:DSP/Source/FilteringFunctions/arm_fir_interpolate_q31.c **** 
 721              		.loc 1 249 30 view .LVU263
 722 0344 029B     		ldr	r3, [sp, #8]
 723 0346 F51A     		subs	r5, r6, r3
 249:DSP/Source/FilteringFunctions/arm_fir_interpolate_q31.c **** 
 724              		.loc 1 249 12 view .LVU264
 725 0348 069B     		ldr	r3, [sp, #24]
 726 034a 03EB8505 		add	r5, r3, r5, lsl #2
 727              	.LVL123:
 253:DSP/Source/FilteringFunctions/arm_fir_interpolate_q31.c ****       while (tapCnt > 0U)
 728              		.loc 1 253 7 is_stmt 1 view .LVU265
 253:DSP/Source/FilteringFunctions/arm_fir_interpolate_q31.c ****       while (tapCnt > 0U)
 729              		.loc 1 253 14 is_stmt 0 view .LVU266
 730 034e 4FEA9A03 		lsr	r3, r10, #2
 731              	.LVL124:
 254:DSP/Source/FilteringFunctions/arm_fir_interpolate_q31.c ****       {
 732              		.loc 1 254 7 is_stmt 1 view .LVU267
 246:DSP/Source/FilteringFunctions/arm_fir_interpolate_q31.c **** 
 733              		.loc 1 246 12 is_stmt 0 view .LVU268
 734 0352 0399     		ldr	r1, [sp, #12]
 243:DSP/Source/FilteringFunctions/arm_fir_interpolate_q31.c **** 
 735              		.loc 1 243 12 view .LVU269
 736 0354 0020     		movs	r0, #0
 737 0356 0446     		mov	r4, r0
 738 0358 CDF810A0 		str	r10, [sp, #16]
 739 035c 8046     		mov	r8, r0
 254:DSP/Source/FilteringFunctions/arm_fir_interpolate_q31.c ****       {
 740              		.loc 1 254 13 view .LVU270
 741 035e BDE7     		b	.L12
 742              	.LVL125:
 743              	.L25:
 340:DSP/Source/FilteringFunctions/arm_fir_interpolate_q31.c ****     }
 341:DSP/Source/FilteringFunctions/arm_fir_interpolate_q31.c **** 
 342:DSP/Source/FilteringFunctions/arm_fir_interpolate_q31.c ****     /* Advance the state pointer by 1
 343:DSP/Source/FilteringFunctions/arm_fir_interpolate_q31.c ****      * to process the next group of interpolation factor number samples */
 344:DSP/Source/FilteringFunctions/arm_fir_interpolate_q31.c ****     pState = pState + 1;
ARM GAS  /var/folders/ck/g3dcd5x55xs4107jgdl0snvr0000gn/T//ccc8jccf.s 			page 21


 744              		.loc 1 344 12 view .LVU271
 745 0360 0799     		ldr	r1, [sp, #28]
 746 0362 1446     		mov	r4, r2
 747 0364 089A     		ldr	r2, [sp, #32]
 748              	.LVL126:
 749              		.loc 1 344 12 view .LVU272
 750 0366 3B46     		mov	r3, r7
 751              	.LVL127:
 752              		.loc 1 344 5 is_stmt 1 view .LVU273
 753              		.loc 1 344 12 is_stmt 0 view .LVU274
 754 0368 0398     		ldr	r0, [sp, #12]
 755 036a 0430     		adds	r0, r0, #4
 756 036c 0390     		str	r0, [sp, #12]
 757              	.LVL128:
 345:DSP/Source/FilteringFunctions/arm_fir_interpolate_q31.c **** 
 346:DSP/Source/FilteringFunctions/arm_fir_interpolate_q31.c ****     /* Decrement the loop counter */
 347:DSP/Source/FilteringFunctions/arm_fir_interpolate_q31.c ****     blkCnt--;
 758              		.loc 1 347 5 is_stmt 1 view .LVU275
 759              		.loc 1 347 11 is_stmt 0 view .LVU276
 760 036e 0139     		subs	r1, r1, #1
 761              	.LVL129:
 762              	.L10:
 230:DSP/Source/FilteringFunctions/arm_fir_interpolate_q31.c ****   {
 763              		.loc 1 230 17 is_stmt 1 view .LVU277
 764 0370 81B1     		cbz	r1, .L26
 233:DSP/Source/FilteringFunctions/arm_fir_interpolate_q31.c **** 
 765              		.loc 1 233 5 view .LVU278
 766              	.LVL130:
 233:DSP/Source/FilteringFunctions/arm_fir_interpolate_q31.c **** 
 767              		.loc 1 233 22 is_stmt 0 view .LVU279
 768 0372 54F8040B 		ldr	r0, [r4], #4
 769              	.LVL131:
 233:DSP/Source/FilteringFunctions/arm_fir_interpolate_q31.c **** 
 770              		.loc 1 233 20 view .LVU280
 771 0376 42F8040B 		str	r0, [r2], #4
 772              	.LVL132:
 236:DSP/Source/FilteringFunctions/arm_fir_interpolate_q31.c **** 
 773              		.loc 1 236 5 is_stmt 1 view .LVU281
 239:DSP/Source/FilteringFunctions/arm_fir_interpolate_q31.c ****     while (i > 0U)
 774              		.loc 1 239 5 view .LVU282
 239:DSP/Source/FilteringFunctions/arm_fir_interpolate_q31.c ****     while (i > 0U)
 775              		.loc 1 239 10 is_stmt 0 view .LVU283
 776 037a 9BF80080 		ldrb	r8, [fp]	@ zero_extendqisi2
 777              	.LVL133:
 240:DSP/Source/FilteringFunctions/arm_fir_interpolate_q31.c ****     {
 778              		.loc 1 240 5 is_stmt 1 view .LVU284
 236:DSP/Source/FilteringFunctions/arm_fir_interpolate_q31.c **** 
 779              		.loc 1 236 7 is_stmt 0 view .LVU285
 780 037e 4FF00109 		mov	r9, #1
 781 0382 CDF80480 		str	r8, [sp, #4]
 782 0386 0791     		str	r1, [sp, #28]
 783 0388 CDF80890 		str	r9, [sp, #8]
 784 038c 0892     		str	r2, [sp, #32]
 785 038e 2246     		mov	r2, r4
 786              	.LVL134:
 236:DSP/Source/FilteringFunctions/arm_fir_interpolate_q31.c **** 
 787              		.loc 1 236 7 view .LVU286
ARM GAS  /var/folders/ck/g3dcd5x55xs4107jgdl0snvr0000gn/T//ccc8jccf.s 			page 22


 788 0390 1F46     		mov	r7, r3
 240:DSP/Source/FilteringFunctions/arm_fir_interpolate_q31.c ****     {
 789              		.loc 1 240 11 view .LVU287
 790 0392 D3E7     		b	.L11
 791              	.LVL135:
 792              	.L26:
 348:DSP/Source/FilteringFunctions/arm_fir_interpolate_q31.c ****   }
 349:DSP/Source/FilteringFunctions/arm_fir_interpolate_q31.c **** 
 350:DSP/Source/FilteringFunctions/arm_fir_interpolate_q31.c ****   /* Processing is complete.
 351:DSP/Source/FilteringFunctions/arm_fir_interpolate_q31.c ****    ** Now copy the last phaseLen - 1 samples to the satrt of the state buffer.
 352:DSP/Source/FilteringFunctions/arm_fir_interpolate_q31.c ****    ** This prepares the state buffer for the next function call. */
 353:DSP/Source/FilteringFunctions/arm_fir_interpolate_q31.c **** 
 354:DSP/Source/FilteringFunctions/arm_fir_interpolate_q31.c ****   /* Points to the start of the state buffer */
 355:DSP/Source/FilteringFunctions/arm_fir_interpolate_q31.c ****   pStateCurnt = S->pState;
 793              		.loc 1 355 3 is_stmt 1 view .LVU288
 794              		.loc 1 355 15 is_stmt 0 view .LVU289
 795 0394 DBF80820 		ldr	r2, [fp, #8]
 796              	.LVL136:
 356:DSP/Source/FilteringFunctions/arm_fir_interpolate_q31.c **** 
 357:DSP/Source/FilteringFunctions/arm_fir_interpolate_q31.c ****   tapCnt = (phaseLen - 1U) >> 2U;
 797              		.loc 1 357 3 is_stmt 1 view .LVU290
 798              		.loc 1 357 22 is_stmt 0 view .LVU291
 799 0398 059B     		ldr	r3, [sp, #20]
 800              	.LVL137:
 801              		.loc 1 357 22 view .LVU292
 802 039a 013B     		subs	r3, r3, #1
 803              		.loc 1 357 10 view .LVU293
 804 039c C3F38F03 		ubfx	r3, r3, #2, #16
 805              	.LVL138:
 358:DSP/Source/FilteringFunctions/arm_fir_interpolate_q31.c **** 
 359:DSP/Source/FilteringFunctions/arm_fir_interpolate_q31.c ****   /* copy data */
 360:DSP/Source/FilteringFunctions/arm_fir_interpolate_q31.c ****   while (tapCnt > 0U)
 806              		.loc 1 360 3 is_stmt 1 view .LVU294
 807 03a0 0399     		ldr	r1, [sp, #12]
 808              	.LVL139:
 809              		.loc 1 360 9 is_stmt 0 view .LVU295
 810 03a2 0BE0     		b	.L18
 811              	.LVL140:
 812              	.L19:
 361:DSP/Source/FilteringFunctions/arm_fir_interpolate_q31.c ****   {
 362:DSP/Source/FilteringFunctions/arm_fir_interpolate_q31.c ****     *pStateCurnt++ = *pState++;
 813              		.loc 1 362 5 is_stmt 1 view .LVU296
 814              		.loc 1 362 22 is_stmt 0 view .LVU297
 815 03a4 0868     		ldr	r0, [r1]
 816              		.loc 1 362 20 view .LVU298
 817 03a6 1060     		str	r0, [r2]
 363:DSP/Source/FilteringFunctions/arm_fir_interpolate_q31.c ****     *pStateCurnt++ = *pState++;
 818              		.loc 1 363 5 is_stmt 1 view .LVU299
 819              	.LVL141:
 820              		.loc 1 363 22 is_stmt 0 view .LVU300
 821 03a8 4868     		ldr	r0, [r1, #4]
 822              		.loc 1 363 20 view .LVU301
 823 03aa 5060     		str	r0, [r2, #4]
 364:DSP/Source/FilteringFunctions/arm_fir_interpolate_q31.c ****     *pStateCurnt++ = *pState++;
 824              		.loc 1 364 5 is_stmt 1 view .LVU302
 825              	.LVL142:
 826              		.loc 1 364 22 is_stmt 0 view .LVU303
ARM GAS  /var/folders/ck/g3dcd5x55xs4107jgdl0snvr0000gn/T//ccc8jccf.s 			page 23


 827 03ac 8868     		ldr	r0, [r1, #8]
 828              		.loc 1 364 20 view .LVU304
 829 03ae 9060     		str	r0, [r2, #8]
 365:DSP/Source/FilteringFunctions/arm_fir_interpolate_q31.c ****     *pStateCurnt++ = *pState++;
 830              		.loc 1 365 5 is_stmt 1 view .LVU305
 831              	.LVL143:
 832              		.loc 1 365 22 is_stmt 0 view .LVU306
 833 03b0 C868     		ldr	r0, [r1, #12]
 834              		.loc 1 365 20 view .LVU307
 835 03b2 D060     		str	r0, [r2, #12]
 366:DSP/Source/FilteringFunctions/arm_fir_interpolate_q31.c **** 
 367:DSP/Source/FilteringFunctions/arm_fir_interpolate_q31.c ****     /* Decrement the loop counter */
 368:DSP/Source/FilteringFunctions/arm_fir_interpolate_q31.c ****     tapCnt--;
 836              		.loc 1 368 5 is_stmt 1 view .LVU308
 837              		.loc 1 368 11 is_stmt 0 view .LVU309
 838 03b4 013B     		subs	r3, r3, #1
 839              	.LVL144:
 840              		.loc 1 368 11 view .LVU310
 841 03b6 9BB2     		uxth	r3, r3
 842              	.LVL145:
 365:DSP/Source/FilteringFunctions/arm_fir_interpolate_q31.c ****     *pStateCurnt++ = *pState++;
 843              		.loc 1 365 17 view .LVU311
 844 03b8 1032     		adds	r2, r2, #16
 845              	.LVL146:
 365:DSP/Source/FilteringFunctions/arm_fir_interpolate_q31.c ****     *pStateCurnt++ = *pState++;
 846              		.loc 1 365 29 view .LVU312
 847 03ba 1031     		adds	r1, r1, #16
 848              	.LVL147:
 849              	.L18:
 360:DSP/Source/FilteringFunctions/arm_fir_interpolate_q31.c ****   {
 850              		.loc 1 360 17 is_stmt 1 view .LVU313
 851 03bc 002B     		cmp	r3, #0
 852 03be F1D1     		bne	.L19
 369:DSP/Source/FilteringFunctions/arm_fir_interpolate_q31.c ****   }
 370:DSP/Source/FilteringFunctions/arm_fir_interpolate_q31.c **** 
 371:DSP/Source/FilteringFunctions/arm_fir_interpolate_q31.c ****   tapCnt = (phaseLen - 1U) % 0x04U;
 853              		.loc 1 371 3 view .LVU314
 854              		.loc 1 371 22 is_stmt 0 view .LVU315
 855 03c0 059B     		ldr	r3, [sp, #20]
 856              	.LVL148:
 857              		.loc 1 371 22 view .LVU316
 858 03c2 013B     		subs	r3, r3, #1
 859              		.loc 1 371 10 view .LVU317
 860 03c4 03F00303 		and	r3, r3, #3
 861              	.LVL149:
 372:DSP/Source/FilteringFunctions/arm_fir_interpolate_q31.c **** 
 373:DSP/Source/FilteringFunctions/arm_fir_interpolate_q31.c ****   /* copy data */
 374:DSP/Source/FilteringFunctions/arm_fir_interpolate_q31.c ****   while (tapCnt > 0U)
 862              		.loc 1 374 3 is_stmt 1 view .LVU318
 863              		.loc 1 374 9 is_stmt 0 view .LVU319
 864 03c8 05E0     		b	.L20
 865              	.L21:
 375:DSP/Source/FilteringFunctions/arm_fir_interpolate_q31.c ****   {
 376:DSP/Source/FilteringFunctions/arm_fir_interpolate_q31.c ****     *pStateCurnt++ = *pState++;
 866              		.loc 1 376 5 is_stmt 1 view .LVU320
 867              	.LVL150:
 868              		.loc 1 376 22 is_stmt 0 view .LVU321
ARM GAS  /var/folders/ck/g3dcd5x55xs4107jgdl0snvr0000gn/T//ccc8jccf.s 			page 24


 869 03ca 51F8040B 		ldr	r0, [r1], #4
 870              	.LVL151:
 871              		.loc 1 376 20 view .LVU322
 872 03ce 42F8040B 		str	r0, [r2], #4
 873              	.LVL152:
 377:DSP/Source/FilteringFunctions/arm_fir_interpolate_q31.c **** 
 378:DSP/Source/FilteringFunctions/arm_fir_interpolate_q31.c ****     /* Decrement the loop counter */
 379:DSP/Source/FilteringFunctions/arm_fir_interpolate_q31.c ****     tapCnt--;
 874              		.loc 1 379 5 is_stmt 1 view .LVU323
 875              		.loc 1 379 11 is_stmt 0 view .LVU324
 876 03d2 013B     		subs	r3, r3, #1
 877              	.LVL153:
 878              		.loc 1 379 11 view .LVU325
 879 03d4 9BB2     		uxth	r3, r3
 880              	.LVL154:
 881              	.L20:
 374:DSP/Source/FilteringFunctions/arm_fir_interpolate_q31.c ****   {
 882              		.loc 1 374 17 is_stmt 1 view .LVU326
 883 03d6 002B     		cmp	r3, #0
 884 03d8 F7D1     		bne	.L21
 380:DSP/Source/FilteringFunctions/arm_fir_interpolate_q31.c ****   }
 381:DSP/Source/FilteringFunctions/arm_fir_interpolate_q31.c **** 
 382:DSP/Source/FilteringFunctions/arm_fir_interpolate_q31.c **** }
 885              		.loc 1 382 1 is_stmt 0 view .LVU327
 886 03da 0DB0     		add	sp, sp, #52
 887              	.LCFI2:
 888              		.cfi_def_cfa_offset 36
 889              		@ sp needed
 890 03dc BDE8F08F 		pop	{r4, r5, r6, r7, r8, r9, r10, fp, pc}
 891              		.loc 1 382 1 view .LVU328
 892              		.cfi_endproc
 893              	.LFE139:
 895              		.text
 896              	.Letext0:
 897              		.file 2 "/Users/luban/.local/xPacks/arm-none-eabi-gcc/xpack-arm-none-eabi-gcc-13.2.1-1.1/arm-none-
 898              		.file 3 "/Users/luban/.local/xPacks/arm-none-eabi-gcc/xpack-arm-none-eabi-gcc-13.2.1-1.1/arm-none-
 899              		.file 4 "DSP/Inc/arm_math.h"
ARM GAS  /var/folders/ck/g3dcd5x55xs4107jgdl0snvr0000gn/T//ccc8jccf.s 			page 25

