ARM GAS  /var/folders/ck/g3dcd5x55xs4107jgdl0snvr0000gn/T//cc8fH4hM.s 			page 1


   1              		.cpu cortex-m4
   2              		.arch armv7e-m
   3              		.fpu fpv4-sp-d16
   4              		.eabi_attribute 27, 1
   5              		.eabi_attribute 28, 1
   6              		.eabi_attribute 20, 1
   7              		.eabi_attribute 21, 1
   8              		.eabi_attribute 23, 3
   9              		.eabi_attribute 24, 1
  10              		.eabi_attribute 25, 1
  11              		.eabi_attribute 26, 1
  12              		.eabi_attribute 30, 1
  13              		.eabi_attribute 34, 1
  14              		.eabi_attribute 18, 4
  15              		.file	"arm_max_q31.c"
  16              		.text
  17              	.Ltext0:
  18              		.cfi_sections	.debug_frame
  19              		.file 1 "DSP/Source/StatisticsFunctions/arm_max_q31.c"
  20              		.section	.text.arm_max_q31,"ax",%progbits
  21              		.align	1
  22              		.global	arm_max_q31
  23              		.syntax unified
  24              		.thumb
  25              		.thumb_func
  27              	arm_max_q31:
  28              	.LVL0:
  29              	.LFB139:
   1:DSP/Source/StatisticsFunctions/arm_max_q31.c **** /* ----------------------------------------------------------------------
   2:DSP/Source/StatisticsFunctions/arm_max_q31.c ****  * Project:      CMSIS DSP Library
   3:DSP/Source/StatisticsFunctions/arm_max_q31.c ****  * Title:        arm_max_q31.c
   4:DSP/Source/StatisticsFunctions/arm_max_q31.c ****  * Description:  Maximum value of a Q31 vector
   5:DSP/Source/StatisticsFunctions/arm_max_q31.c ****  *
   6:DSP/Source/StatisticsFunctions/arm_max_q31.c ****  * $Date:        27. January 2017
   7:DSP/Source/StatisticsFunctions/arm_max_q31.c ****  * $Revision:    V.1.5.1
   8:DSP/Source/StatisticsFunctions/arm_max_q31.c ****  *
   9:DSP/Source/StatisticsFunctions/arm_max_q31.c ****  * Target Processor: Cortex-M cores
  10:DSP/Source/StatisticsFunctions/arm_max_q31.c ****  * -------------------------------------------------------------------- */
  11:DSP/Source/StatisticsFunctions/arm_max_q31.c **** /*
  12:DSP/Source/StatisticsFunctions/arm_max_q31.c ****  * Copyright (C) 2010-2017 ARM Limited or its affiliates. All rights reserved.
  13:DSP/Source/StatisticsFunctions/arm_max_q31.c ****  *
  14:DSP/Source/StatisticsFunctions/arm_max_q31.c ****  * SPDX-License-Identifier: Apache-2.0
  15:DSP/Source/StatisticsFunctions/arm_max_q31.c ****  *
  16:DSP/Source/StatisticsFunctions/arm_max_q31.c ****  * Licensed under the Apache License, Version 2.0 (the License); you may
  17:DSP/Source/StatisticsFunctions/arm_max_q31.c ****  * not use this file except in compliance with the License.
  18:DSP/Source/StatisticsFunctions/arm_max_q31.c ****  * You may obtain a copy of the License at
  19:DSP/Source/StatisticsFunctions/arm_max_q31.c ****  *
  20:DSP/Source/StatisticsFunctions/arm_max_q31.c ****  * www.apache.org/licenses/LICENSE-2.0
  21:DSP/Source/StatisticsFunctions/arm_max_q31.c ****  *
  22:DSP/Source/StatisticsFunctions/arm_max_q31.c ****  * Unless required by applicable law or agreed to in writing, software
  23:DSP/Source/StatisticsFunctions/arm_max_q31.c ****  * distributed under the License is distributed on an AS IS BASIS, WITHOUT
  24:DSP/Source/StatisticsFunctions/arm_max_q31.c ****  * WARRANTIES OR CONDITIONS OF ANY KIND, either express or implied.
  25:DSP/Source/StatisticsFunctions/arm_max_q31.c ****  * See the License for the specific language governing permissions and
  26:DSP/Source/StatisticsFunctions/arm_max_q31.c ****  * limitations under the License.
  27:DSP/Source/StatisticsFunctions/arm_max_q31.c ****  */
  28:DSP/Source/StatisticsFunctions/arm_max_q31.c **** 
  29:DSP/Source/StatisticsFunctions/arm_max_q31.c **** #include "arm_math.h"
ARM GAS  /var/folders/ck/g3dcd5x55xs4107jgdl0snvr0000gn/T//cc8fH4hM.s 			page 2


  30:DSP/Source/StatisticsFunctions/arm_max_q31.c **** 
  31:DSP/Source/StatisticsFunctions/arm_max_q31.c **** /**
  32:DSP/Source/StatisticsFunctions/arm_max_q31.c ****  * @ingroup groupStats
  33:DSP/Source/StatisticsFunctions/arm_max_q31.c ****  */
  34:DSP/Source/StatisticsFunctions/arm_max_q31.c **** 
  35:DSP/Source/StatisticsFunctions/arm_max_q31.c **** /**
  36:DSP/Source/StatisticsFunctions/arm_max_q31.c ****  * @addtogroup Max
  37:DSP/Source/StatisticsFunctions/arm_max_q31.c ****  * @{
  38:DSP/Source/StatisticsFunctions/arm_max_q31.c ****  */
  39:DSP/Source/StatisticsFunctions/arm_max_q31.c **** 
  40:DSP/Source/StatisticsFunctions/arm_max_q31.c **** 
  41:DSP/Source/StatisticsFunctions/arm_max_q31.c **** /**
  42:DSP/Source/StatisticsFunctions/arm_max_q31.c ****  * @brief Maximum value of a Q31 vector.
  43:DSP/Source/StatisticsFunctions/arm_max_q31.c ****  * @param[in]       *pSrc points to the input vector
  44:DSP/Source/StatisticsFunctions/arm_max_q31.c ****  * @param[in]       blockSize length of the input vector
  45:DSP/Source/StatisticsFunctions/arm_max_q31.c ****  * @param[out]      *pResult maximum value returned here
  46:DSP/Source/StatisticsFunctions/arm_max_q31.c ****  * @param[out]      *pIndex index of maximum value returned here
  47:DSP/Source/StatisticsFunctions/arm_max_q31.c ****  * @return none.
  48:DSP/Source/StatisticsFunctions/arm_max_q31.c ****  */
  49:DSP/Source/StatisticsFunctions/arm_max_q31.c **** 
  50:DSP/Source/StatisticsFunctions/arm_max_q31.c **** void arm_max_q31(
  51:DSP/Source/StatisticsFunctions/arm_max_q31.c ****   q31_t * pSrc,
  52:DSP/Source/StatisticsFunctions/arm_max_q31.c ****   uint32_t blockSize,
  53:DSP/Source/StatisticsFunctions/arm_max_q31.c ****   q31_t * pResult,
  54:DSP/Source/StatisticsFunctions/arm_max_q31.c ****   uint32_t * pIndex)
  55:DSP/Source/StatisticsFunctions/arm_max_q31.c **** {
  30              		.loc 1 55 1 view -0
  31              		.cfi_startproc
  32              		@ args = 0, pretend = 0, frame = 0
  33              		@ frame_needed = 0, uses_anonymous_args = 0
  34              		.loc 1 55 1 is_stmt 0 view .LVU1
  35 0000 2DE9F043 		push	{r4, r5, r6, r7, r8, r9, lr}
  36              	.LCFI0:
  37              		.cfi_def_cfa_offset 28
  38              		.cfi_offset 4, -28
  39              		.cfi_offset 5, -24
  40              		.cfi_offset 6, -20
  41              		.cfi_offset 7, -16
  42              		.cfi_offset 8, -12
  43              		.cfi_offset 9, -8
  44              		.cfi_offset 14, -4
  45 0004 9146     		mov	r9, r2
  46 0006 9E46     		mov	lr, r3
  56:DSP/Source/StatisticsFunctions/arm_max_q31.c **** #if defined (ARM_MATH_DSP)
  57:DSP/Source/StatisticsFunctions/arm_max_q31.c ****   /* Run the below code for Cortex-M4 and Cortex-M3 */
  58:DSP/Source/StatisticsFunctions/arm_max_q31.c **** 
  59:DSP/Source/StatisticsFunctions/arm_max_q31.c ****   q31_t maxVal1, maxVal2, out;                   /* Temporary variables to store the output value. 
  47              		.loc 1 59 3 is_stmt 1 view .LVU2
  60:DSP/Source/StatisticsFunctions/arm_max_q31.c ****   uint32_t blkCnt, outIndex, count;              /* loop counter */
  48              		.loc 1 60 3 view .LVU3
  61:DSP/Source/StatisticsFunctions/arm_max_q31.c **** 
  62:DSP/Source/StatisticsFunctions/arm_max_q31.c ****   /* Initialise the count value. */
  63:DSP/Source/StatisticsFunctions/arm_max_q31.c ****   count = 0U;
  49              		.loc 1 63 3 view .LVU4
  50              	.LVL1:
  64:DSP/Source/StatisticsFunctions/arm_max_q31.c ****   /* Initialise the index value to zero. */
  65:DSP/Source/StatisticsFunctions/arm_max_q31.c ****   outIndex = 0U;
ARM GAS  /var/folders/ck/g3dcd5x55xs4107jgdl0snvr0000gn/T//cc8fH4hM.s 			page 3


  51              		.loc 1 65 3 view .LVU5
  66:DSP/Source/StatisticsFunctions/arm_max_q31.c ****   /* Load first input value that act as reference value for comparision */
  67:DSP/Source/StatisticsFunctions/arm_max_q31.c ****   out = *pSrc++;
  52              		.loc 1 67 3 view .LVU6
  53              		.loc 1 67 7 is_stmt 0 view .LVU7
  54 0008 50F8044B 		ldr	r4, [r0], #4
  55              	.LVL2:
  68:DSP/Source/StatisticsFunctions/arm_max_q31.c **** 
  69:DSP/Source/StatisticsFunctions/arm_max_q31.c ****   /* Loop unrolling */
  70:DSP/Source/StatisticsFunctions/arm_max_q31.c ****   blkCnt = (blockSize - 1U) >> 2U;
  56              		.loc 1 70 3 is_stmt 1 view .LVU8
  57              		.loc 1 70 23 is_stmt 0 view .LVU9
  58 000c 4D1E     		subs	r5, r1, #1
  59              		.loc 1 70 10 view .LVU10
  60 000e AE08     		lsrs	r6, r5, #2
  61              	.LVL3:
  71:DSP/Source/StatisticsFunctions/arm_max_q31.c **** 
  72:DSP/Source/StatisticsFunctions/arm_max_q31.c ****   while (blkCnt > 0U)
  62              		.loc 1 72 3 is_stmt 1 view .LVU11
  63:DSP/Source/StatisticsFunctions/arm_max_q31.c ****   /* Initialise the index value to zero. */
  63              		.loc 1 63 9 is_stmt 0 view .LVU12
  64 0010 4FF0000C 		mov	ip, #0
  65:DSP/Source/StatisticsFunctions/arm_max_q31.c ****   /* Load first input value that act as reference value for comparision */
  65              		.loc 1 65 12 view .LVU13
  66 0014 6746     		mov	r7, ip
  67              		.loc 1 72 9 view .LVU14
  68 0016 03E0     		b	.L2
  69              	.LVL4:
  70              	.L6:
  73:DSP/Source/StatisticsFunctions/arm_max_q31.c ****   {
  74:DSP/Source/StatisticsFunctions/arm_max_q31.c ****     /* Initialize maxVal to the next consecutive values one by one */
  75:DSP/Source/StatisticsFunctions/arm_max_q31.c ****     maxVal1 = *pSrc++;
  76:DSP/Source/StatisticsFunctions/arm_max_q31.c ****     maxVal2 = *pSrc++;
  77:DSP/Source/StatisticsFunctions/arm_max_q31.c **** 
  78:DSP/Source/StatisticsFunctions/arm_max_q31.c ****     /* compare for the maximum value */
  79:DSP/Source/StatisticsFunctions/arm_max_q31.c ****     if (out < maxVal1)
  80:DSP/Source/StatisticsFunctions/arm_max_q31.c ****     {
  81:DSP/Source/StatisticsFunctions/arm_max_q31.c ****       /* Update the maximum value and its index */
  82:DSP/Source/StatisticsFunctions/arm_max_q31.c ****       out = maxVal1;
  83:DSP/Source/StatisticsFunctions/arm_max_q31.c ****       outIndex = count + 1U;
  84:DSP/Source/StatisticsFunctions/arm_max_q31.c ****     }
  85:DSP/Source/StatisticsFunctions/arm_max_q31.c **** 
  86:DSP/Source/StatisticsFunctions/arm_max_q31.c ****     /* compare for the maximum value */
  87:DSP/Source/StatisticsFunctions/arm_max_q31.c ****     if (out < maxVal2)
  88:DSP/Source/StatisticsFunctions/arm_max_q31.c ****     {
  89:DSP/Source/StatisticsFunctions/arm_max_q31.c ****       /* Update the maximum value and its index */
  90:DSP/Source/StatisticsFunctions/arm_max_q31.c ****       out = maxVal2;
  91:DSP/Source/StatisticsFunctions/arm_max_q31.c ****       outIndex = count + 2U;
  92:DSP/Source/StatisticsFunctions/arm_max_q31.c ****     }
  93:DSP/Source/StatisticsFunctions/arm_max_q31.c **** 
  94:DSP/Source/StatisticsFunctions/arm_max_q31.c ****     /* Initialize maxVal to the next consecutive values one by one */
  95:DSP/Source/StatisticsFunctions/arm_max_q31.c ****     maxVal1 = *pSrc++;
  96:DSP/Source/StatisticsFunctions/arm_max_q31.c ****     maxVal2 = *pSrc++;
  97:DSP/Source/StatisticsFunctions/arm_max_q31.c **** 
  98:DSP/Source/StatisticsFunctions/arm_max_q31.c ****     /* compare for the maximum value */
  99:DSP/Source/StatisticsFunctions/arm_max_q31.c ****     if (out < maxVal1)
 100:DSP/Source/StatisticsFunctions/arm_max_q31.c ****     {
ARM GAS  /var/folders/ck/g3dcd5x55xs4107jgdl0snvr0000gn/T//cc8fH4hM.s 			page 4


 101:DSP/Source/StatisticsFunctions/arm_max_q31.c ****       /* Update the maximum value and its index */
 102:DSP/Source/StatisticsFunctions/arm_max_q31.c ****       out = maxVal1;
 103:DSP/Source/StatisticsFunctions/arm_max_q31.c ****       outIndex = count + 3U;
 104:DSP/Source/StatisticsFunctions/arm_max_q31.c ****     }
 105:DSP/Source/StatisticsFunctions/arm_max_q31.c **** 
 106:DSP/Source/StatisticsFunctions/arm_max_q31.c ****     /* compare for the maximum value */
 107:DSP/Source/StatisticsFunctions/arm_max_q31.c ****     if (out < maxVal2)
 108:DSP/Source/StatisticsFunctions/arm_max_q31.c ****     {
 109:DSP/Source/StatisticsFunctions/arm_max_q31.c ****       /* Update the maximum value and its index */
 110:DSP/Source/StatisticsFunctions/arm_max_q31.c ****       out = maxVal2;
 111:DSP/Source/StatisticsFunctions/arm_max_q31.c ****       outIndex = count + 4U;
 112:DSP/Source/StatisticsFunctions/arm_max_q31.c ****     }
 113:DSP/Source/StatisticsFunctions/arm_max_q31.c **** 
 114:DSP/Source/StatisticsFunctions/arm_max_q31.c ****     count += 4U;
  71              		.loc 1 114 5 is_stmt 1 view .LVU15
  72              		.loc 1 114 11 is_stmt 0 view .LVU16
  73 0018 0CF1040C 		add	ip, ip, #4
  74              	.LVL5:
 115:DSP/Source/StatisticsFunctions/arm_max_q31.c **** 
 116:DSP/Source/StatisticsFunctions/arm_max_q31.c ****     /* Decrement the loop counter */
 117:DSP/Source/StatisticsFunctions/arm_max_q31.c ****     blkCnt--;
  75              		.loc 1 117 5 is_stmt 1 view .LVU17
  76              		.loc 1 117 11 is_stmt 0 view .LVU18
  77 001c 013E     		subs	r6, r6, #1
  78              	.LVL6:
  96:DSP/Source/StatisticsFunctions/arm_max_q31.c **** 
  79              		.loc 1 96 20 view .LVU19
  80 001e 4046     		mov	r0, r8
  81              	.LVL7:
  82              	.L2:
  72:DSP/Source/StatisticsFunctions/arm_max_q31.c ****   {
  83              		.loc 1 72 17 is_stmt 1 view .LVU20
  84 0020 D6B1     		cbz	r6, .L12
  75:DSP/Source/StatisticsFunctions/arm_max_q31.c ****     maxVal2 = *pSrc++;
  85              		.loc 1 75 5 view .LVU21
  86              	.LVL8:
  75:DSP/Source/StatisticsFunctions/arm_max_q31.c ****     maxVal2 = *pSrc++;
  87              		.loc 1 75 13 is_stmt 0 view .LVU22
  88 0022 0268     		ldr	r2, [r0]
  89              	.LVL9:
  76:DSP/Source/StatisticsFunctions/arm_max_q31.c **** 
  90              		.loc 1 76 5 is_stmt 1 view .LVU23
  76:DSP/Source/StatisticsFunctions/arm_max_q31.c **** 
  91              		.loc 1 76 13 is_stmt 0 view .LVU24
  92 0024 4368     		ldr	r3, [r0, #4]
  93              	.LVL10:
  79:DSP/Source/StatisticsFunctions/arm_max_q31.c ****     {
  94              		.loc 1 79 5 is_stmt 1 view .LVU25
  79:DSP/Source/StatisticsFunctions/arm_max_q31.c ****     {
  95              		.loc 1 79 8 is_stmt 0 view .LVU26
  96 0026 9442     		cmp	r4, r2
  97 0028 02DA     		bge	.L3
  82:DSP/Source/StatisticsFunctions/arm_max_q31.c ****       outIndex = count + 1U;
  98              		.loc 1 82 7 is_stmt 1 view .LVU27
  99              	.LVL11:
  83:DSP/Source/StatisticsFunctions/arm_max_q31.c ****     }
 100              		.loc 1 83 7 view .LVU28
ARM GAS  /var/folders/ck/g3dcd5x55xs4107jgdl0snvr0000gn/T//cc8fH4hM.s 			page 5


  83:DSP/Source/StatisticsFunctions/arm_max_q31.c ****     }
 101              		.loc 1 83 16 is_stmt 0 view .LVU29
 102 002a 0CF10107 		add	r7, ip, #1
 103              	.LVL12:
  82:DSP/Source/StatisticsFunctions/arm_max_q31.c ****       outIndex = count + 1U;
 104              		.loc 1 82 11 view .LVU30
 105 002e 1446     		mov	r4, r2
 106              	.LVL13:
 107              	.L3:
  87:DSP/Source/StatisticsFunctions/arm_max_q31.c ****     {
 108              		.loc 1 87 5 is_stmt 1 view .LVU31
  87:DSP/Source/StatisticsFunctions/arm_max_q31.c ****     {
 109              		.loc 1 87 8 is_stmt 0 view .LVU32
 110 0030 9C42     		cmp	r4, r3
 111 0032 02DA     		bge	.L4
  90:DSP/Source/StatisticsFunctions/arm_max_q31.c ****       outIndex = count + 2U;
 112              		.loc 1 90 7 is_stmt 1 view .LVU33
 113              	.LVL14:
  91:DSP/Source/StatisticsFunctions/arm_max_q31.c ****     }
 114              		.loc 1 91 7 view .LVU34
  91:DSP/Source/StatisticsFunctions/arm_max_q31.c ****     }
 115              		.loc 1 91 16 is_stmt 0 view .LVU35
 116 0034 0CF10207 		add	r7, ip, #2
 117              	.LVL15:
  90:DSP/Source/StatisticsFunctions/arm_max_q31.c ****       outIndex = count + 2U;
 118              		.loc 1 90 11 view .LVU36
 119 0038 1C46     		mov	r4, r3
 120              	.LVL16:
 121              	.L4:
  95:DSP/Source/StatisticsFunctions/arm_max_q31.c ****     maxVal2 = *pSrc++;
 122              		.loc 1 95 5 is_stmt 1 view .LVU37
  95:DSP/Source/StatisticsFunctions/arm_max_q31.c ****     maxVal2 = *pSrc++;
 123              		.loc 1 95 13 is_stmt 0 view .LVU38
 124 003a 8368     		ldr	r3, [r0, #8]
 125              	.LVL17:
  96:DSP/Source/StatisticsFunctions/arm_max_q31.c **** 
 126              		.loc 1 96 5 is_stmt 1 view .LVU39
  96:DSP/Source/StatisticsFunctions/arm_max_q31.c **** 
 127              		.loc 1 96 20 is_stmt 0 view .LVU40
 128 003c 00F11008 		add	r8, r0, #16
 129              	.LVL18:
  96:DSP/Source/StatisticsFunctions/arm_max_q31.c **** 
 130              		.loc 1 96 13 view .LVU41
 131 0040 C068     		ldr	r0, [r0, #12]
 132              	.LVL19:
  99:DSP/Source/StatisticsFunctions/arm_max_q31.c ****     {
 133              		.loc 1 99 5 is_stmt 1 view .LVU42
  99:DSP/Source/StatisticsFunctions/arm_max_q31.c ****     {
 134              		.loc 1 99 8 is_stmt 0 view .LVU43
 135 0042 9C42     		cmp	r4, r3
 136 0044 02DA     		bge	.L5
 102:DSP/Source/StatisticsFunctions/arm_max_q31.c ****       outIndex = count + 3U;
 137              		.loc 1 102 7 is_stmt 1 view .LVU44
 138              	.LVL20:
 103:DSP/Source/StatisticsFunctions/arm_max_q31.c ****     }
 139              		.loc 1 103 7 view .LVU45
 103:DSP/Source/StatisticsFunctions/arm_max_q31.c ****     }
ARM GAS  /var/folders/ck/g3dcd5x55xs4107jgdl0snvr0000gn/T//cc8fH4hM.s 			page 6


 140              		.loc 1 103 16 is_stmt 0 view .LVU46
 141 0046 0CF10307 		add	r7, ip, #3
 142              	.LVL21:
 102:DSP/Source/StatisticsFunctions/arm_max_q31.c ****       outIndex = count + 3U;
 143              		.loc 1 102 11 view .LVU47
 144 004a 1C46     		mov	r4, r3
 145              	.LVL22:
 146              	.L5:
 107:DSP/Source/StatisticsFunctions/arm_max_q31.c ****     {
 147              		.loc 1 107 5 is_stmt 1 view .LVU48
 107:DSP/Source/StatisticsFunctions/arm_max_q31.c ****     {
 148              		.loc 1 107 8 is_stmt 0 view .LVU49
 149 004c 8442     		cmp	r4, r0
 150 004e E3DA     		bge	.L6
 110:DSP/Source/StatisticsFunctions/arm_max_q31.c ****       outIndex = count + 4U;
 151              		.loc 1 110 7 is_stmt 1 view .LVU50
 152              	.LVL23:
 111:DSP/Source/StatisticsFunctions/arm_max_q31.c ****     }
 153              		.loc 1 111 7 view .LVU51
 111:DSP/Source/StatisticsFunctions/arm_max_q31.c ****     }
 154              		.loc 1 111 16 is_stmt 0 view .LVU52
 155 0050 0CF10407 		add	r7, ip, #4
 156              	.LVL24:
 110:DSP/Source/StatisticsFunctions/arm_max_q31.c ****       outIndex = count + 4U;
 157              		.loc 1 110 11 view .LVU53
 158 0054 0446     		mov	r4, r0
 159 0056 DFE7     		b	.L6
 160              	.LVL25:
 161              	.L12:
 118:DSP/Source/StatisticsFunctions/arm_max_q31.c ****   }
 119:DSP/Source/StatisticsFunctions/arm_max_q31.c **** 
 120:DSP/Source/StatisticsFunctions/arm_max_q31.c ****   /* if (blockSize - 1U) is not multiple of 4 */
 121:DSP/Source/StatisticsFunctions/arm_max_q31.c ****   blkCnt = (blockSize - 1U) % 4U;
 162              		.loc 1 121 3 is_stmt 1 view .LVU54
 163              		.loc 1 121 10 is_stmt 0 view .LVU55
 164 0058 05F00305 		and	r5, r5, #3
 165              	.LVL26:
 122:DSP/Source/StatisticsFunctions/arm_max_q31.c **** 
 123:DSP/Source/StatisticsFunctions/arm_max_q31.c **** #else
 124:DSP/Source/StatisticsFunctions/arm_max_q31.c ****   /* Run the below code for Cortex-M0 */
 125:DSP/Source/StatisticsFunctions/arm_max_q31.c **** 
 126:DSP/Source/StatisticsFunctions/arm_max_q31.c ****   q31_t maxVal1, out;                            /* Temporary variables to store the output value. 
 127:DSP/Source/StatisticsFunctions/arm_max_q31.c ****   uint32_t blkCnt, outIndex;                     /* loop counter */
 128:DSP/Source/StatisticsFunctions/arm_max_q31.c **** 
 129:DSP/Source/StatisticsFunctions/arm_max_q31.c ****   /* Initialise the index value to zero. */
 130:DSP/Source/StatisticsFunctions/arm_max_q31.c ****   outIndex = 0U;
 131:DSP/Source/StatisticsFunctions/arm_max_q31.c ****   /* Load first input value that act as reference value for comparision */
 132:DSP/Source/StatisticsFunctions/arm_max_q31.c ****   out = *pSrc++;
 133:DSP/Source/StatisticsFunctions/arm_max_q31.c **** 
 134:DSP/Source/StatisticsFunctions/arm_max_q31.c ****   blkCnt = (blockSize - 1U);
 135:DSP/Source/StatisticsFunctions/arm_max_q31.c **** 
 136:DSP/Source/StatisticsFunctions/arm_max_q31.c **** #endif /* #if defined (ARM_MATH_DSP) */
 137:DSP/Source/StatisticsFunctions/arm_max_q31.c **** 
 138:DSP/Source/StatisticsFunctions/arm_max_q31.c ****   while (blkCnt > 0U)
 166              		.loc 1 138 3 is_stmt 1 view .LVU56
 167              		.loc 1 138 9 is_stmt 0 view .LVU57
 168 005c 00E0     		b	.L8
ARM GAS  /var/folders/ck/g3dcd5x55xs4107jgdl0snvr0000gn/T//cc8fH4hM.s 			page 7


 169              	.LVL27:
 170              	.L9:
 139:DSP/Source/StatisticsFunctions/arm_max_q31.c ****   {
 140:DSP/Source/StatisticsFunctions/arm_max_q31.c ****     /* Initialize maxVal to the next consecutive values one by one */
 141:DSP/Source/StatisticsFunctions/arm_max_q31.c ****     maxVal1 = *pSrc++;
 142:DSP/Source/StatisticsFunctions/arm_max_q31.c **** 
 143:DSP/Source/StatisticsFunctions/arm_max_q31.c ****     /* compare for the maximum value */
 144:DSP/Source/StatisticsFunctions/arm_max_q31.c ****     if (out < maxVal1)
 145:DSP/Source/StatisticsFunctions/arm_max_q31.c ****     {
 146:DSP/Source/StatisticsFunctions/arm_max_q31.c ****       /* Update the maximum value and it's index */
 147:DSP/Source/StatisticsFunctions/arm_max_q31.c ****       out = maxVal1;
 148:DSP/Source/StatisticsFunctions/arm_max_q31.c ****       outIndex = blockSize - blkCnt;
 149:DSP/Source/StatisticsFunctions/arm_max_q31.c ****     }
 150:DSP/Source/StatisticsFunctions/arm_max_q31.c **** 
 151:DSP/Source/StatisticsFunctions/arm_max_q31.c ****     /* Decrement the loop counter */
 152:DSP/Source/StatisticsFunctions/arm_max_q31.c ****     blkCnt--;
 171              		.loc 1 152 5 is_stmt 1 view .LVU58
 172              		.loc 1 152 11 is_stmt 0 view .LVU59
 173 005e 013D     		subs	r5, r5, #1
 174              	.LVL28:
 175              	.L8:
 138:DSP/Source/StatisticsFunctions/arm_max_q31.c ****   {
 176              		.loc 1 138 17 is_stmt 1 view .LVU60
 177 0060 35B1     		cbz	r5, .L13
 141:DSP/Source/StatisticsFunctions/arm_max_q31.c **** 
 178              		.loc 1 141 5 view .LVU61
 179              	.LVL29:
 141:DSP/Source/StatisticsFunctions/arm_max_q31.c **** 
 180              		.loc 1 141 13 is_stmt 0 view .LVU62
 181 0062 50F8046B 		ldr	r6, [r0], #4
 182              	.LVL30:
 144:DSP/Source/StatisticsFunctions/arm_max_q31.c ****     {
 183              		.loc 1 144 5 is_stmt 1 view .LVU63
 144:DSP/Source/StatisticsFunctions/arm_max_q31.c ****     {
 184              		.loc 1 144 8 is_stmt 0 view .LVU64
 185 0066 B442     		cmp	r4, r6
 186 0068 F9DA     		bge	.L9
 147:DSP/Source/StatisticsFunctions/arm_max_q31.c ****       outIndex = blockSize - blkCnt;
 187              		.loc 1 147 7 is_stmt 1 view .LVU65
 188              	.LVL31:
 148:DSP/Source/StatisticsFunctions/arm_max_q31.c ****     }
 189              		.loc 1 148 7 view .LVU66
 148:DSP/Source/StatisticsFunctions/arm_max_q31.c ****     }
 190              		.loc 1 148 16 is_stmt 0 view .LVU67
 191 006a 4F1B     		subs	r7, r1, r5
 192              	.LVL32:
 147:DSP/Source/StatisticsFunctions/arm_max_q31.c ****       outIndex = blockSize - blkCnt;
 193              		.loc 1 147 11 view .LVU68
 194 006c 3446     		mov	r4, r6
 195 006e F6E7     		b	.L9
 196              	.LVL33:
 197              	.L13:
 153:DSP/Source/StatisticsFunctions/arm_max_q31.c ****   }
 154:DSP/Source/StatisticsFunctions/arm_max_q31.c **** 
 155:DSP/Source/StatisticsFunctions/arm_max_q31.c ****   /* Store the maximum value and it's index into destination pointers */
 156:DSP/Source/StatisticsFunctions/arm_max_q31.c ****   *pResult = out;
 198              		.loc 1 156 3 is_stmt 1 view .LVU69
ARM GAS  /var/folders/ck/g3dcd5x55xs4107jgdl0snvr0000gn/T//cc8fH4hM.s 			page 8


 199              		.loc 1 156 12 is_stmt 0 view .LVU70
 200 0070 C9F80040 		str	r4, [r9]
 157:DSP/Source/StatisticsFunctions/arm_max_q31.c ****   *pIndex = outIndex;
 201              		.loc 1 157 3 is_stmt 1 view .LVU71
 202              		.loc 1 157 11 is_stmt 0 view .LVU72
 203 0074 CEF80070 		str	r7, [lr]
 158:DSP/Source/StatisticsFunctions/arm_max_q31.c **** }
 204              		.loc 1 158 1 view .LVU73
 205 0078 BDE8F083 		pop	{r4, r5, r6, r7, r8, r9, pc}
 206              		.loc 1 158 1 view .LVU74
 207              		.cfi_endproc
 208              	.LFE139:
 210              		.text
 211              	.Letext0:
 212              		.file 2 "/Users/luban/.local/xPacks/arm-none-eabi-gcc/xpack-arm-none-eabi-gcc-13.2.1-1.1/arm-none-
 213              		.file 3 "/Users/luban/.local/xPacks/arm-none-eabi-gcc/xpack-arm-none-eabi-gcc-13.2.1-1.1/arm-none-
 214              		.file 4 "DSP/Inc/arm_math.h"
ARM GAS  /var/folders/ck/g3dcd5x55xs4107jgdl0snvr0000gn/T//cc8fH4hM.s 			page 9

