ARM GAS  /var/folders/ck/g3dcd5x55xs4107jgdl0snvr0000gn/T//ccTk6Q0O.s 			page 1


   1              		.cpu cortex-m4
   2              		.arch armv7e-m
   3              		.fpu fpv4-sp-d16
   4              		.eabi_attribute 27, 1
   5              		.eabi_attribute 28, 1
   6              		.eabi_attribute 20, 1
   7              		.eabi_attribute 21, 1
   8              		.eabi_attribute 23, 3
   9              		.eabi_attribute 24, 1
  10              		.eabi_attribute 25, 1
  11              		.eabi_attribute 26, 1
  12              		.eabi_attribute 30, 1
  13              		.eabi_attribute 34, 1
  14              		.eabi_attribute 18, 4
  15              		.file	"arm_correlate_q7.c"
  16              		.text
  17              	.Ltext0:
  18              		.cfi_sections	.debug_frame
  19              		.file 1 "DSP/Source/FilteringFunctions/arm_correlate_q7.c"
  20              		.section	.text.arm_correlate_q7,"ax",%progbits
  21              		.align	1
  22              		.global	arm_correlate_q7
  23              		.syntax unified
  24              		.thumb
  25              		.thumb_func
  27              	arm_correlate_q7:
  28              	.LVL0:
  29              	.LFB139:
   1:DSP/Source/FilteringFunctions/arm_correlate_q7.c **** /* ----------------------------------------------------------------------
   2:DSP/Source/FilteringFunctions/arm_correlate_q7.c ****  * Project:      CMSIS DSP Library
   3:DSP/Source/FilteringFunctions/arm_correlate_q7.c ****  * Title:        arm_correlate_q7.c
   4:DSP/Source/FilteringFunctions/arm_correlate_q7.c ****  * Description:  Correlation of Q7 sequences
   5:DSP/Source/FilteringFunctions/arm_correlate_q7.c ****  *
   6:DSP/Source/FilteringFunctions/arm_correlate_q7.c ****  * $Date:        27. January 2017
   7:DSP/Source/FilteringFunctions/arm_correlate_q7.c ****  * $Revision:    V.1.5.1
   8:DSP/Source/FilteringFunctions/arm_correlate_q7.c ****  *
   9:DSP/Source/FilteringFunctions/arm_correlate_q7.c ****  * Target Processor: Cortex-M cores
  10:DSP/Source/FilteringFunctions/arm_correlate_q7.c ****  * -------------------------------------------------------------------- */
  11:DSP/Source/FilteringFunctions/arm_correlate_q7.c **** /*
  12:DSP/Source/FilteringFunctions/arm_correlate_q7.c ****  * Copyright (C) 2010-2017 ARM Limited or its affiliates. All rights reserved.
  13:DSP/Source/FilteringFunctions/arm_correlate_q7.c ****  *
  14:DSP/Source/FilteringFunctions/arm_correlate_q7.c ****  * SPDX-License-Identifier: Apache-2.0
  15:DSP/Source/FilteringFunctions/arm_correlate_q7.c ****  *
  16:DSP/Source/FilteringFunctions/arm_correlate_q7.c ****  * Licensed under the Apache License, Version 2.0 (the License); you may
  17:DSP/Source/FilteringFunctions/arm_correlate_q7.c ****  * not use this file except in compliance with the License.
  18:DSP/Source/FilteringFunctions/arm_correlate_q7.c ****  * You may obtain a copy of the License at
  19:DSP/Source/FilteringFunctions/arm_correlate_q7.c ****  *
  20:DSP/Source/FilteringFunctions/arm_correlate_q7.c ****  * www.apache.org/licenses/LICENSE-2.0
  21:DSP/Source/FilteringFunctions/arm_correlate_q7.c ****  *
  22:DSP/Source/FilteringFunctions/arm_correlate_q7.c ****  * Unless required by applicable law or agreed to in writing, software
  23:DSP/Source/FilteringFunctions/arm_correlate_q7.c ****  * distributed under the License is distributed on an AS IS BASIS, WITHOUT
  24:DSP/Source/FilteringFunctions/arm_correlate_q7.c ****  * WARRANTIES OR CONDITIONS OF ANY KIND, either express or implied.
  25:DSP/Source/FilteringFunctions/arm_correlate_q7.c ****  * See the License for the specific language governing permissions and
  26:DSP/Source/FilteringFunctions/arm_correlate_q7.c ****  * limitations under the License.
  27:DSP/Source/FilteringFunctions/arm_correlate_q7.c ****  */
  28:DSP/Source/FilteringFunctions/arm_correlate_q7.c **** 
  29:DSP/Source/FilteringFunctions/arm_correlate_q7.c **** #include "arm_math.h"
ARM GAS  /var/folders/ck/g3dcd5x55xs4107jgdl0snvr0000gn/T//ccTk6Q0O.s 			page 2


  30:DSP/Source/FilteringFunctions/arm_correlate_q7.c **** 
  31:DSP/Source/FilteringFunctions/arm_correlate_q7.c **** /**
  32:DSP/Source/FilteringFunctions/arm_correlate_q7.c ****  * @ingroup groupFilters
  33:DSP/Source/FilteringFunctions/arm_correlate_q7.c ****  */
  34:DSP/Source/FilteringFunctions/arm_correlate_q7.c **** 
  35:DSP/Source/FilteringFunctions/arm_correlate_q7.c **** /**
  36:DSP/Source/FilteringFunctions/arm_correlate_q7.c ****  * @addtogroup Corr
  37:DSP/Source/FilteringFunctions/arm_correlate_q7.c ****  * @{
  38:DSP/Source/FilteringFunctions/arm_correlate_q7.c ****  */
  39:DSP/Source/FilteringFunctions/arm_correlate_q7.c **** 
  40:DSP/Source/FilteringFunctions/arm_correlate_q7.c **** /**
  41:DSP/Source/FilteringFunctions/arm_correlate_q7.c ****  * @brief Correlation of Q7 sequences.
  42:DSP/Source/FilteringFunctions/arm_correlate_q7.c ****  * @param[in] *pSrcA points to the first input sequence.
  43:DSP/Source/FilteringFunctions/arm_correlate_q7.c ****  * @param[in] srcALen length of the first input sequence.
  44:DSP/Source/FilteringFunctions/arm_correlate_q7.c ****  * @param[in] *pSrcB points to the second input sequence.
  45:DSP/Source/FilteringFunctions/arm_correlate_q7.c ****  * @param[in] srcBLen length of the second input sequence.
  46:DSP/Source/FilteringFunctions/arm_correlate_q7.c ****  * @param[out] *pDst points to the location where the output result is written.  Length 2 * max(src
  47:DSP/Source/FilteringFunctions/arm_correlate_q7.c ****  * @return none.
  48:DSP/Source/FilteringFunctions/arm_correlate_q7.c ****  *
  49:DSP/Source/FilteringFunctions/arm_correlate_q7.c ****  * @details
  50:DSP/Source/FilteringFunctions/arm_correlate_q7.c ****  * <b>Scaling and Overflow Behavior:</b>
  51:DSP/Source/FilteringFunctions/arm_correlate_q7.c ****  *
  52:DSP/Source/FilteringFunctions/arm_correlate_q7.c ****  * \par
  53:DSP/Source/FilteringFunctions/arm_correlate_q7.c ****  * The function is implemented using a 32-bit internal accumulator.
  54:DSP/Source/FilteringFunctions/arm_correlate_q7.c ****  * Both the inputs are represented in 1.7 format and multiplications yield a 2.14 result.
  55:DSP/Source/FilteringFunctions/arm_correlate_q7.c ****  * The 2.14 intermediate results are accumulated in a 32-bit accumulator in 18.14 format.
  56:DSP/Source/FilteringFunctions/arm_correlate_q7.c ****  * This approach provides 17 guard bits and there is no risk of overflow as long as <code>max(srcAL
  57:DSP/Source/FilteringFunctions/arm_correlate_q7.c ****  * The 18.14 result is then truncated to 18.7 format by discarding the low 7 bits and saturated to 
  58:DSP/Source/FilteringFunctions/arm_correlate_q7.c ****  *
  59:DSP/Source/FilteringFunctions/arm_correlate_q7.c ****  * \par
  60:DSP/Source/FilteringFunctions/arm_correlate_q7.c ****  * Refer the function <code>arm_correlate_opt_q7()</code> for a faster implementation of this funct
  61:DSP/Source/FilteringFunctions/arm_correlate_q7.c ****  *
  62:DSP/Source/FilteringFunctions/arm_correlate_q7.c ****  */
  63:DSP/Source/FilteringFunctions/arm_correlate_q7.c **** 
  64:DSP/Source/FilteringFunctions/arm_correlate_q7.c **** void arm_correlate_q7(
  65:DSP/Source/FilteringFunctions/arm_correlate_q7.c ****   q7_t * pSrcA,
  66:DSP/Source/FilteringFunctions/arm_correlate_q7.c ****   uint32_t srcALen,
  67:DSP/Source/FilteringFunctions/arm_correlate_q7.c ****   q7_t * pSrcB,
  68:DSP/Source/FilteringFunctions/arm_correlate_q7.c ****   uint32_t srcBLen,
  69:DSP/Source/FilteringFunctions/arm_correlate_q7.c ****   q7_t * pDst)
  70:DSP/Source/FilteringFunctions/arm_correlate_q7.c **** {
  30              		.loc 1 70 1 view -0
  31              		.cfi_startproc
  32              		@ args = 4, pretend = 0, frame = 40
  33              		@ frame_needed = 0, uses_anonymous_args = 0
  34              		.loc 1 70 1 is_stmt 0 view .LVU1
  35 0000 2DE9F04F 		push	{r4, r5, r6, r7, r8, r9, r10, fp, lr}
  36              	.LCFI0:
  37              		.cfi_def_cfa_offset 36
  38              		.cfi_offset 4, -36
  39              		.cfi_offset 5, -32
  40              		.cfi_offset 6, -28
  41              		.cfi_offset 7, -24
  42              		.cfi_offset 8, -20
  43              		.cfi_offset 9, -16
  44              		.cfi_offset 10, -12
  45              		.cfi_offset 11, -8
ARM GAS  /var/folders/ck/g3dcd5x55xs4107jgdl0snvr0000gn/T//ccTk6Q0O.s 			page 3


  46              		.cfi_offset 14, -4
  47 0004 8BB0     		sub	sp, sp, #44
  48              	.LCFI1:
  49              		.cfi_def_cfa_offset 80
  50 0006 0290     		str	r0, [sp, #8]
  51 0008 0192     		str	r2, [sp, #4]
  52 000a 9B46     		mov	fp, r3
  71:DSP/Source/FilteringFunctions/arm_correlate_q7.c **** 
  72:DSP/Source/FilteringFunctions/arm_correlate_q7.c **** 
  73:DSP/Source/FilteringFunctions/arm_correlate_q7.c **** #if defined (ARM_MATH_DSP)
  74:DSP/Source/FilteringFunctions/arm_correlate_q7.c **** 
  75:DSP/Source/FilteringFunctions/arm_correlate_q7.c ****   /* Run the below code for Cortex-M4 and Cortex-M3 */
  76:DSP/Source/FilteringFunctions/arm_correlate_q7.c **** 
  77:DSP/Source/FilteringFunctions/arm_correlate_q7.c ****   q7_t *pIn1;                                    /* inputA pointer               */
  53              		.loc 1 77 3 is_stmt 1 view .LVU2
  78:DSP/Source/FilteringFunctions/arm_correlate_q7.c ****   q7_t *pIn2;                                    /* inputB pointer               */
  54              		.loc 1 78 3 view .LVU3
  79:DSP/Source/FilteringFunctions/arm_correlate_q7.c ****   q7_t *pOut = pDst;                             /* output pointer               */
  55              		.loc 1 79 3 view .LVU4
  56              	.LVL1:
  80:DSP/Source/FilteringFunctions/arm_correlate_q7.c ****   q7_t *px;                                      /* Intermediate inputA pointer  */
  57              		.loc 1 80 3 view .LVU5
  81:DSP/Source/FilteringFunctions/arm_correlate_q7.c ****   q7_t *py;                                      /* Intermediate inputB pointer  */
  58              		.loc 1 81 3 view .LVU6
  82:DSP/Source/FilteringFunctions/arm_correlate_q7.c ****   q7_t *pSrc1;                                   /* Intermediate pointers        */
  59              		.loc 1 82 3 view .LVU7
  83:DSP/Source/FilteringFunctions/arm_correlate_q7.c ****   q31_t sum, acc0, acc1, acc2, acc3;             /* Accumulators                  */
  60              		.loc 1 83 3 view .LVU8
  84:DSP/Source/FilteringFunctions/arm_correlate_q7.c ****   q31_t input1, input2;                          /* temporary variables */
  61              		.loc 1 84 3 view .LVU9
  85:DSP/Source/FilteringFunctions/arm_correlate_q7.c ****   q15_t in1, in2;                                /* temporary variables */
  62              		.loc 1 85 3 view .LVU10
  86:DSP/Source/FilteringFunctions/arm_correlate_q7.c ****   q7_t x0, x1, x2, x3, c0, c1;                   /* temporary variables for holding input and coeff
  63              		.loc 1 86 3 view .LVU11
  87:DSP/Source/FilteringFunctions/arm_correlate_q7.c ****   uint32_t j, k = 0U, count, blkCnt, outBlockSize, blockSize1, blockSize2, blockSize3;  /* loop cou
  64              		.loc 1 87 3 view .LVU12
  88:DSP/Source/FilteringFunctions/arm_correlate_q7.c ****   int32_t inc = 1;
  65              		.loc 1 88 3 view .LVU13
  89:DSP/Source/FilteringFunctions/arm_correlate_q7.c **** 
  90:DSP/Source/FilteringFunctions/arm_correlate_q7.c **** 
  91:DSP/Source/FilteringFunctions/arm_correlate_q7.c ****   /* The algorithm implementation is based on the lengths of the inputs. */
  92:DSP/Source/FilteringFunctions/arm_correlate_q7.c ****   /* srcB is always made to slide across srcA. */
  93:DSP/Source/FilteringFunctions/arm_correlate_q7.c ****   /* So srcBLen is always considered as shorter or equal to srcALen */
  94:DSP/Source/FilteringFunctions/arm_correlate_q7.c ****   /* But CORR(x, y) is reverse of CORR(y, x) */
  95:DSP/Source/FilteringFunctions/arm_correlate_q7.c ****   /* So, when srcBLen > srcALen, output pointer is made to point to the end of the output buffer */
  96:DSP/Source/FilteringFunctions/arm_correlate_q7.c ****   /* and the destination pointer modifier, inc is set to -1 */
  97:DSP/Source/FilteringFunctions/arm_correlate_q7.c ****   /* If srcALen > srcBLen, zero pad has to be done to srcB to make the two inputs of same length */
  98:DSP/Source/FilteringFunctions/arm_correlate_q7.c ****   /* But to improve the performance,
  99:DSP/Source/FilteringFunctions/arm_correlate_q7.c ****    * we include zeroes in the output instead of zero padding either of the the inputs*/
 100:DSP/Source/FilteringFunctions/arm_correlate_q7.c ****   /* If srcALen > srcBLen,
 101:DSP/Source/FilteringFunctions/arm_correlate_q7.c ****    * (srcALen - srcBLen) zeroes has to included in the starting of the output buffer */
 102:DSP/Source/FilteringFunctions/arm_correlate_q7.c ****   /* If srcALen < srcBLen,
 103:DSP/Source/FilteringFunctions/arm_correlate_q7.c ****    * (srcALen - srcBLen) zeroes has to included in the ending of the output buffer */
 104:DSP/Source/FilteringFunctions/arm_correlate_q7.c ****   if (srcALen >= srcBLen)
  66              		.loc 1 104 3 view .LVU14
  67              		.loc 1 104 6 is_stmt 0 view .LVU15
  68 000c 9942     		cmp	r1, r3
ARM GAS  /var/folders/ck/g3dcd5x55xs4107jgdl0snvr0000gn/T//ccTk6Q0O.s 			page 4


  69 000e 18D3     		bcc	.L2
 105:DSP/Source/FilteringFunctions/arm_correlate_q7.c ****   {
 106:DSP/Source/FilteringFunctions/arm_correlate_q7.c ****     /* Initialization of inputA pointer */
 107:DSP/Source/FilteringFunctions/arm_correlate_q7.c ****     pIn1 = (pSrcA);
  70              		.loc 1 107 5 is_stmt 1 view .LVU16
  71              	.LVL2:
 108:DSP/Source/FilteringFunctions/arm_correlate_q7.c **** 
 109:DSP/Source/FilteringFunctions/arm_correlate_q7.c ****     /* Initialization of inputB pointer */
 110:DSP/Source/FilteringFunctions/arm_correlate_q7.c ****     pIn2 = (pSrcB);
  72              		.loc 1 110 5 view .LVU17
 111:DSP/Source/FilteringFunctions/arm_correlate_q7.c **** 
 112:DSP/Source/FilteringFunctions/arm_correlate_q7.c ****     /* Number of output samples is calculated */
 113:DSP/Source/FilteringFunctions/arm_correlate_q7.c ****     outBlockSize = (2U * srcALen) - 1U;
  73              		.loc 1 113 5 view .LVU18
  74              		.loc 1 113 24 is_stmt 0 view .LVU19
  75 0010 4B00     		lsls	r3, r1, #1
  76              	.LVL3:
  77              		.loc 1 113 18 view .LVU20
  78 0012 013B     		subs	r3, r3, #1
  79              	.LVL4:
 114:DSP/Source/FilteringFunctions/arm_correlate_q7.c **** 
 115:DSP/Source/FilteringFunctions/arm_correlate_q7.c ****     /* When srcALen > srcBLen, zero padding is done to srcB
 116:DSP/Source/FilteringFunctions/arm_correlate_q7.c ****      * to make their lengths equal.
 117:DSP/Source/FilteringFunctions/arm_correlate_q7.c ****      * Instead, (outBlockSize - (srcALen + srcBLen - 1))
 118:DSP/Source/FilteringFunctions/arm_correlate_q7.c ****      * number of output samples are made zero */
 119:DSP/Source/FilteringFunctions/arm_correlate_q7.c ****     j = outBlockSize - (srcALen + (srcBLen - 1U));
  80              		.loc 1 119 5 is_stmt 1 view .LVU21
  81              		.loc 1 119 33 is_stmt 0 view .LVU22
  82 0014 01EB0B02 		add	r2, r1, fp
  83              	.LVL5:
  84              		.loc 1 119 22 view .LVU23
  85 0018 9B1A     		subs	r3, r3, r2
  86              	.LVL6:
  87              		.loc 1 119 7 view .LVU24
  88 001a 0133     		adds	r3, r3, #1
  89              	.LVL7:
 120:DSP/Source/FilteringFunctions/arm_correlate_q7.c **** 
 121:DSP/Source/FilteringFunctions/arm_correlate_q7.c ****     /* Updating the pointer position to non zero value */
 122:DSP/Source/FilteringFunctions/arm_correlate_q7.c ****     pOut += j;
  90              		.loc 1 122 5 is_stmt 1 view .LVU25
  91              		.loc 1 122 10 is_stmt 0 view .LVU26
  92 001c 149A     		ldr	r2, [sp, #80]
  93 001e 02EB0308 		add	r8, r2, r3
  94              	.LVL8:
  88:DSP/Source/FilteringFunctions/arm_correlate_q7.c **** 
  95              		.loc 1 88 11 view .LVU27
  96 0022 0127     		movs	r7, #1
  97              	.LVL9:
  98              	.L3:
 123:DSP/Source/FilteringFunctions/arm_correlate_q7.c **** 
 124:DSP/Source/FilteringFunctions/arm_correlate_q7.c ****   }
 125:DSP/Source/FilteringFunctions/arm_correlate_q7.c ****   else
 126:DSP/Source/FilteringFunctions/arm_correlate_q7.c ****   {
 127:DSP/Source/FilteringFunctions/arm_correlate_q7.c ****     /* Initialization of inputA pointer */
 128:DSP/Source/FilteringFunctions/arm_correlate_q7.c ****     pIn1 = (pSrcB);
 129:DSP/Source/FilteringFunctions/arm_correlate_q7.c **** 
 130:DSP/Source/FilteringFunctions/arm_correlate_q7.c ****     /* Initialization of inputB pointer */
ARM GAS  /var/folders/ck/g3dcd5x55xs4107jgdl0snvr0000gn/T//ccTk6Q0O.s 			page 5


 131:DSP/Source/FilteringFunctions/arm_correlate_q7.c ****     pIn2 = (pSrcA);
 132:DSP/Source/FilteringFunctions/arm_correlate_q7.c **** 
 133:DSP/Source/FilteringFunctions/arm_correlate_q7.c ****     /* srcBLen is always considered as shorter or equal to srcALen */
 134:DSP/Source/FilteringFunctions/arm_correlate_q7.c ****     j = srcBLen;
 135:DSP/Source/FilteringFunctions/arm_correlate_q7.c ****     srcBLen = srcALen;
 136:DSP/Source/FilteringFunctions/arm_correlate_q7.c ****     srcALen = j;
 137:DSP/Source/FilteringFunctions/arm_correlate_q7.c **** 
 138:DSP/Source/FilteringFunctions/arm_correlate_q7.c ****     /* CORR(x, y) = Reverse order(CORR(y, x)) */
 139:DSP/Source/FilteringFunctions/arm_correlate_q7.c ****     /* Hence set the destination pointer to point to the last output sample */
 140:DSP/Source/FilteringFunctions/arm_correlate_q7.c ****     pOut = pDst + ((srcALen + srcBLen) - 2U);
 141:DSP/Source/FilteringFunctions/arm_correlate_q7.c **** 
 142:DSP/Source/FilteringFunctions/arm_correlate_q7.c ****     /* Destination address modifier is set to -1 */
 143:DSP/Source/FilteringFunctions/arm_correlate_q7.c ****     inc = -1;
 144:DSP/Source/FilteringFunctions/arm_correlate_q7.c **** 
 145:DSP/Source/FilteringFunctions/arm_correlate_q7.c ****   }
 146:DSP/Source/FilteringFunctions/arm_correlate_q7.c **** 
 147:DSP/Source/FilteringFunctions/arm_correlate_q7.c ****   /* The function is internally
 148:DSP/Source/FilteringFunctions/arm_correlate_q7.c ****    * divided into three parts according to the number of multiplications that has to be
 149:DSP/Source/FilteringFunctions/arm_correlate_q7.c ****    * taken place between inputA samples and inputB samples. In the first part of the
 150:DSP/Source/FilteringFunctions/arm_correlate_q7.c ****    * algorithm, the multiplications increase by one for every iteration.
 151:DSP/Source/FilteringFunctions/arm_correlate_q7.c ****    * In the second part of the algorithm, srcBLen number of multiplications are done.
 152:DSP/Source/FilteringFunctions/arm_correlate_q7.c ****    * In the third part of the algorithm, the multiplications decrease by one
 153:DSP/Source/FilteringFunctions/arm_correlate_q7.c ****    * for every iteration.*/
 154:DSP/Source/FilteringFunctions/arm_correlate_q7.c ****   /* The algorithm is implemented in three stages.
 155:DSP/Source/FilteringFunctions/arm_correlate_q7.c ****    * The loop counters of each stage is initiated here. */
 156:DSP/Source/FilteringFunctions/arm_correlate_q7.c ****   blockSize1 = srcBLen - 1U;
  99              		.loc 1 156 3 is_stmt 1 view .LVU28
 100              		.loc 1 156 14 is_stmt 0 view .LVU29
 101 0024 0BF1FF30 		add	r0, fp, #-1
 102              	.LVL10:
 157:DSP/Source/FilteringFunctions/arm_correlate_q7.c ****   blockSize2 = srcALen - (srcBLen - 1U);
 103              		.loc 1 157 3 is_stmt 1 view .LVU30
 104              		.loc 1 157 24 is_stmt 0 view .LVU31
 105 0028 A1EB0B01 		sub	r1, r1, fp
 106              	.LVL11:
 107              		.loc 1 157 14 view .LVU32
 108 002c 01F1010C 		add	ip, r1, #1
 109              	.LVL12:
 158:DSP/Source/FilteringFunctions/arm_correlate_q7.c ****   blockSize3 = blockSize1;
 110              		.loc 1 158 3 is_stmt 1 view .LVU33
 159:DSP/Source/FilteringFunctions/arm_correlate_q7.c **** 
 160:DSP/Source/FilteringFunctions/arm_correlate_q7.c ****   /* --------------------------
 161:DSP/Source/FilteringFunctions/arm_correlate_q7.c ****    * Initializations of stage1
 162:DSP/Source/FilteringFunctions/arm_correlate_q7.c ****    * -------------------------*/
 163:DSP/Source/FilteringFunctions/arm_correlate_q7.c **** 
 164:DSP/Source/FilteringFunctions/arm_correlate_q7.c ****   /* sum = x[0] * y[srcBlen - 1]
 165:DSP/Source/FilteringFunctions/arm_correlate_q7.c ****    * sum = x[0] * y[srcBlen - 2] + x[1] * y[srcBlen - 1]
 166:DSP/Source/FilteringFunctions/arm_correlate_q7.c ****    * ....
 167:DSP/Source/FilteringFunctions/arm_correlate_q7.c ****    * sum = x[0] * y[0] + x[1] * y[1] +...+ x[srcBLen - 1] * y[srcBLen - 1]
 168:DSP/Source/FilteringFunctions/arm_correlate_q7.c ****    */
 169:DSP/Source/FilteringFunctions/arm_correlate_q7.c **** 
 170:DSP/Source/FilteringFunctions/arm_correlate_q7.c ****   /* In this stage the MAC operations are increased by 1 for every iteration.
 171:DSP/Source/FilteringFunctions/arm_correlate_q7.c ****      The count variable holds the number of MAC operations performed */
 172:DSP/Source/FilteringFunctions/arm_correlate_q7.c ****   count = 1U;
 111              		.loc 1 172 3 view .LVU34
 173:DSP/Source/FilteringFunctions/arm_correlate_q7.c **** 
 174:DSP/Source/FilteringFunctions/arm_correlate_q7.c ****   /* Working pointer of inputA */
ARM GAS  /var/folders/ck/g3dcd5x55xs4107jgdl0snvr0000gn/T//ccTk6Q0O.s 			page 6


 175:DSP/Source/FilteringFunctions/arm_correlate_q7.c ****   px = pIn1;
 112              		.loc 1 175 3 view .LVU35
 176:DSP/Source/FilteringFunctions/arm_correlate_q7.c **** 
 177:DSP/Source/FilteringFunctions/arm_correlate_q7.c ****   /* Working pointer of inputB */
 178:DSP/Source/FilteringFunctions/arm_correlate_q7.c ****   pSrc1 = pIn2 + (srcBLen - 1U);
 113              		.loc 1 178 3 view .LVU36
 114              		.loc 1 178 9 is_stmt 0 view .LVU37
 115 0030 019B     		ldr	r3, [sp, #4]
 116 0032 03EB0009 		add	r9, r3, r0
 117              	.LVL13:
 179:DSP/Source/FilteringFunctions/arm_correlate_q7.c ****   py = pSrc1;
 118              		.loc 1 179 3 is_stmt 1 view .LVU38
 180:DSP/Source/FilteringFunctions/arm_correlate_q7.c **** 
 181:DSP/Source/FilteringFunctions/arm_correlate_q7.c ****   /* ------------------------
 182:DSP/Source/FilteringFunctions/arm_correlate_q7.c ****    * Stage1 process
 183:DSP/Source/FilteringFunctions/arm_correlate_q7.c ****    * ----------------------*/
 184:DSP/Source/FilteringFunctions/arm_correlate_q7.c **** 
 185:DSP/Source/FilteringFunctions/arm_correlate_q7.c ****   /* The first stage starts here */
 186:DSP/Source/FilteringFunctions/arm_correlate_q7.c ****   while (blockSize1 > 0U)
 119              		.loc 1 186 3 view .LVU39
 156:DSP/Source/FilteringFunctions/arm_correlate_q7.c ****   blockSize2 = srcALen - (srcBLen - 1U);
 120              		.loc 1 156 14 is_stmt 0 view .LVU40
 121 0036 0246     		mov	r2, r0
 179:DSP/Source/FilteringFunctions/arm_correlate_q7.c ****   py = pSrc1;
 122              		.loc 1 179 6 view .LVU41
 123 0038 4C46     		mov	r4, r9
 172:DSP/Source/FilteringFunctions/arm_correlate_q7.c **** 
 124              		.loc 1 172 9 view .LVU42
 125 003a 4FF0010E 		mov	lr, #1
 126 003e 8246     		mov	r10, r0
 127              		.loc 1 186 9 view .LVU43
 128 0040 4FE0     		b	.L4
 129              	.LVL14:
 130              	.L2:
 128:DSP/Source/FilteringFunctions/arm_correlate_q7.c **** 
 131              		.loc 1 128 5 is_stmt 1 view .LVU44
 131:DSP/Source/FilteringFunctions/arm_correlate_q7.c **** 
 132              		.loc 1 131 5 view .LVU45
 134:DSP/Source/FilteringFunctions/arm_correlate_q7.c ****     srcBLen = srcALen;
 133              		.loc 1 134 5 view .LVU46
 135:DSP/Source/FilteringFunctions/arm_correlate_q7.c ****     srcALen = j;
 134              		.loc 1 135 5 view .LVU47
 136:DSP/Source/FilteringFunctions/arm_correlate_q7.c **** 
 135              		.loc 1 136 5 view .LVU48
 140:DSP/Source/FilteringFunctions/arm_correlate_q7.c **** 
 136              		.loc 1 140 5 view .LVU49
 140:DSP/Source/FilteringFunctions/arm_correlate_q7.c **** 
 137              		.loc 1 140 29 is_stmt 0 view .LVU50
 138 0042 CB18     		adds	r3, r1, r3
 139              	.LVL15:
 140:DSP/Source/FilteringFunctions/arm_correlate_q7.c **** 
 140              		.loc 1 140 17 view .LVU51
 141 0044 023B     		subs	r3, r3, #2
 140:DSP/Source/FilteringFunctions/arm_correlate_q7.c **** 
 142              		.loc 1 140 10 view .LVU52
 143 0046 149A     		ldr	r2, [sp, #80]
 144              	.LVL16:
ARM GAS  /var/folders/ck/g3dcd5x55xs4107jgdl0snvr0000gn/T//ccTk6Q0O.s 			page 7


 140:DSP/Source/FilteringFunctions/arm_correlate_q7.c **** 
 145              		.loc 1 140 10 view .LVU53
 146 0048 02EB0308 		add	r8, r2, r3
 147              	.LVL17:
 143:DSP/Source/FilteringFunctions/arm_correlate_q7.c **** 
 148              		.loc 1 143 5 is_stmt 1 view .LVU54
 140:DSP/Source/FilteringFunctions/arm_correlate_q7.c **** 
 149              		.loc 1 140 10 is_stmt 0 view .LVU55
 150 004c 029B     		ldr	r3, [sp, #8]
 128:DSP/Source/FilteringFunctions/arm_correlate_q7.c **** 
 151              		.loc 1 128 10 view .LVU56
 152 004e 019A     		ldr	r2, [sp, #4]
 153 0050 0292     		str	r2, [sp, #8]
 154              	.LVL18:
 131:DSP/Source/FilteringFunctions/arm_correlate_q7.c **** 
 155              		.loc 1 131 10 view .LVU57
 156 0052 0193     		str	r3, [sp, #4]
 157              	.LVL19:
 140:DSP/Source/FilteringFunctions/arm_correlate_q7.c **** 
 158              		.loc 1 140 10 view .LVU58
 159 0054 0B46     		mov	r3, r1
 160              	.LVL20:
 136:DSP/Source/FilteringFunctions/arm_correlate_q7.c **** 
 161              		.loc 1 136 13 view .LVU59
 162 0056 5946     		mov	r1, fp
 163              	.LVL21:
 135:DSP/Source/FilteringFunctions/arm_correlate_q7.c ****     srcALen = j;
 164              		.loc 1 135 13 view .LVU60
 165 0058 9B46     		mov	fp, r3
 166              	.LVL22:
 143:DSP/Source/FilteringFunctions/arm_correlate_q7.c **** 
 167              		.loc 1 143 9 view .LVU61
 168 005a 4FF0FF37 		mov	r7, #-1
 169 005e E1E7     		b	.L3
 170              	.LVL23:
 171              	.L6:
 187:DSP/Source/FilteringFunctions/arm_correlate_q7.c ****   {
 188:DSP/Source/FilteringFunctions/arm_correlate_q7.c ****     /* Accumulator is made zero for every iteration */
 189:DSP/Source/FilteringFunctions/arm_correlate_q7.c ****     sum = 0;
 190:DSP/Source/FilteringFunctions/arm_correlate_q7.c **** 
 191:DSP/Source/FilteringFunctions/arm_correlate_q7.c ****     /* Apply loop unrolling and compute 4 MACs simultaneously. */
 192:DSP/Source/FilteringFunctions/arm_correlate_q7.c ****     k = count >> 2;
 193:DSP/Source/FilteringFunctions/arm_correlate_q7.c **** 
 194:DSP/Source/FilteringFunctions/arm_correlate_q7.c ****     /* First part of the processing with loop unrolling.  Compute 4 MACs at a time.
 195:DSP/Source/FilteringFunctions/arm_correlate_q7.c ****      ** a second loop below computes MACs for the remaining 1 to 3 samples. */
 196:DSP/Source/FilteringFunctions/arm_correlate_q7.c ****     while (k > 0U)
 197:DSP/Source/FilteringFunctions/arm_correlate_q7.c ****     {
 198:DSP/Source/FilteringFunctions/arm_correlate_q7.c ****       /* x[0] , x[1] */
 199:DSP/Source/FilteringFunctions/arm_correlate_q7.c ****       in1 = (q15_t) * px++;
 172              		.loc 1 199 7 is_stmt 1 view .LVU62
 173              		.loc 1 199 21 is_stmt 0 view .LVU63
 174 0060 93F90000 		ldrsb	r0, [r3]
 175              	.LVL24:
 200:DSP/Source/FilteringFunctions/arm_correlate_q7.c ****       in2 = (q15_t) * px++;
 176              		.loc 1 200 7 is_stmt 1 view .LVU64
 177              		.loc 1 200 21 is_stmt 0 view .LVU65
 178 0064 93F90160 		ldrsb	r6, [r3, #1]
ARM GAS  /var/folders/ck/g3dcd5x55xs4107jgdl0snvr0000gn/T//ccTk6Q0O.s 			page 8


 179              	.LVL25:
 201:DSP/Source/FilteringFunctions/arm_correlate_q7.c ****       input1 = ((q31_t) in1 & 0x0000FFFF) | ((q31_t) in2 << 16);
 180              		.loc 1 201 7 is_stmt 1 view .LVU66
 181              		.loc 1 201 29 is_stmt 0 view .LVU67
 182 0068 80B2     		uxth	r0, r0
 183              		.loc 1 201 14 view .LVU68
 184 006a 40EA0640 		orr	r0, r0, r6, lsl #16
 185              	.LVL26:
 202:DSP/Source/FilteringFunctions/arm_correlate_q7.c **** 
 203:DSP/Source/FilteringFunctions/arm_correlate_q7.c ****       /* y[srcBLen - 4] , y[srcBLen - 3] */
 204:DSP/Source/FilteringFunctions/arm_correlate_q7.c ****       in1 = (q15_t) * py++;
 186              		.loc 1 204 7 is_stmt 1 view .LVU69
 187              		.loc 1 204 21 is_stmt 0 view .LVU70
 188 006e 94F90060 		ldrsb	r6, [r4]
 189              	.LVL27:
 205:DSP/Source/FilteringFunctions/arm_correlate_q7.c ****       in2 = (q15_t) * py++;
 190              		.loc 1 205 7 is_stmt 1 view .LVU71
 191              		.loc 1 205 21 is_stmt 0 view .LVU72
 192 0072 94F90180 		ldrsb	r8, [r4, #1]
 193              	.LVL28:
 206:DSP/Source/FilteringFunctions/arm_correlate_q7.c ****       input2 = ((q31_t) in1 & 0x0000FFFF) | ((q31_t) in2 << 16);
 194              		.loc 1 206 7 is_stmt 1 view .LVU73
 195              		.loc 1 206 29 is_stmt 0 view .LVU74
 196 0076 B6B2     		uxth	r6, r6
 197              		.loc 1 206 14 view .LVU75
 198 0078 46EA0846 		orr	r6, r6, r8, lsl #16
 199              	.LVL29:
 207:DSP/Source/FilteringFunctions/arm_correlate_q7.c **** 
 208:DSP/Source/FilteringFunctions/arm_correlate_q7.c ****       /* x[0] * y[srcBLen - 4] */
 209:DSP/Source/FilteringFunctions/arm_correlate_q7.c ****       /* x[1] * y[srcBLen - 3] */
 210:DSP/Source/FilteringFunctions/arm_correlate_q7.c ****       sum = __SMLAD(input1, input2, sum);
 200              		.loc 1 210 7 is_stmt 1 view .LVU76
 201              	.LBB38:
 202              	.LBI38:
 203              		.file 2 "Drivers/CMSIS/Include/cmsis_gcc.h"
   1:Drivers/CMSIS/Include/cmsis_gcc.h **** /**************************************************************************//**
   2:Drivers/CMSIS/Include/cmsis_gcc.h ****  * @file     cmsis_gcc.h
   3:Drivers/CMSIS/Include/cmsis_gcc.h ****  * @brief    CMSIS compiler GCC header file
   4:Drivers/CMSIS/Include/cmsis_gcc.h ****  * @version  V5.4.1
   5:Drivers/CMSIS/Include/cmsis_gcc.h ****  * @date     27. May 2021
   6:Drivers/CMSIS/Include/cmsis_gcc.h ****  ******************************************************************************/
   7:Drivers/CMSIS/Include/cmsis_gcc.h **** /*
   8:Drivers/CMSIS/Include/cmsis_gcc.h ****  * Copyright (c) 2009-2021 Arm Limited. All rights reserved.
   9:Drivers/CMSIS/Include/cmsis_gcc.h ****  *
  10:Drivers/CMSIS/Include/cmsis_gcc.h ****  * SPDX-License-Identifier: Apache-2.0
  11:Drivers/CMSIS/Include/cmsis_gcc.h ****  *
  12:Drivers/CMSIS/Include/cmsis_gcc.h ****  * Licensed under the Apache License, Version 2.0 (the License); you may
  13:Drivers/CMSIS/Include/cmsis_gcc.h ****  * not use this file except in compliance with the License.
  14:Drivers/CMSIS/Include/cmsis_gcc.h ****  * You may obtain a copy of the License at
  15:Drivers/CMSIS/Include/cmsis_gcc.h ****  *
  16:Drivers/CMSIS/Include/cmsis_gcc.h ****  * www.apache.org/licenses/LICENSE-2.0
  17:Drivers/CMSIS/Include/cmsis_gcc.h ****  *
  18:Drivers/CMSIS/Include/cmsis_gcc.h ****  * Unless required by applicable law or agreed to in writing, software
  19:Drivers/CMSIS/Include/cmsis_gcc.h ****  * distributed under the License is distributed on an AS IS BASIS, WITHOUT
  20:Drivers/CMSIS/Include/cmsis_gcc.h ****  * WARRANTIES OR CONDITIONS OF ANY KIND, either express or implied.
  21:Drivers/CMSIS/Include/cmsis_gcc.h ****  * See the License for the specific language governing permissions and
  22:Drivers/CMSIS/Include/cmsis_gcc.h ****  * limitations under the License.
ARM GAS  /var/folders/ck/g3dcd5x55xs4107jgdl0snvr0000gn/T//ccTk6Q0O.s 			page 9


  23:Drivers/CMSIS/Include/cmsis_gcc.h ****  */
  24:Drivers/CMSIS/Include/cmsis_gcc.h **** 
  25:Drivers/CMSIS/Include/cmsis_gcc.h **** #ifndef __CMSIS_GCC_H
  26:Drivers/CMSIS/Include/cmsis_gcc.h **** #define __CMSIS_GCC_H
  27:Drivers/CMSIS/Include/cmsis_gcc.h **** 
  28:Drivers/CMSIS/Include/cmsis_gcc.h **** /* ignore some GCC warnings */
  29:Drivers/CMSIS/Include/cmsis_gcc.h **** #pragma GCC diagnostic push
  30:Drivers/CMSIS/Include/cmsis_gcc.h **** #pragma GCC diagnostic ignored "-Wsign-conversion"
  31:Drivers/CMSIS/Include/cmsis_gcc.h **** #pragma GCC diagnostic ignored "-Wconversion"
  32:Drivers/CMSIS/Include/cmsis_gcc.h **** #pragma GCC diagnostic ignored "-Wunused-parameter"
  33:Drivers/CMSIS/Include/cmsis_gcc.h **** 
  34:Drivers/CMSIS/Include/cmsis_gcc.h **** /* Fallback for __has_builtin */
  35:Drivers/CMSIS/Include/cmsis_gcc.h **** #ifndef __has_builtin
  36:Drivers/CMSIS/Include/cmsis_gcc.h ****   #define __has_builtin(x) (0)
  37:Drivers/CMSIS/Include/cmsis_gcc.h **** #endif
  38:Drivers/CMSIS/Include/cmsis_gcc.h **** 
  39:Drivers/CMSIS/Include/cmsis_gcc.h **** /* CMSIS compiler specific defines */
  40:Drivers/CMSIS/Include/cmsis_gcc.h **** #ifndef   __ASM
  41:Drivers/CMSIS/Include/cmsis_gcc.h ****   #define __ASM                                  __asm
  42:Drivers/CMSIS/Include/cmsis_gcc.h **** #endif
  43:Drivers/CMSIS/Include/cmsis_gcc.h **** #ifndef   __INLINE
  44:Drivers/CMSIS/Include/cmsis_gcc.h ****   #define __INLINE                               inline
  45:Drivers/CMSIS/Include/cmsis_gcc.h **** #endif
  46:Drivers/CMSIS/Include/cmsis_gcc.h **** #ifndef   __STATIC_INLINE
  47:Drivers/CMSIS/Include/cmsis_gcc.h ****   #define __STATIC_INLINE                        static inline
  48:Drivers/CMSIS/Include/cmsis_gcc.h **** #endif
  49:Drivers/CMSIS/Include/cmsis_gcc.h **** #ifndef   __STATIC_FORCEINLINE
  50:Drivers/CMSIS/Include/cmsis_gcc.h ****   #define __STATIC_FORCEINLINE                   __attribute__((always_inline)) static inline
  51:Drivers/CMSIS/Include/cmsis_gcc.h **** #endif
  52:Drivers/CMSIS/Include/cmsis_gcc.h **** #ifndef   __NO_RETURN
  53:Drivers/CMSIS/Include/cmsis_gcc.h ****   #define __NO_RETURN                            __attribute__((__noreturn__))
  54:Drivers/CMSIS/Include/cmsis_gcc.h **** #endif
  55:Drivers/CMSIS/Include/cmsis_gcc.h **** #ifndef   __USED
  56:Drivers/CMSIS/Include/cmsis_gcc.h ****   #define __USED                                 __attribute__((used))
  57:Drivers/CMSIS/Include/cmsis_gcc.h **** #endif
  58:Drivers/CMSIS/Include/cmsis_gcc.h **** #ifndef   __WEAK
  59:Drivers/CMSIS/Include/cmsis_gcc.h ****   #define __WEAK                                 __attribute__((weak))
  60:Drivers/CMSIS/Include/cmsis_gcc.h **** #endif
  61:Drivers/CMSIS/Include/cmsis_gcc.h **** #ifndef   __PACKED
  62:Drivers/CMSIS/Include/cmsis_gcc.h ****   #define __PACKED                               __attribute__((packed, aligned(1)))
  63:Drivers/CMSIS/Include/cmsis_gcc.h **** #endif
  64:Drivers/CMSIS/Include/cmsis_gcc.h **** #ifndef   __PACKED_STRUCT
  65:Drivers/CMSIS/Include/cmsis_gcc.h ****   #define __PACKED_STRUCT                        struct __attribute__((packed, aligned(1)))
  66:Drivers/CMSIS/Include/cmsis_gcc.h **** #endif
  67:Drivers/CMSIS/Include/cmsis_gcc.h **** #ifndef   __PACKED_UNION
  68:Drivers/CMSIS/Include/cmsis_gcc.h ****   #define __PACKED_UNION                         union __attribute__((packed, aligned(1)))
  69:Drivers/CMSIS/Include/cmsis_gcc.h **** #endif
  70:Drivers/CMSIS/Include/cmsis_gcc.h **** #ifndef   __UNALIGNED_UINT32        /* deprecated */
  71:Drivers/CMSIS/Include/cmsis_gcc.h ****   #pragma GCC diagnostic push
  72:Drivers/CMSIS/Include/cmsis_gcc.h ****   #pragma GCC diagnostic ignored "-Wpacked"
  73:Drivers/CMSIS/Include/cmsis_gcc.h ****   #pragma GCC diagnostic ignored "-Wattributes"
  74:Drivers/CMSIS/Include/cmsis_gcc.h ****   struct __attribute__((packed)) T_UINT32 { uint32_t v; };
  75:Drivers/CMSIS/Include/cmsis_gcc.h ****   #pragma GCC diagnostic pop
  76:Drivers/CMSIS/Include/cmsis_gcc.h ****   #define __UNALIGNED_UINT32(x)                  (((struct T_UINT32 *)(x))->v)
  77:Drivers/CMSIS/Include/cmsis_gcc.h **** #endif
  78:Drivers/CMSIS/Include/cmsis_gcc.h **** #ifndef   __UNALIGNED_UINT16_WRITE
  79:Drivers/CMSIS/Include/cmsis_gcc.h ****   #pragma GCC diagnostic push
ARM GAS  /var/folders/ck/g3dcd5x55xs4107jgdl0snvr0000gn/T//ccTk6Q0O.s 			page 10


  80:Drivers/CMSIS/Include/cmsis_gcc.h ****   #pragma GCC diagnostic ignored "-Wpacked"
  81:Drivers/CMSIS/Include/cmsis_gcc.h ****   #pragma GCC diagnostic ignored "-Wattributes"
  82:Drivers/CMSIS/Include/cmsis_gcc.h ****   __PACKED_STRUCT T_UINT16_WRITE { uint16_t v; };
  83:Drivers/CMSIS/Include/cmsis_gcc.h ****   #pragma GCC diagnostic pop
  84:Drivers/CMSIS/Include/cmsis_gcc.h ****   #define __UNALIGNED_UINT16_WRITE(addr, val)    (void)((((struct T_UINT16_WRITE *)(void *)(addr))-
  85:Drivers/CMSIS/Include/cmsis_gcc.h **** #endif
  86:Drivers/CMSIS/Include/cmsis_gcc.h **** #ifndef   __UNALIGNED_UINT16_READ
  87:Drivers/CMSIS/Include/cmsis_gcc.h ****   #pragma GCC diagnostic push
  88:Drivers/CMSIS/Include/cmsis_gcc.h ****   #pragma GCC diagnostic ignored "-Wpacked"
  89:Drivers/CMSIS/Include/cmsis_gcc.h ****   #pragma GCC diagnostic ignored "-Wattributes"
  90:Drivers/CMSIS/Include/cmsis_gcc.h ****   __PACKED_STRUCT T_UINT16_READ { uint16_t v; };
  91:Drivers/CMSIS/Include/cmsis_gcc.h ****   #pragma GCC diagnostic pop
  92:Drivers/CMSIS/Include/cmsis_gcc.h ****   #define __UNALIGNED_UINT16_READ(addr)          (((const struct T_UINT16_READ *)(const void *)(add
  93:Drivers/CMSIS/Include/cmsis_gcc.h **** #endif
  94:Drivers/CMSIS/Include/cmsis_gcc.h **** #ifndef   __UNALIGNED_UINT32_WRITE
  95:Drivers/CMSIS/Include/cmsis_gcc.h ****   #pragma GCC diagnostic push
  96:Drivers/CMSIS/Include/cmsis_gcc.h ****   #pragma GCC diagnostic ignored "-Wpacked"
  97:Drivers/CMSIS/Include/cmsis_gcc.h ****   #pragma GCC diagnostic ignored "-Wattributes"
  98:Drivers/CMSIS/Include/cmsis_gcc.h ****   __PACKED_STRUCT T_UINT32_WRITE { uint32_t v; };
  99:Drivers/CMSIS/Include/cmsis_gcc.h ****   #pragma GCC diagnostic pop
 100:Drivers/CMSIS/Include/cmsis_gcc.h ****   #define __UNALIGNED_UINT32_WRITE(addr, val)    (void)((((struct T_UINT32_WRITE *)(void *)(addr))-
 101:Drivers/CMSIS/Include/cmsis_gcc.h **** #endif
 102:Drivers/CMSIS/Include/cmsis_gcc.h **** #ifndef   __UNALIGNED_UINT32_READ
 103:Drivers/CMSIS/Include/cmsis_gcc.h ****   #pragma GCC diagnostic push
 104:Drivers/CMSIS/Include/cmsis_gcc.h ****   #pragma GCC diagnostic ignored "-Wpacked"
 105:Drivers/CMSIS/Include/cmsis_gcc.h ****   #pragma GCC diagnostic ignored "-Wattributes"
 106:Drivers/CMSIS/Include/cmsis_gcc.h ****   __PACKED_STRUCT T_UINT32_READ { uint32_t v; };
 107:Drivers/CMSIS/Include/cmsis_gcc.h ****   #pragma GCC diagnostic pop
 108:Drivers/CMSIS/Include/cmsis_gcc.h ****   #define __UNALIGNED_UINT32_READ(addr)          (((const struct T_UINT32_READ *)(const void *)(add
 109:Drivers/CMSIS/Include/cmsis_gcc.h **** #endif
 110:Drivers/CMSIS/Include/cmsis_gcc.h **** #ifndef   __ALIGNED
 111:Drivers/CMSIS/Include/cmsis_gcc.h ****   #define __ALIGNED(x)                           __attribute__((aligned(x)))
 112:Drivers/CMSIS/Include/cmsis_gcc.h **** #endif
 113:Drivers/CMSIS/Include/cmsis_gcc.h **** #ifndef   __RESTRICT
 114:Drivers/CMSIS/Include/cmsis_gcc.h ****   #define __RESTRICT                             __restrict
 115:Drivers/CMSIS/Include/cmsis_gcc.h **** #endif
 116:Drivers/CMSIS/Include/cmsis_gcc.h **** #ifndef   __COMPILER_BARRIER
 117:Drivers/CMSIS/Include/cmsis_gcc.h ****   #define __COMPILER_BARRIER()                   __ASM volatile("":::"memory")
 118:Drivers/CMSIS/Include/cmsis_gcc.h **** #endif
 119:Drivers/CMSIS/Include/cmsis_gcc.h **** 
 120:Drivers/CMSIS/Include/cmsis_gcc.h **** /* #########################  Startup and Lowlevel Init  ######################## */
 121:Drivers/CMSIS/Include/cmsis_gcc.h **** 
 122:Drivers/CMSIS/Include/cmsis_gcc.h **** #ifndef __PROGRAM_START
 123:Drivers/CMSIS/Include/cmsis_gcc.h **** 
 124:Drivers/CMSIS/Include/cmsis_gcc.h **** /**
 125:Drivers/CMSIS/Include/cmsis_gcc.h ****   \brief   Initializes data and bss sections
 126:Drivers/CMSIS/Include/cmsis_gcc.h ****   \details This default implementations initialized all data and additional bss
 127:Drivers/CMSIS/Include/cmsis_gcc.h ****            sections relying on .copy.table and .zero.table specified properly
 128:Drivers/CMSIS/Include/cmsis_gcc.h ****            in the used linker script.
 129:Drivers/CMSIS/Include/cmsis_gcc.h **** 
 130:Drivers/CMSIS/Include/cmsis_gcc.h ****  */
 131:Drivers/CMSIS/Include/cmsis_gcc.h **** __STATIC_FORCEINLINE __NO_RETURN void __cmsis_start(void)
 132:Drivers/CMSIS/Include/cmsis_gcc.h **** {
 133:Drivers/CMSIS/Include/cmsis_gcc.h ****   extern void _start(void) __NO_RETURN;
 134:Drivers/CMSIS/Include/cmsis_gcc.h **** 
 135:Drivers/CMSIS/Include/cmsis_gcc.h ****   typedef struct {
 136:Drivers/CMSIS/Include/cmsis_gcc.h ****     uint32_t const* src;
ARM GAS  /var/folders/ck/g3dcd5x55xs4107jgdl0snvr0000gn/T//ccTk6Q0O.s 			page 11


 137:Drivers/CMSIS/Include/cmsis_gcc.h ****     uint32_t* dest;
 138:Drivers/CMSIS/Include/cmsis_gcc.h ****     uint32_t  wlen;
 139:Drivers/CMSIS/Include/cmsis_gcc.h ****   } __copy_table_t;
 140:Drivers/CMSIS/Include/cmsis_gcc.h **** 
 141:Drivers/CMSIS/Include/cmsis_gcc.h ****   typedef struct {
 142:Drivers/CMSIS/Include/cmsis_gcc.h ****     uint32_t* dest;
 143:Drivers/CMSIS/Include/cmsis_gcc.h ****     uint32_t  wlen;
 144:Drivers/CMSIS/Include/cmsis_gcc.h ****   } __zero_table_t;
 145:Drivers/CMSIS/Include/cmsis_gcc.h **** 
 146:Drivers/CMSIS/Include/cmsis_gcc.h ****   extern const __copy_table_t __copy_table_start__;
 147:Drivers/CMSIS/Include/cmsis_gcc.h ****   extern const __copy_table_t __copy_table_end__;
 148:Drivers/CMSIS/Include/cmsis_gcc.h ****   extern const __zero_table_t __zero_table_start__;
 149:Drivers/CMSIS/Include/cmsis_gcc.h ****   extern const __zero_table_t __zero_table_end__;
 150:Drivers/CMSIS/Include/cmsis_gcc.h **** 
 151:Drivers/CMSIS/Include/cmsis_gcc.h ****   for (__copy_table_t const* pTable = &__copy_table_start__; pTable < &__copy_table_end__; ++pTable
 152:Drivers/CMSIS/Include/cmsis_gcc.h ****     for(uint32_t i=0u; i<pTable->wlen; ++i) {
 153:Drivers/CMSIS/Include/cmsis_gcc.h ****       pTable->dest[i] = pTable->src[i];
 154:Drivers/CMSIS/Include/cmsis_gcc.h ****     }
 155:Drivers/CMSIS/Include/cmsis_gcc.h ****   }
 156:Drivers/CMSIS/Include/cmsis_gcc.h **** 
 157:Drivers/CMSIS/Include/cmsis_gcc.h ****   for (__zero_table_t const* pTable = &__zero_table_start__; pTable < &__zero_table_end__; ++pTable
 158:Drivers/CMSIS/Include/cmsis_gcc.h ****     for(uint32_t i=0u; i<pTable->wlen; ++i) {
 159:Drivers/CMSIS/Include/cmsis_gcc.h ****       pTable->dest[i] = 0u;
 160:Drivers/CMSIS/Include/cmsis_gcc.h ****     }
 161:Drivers/CMSIS/Include/cmsis_gcc.h ****   }
 162:Drivers/CMSIS/Include/cmsis_gcc.h **** 
 163:Drivers/CMSIS/Include/cmsis_gcc.h ****   _start();
 164:Drivers/CMSIS/Include/cmsis_gcc.h **** }
 165:Drivers/CMSIS/Include/cmsis_gcc.h **** 
 166:Drivers/CMSIS/Include/cmsis_gcc.h **** #define __PROGRAM_START           __cmsis_start
 167:Drivers/CMSIS/Include/cmsis_gcc.h **** #endif
 168:Drivers/CMSIS/Include/cmsis_gcc.h **** 
 169:Drivers/CMSIS/Include/cmsis_gcc.h **** #ifndef __INITIAL_SP
 170:Drivers/CMSIS/Include/cmsis_gcc.h **** #define __INITIAL_SP              __StackTop
 171:Drivers/CMSIS/Include/cmsis_gcc.h **** #endif
 172:Drivers/CMSIS/Include/cmsis_gcc.h **** 
 173:Drivers/CMSIS/Include/cmsis_gcc.h **** #ifndef __STACK_LIMIT
 174:Drivers/CMSIS/Include/cmsis_gcc.h **** #define __STACK_LIMIT             __StackLimit
 175:Drivers/CMSIS/Include/cmsis_gcc.h **** #endif
 176:Drivers/CMSIS/Include/cmsis_gcc.h **** 
 177:Drivers/CMSIS/Include/cmsis_gcc.h **** #ifndef __VECTOR_TABLE
 178:Drivers/CMSIS/Include/cmsis_gcc.h **** #define __VECTOR_TABLE            __Vectors
 179:Drivers/CMSIS/Include/cmsis_gcc.h **** #endif
 180:Drivers/CMSIS/Include/cmsis_gcc.h **** 
 181:Drivers/CMSIS/Include/cmsis_gcc.h **** #ifndef __VECTOR_TABLE_ATTRIBUTE
 182:Drivers/CMSIS/Include/cmsis_gcc.h **** #define __VECTOR_TABLE_ATTRIBUTE  __attribute__((used, section(".vectors")))
 183:Drivers/CMSIS/Include/cmsis_gcc.h **** #endif
 184:Drivers/CMSIS/Include/cmsis_gcc.h **** 
 185:Drivers/CMSIS/Include/cmsis_gcc.h **** #if defined (__ARM_FEATURE_CMSE) && (__ARM_FEATURE_CMSE == 3U)
 186:Drivers/CMSIS/Include/cmsis_gcc.h **** #ifndef __STACK_SEAL
 187:Drivers/CMSIS/Include/cmsis_gcc.h **** #define __STACK_SEAL              __StackSeal
 188:Drivers/CMSIS/Include/cmsis_gcc.h **** #endif
 189:Drivers/CMSIS/Include/cmsis_gcc.h **** 
 190:Drivers/CMSIS/Include/cmsis_gcc.h **** #ifndef __TZ_STACK_SEAL_SIZE
 191:Drivers/CMSIS/Include/cmsis_gcc.h **** #define __TZ_STACK_SEAL_SIZE      8U
 192:Drivers/CMSIS/Include/cmsis_gcc.h **** #endif
 193:Drivers/CMSIS/Include/cmsis_gcc.h **** 
ARM GAS  /var/folders/ck/g3dcd5x55xs4107jgdl0snvr0000gn/T//ccTk6Q0O.s 			page 12


 194:Drivers/CMSIS/Include/cmsis_gcc.h **** #ifndef __TZ_STACK_SEAL_VALUE
 195:Drivers/CMSIS/Include/cmsis_gcc.h **** #define __TZ_STACK_SEAL_VALUE     0xFEF5EDA5FEF5EDA5ULL
 196:Drivers/CMSIS/Include/cmsis_gcc.h **** #endif
 197:Drivers/CMSIS/Include/cmsis_gcc.h **** 
 198:Drivers/CMSIS/Include/cmsis_gcc.h **** 
 199:Drivers/CMSIS/Include/cmsis_gcc.h **** __STATIC_FORCEINLINE void __TZ_set_STACKSEAL_S (uint32_t* stackTop) {
 200:Drivers/CMSIS/Include/cmsis_gcc.h ****   *((uint64_t *)stackTop) = __TZ_STACK_SEAL_VALUE;
 201:Drivers/CMSIS/Include/cmsis_gcc.h **** }
 202:Drivers/CMSIS/Include/cmsis_gcc.h **** #endif
 203:Drivers/CMSIS/Include/cmsis_gcc.h **** 
 204:Drivers/CMSIS/Include/cmsis_gcc.h **** 
 205:Drivers/CMSIS/Include/cmsis_gcc.h **** /* ##########################  Core Instruction Access  ######################### */
 206:Drivers/CMSIS/Include/cmsis_gcc.h **** /** \defgroup CMSIS_Core_InstructionInterface CMSIS Core Instruction Interface
 207:Drivers/CMSIS/Include/cmsis_gcc.h ****   Access to dedicated instructions
 208:Drivers/CMSIS/Include/cmsis_gcc.h ****   @{
 209:Drivers/CMSIS/Include/cmsis_gcc.h **** */
 210:Drivers/CMSIS/Include/cmsis_gcc.h **** 
 211:Drivers/CMSIS/Include/cmsis_gcc.h **** /* Define macros for porting to both thumb1 and thumb2.
 212:Drivers/CMSIS/Include/cmsis_gcc.h ****  * For thumb1, use low register (r0-r7), specified by constraint "l"
 213:Drivers/CMSIS/Include/cmsis_gcc.h ****  * Otherwise, use general registers, specified by constraint "r" */
 214:Drivers/CMSIS/Include/cmsis_gcc.h **** #if defined (__thumb__) && !defined (__thumb2__)
 215:Drivers/CMSIS/Include/cmsis_gcc.h **** #define __CMSIS_GCC_OUT_REG(r) "=l" (r)
 216:Drivers/CMSIS/Include/cmsis_gcc.h **** #define __CMSIS_GCC_RW_REG(r) "+l" (r)
 217:Drivers/CMSIS/Include/cmsis_gcc.h **** #define __CMSIS_GCC_USE_REG(r) "l" (r)
 218:Drivers/CMSIS/Include/cmsis_gcc.h **** #else
 219:Drivers/CMSIS/Include/cmsis_gcc.h **** #define __CMSIS_GCC_OUT_REG(r) "=r" (r)
 220:Drivers/CMSIS/Include/cmsis_gcc.h **** #define __CMSIS_GCC_RW_REG(r) "+r" (r)
 221:Drivers/CMSIS/Include/cmsis_gcc.h **** #define __CMSIS_GCC_USE_REG(r) "r" (r)
 222:Drivers/CMSIS/Include/cmsis_gcc.h **** #endif
 223:Drivers/CMSIS/Include/cmsis_gcc.h **** 
 224:Drivers/CMSIS/Include/cmsis_gcc.h **** /**
 225:Drivers/CMSIS/Include/cmsis_gcc.h ****   \brief   No Operation
 226:Drivers/CMSIS/Include/cmsis_gcc.h ****   \details No Operation does nothing. This instruction can be used for code alignment purposes.
 227:Drivers/CMSIS/Include/cmsis_gcc.h ****  */
 228:Drivers/CMSIS/Include/cmsis_gcc.h **** #define __NOP()                             __ASM volatile ("nop")
 229:Drivers/CMSIS/Include/cmsis_gcc.h **** 
 230:Drivers/CMSIS/Include/cmsis_gcc.h **** /**
 231:Drivers/CMSIS/Include/cmsis_gcc.h ****   \brief   Wait For Interrupt
 232:Drivers/CMSIS/Include/cmsis_gcc.h ****   \details Wait For Interrupt is a hint instruction that suspends execution until one of a number o
 233:Drivers/CMSIS/Include/cmsis_gcc.h ****  */
 234:Drivers/CMSIS/Include/cmsis_gcc.h **** #define __WFI()                             __ASM volatile ("wfi":::"memory")
 235:Drivers/CMSIS/Include/cmsis_gcc.h **** 
 236:Drivers/CMSIS/Include/cmsis_gcc.h **** 
 237:Drivers/CMSIS/Include/cmsis_gcc.h **** /**
 238:Drivers/CMSIS/Include/cmsis_gcc.h ****   \brief   Wait For Event
 239:Drivers/CMSIS/Include/cmsis_gcc.h ****   \details Wait For Event is a hint instruction that permits the processor to enter
 240:Drivers/CMSIS/Include/cmsis_gcc.h ****            a low-power state until one of a number of events occurs.
 241:Drivers/CMSIS/Include/cmsis_gcc.h ****  */
 242:Drivers/CMSIS/Include/cmsis_gcc.h **** #define __WFE()                             __ASM volatile ("wfe":::"memory")
 243:Drivers/CMSIS/Include/cmsis_gcc.h **** 
 244:Drivers/CMSIS/Include/cmsis_gcc.h **** 
 245:Drivers/CMSIS/Include/cmsis_gcc.h **** /**
 246:Drivers/CMSIS/Include/cmsis_gcc.h ****   \brief   Send Event
 247:Drivers/CMSIS/Include/cmsis_gcc.h ****   \details Send Event is a hint instruction. It causes an event to be signaled to the CPU.
 248:Drivers/CMSIS/Include/cmsis_gcc.h ****  */
 249:Drivers/CMSIS/Include/cmsis_gcc.h **** #define __SEV()                             __ASM volatile ("sev")
 250:Drivers/CMSIS/Include/cmsis_gcc.h **** 
ARM GAS  /var/folders/ck/g3dcd5x55xs4107jgdl0snvr0000gn/T//ccTk6Q0O.s 			page 13


 251:Drivers/CMSIS/Include/cmsis_gcc.h **** 
 252:Drivers/CMSIS/Include/cmsis_gcc.h **** /**
 253:Drivers/CMSIS/Include/cmsis_gcc.h ****   \brief   Instruction Synchronization Barrier
 254:Drivers/CMSIS/Include/cmsis_gcc.h ****   \details Instruction Synchronization Barrier flushes the pipeline in the processor,
 255:Drivers/CMSIS/Include/cmsis_gcc.h ****            so that all instructions following the ISB are fetched from cache or memory,
 256:Drivers/CMSIS/Include/cmsis_gcc.h ****            after the instruction has been completed.
 257:Drivers/CMSIS/Include/cmsis_gcc.h ****  */
 258:Drivers/CMSIS/Include/cmsis_gcc.h **** __STATIC_FORCEINLINE void __ISB(void)
 259:Drivers/CMSIS/Include/cmsis_gcc.h **** {
 260:Drivers/CMSIS/Include/cmsis_gcc.h ****   __ASM volatile ("isb 0xF":::"memory");
 261:Drivers/CMSIS/Include/cmsis_gcc.h **** }
 262:Drivers/CMSIS/Include/cmsis_gcc.h **** 
 263:Drivers/CMSIS/Include/cmsis_gcc.h **** 
 264:Drivers/CMSIS/Include/cmsis_gcc.h **** /**
 265:Drivers/CMSIS/Include/cmsis_gcc.h ****   \brief   Data Synchronization Barrier
 266:Drivers/CMSIS/Include/cmsis_gcc.h ****   \details Acts as a special kind of Data Memory Barrier.
 267:Drivers/CMSIS/Include/cmsis_gcc.h ****            It completes when all explicit memory accesses before this instruction complete.
 268:Drivers/CMSIS/Include/cmsis_gcc.h ****  */
 269:Drivers/CMSIS/Include/cmsis_gcc.h **** __STATIC_FORCEINLINE void __DSB(void)
 270:Drivers/CMSIS/Include/cmsis_gcc.h **** {
 271:Drivers/CMSIS/Include/cmsis_gcc.h ****   __ASM volatile ("dsb 0xF":::"memory");
 272:Drivers/CMSIS/Include/cmsis_gcc.h **** }
 273:Drivers/CMSIS/Include/cmsis_gcc.h **** 
 274:Drivers/CMSIS/Include/cmsis_gcc.h **** 
 275:Drivers/CMSIS/Include/cmsis_gcc.h **** /**
 276:Drivers/CMSIS/Include/cmsis_gcc.h ****   \brief   Data Memory Barrier
 277:Drivers/CMSIS/Include/cmsis_gcc.h ****   \details Ensures the apparent order of the explicit memory operations before
 278:Drivers/CMSIS/Include/cmsis_gcc.h ****            and after the instruction, without ensuring their completion.
 279:Drivers/CMSIS/Include/cmsis_gcc.h ****  */
 280:Drivers/CMSIS/Include/cmsis_gcc.h **** __STATIC_FORCEINLINE void __DMB(void)
 281:Drivers/CMSIS/Include/cmsis_gcc.h **** {
 282:Drivers/CMSIS/Include/cmsis_gcc.h ****   __ASM volatile ("dmb 0xF":::"memory");
 283:Drivers/CMSIS/Include/cmsis_gcc.h **** }
 284:Drivers/CMSIS/Include/cmsis_gcc.h **** 
 285:Drivers/CMSIS/Include/cmsis_gcc.h **** 
 286:Drivers/CMSIS/Include/cmsis_gcc.h **** /**
 287:Drivers/CMSIS/Include/cmsis_gcc.h ****   \brief   Reverse byte order (32 bit)
 288:Drivers/CMSIS/Include/cmsis_gcc.h ****   \details Reverses the byte order in unsigned integer value. For example, 0x12345678 becomes 0x785
 289:Drivers/CMSIS/Include/cmsis_gcc.h ****   \param [in]    value  Value to reverse
 290:Drivers/CMSIS/Include/cmsis_gcc.h ****   \return               Reversed value
 291:Drivers/CMSIS/Include/cmsis_gcc.h ****  */
 292:Drivers/CMSIS/Include/cmsis_gcc.h **** __STATIC_FORCEINLINE uint32_t __REV(uint32_t value)
 293:Drivers/CMSIS/Include/cmsis_gcc.h **** {
 294:Drivers/CMSIS/Include/cmsis_gcc.h **** #if (__GNUC__ > 4) || (__GNUC__ == 4 && __GNUC_MINOR__ >= 5)
 295:Drivers/CMSIS/Include/cmsis_gcc.h ****   return __builtin_bswap32(value);
 296:Drivers/CMSIS/Include/cmsis_gcc.h **** #else
 297:Drivers/CMSIS/Include/cmsis_gcc.h ****   uint32_t result;
 298:Drivers/CMSIS/Include/cmsis_gcc.h **** 
 299:Drivers/CMSIS/Include/cmsis_gcc.h ****   __ASM ("rev %0, %1" : __CMSIS_GCC_OUT_REG (result) : __CMSIS_GCC_USE_REG (value) );
 300:Drivers/CMSIS/Include/cmsis_gcc.h ****   return result;
 301:Drivers/CMSIS/Include/cmsis_gcc.h **** #endif
 302:Drivers/CMSIS/Include/cmsis_gcc.h **** }
 303:Drivers/CMSIS/Include/cmsis_gcc.h **** 
 304:Drivers/CMSIS/Include/cmsis_gcc.h **** 
 305:Drivers/CMSIS/Include/cmsis_gcc.h **** /**
 306:Drivers/CMSIS/Include/cmsis_gcc.h ****   \brief   Reverse byte order (16 bit)
 307:Drivers/CMSIS/Include/cmsis_gcc.h ****   \details Reverses the byte order within each halfword of a word. For example, 0x12345678 becomes 
ARM GAS  /var/folders/ck/g3dcd5x55xs4107jgdl0snvr0000gn/T//ccTk6Q0O.s 			page 14


 308:Drivers/CMSIS/Include/cmsis_gcc.h ****   \param [in]    value  Value to reverse
 309:Drivers/CMSIS/Include/cmsis_gcc.h ****   \return               Reversed value
 310:Drivers/CMSIS/Include/cmsis_gcc.h ****  */
 311:Drivers/CMSIS/Include/cmsis_gcc.h **** __STATIC_FORCEINLINE uint32_t __REV16(uint32_t value)
 312:Drivers/CMSIS/Include/cmsis_gcc.h **** {
 313:Drivers/CMSIS/Include/cmsis_gcc.h ****   uint32_t result;
 314:Drivers/CMSIS/Include/cmsis_gcc.h **** 
 315:Drivers/CMSIS/Include/cmsis_gcc.h ****   __ASM ("rev16 %0, %1" : __CMSIS_GCC_OUT_REG (result) : __CMSIS_GCC_USE_REG (value) );
 316:Drivers/CMSIS/Include/cmsis_gcc.h ****   return result;
 317:Drivers/CMSIS/Include/cmsis_gcc.h **** }
 318:Drivers/CMSIS/Include/cmsis_gcc.h **** 
 319:Drivers/CMSIS/Include/cmsis_gcc.h **** 
 320:Drivers/CMSIS/Include/cmsis_gcc.h **** /**
 321:Drivers/CMSIS/Include/cmsis_gcc.h ****   \brief   Reverse byte order (16 bit)
 322:Drivers/CMSIS/Include/cmsis_gcc.h ****   \details Reverses the byte order in a 16-bit value and returns the signed 16-bit result. For exam
 323:Drivers/CMSIS/Include/cmsis_gcc.h ****   \param [in]    value  Value to reverse
 324:Drivers/CMSIS/Include/cmsis_gcc.h ****   \return               Reversed value
 325:Drivers/CMSIS/Include/cmsis_gcc.h ****  */
 326:Drivers/CMSIS/Include/cmsis_gcc.h **** __STATIC_FORCEINLINE int16_t __REVSH(int16_t value)
 327:Drivers/CMSIS/Include/cmsis_gcc.h **** {
 328:Drivers/CMSIS/Include/cmsis_gcc.h **** #if (__GNUC__ > 4) || (__GNUC__ == 4 && __GNUC_MINOR__ >= 8)
 329:Drivers/CMSIS/Include/cmsis_gcc.h ****   return (int16_t)__builtin_bswap16(value);
 330:Drivers/CMSIS/Include/cmsis_gcc.h **** #else
 331:Drivers/CMSIS/Include/cmsis_gcc.h ****   int16_t result;
 332:Drivers/CMSIS/Include/cmsis_gcc.h **** 
 333:Drivers/CMSIS/Include/cmsis_gcc.h ****   __ASM ("revsh %0, %1" : __CMSIS_GCC_OUT_REG (result) : __CMSIS_GCC_USE_REG (value) );
 334:Drivers/CMSIS/Include/cmsis_gcc.h ****   return result;
 335:Drivers/CMSIS/Include/cmsis_gcc.h **** #endif
 336:Drivers/CMSIS/Include/cmsis_gcc.h **** }
 337:Drivers/CMSIS/Include/cmsis_gcc.h **** 
 338:Drivers/CMSIS/Include/cmsis_gcc.h **** 
 339:Drivers/CMSIS/Include/cmsis_gcc.h **** /**
 340:Drivers/CMSIS/Include/cmsis_gcc.h ****   \brief   Rotate Right in unsigned value (32 bit)
 341:Drivers/CMSIS/Include/cmsis_gcc.h ****   \details Rotate Right (immediate) provides the value of the contents of a register rotated by a v
 342:Drivers/CMSIS/Include/cmsis_gcc.h ****   \param [in]    op1  Value to rotate
 343:Drivers/CMSIS/Include/cmsis_gcc.h ****   \param [in]    op2  Number of Bits to rotate
 344:Drivers/CMSIS/Include/cmsis_gcc.h ****   \return               Rotated value
 345:Drivers/CMSIS/Include/cmsis_gcc.h ****  */
 346:Drivers/CMSIS/Include/cmsis_gcc.h **** __STATIC_FORCEINLINE uint32_t __ROR(uint32_t op1, uint32_t op2)
 347:Drivers/CMSIS/Include/cmsis_gcc.h **** {
 348:Drivers/CMSIS/Include/cmsis_gcc.h ****   op2 %= 32U;
 349:Drivers/CMSIS/Include/cmsis_gcc.h ****   if (op2 == 0U)
 350:Drivers/CMSIS/Include/cmsis_gcc.h ****   {
 351:Drivers/CMSIS/Include/cmsis_gcc.h ****     return op1;
 352:Drivers/CMSIS/Include/cmsis_gcc.h ****   }
 353:Drivers/CMSIS/Include/cmsis_gcc.h ****   return (op1 >> op2) | (op1 << (32U - op2));
 354:Drivers/CMSIS/Include/cmsis_gcc.h **** }
 355:Drivers/CMSIS/Include/cmsis_gcc.h **** 
 356:Drivers/CMSIS/Include/cmsis_gcc.h **** 
 357:Drivers/CMSIS/Include/cmsis_gcc.h **** /**
 358:Drivers/CMSIS/Include/cmsis_gcc.h ****   \brief   Breakpoint
 359:Drivers/CMSIS/Include/cmsis_gcc.h ****   \details Causes the processor to enter Debug state.
 360:Drivers/CMSIS/Include/cmsis_gcc.h ****            Debug tools can use this to investigate system state when the instruction at a particula
 361:Drivers/CMSIS/Include/cmsis_gcc.h ****   \param [in]    value  is ignored by the processor.
 362:Drivers/CMSIS/Include/cmsis_gcc.h ****                  If required, a debugger can use it to store additional information about the break
 363:Drivers/CMSIS/Include/cmsis_gcc.h ****  */
 364:Drivers/CMSIS/Include/cmsis_gcc.h **** #define __BKPT(value)                       __ASM volatile ("bkpt "#value)
ARM GAS  /var/folders/ck/g3dcd5x55xs4107jgdl0snvr0000gn/T//ccTk6Q0O.s 			page 15


 365:Drivers/CMSIS/Include/cmsis_gcc.h **** 
 366:Drivers/CMSIS/Include/cmsis_gcc.h **** 
 367:Drivers/CMSIS/Include/cmsis_gcc.h **** /**
 368:Drivers/CMSIS/Include/cmsis_gcc.h ****   \brief   Reverse bit order of value
 369:Drivers/CMSIS/Include/cmsis_gcc.h ****   \details Reverses the bit order of the given value.
 370:Drivers/CMSIS/Include/cmsis_gcc.h ****   \param [in]    value  Value to reverse
 371:Drivers/CMSIS/Include/cmsis_gcc.h ****   \return               Reversed value
 372:Drivers/CMSIS/Include/cmsis_gcc.h ****  */
 373:Drivers/CMSIS/Include/cmsis_gcc.h **** __STATIC_FORCEINLINE uint32_t __RBIT(uint32_t value)
 374:Drivers/CMSIS/Include/cmsis_gcc.h **** {
 375:Drivers/CMSIS/Include/cmsis_gcc.h ****   uint32_t result;
 376:Drivers/CMSIS/Include/cmsis_gcc.h **** 
 377:Drivers/CMSIS/Include/cmsis_gcc.h **** #if ((defined (__ARM_ARCH_7M__      ) && (__ARM_ARCH_7M__      == 1)) || \
 378:Drivers/CMSIS/Include/cmsis_gcc.h ****      (defined (__ARM_ARCH_7EM__     ) && (__ARM_ARCH_7EM__     == 1)) || \
 379:Drivers/CMSIS/Include/cmsis_gcc.h ****      (defined (__ARM_ARCH_8M_MAIN__ ) && (__ARM_ARCH_8M_MAIN__ == 1))    )
 380:Drivers/CMSIS/Include/cmsis_gcc.h ****    __ASM ("rbit %0, %1" : "=r" (result) : "r" (value) );
 381:Drivers/CMSIS/Include/cmsis_gcc.h **** #else
 382:Drivers/CMSIS/Include/cmsis_gcc.h ****   uint32_t s = (4U /*sizeof(v)*/ * 8U) - 1U; /* extra shift needed at end */
 383:Drivers/CMSIS/Include/cmsis_gcc.h **** 
 384:Drivers/CMSIS/Include/cmsis_gcc.h ****   result = value;                      /* r will be reversed bits of v; first get LSB of v */
 385:Drivers/CMSIS/Include/cmsis_gcc.h ****   for (value >>= 1U; value != 0U; value >>= 1U)
 386:Drivers/CMSIS/Include/cmsis_gcc.h ****   {
 387:Drivers/CMSIS/Include/cmsis_gcc.h ****     result <<= 1U;
 388:Drivers/CMSIS/Include/cmsis_gcc.h ****     result |= value & 1U;
 389:Drivers/CMSIS/Include/cmsis_gcc.h ****     s--;
 390:Drivers/CMSIS/Include/cmsis_gcc.h ****   }
 391:Drivers/CMSIS/Include/cmsis_gcc.h ****   result <<= s;                        /* shift when v's highest bits are zero */
 392:Drivers/CMSIS/Include/cmsis_gcc.h **** #endif
 393:Drivers/CMSIS/Include/cmsis_gcc.h ****   return result;
 394:Drivers/CMSIS/Include/cmsis_gcc.h **** }
 395:Drivers/CMSIS/Include/cmsis_gcc.h **** 
 396:Drivers/CMSIS/Include/cmsis_gcc.h **** 
 397:Drivers/CMSIS/Include/cmsis_gcc.h **** /**
 398:Drivers/CMSIS/Include/cmsis_gcc.h ****   \brief   Count leading zeros
 399:Drivers/CMSIS/Include/cmsis_gcc.h ****   \details Counts the number of leading zeros of a data value.
 400:Drivers/CMSIS/Include/cmsis_gcc.h ****   \param [in]  value  Value to count the leading zeros
 401:Drivers/CMSIS/Include/cmsis_gcc.h ****   \return             number of leading zeros in value
 402:Drivers/CMSIS/Include/cmsis_gcc.h ****  */
 403:Drivers/CMSIS/Include/cmsis_gcc.h **** __STATIC_FORCEINLINE uint8_t __CLZ(uint32_t value)
 404:Drivers/CMSIS/Include/cmsis_gcc.h **** {
 405:Drivers/CMSIS/Include/cmsis_gcc.h ****   /* Even though __builtin_clz produces a CLZ instruction on ARM, formally
 406:Drivers/CMSIS/Include/cmsis_gcc.h ****      __builtin_clz(0) is undefined behaviour, so handle this case specially.
 407:Drivers/CMSIS/Include/cmsis_gcc.h ****      This guarantees ARM-compatible results if happening to compile on a non-ARM
 408:Drivers/CMSIS/Include/cmsis_gcc.h ****      target, and ensures the compiler doesn't decide to activate any
 409:Drivers/CMSIS/Include/cmsis_gcc.h ****      optimisations using the logic "value was passed to __builtin_clz, so it
 410:Drivers/CMSIS/Include/cmsis_gcc.h ****      is non-zero".
 411:Drivers/CMSIS/Include/cmsis_gcc.h ****      ARM GCC 7.3 and possibly earlier will optimise this test away, leaving a
 412:Drivers/CMSIS/Include/cmsis_gcc.h ****      single CLZ instruction.
 413:Drivers/CMSIS/Include/cmsis_gcc.h ****    */
 414:Drivers/CMSIS/Include/cmsis_gcc.h ****   if (value == 0U)
 415:Drivers/CMSIS/Include/cmsis_gcc.h ****   {
 416:Drivers/CMSIS/Include/cmsis_gcc.h ****     return 32U;
 417:Drivers/CMSIS/Include/cmsis_gcc.h ****   }
 418:Drivers/CMSIS/Include/cmsis_gcc.h ****   return __builtin_clz(value);
 419:Drivers/CMSIS/Include/cmsis_gcc.h **** }
 420:Drivers/CMSIS/Include/cmsis_gcc.h **** 
 421:Drivers/CMSIS/Include/cmsis_gcc.h **** 
ARM GAS  /var/folders/ck/g3dcd5x55xs4107jgdl0snvr0000gn/T//ccTk6Q0O.s 			page 16


 422:Drivers/CMSIS/Include/cmsis_gcc.h **** #if ((defined (__ARM_ARCH_7M__      ) && (__ARM_ARCH_7M__      == 1)) || \
 423:Drivers/CMSIS/Include/cmsis_gcc.h ****      (defined (__ARM_ARCH_7EM__     ) && (__ARM_ARCH_7EM__     == 1)) || \
 424:Drivers/CMSIS/Include/cmsis_gcc.h ****      (defined (__ARM_ARCH_8M_MAIN__ ) && (__ARM_ARCH_8M_MAIN__ == 1)) || \
 425:Drivers/CMSIS/Include/cmsis_gcc.h ****      (defined (__ARM_ARCH_8M_BASE__ ) && (__ARM_ARCH_8M_BASE__ == 1))    )
 426:Drivers/CMSIS/Include/cmsis_gcc.h **** /**
 427:Drivers/CMSIS/Include/cmsis_gcc.h ****   \brief   LDR Exclusive (8 bit)
 428:Drivers/CMSIS/Include/cmsis_gcc.h ****   \details Executes a exclusive LDR instruction for 8 bit value.
 429:Drivers/CMSIS/Include/cmsis_gcc.h ****   \param [in]    ptr  Pointer to data
 430:Drivers/CMSIS/Include/cmsis_gcc.h ****   \return             value of type uint8_t at (*ptr)
 431:Drivers/CMSIS/Include/cmsis_gcc.h ****  */
 432:Drivers/CMSIS/Include/cmsis_gcc.h **** __STATIC_FORCEINLINE uint8_t __LDREXB(volatile uint8_t *addr)
 433:Drivers/CMSIS/Include/cmsis_gcc.h **** {
 434:Drivers/CMSIS/Include/cmsis_gcc.h ****     uint32_t result;
 435:Drivers/CMSIS/Include/cmsis_gcc.h **** 
 436:Drivers/CMSIS/Include/cmsis_gcc.h **** #if (__GNUC__ > 4) || (__GNUC__ == 4 && __GNUC_MINOR__ >= 8)
 437:Drivers/CMSIS/Include/cmsis_gcc.h ****    __ASM volatile ("ldrexb %0, %1" : "=r" (result) : "Q" (*addr) );
 438:Drivers/CMSIS/Include/cmsis_gcc.h **** #else
 439:Drivers/CMSIS/Include/cmsis_gcc.h ****     /* Prior to GCC 4.8, "Q" will be expanded to [rx, #0] which is not
 440:Drivers/CMSIS/Include/cmsis_gcc.h ****        accepted by assembler. So has to use following less efficient pattern.
 441:Drivers/CMSIS/Include/cmsis_gcc.h ****     */
 442:Drivers/CMSIS/Include/cmsis_gcc.h ****    __ASM volatile ("ldrexb %0, [%1]" : "=r" (result) : "r" (addr) : "memory" );
 443:Drivers/CMSIS/Include/cmsis_gcc.h **** #endif
 444:Drivers/CMSIS/Include/cmsis_gcc.h ****    return ((uint8_t) result);    /* Add explicit type cast here */
 445:Drivers/CMSIS/Include/cmsis_gcc.h **** }
 446:Drivers/CMSIS/Include/cmsis_gcc.h **** 
 447:Drivers/CMSIS/Include/cmsis_gcc.h **** 
 448:Drivers/CMSIS/Include/cmsis_gcc.h **** /**
 449:Drivers/CMSIS/Include/cmsis_gcc.h ****   \brief   LDR Exclusive (16 bit)
 450:Drivers/CMSIS/Include/cmsis_gcc.h ****   \details Executes a exclusive LDR instruction for 16 bit values.
 451:Drivers/CMSIS/Include/cmsis_gcc.h ****   \param [in]    ptr  Pointer to data
 452:Drivers/CMSIS/Include/cmsis_gcc.h ****   \return        value of type uint16_t at (*ptr)
 453:Drivers/CMSIS/Include/cmsis_gcc.h ****  */
 454:Drivers/CMSIS/Include/cmsis_gcc.h **** __STATIC_FORCEINLINE uint16_t __LDREXH(volatile uint16_t *addr)
 455:Drivers/CMSIS/Include/cmsis_gcc.h **** {
 456:Drivers/CMSIS/Include/cmsis_gcc.h ****     uint32_t result;
 457:Drivers/CMSIS/Include/cmsis_gcc.h **** 
 458:Drivers/CMSIS/Include/cmsis_gcc.h **** #if (__GNUC__ > 4) || (__GNUC__ == 4 && __GNUC_MINOR__ >= 8)
 459:Drivers/CMSIS/Include/cmsis_gcc.h ****    __ASM volatile ("ldrexh %0, %1" : "=r" (result) : "Q" (*addr) );
 460:Drivers/CMSIS/Include/cmsis_gcc.h **** #else
 461:Drivers/CMSIS/Include/cmsis_gcc.h ****     /* Prior to GCC 4.8, "Q" will be expanded to [rx, #0] which is not
 462:Drivers/CMSIS/Include/cmsis_gcc.h ****        accepted by assembler. So has to use following less efficient pattern.
 463:Drivers/CMSIS/Include/cmsis_gcc.h ****     */
 464:Drivers/CMSIS/Include/cmsis_gcc.h ****    __ASM volatile ("ldrexh %0, [%1]" : "=r" (result) : "r" (addr) : "memory" );
 465:Drivers/CMSIS/Include/cmsis_gcc.h **** #endif
 466:Drivers/CMSIS/Include/cmsis_gcc.h ****    return ((uint16_t) result);    /* Add explicit type cast here */
 467:Drivers/CMSIS/Include/cmsis_gcc.h **** }
 468:Drivers/CMSIS/Include/cmsis_gcc.h **** 
 469:Drivers/CMSIS/Include/cmsis_gcc.h **** 
 470:Drivers/CMSIS/Include/cmsis_gcc.h **** /**
 471:Drivers/CMSIS/Include/cmsis_gcc.h ****   \brief   LDR Exclusive (32 bit)
 472:Drivers/CMSIS/Include/cmsis_gcc.h ****   \details Executes a exclusive LDR instruction for 32 bit values.
 473:Drivers/CMSIS/Include/cmsis_gcc.h ****   \param [in]    ptr  Pointer to data
 474:Drivers/CMSIS/Include/cmsis_gcc.h ****   \return        value of type uint32_t at (*ptr)
 475:Drivers/CMSIS/Include/cmsis_gcc.h ****  */
 476:Drivers/CMSIS/Include/cmsis_gcc.h **** __STATIC_FORCEINLINE uint32_t __LDREXW(volatile uint32_t *addr)
 477:Drivers/CMSIS/Include/cmsis_gcc.h **** {
 478:Drivers/CMSIS/Include/cmsis_gcc.h ****     uint32_t result;
ARM GAS  /var/folders/ck/g3dcd5x55xs4107jgdl0snvr0000gn/T//ccTk6Q0O.s 			page 17


 479:Drivers/CMSIS/Include/cmsis_gcc.h **** 
 480:Drivers/CMSIS/Include/cmsis_gcc.h ****    __ASM volatile ("ldrex %0, %1" : "=r" (result) : "Q" (*addr) );
 481:Drivers/CMSIS/Include/cmsis_gcc.h ****    return(result);
 482:Drivers/CMSIS/Include/cmsis_gcc.h **** }
 483:Drivers/CMSIS/Include/cmsis_gcc.h **** 
 484:Drivers/CMSIS/Include/cmsis_gcc.h **** 
 485:Drivers/CMSIS/Include/cmsis_gcc.h **** /**
 486:Drivers/CMSIS/Include/cmsis_gcc.h ****   \brief   STR Exclusive (8 bit)
 487:Drivers/CMSIS/Include/cmsis_gcc.h ****   \details Executes a exclusive STR instruction for 8 bit values.
 488:Drivers/CMSIS/Include/cmsis_gcc.h ****   \param [in]  value  Value to store
 489:Drivers/CMSIS/Include/cmsis_gcc.h ****   \param [in]    ptr  Pointer to location
 490:Drivers/CMSIS/Include/cmsis_gcc.h ****   \return          0  Function succeeded
 491:Drivers/CMSIS/Include/cmsis_gcc.h ****   \return          1  Function failed
 492:Drivers/CMSIS/Include/cmsis_gcc.h ****  */
 493:Drivers/CMSIS/Include/cmsis_gcc.h **** __STATIC_FORCEINLINE uint32_t __STREXB(uint8_t value, volatile uint8_t *addr)
 494:Drivers/CMSIS/Include/cmsis_gcc.h **** {
 495:Drivers/CMSIS/Include/cmsis_gcc.h ****    uint32_t result;
 496:Drivers/CMSIS/Include/cmsis_gcc.h **** 
 497:Drivers/CMSIS/Include/cmsis_gcc.h ****    __ASM volatile ("strexb %0, %2, %1" : "=&r" (result), "=Q" (*addr) : "r" ((uint32_t)value) );
 498:Drivers/CMSIS/Include/cmsis_gcc.h ****    return(result);
 499:Drivers/CMSIS/Include/cmsis_gcc.h **** }
 500:Drivers/CMSIS/Include/cmsis_gcc.h **** 
 501:Drivers/CMSIS/Include/cmsis_gcc.h **** 
 502:Drivers/CMSIS/Include/cmsis_gcc.h **** /**
 503:Drivers/CMSIS/Include/cmsis_gcc.h ****   \brief   STR Exclusive (16 bit)
 504:Drivers/CMSIS/Include/cmsis_gcc.h ****   \details Executes a exclusive STR instruction for 16 bit values.
 505:Drivers/CMSIS/Include/cmsis_gcc.h ****   \param [in]  value  Value to store
 506:Drivers/CMSIS/Include/cmsis_gcc.h ****   \param [in]    ptr  Pointer to location
 507:Drivers/CMSIS/Include/cmsis_gcc.h ****   \return          0  Function succeeded
 508:Drivers/CMSIS/Include/cmsis_gcc.h ****   \return          1  Function failed
 509:Drivers/CMSIS/Include/cmsis_gcc.h ****  */
 510:Drivers/CMSIS/Include/cmsis_gcc.h **** __STATIC_FORCEINLINE uint32_t __STREXH(uint16_t value, volatile uint16_t *addr)
 511:Drivers/CMSIS/Include/cmsis_gcc.h **** {
 512:Drivers/CMSIS/Include/cmsis_gcc.h ****    uint32_t result;
 513:Drivers/CMSIS/Include/cmsis_gcc.h **** 
 514:Drivers/CMSIS/Include/cmsis_gcc.h ****    __ASM volatile ("strexh %0, %2, %1" : "=&r" (result), "=Q" (*addr) : "r" ((uint32_t)value) );
 515:Drivers/CMSIS/Include/cmsis_gcc.h ****    return(result);
 516:Drivers/CMSIS/Include/cmsis_gcc.h **** }
 517:Drivers/CMSIS/Include/cmsis_gcc.h **** 
 518:Drivers/CMSIS/Include/cmsis_gcc.h **** 
 519:Drivers/CMSIS/Include/cmsis_gcc.h **** /**
 520:Drivers/CMSIS/Include/cmsis_gcc.h ****   \brief   STR Exclusive (32 bit)
 521:Drivers/CMSIS/Include/cmsis_gcc.h ****   \details Executes a exclusive STR instruction for 32 bit values.
 522:Drivers/CMSIS/Include/cmsis_gcc.h ****   \param [in]  value  Value to store
 523:Drivers/CMSIS/Include/cmsis_gcc.h ****   \param [in]    ptr  Pointer to location
 524:Drivers/CMSIS/Include/cmsis_gcc.h ****   \return          0  Function succeeded
 525:Drivers/CMSIS/Include/cmsis_gcc.h ****   \return          1  Function failed
 526:Drivers/CMSIS/Include/cmsis_gcc.h ****  */
 527:Drivers/CMSIS/Include/cmsis_gcc.h **** __STATIC_FORCEINLINE uint32_t __STREXW(uint32_t value, volatile uint32_t *addr)
 528:Drivers/CMSIS/Include/cmsis_gcc.h **** {
 529:Drivers/CMSIS/Include/cmsis_gcc.h ****    uint32_t result;
 530:Drivers/CMSIS/Include/cmsis_gcc.h **** 
 531:Drivers/CMSIS/Include/cmsis_gcc.h ****    __ASM volatile ("strex %0, %2, %1" : "=&r" (result), "=Q" (*addr) : "r" (value) );
 532:Drivers/CMSIS/Include/cmsis_gcc.h ****    return(result);
 533:Drivers/CMSIS/Include/cmsis_gcc.h **** }
 534:Drivers/CMSIS/Include/cmsis_gcc.h **** 
 535:Drivers/CMSIS/Include/cmsis_gcc.h **** 
ARM GAS  /var/folders/ck/g3dcd5x55xs4107jgdl0snvr0000gn/T//ccTk6Q0O.s 			page 18


 536:Drivers/CMSIS/Include/cmsis_gcc.h **** /**
 537:Drivers/CMSIS/Include/cmsis_gcc.h ****   \brief   Remove the exclusive lock
 538:Drivers/CMSIS/Include/cmsis_gcc.h ****   \details Removes the exclusive lock which is created by LDREX.
 539:Drivers/CMSIS/Include/cmsis_gcc.h ****  */
 540:Drivers/CMSIS/Include/cmsis_gcc.h **** __STATIC_FORCEINLINE void __CLREX(void)
 541:Drivers/CMSIS/Include/cmsis_gcc.h **** {
 542:Drivers/CMSIS/Include/cmsis_gcc.h ****   __ASM volatile ("clrex" ::: "memory");
 543:Drivers/CMSIS/Include/cmsis_gcc.h **** }
 544:Drivers/CMSIS/Include/cmsis_gcc.h **** 
 545:Drivers/CMSIS/Include/cmsis_gcc.h **** #endif /* ((defined (__ARM_ARCH_7M__      ) && (__ARM_ARCH_7M__      == 1)) || \
 546:Drivers/CMSIS/Include/cmsis_gcc.h ****            (defined (__ARM_ARCH_7EM__     ) && (__ARM_ARCH_7EM__     == 1)) || \
 547:Drivers/CMSIS/Include/cmsis_gcc.h ****            (defined (__ARM_ARCH_8M_MAIN__ ) && (__ARM_ARCH_8M_MAIN__ == 1)) || \
 548:Drivers/CMSIS/Include/cmsis_gcc.h ****            (defined (__ARM_ARCH_8M_BASE__ ) && (__ARM_ARCH_8M_BASE__ == 1))    ) */
 549:Drivers/CMSIS/Include/cmsis_gcc.h **** 
 550:Drivers/CMSIS/Include/cmsis_gcc.h **** 
 551:Drivers/CMSIS/Include/cmsis_gcc.h **** #if ((defined (__ARM_ARCH_7M__      ) && (__ARM_ARCH_7M__      == 1)) || \
 552:Drivers/CMSIS/Include/cmsis_gcc.h ****      (defined (__ARM_ARCH_7EM__     ) && (__ARM_ARCH_7EM__     == 1)) || \
 553:Drivers/CMSIS/Include/cmsis_gcc.h ****      (defined (__ARM_ARCH_8M_MAIN__ ) && (__ARM_ARCH_8M_MAIN__ == 1))    )
 554:Drivers/CMSIS/Include/cmsis_gcc.h **** /**
 555:Drivers/CMSIS/Include/cmsis_gcc.h ****   \brief   Signed Saturate
 556:Drivers/CMSIS/Include/cmsis_gcc.h ****   \details Saturates a signed value.
 557:Drivers/CMSIS/Include/cmsis_gcc.h ****   \param [in]  ARG1  Value to be saturated
 558:Drivers/CMSIS/Include/cmsis_gcc.h ****   \param [in]  ARG2  Bit position to saturate to (1..32)
 559:Drivers/CMSIS/Include/cmsis_gcc.h ****   \return             Saturated value
 560:Drivers/CMSIS/Include/cmsis_gcc.h ****  */
 561:Drivers/CMSIS/Include/cmsis_gcc.h **** #define __SSAT(ARG1, ARG2) \
 562:Drivers/CMSIS/Include/cmsis_gcc.h **** __extension__ \
 563:Drivers/CMSIS/Include/cmsis_gcc.h **** ({                          \
 564:Drivers/CMSIS/Include/cmsis_gcc.h ****   int32_t __RES, __ARG1 = (ARG1); \
 565:Drivers/CMSIS/Include/cmsis_gcc.h ****   __ASM volatile ("ssat %0, %1, %2" : "=r" (__RES) :  "I" (ARG2), "r" (__ARG1) : "cc" ); \
 566:Drivers/CMSIS/Include/cmsis_gcc.h ****   __RES; \
 567:Drivers/CMSIS/Include/cmsis_gcc.h ****  })
 568:Drivers/CMSIS/Include/cmsis_gcc.h **** 
 569:Drivers/CMSIS/Include/cmsis_gcc.h **** 
 570:Drivers/CMSIS/Include/cmsis_gcc.h **** /**
 571:Drivers/CMSIS/Include/cmsis_gcc.h ****   \brief   Unsigned Saturate
 572:Drivers/CMSIS/Include/cmsis_gcc.h ****   \details Saturates an unsigned value.
 573:Drivers/CMSIS/Include/cmsis_gcc.h ****   \param [in]  ARG1  Value to be saturated
 574:Drivers/CMSIS/Include/cmsis_gcc.h ****   \param [in]  ARG2  Bit position to saturate to (0..31)
 575:Drivers/CMSIS/Include/cmsis_gcc.h ****   \return             Saturated value
 576:Drivers/CMSIS/Include/cmsis_gcc.h ****  */
 577:Drivers/CMSIS/Include/cmsis_gcc.h **** #define __USAT(ARG1, ARG2) \
 578:Drivers/CMSIS/Include/cmsis_gcc.h **** __extension__ \
 579:Drivers/CMSIS/Include/cmsis_gcc.h **** ({                          \
 580:Drivers/CMSIS/Include/cmsis_gcc.h ****   uint32_t __RES, __ARG1 = (ARG1); \
 581:Drivers/CMSIS/Include/cmsis_gcc.h ****   __ASM volatile ("usat %0, %1, %2" : "=r" (__RES) :  "I" (ARG2), "r" (__ARG1) : "cc" ); \
 582:Drivers/CMSIS/Include/cmsis_gcc.h ****   __RES; \
 583:Drivers/CMSIS/Include/cmsis_gcc.h ****  })
 584:Drivers/CMSIS/Include/cmsis_gcc.h **** 
 585:Drivers/CMSIS/Include/cmsis_gcc.h **** 
 586:Drivers/CMSIS/Include/cmsis_gcc.h **** /**
 587:Drivers/CMSIS/Include/cmsis_gcc.h ****   \brief   Rotate Right with Extend (32 bit)
 588:Drivers/CMSIS/Include/cmsis_gcc.h ****   \details Moves each bit of a bitstring right by one bit.
 589:Drivers/CMSIS/Include/cmsis_gcc.h ****            The carry input is shifted in at the left end of the bitstring.
 590:Drivers/CMSIS/Include/cmsis_gcc.h ****   \param [in]    value  Value to rotate
 591:Drivers/CMSIS/Include/cmsis_gcc.h ****   \return               Rotated value
 592:Drivers/CMSIS/Include/cmsis_gcc.h ****  */
ARM GAS  /var/folders/ck/g3dcd5x55xs4107jgdl0snvr0000gn/T//ccTk6Q0O.s 			page 19


 593:Drivers/CMSIS/Include/cmsis_gcc.h **** __STATIC_FORCEINLINE uint32_t __RRX(uint32_t value)
 594:Drivers/CMSIS/Include/cmsis_gcc.h **** {
 595:Drivers/CMSIS/Include/cmsis_gcc.h ****   uint32_t result;
 596:Drivers/CMSIS/Include/cmsis_gcc.h **** 
 597:Drivers/CMSIS/Include/cmsis_gcc.h ****   __ASM volatile ("rrx %0, %1" : __CMSIS_GCC_OUT_REG (result) : __CMSIS_GCC_USE_REG (value) );
 598:Drivers/CMSIS/Include/cmsis_gcc.h ****   return(result);
 599:Drivers/CMSIS/Include/cmsis_gcc.h **** }
 600:Drivers/CMSIS/Include/cmsis_gcc.h **** 
 601:Drivers/CMSIS/Include/cmsis_gcc.h **** 
 602:Drivers/CMSIS/Include/cmsis_gcc.h **** /**
 603:Drivers/CMSIS/Include/cmsis_gcc.h ****   \brief   LDRT Unprivileged (8 bit)
 604:Drivers/CMSIS/Include/cmsis_gcc.h ****   \details Executes a Unprivileged LDRT instruction for 8 bit value.
 605:Drivers/CMSIS/Include/cmsis_gcc.h ****   \param [in]    ptr  Pointer to data
 606:Drivers/CMSIS/Include/cmsis_gcc.h ****   \return             value of type uint8_t at (*ptr)
 607:Drivers/CMSIS/Include/cmsis_gcc.h ****  */
 608:Drivers/CMSIS/Include/cmsis_gcc.h **** __STATIC_FORCEINLINE uint8_t __LDRBT(volatile uint8_t *ptr)
 609:Drivers/CMSIS/Include/cmsis_gcc.h **** {
 610:Drivers/CMSIS/Include/cmsis_gcc.h ****     uint32_t result;
 611:Drivers/CMSIS/Include/cmsis_gcc.h **** 
 612:Drivers/CMSIS/Include/cmsis_gcc.h **** #if (__GNUC__ > 4) || (__GNUC__ == 4 && __GNUC_MINOR__ >= 8)
 613:Drivers/CMSIS/Include/cmsis_gcc.h ****    __ASM volatile ("ldrbt %0, %1" : "=r" (result) : "Q" (*ptr) );
 614:Drivers/CMSIS/Include/cmsis_gcc.h **** #else
 615:Drivers/CMSIS/Include/cmsis_gcc.h ****     /* Prior to GCC 4.8, "Q" will be expanded to [rx, #0] which is not
 616:Drivers/CMSIS/Include/cmsis_gcc.h ****        accepted by assembler. So has to use following less efficient pattern.
 617:Drivers/CMSIS/Include/cmsis_gcc.h ****     */
 618:Drivers/CMSIS/Include/cmsis_gcc.h ****    __ASM volatile ("ldrbt %0, [%1]" : "=r" (result) : "r" (ptr) : "memory" );
 619:Drivers/CMSIS/Include/cmsis_gcc.h **** #endif
 620:Drivers/CMSIS/Include/cmsis_gcc.h ****    return ((uint8_t) result);    /* Add explicit type cast here */
 621:Drivers/CMSIS/Include/cmsis_gcc.h **** }
 622:Drivers/CMSIS/Include/cmsis_gcc.h **** 
 623:Drivers/CMSIS/Include/cmsis_gcc.h **** 
 624:Drivers/CMSIS/Include/cmsis_gcc.h **** /**
 625:Drivers/CMSIS/Include/cmsis_gcc.h ****   \brief   LDRT Unprivileged (16 bit)
 626:Drivers/CMSIS/Include/cmsis_gcc.h ****   \details Executes a Unprivileged LDRT instruction for 16 bit values.
 627:Drivers/CMSIS/Include/cmsis_gcc.h ****   \param [in]    ptr  Pointer to data
 628:Drivers/CMSIS/Include/cmsis_gcc.h ****   \return        value of type uint16_t at (*ptr)
 629:Drivers/CMSIS/Include/cmsis_gcc.h ****  */
 630:Drivers/CMSIS/Include/cmsis_gcc.h **** __STATIC_FORCEINLINE uint16_t __LDRHT(volatile uint16_t *ptr)
 631:Drivers/CMSIS/Include/cmsis_gcc.h **** {
 632:Drivers/CMSIS/Include/cmsis_gcc.h ****     uint32_t result;
 633:Drivers/CMSIS/Include/cmsis_gcc.h **** 
 634:Drivers/CMSIS/Include/cmsis_gcc.h **** #if (__GNUC__ > 4) || (__GNUC__ == 4 && __GNUC_MINOR__ >= 8)
 635:Drivers/CMSIS/Include/cmsis_gcc.h ****    __ASM volatile ("ldrht %0, %1" : "=r" (result) : "Q" (*ptr) );
 636:Drivers/CMSIS/Include/cmsis_gcc.h **** #else
 637:Drivers/CMSIS/Include/cmsis_gcc.h ****     /* Prior to GCC 4.8, "Q" will be expanded to [rx, #0] which is not
 638:Drivers/CMSIS/Include/cmsis_gcc.h ****        accepted by assembler. So has to use following less efficient pattern.
 639:Drivers/CMSIS/Include/cmsis_gcc.h ****     */
 640:Drivers/CMSIS/Include/cmsis_gcc.h ****    __ASM volatile ("ldrht %0, [%1]" : "=r" (result) : "r" (ptr) : "memory" );
 641:Drivers/CMSIS/Include/cmsis_gcc.h **** #endif
 642:Drivers/CMSIS/Include/cmsis_gcc.h ****    return ((uint16_t) result);    /* Add explicit type cast here */
 643:Drivers/CMSIS/Include/cmsis_gcc.h **** }
 644:Drivers/CMSIS/Include/cmsis_gcc.h **** 
 645:Drivers/CMSIS/Include/cmsis_gcc.h **** 
 646:Drivers/CMSIS/Include/cmsis_gcc.h **** /**
 647:Drivers/CMSIS/Include/cmsis_gcc.h ****   \brief   LDRT Unprivileged (32 bit)
 648:Drivers/CMSIS/Include/cmsis_gcc.h ****   \details Executes a Unprivileged LDRT instruction for 32 bit values.
 649:Drivers/CMSIS/Include/cmsis_gcc.h ****   \param [in]    ptr  Pointer to data
ARM GAS  /var/folders/ck/g3dcd5x55xs4107jgdl0snvr0000gn/T//ccTk6Q0O.s 			page 20


 650:Drivers/CMSIS/Include/cmsis_gcc.h ****   \return        value of type uint32_t at (*ptr)
 651:Drivers/CMSIS/Include/cmsis_gcc.h ****  */
 652:Drivers/CMSIS/Include/cmsis_gcc.h **** __STATIC_FORCEINLINE uint32_t __LDRT(volatile uint32_t *ptr)
 653:Drivers/CMSIS/Include/cmsis_gcc.h **** {
 654:Drivers/CMSIS/Include/cmsis_gcc.h ****     uint32_t result;
 655:Drivers/CMSIS/Include/cmsis_gcc.h **** 
 656:Drivers/CMSIS/Include/cmsis_gcc.h ****    __ASM volatile ("ldrt %0, %1" : "=r" (result) : "Q" (*ptr) );
 657:Drivers/CMSIS/Include/cmsis_gcc.h ****    return(result);
 658:Drivers/CMSIS/Include/cmsis_gcc.h **** }
 659:Drivers/CMSIS/Include/cmsis_gcc.h **** 
 660:Drivers/CMSIS/Include/cmsis_gcc.h **** 
 661:Drivers/CMSIS/Include/cmsis_gcc.h **** /**
 662:Drivers/CMSIS/Include/cmsis_gcc.h ****   \brief   STRT Unprivileged (8 bit)
 663:Drivers/CMSIS/Include/cmsis_gcc.h ****   \details Executes a Unprivileged STRT instruction for 8 bit values.
 664:Drivers/CMSIS/Include/cmsis_gcc.h ****   \param [in]  value  Value to store
 665:Drivers/CMSIS/Include/cmsis_gcc.h ****   \param [in]    ptr  Pointer to location
 666:Drivers/CMSIS/Include/cmsis_gcc.h ****  */
 667:Drivers/CMSIS/Include/cmsis_gcc.h **** __STATIC_FORCEINLINE void __STRBT(uint8_t value, volatile uint8_t *ptr)
 668:Drivers/CMSIS/Include/cmsis_gcc.h **** {
 669:Drivers/CMSIS/Include/cmsis_gcc.h ****    __ASM volatile ("strbt %1, %0" : "=Q" (*ptr) : "r" ((uint32_t)value) );
 670:Drivers/CMSIS/Include/cmsis_gcc.h **** }
 671:Drivers/CMSIS/Include/cmsis_gcc.h **** 
 672:Drivers/CMSIS/Include/cmsis_gcc.h **** 
 673:Drivers/CMSIS/Include/cmsis_gcc.h **** /**
 674:Drivers/CMSIS/Include/cmsis_gcc.h ****   \brief   STRT Unprivileged (16 bit)
 675:Drivers/CMSIS/Include/cmsis_gcc.h ****   \details Executes a Unprivileged STRT instruction for 16 bit values.
 676:Drivers/CMSIS/Include/cmsis_gcc.h ****   \param [in]  value  Value to store
 677:Drivers/CMSIS/Include/cmsis_gcc.h ****   \param [in]    ptr  Pointer to location
 678:Drivers/CMSIS/Include/cmsis_gcc.h ****  */
 679:Drivers/CMSIS/Include/cmsis_gcc.h **** __STATIC_FORCEINLINE void __STRHT(uint16_t value, volatile uint16_t *ptr)
 680:Drivers/CMSIS/Include/cmsis_gcc.h **** {
 681:Drivers/CMSIS/Include/cmsis_gcc.h ****    __ASM volatile ("strht %1, %0" : "=Q" (*ptr) : "r" ((uint32_t)value) );
 682:Drivers/CMSIS/Include/cmsis_gcc.h **** }
 683:Drivers/CMSIS/Include/cmsis_gcc.h **** 
 684:Drivers/CMSIS/Include/cmsis_gcc.h **** 
 685:Drivers/CMSIS/Include/cmsis_gcc.h **** /**
 686:Drivers/CMSIS/Include/cmsis_gcc.h ****   \brief   STRT Unprivileged (32 bit)
 687:Drivers/CMSIS/Include/cmsis_gcc.h ****   \details Executes a Unprivileged STRT instruction for 32 bit values.
 688:Drivers/CMSIS/Include/cmsis_gcc.h ****   \param [in]  value  Value to store
 689:Drivers/CMSIS/Include/cmsis_gcc.h ****   \param [in]    ptr  Pointer to location
 690:Drivers/CMSIS/Include/cmsis_gcc.h ****  */
 691:Drivers/CMSIS/Include/cmsis_gcc.h **** __STATIC_FORCEINLINE void __STRT(uint32_t value, volatile uint32_t *ptr)
 692:Drivers/CMSIS/Include/cmsis_gcc.h **** {
 693:Drivers/CMSIS/Include/cmsis_gcc.h ****    __ASM volatile ("strt %1, %0" : "=Q" (*ptr) : "r" (value) );
 694:Drivers/CMSIS/Include/cmsis_gcc.h **** }
 695:Drivers/CMSIS/Include/cmsis_gcc.h **** 
 696:Drivers/CMSIS/Include/cmsis_gcc.h **** #else  /* ((defined (__ARM_ARCH_7M__      ) && (__ARM_ARCH_7M__      == 1)) || \
 697:Drivers/CMSIS/Include/cmsis_gcc.h ****            (defined (__ARM_ARCH_7EM__     ) && (__ARM_ARCH_7EM__     == 1)) || \
 698:Drivers/CMSIS/Include/cmsis_gcc.h ****            (defined (__ARM_ARCH_8M_MAIN__ ) && (__ARM_ARCH_8M_MAIN__ == 1))    ) */
 699:Drivers/CMSIS/Include/cmsis_gcc.h **** 
 700:Drivers/CMSIS/Include/cmsis_gcc.h **** /**
 701:Drivers/CMSIS/Include/cmsis_gcc.h ****   \brief   Signed Saturate
 702:Drivers/CMSIS/Include/cmsis_gcc.h ****   \details Saturates a signed value.
 703:Drivers/CMSIS/Include/cmsis_gcc.h ****   \param [in]  value  Value to be saturated
 704:Drivers/CMSIS/Include/cmsis_gcc.h ****   \param [in]    sat  Bit position to saturate to (1..32)
 705:Drivers/CMSIS/Include/cmsis_gcc.h ****   \return             Saturated value
 706:Drivers/CMSIS/Include/cmsis_gcc.h ****  */
ARM GAS  /var/folders/ck/g3dcd5x55xs4107jgdl0snvr0000gn/T//ccTk6Q0O.s 			page 21


 707:Drivers/CMSIS/Include/cmsis_gcc.h **** __STATIC_FORCEINLINE int32_t __SSAT(int32_t val, uint32_t sat)
 708:Drivers/CMSIS/Include/cmsis_gcc.h **** {
 709:Drivers/CMSIS/Include/cmsis_gcc.h ****   if ((sat >= 1U) && (sat <= 32U))
 710:Drivers/CMSIS/Include/cmsis_gcc.h ****   {
 711:Drivers/CMSIS/Include/cmsis_gcc.h ****     const int32_t max = (int32_t)((1U << (sat - 1U)) - 1U);
 712:Drivers/CMSIS/Include/cmsis_gcc.h ****     const int32_t min = -1 - max ;
 713:Drivers/CMSIS/Include/cmsis_gcc.h ****     if (val > max)
 714:Drivers/CMSIS/Include/cmsis_gcc.h ****     {
 715:Drivers/CMSIS/Include/cmsis_gcc.h ****       return max;
 716:Drivers/CMSIS/Include/cmsis_gcc.h ****     }
 717:Drivers/CMSIS/Include/cmsis_gcc.h ****     else if (val < min)
 718:Drivers/CMSIS/Include/cmsis_gcc.h ****     {
 719:Drivers/CMSIS/Include/cmsis_gcc.h ****       return min;
 720:Drivers/CMSIS/Include/cmsis_gcc.h ****     }
 721:Drivers/CMSIS/Include/cmsis_gcc.h ****   }
 722:Drivers/CMSIS/Include/cmsis_gcc.h ****   return val;
 723:Drivers/CMSIS/Include/cmsis_gcc.h **** }
 724:Drivers/CMSIS/Include/cmsis_gcc.h **** 
 725:Drivers/CMSIS/Include/cmsis_gcc.h **** /**
 726:Drivers/CMSIS/Include/cmsis_gcc.h ****   \brief   Unsigned Saturate
 727:Drivers/CMSIS/Include/cmsis_gcc.h ****   \details Saturates an unsigned value.
 728:Drivers/CMSIS/Include/cmsis_gcc.h ****   \param [in]  value  Value to be saturated
 729:Drivers/CMSIS/Include/cmsis_gcc.h ****   \param [in]    sat  Bit position to saturate to (0..31)
 730:Drivers/CMSIS/Include/cmsis_gcc.h ****   \return             Saturated value
 731:Drivers/CMSIS/Include/cmsis_gcc.h ****  */
 732:Drivers/CMSIS/Include/cmsis_gcc.h **** __STATIC_FORCEINLINE uint32_t __USAT(int32_t val, uint32_t sat)
 733:Drivers/CMSIS/Include/cmsis_gcc.h **** {
 734:Drivers/CMSIS/Include/cmsis_gcc.h ****   if (sat <= 31U)
 735:Drivers/CMSIS/Include/cmsis_gcc.h ****   {
 736:Drivers/CMSIS/Include/cmsis_gcc.h ****     const uint32_t max = ((1U << sat) - 1U);
 737:Drivers/CMSIS/Include/cmsis_gcc.h ****     if (val > (int32_t)max)
 738:Drivers/CMSIS/Include/cmsis_gcc.h ****     {
 739:Drivers/CMSIS/Include/cmsis_gcc.h ****       return max;
 740:Drivers/CMSIS/Include/cmsis_gcc.h ****     }
 741:Drivers/CMSIS/Include/cmsis_gcc.h ****     else if (val < 0)
 742:Drivers/CMSIS/Include/cmsis_gcc.h ****     {
 743:Drivers/CMSIS/Include/cmsis_gcc.h ****       return 0U;
 744:Drivers/CMSIS/Include/cmsis_gcc.h ****     }
 745:Drivers/CMSIS/Include/cmsis_gcc.h ****   }
 746:Drivers/CMSIS/Include/cmsis_gcc.h ****   return (uint32_t)val;
 747:Drivers/CMSIS/Include/cmsis_gcc.h **** }
 748:Drivers/CMSIS/Include/cmsis_gcc.h **** 
 749:Drivers/CMSIS/Include/cmsis_gcc.h **** #endif /* ((defined (__ARM_ARCH_7M__      ) && (__ARM_ARCH_7M__      == 1)) || \
 750:Drivers/CMSIS/Include/cmsis_gcc.h ****            (defined (__ARM_ARCH_7EM__     ) && (__ARM_ARCH_7EM__     == 1)) || \
 751:Drivers/CMSIS/Include/cmsis_gcc.h ****            (defined (__ARM_ARCH_8M_MAIN__ ) && (__ARM_ARCH_8M_MAIN__ == 1))    ) */
 752:Drivers/CMSIS/Include/cmsis_gcc.h **** 
 753:Drivers/CMSIS/Include/cmsis_gcc.h **** 
 754:Drivers/CMSIS/Include/cmsis_gcc.h **** #if ((defined (__ARM_ARCH_8M_MAIN__ ) && (__ARM_ARCH_8M_MAIN__ == 1)) || \
 755:Drivers/CMSIS/Include/cmsis_gcc.h ****      (defined (__ARM_ARCH_8M_BASE__ ) && (__ARM_ARCH_8M_BASE__ == 1))    )
 756:Drivers/CMSIS/Include/cmsis_gcc.h **** /**
 757:Drivers/CMSIS/Include/cmsis_gcc.h ****   \brief   Load-Acquire (8 bit)
 758:Drivers/CMSIS/Include/cmsis_gcc.h ****   \details Executes a LDAB instruction for 8 bit value.
 759:Drivers/CMSIS/Include/cmsis_gcc.h ****   \param [in]    ptr  Pointer to data
 760:Drivers/CMSIS/Include/cmsis_gcc.h ****   \return             value of type uint8_t at (*ptr)
 761:Drivers/CMSIS/Include/cmsis_gcc.h ****  */
 762:Drivers/CMSIS/Include/cmsis_gcc.h **** __STATIC_FORCEINLINE uint8_t __LDAB(volatile uint8_t *ptr)
 763:Drivers/CMSIS/Include/cmsis_gcc.h **** {
ARM GAS  /var/folders/ck/g3dcd5x55xs4107jgdl0snvr0000gn/T//ccTk6Q0O.s 			page 22


 764:Drivers/CMSIS/Include/cmsis_gcc.h ****     uint32_t result;
 765:Drivers/CMSIS/Include/cmsis_gcc.h **** 
 766:Drivers/CMSIS/Include/cmsis_gcc.h ****    __ASM volatile ("ldab %0, %1" : "=r" (result) : "Q" (*ptr) : "memory" );
 767:Drivers/CMSIS/Include/cmsis_gcc.h ****    return ((uint8_t) result);
 768:Drivers/CMSIS/Include/cmsis_gcc.h **** }
 769:Drivers/CMSIS/Include/cmsis_gcc.h **** 
 770:Drivers/CMSIS/Include/cmsis_gcc.h **** 
 771:Drivers/CMSIS/Include/cmsis_gcc.h **** /**
 772:Drivers/CMSIS/Include/cmsis_gcc.h ****   \brief   Load-Acquire (16 bit)
 773:Drivers/CMSIS/Include/cmsis_gcc.h ****   \details Executes a LDAH instruction for 16 bit values.
 774:Drivers/CMSIS/Include/cmsis_gcc.h ****   \param [in]    ptr  Pointer to data
 775:Drivers/CMSIS/Include/cmsis_gcc.h ****   \return        value of type uint16_t at (*ptr)
 776:Drivers/CMSIS/Include/cmsis_gcc.h ****  */
 777:Drivers/CMSIS/Include/cmsis_gcc.h **** __STATIC_FORCEINLINE uint16_t __LDAH(volatile uint16_t *ptr)
 778:Drivers/CMSIS/Include/cmsis_gcc.h **** {
 779:Drivers/CMSIS/Include/cmsis_gcc.h ****     uint32_t result;
 780:Drivers/CMSIS/Include/cmsis_gcc.h **** 
 781:Drivers/CMSIS/Include/cmsis_gcc.h ****    __ASM volatile ("ldah %0, %1" : "=r" (result) : "Q" (*ptr) : "memory" );
 782:Drivers/CMSIS/Include/cmsis_gcc.h ****    return ((uint16_t) result);
 783:Drivers/CMSIS/Include/cmsis_gcc.h **** }
 784:Drivers/CMSIS/Include/cmsis_gcc.h **** 
 785:Drivers/CMSIS/Include/cmsis_gcc.h **** 
 786:Drivers/CMSIS/Include/cmsis_gcc.h **** /**
 787:Drivers/CMSIS/Include/cmsis_gcc.h ****   \brief   Load-Acquire (32 bit)
 788:Drivers/CMSIS/Include/cmsis_gcc.h ****   \details Executes a LDA instruction for 32 bit values.
 789:Drivers/CMSIS/Include/cmsis_gcc.h ****   \param [in]    ptr  Pointer to data
 790:Drivers/CMSIS/Include/cmsis_gcc.h ****   \return        value of type uint32_t at (*ptr)
 791:Drivers/CMSIS/Include/cmsis_gcc.h ****  */
 792:Drivers/CMSIS/Include/cmsis_gcc.h **** __STATIC_FORCEINLINE uint32_t __LDA(volatile uint32_t *ptr)
 793:Drivers/CMSIS/Include/cmsis_gcc.h **** {
 794:Drivers/CMSIS/Include/cmsis_gcc.h ****     uint32_t result;
 795:Drivers/CMSIS/Include/cmsis_gcc.h **** 
 796:Drivers/CMSIS/Include/cmsis_gcc.h ****    __ASM volatile ("lda %0, %1" : "=r" (result) : "Q" (*ptr) : "memory" );
 797:Drivers/CMSIS/Include/cmsis_gcc.h ****    return(result);
 798:Drivers/CMSIS/Include/cmsis_gcc.h **** }
 799:Drivers/CMSIS/Include/cmsis_gcc.h **** 
 800:Drivers/CMSIS/Include/cmsis_gcc.h **** 
 801:Drivers/CMSIS/Include/cmsis_gcc.h **** /**
 802:Drivers/CMSIS/Include/cmsis_gcc.h ****   \brief   Store-Release (8 bit)
 803:Drivers/CMSIS/Include/cmsis_gcc.h ****   \details Executes a STLB instruction for 8 bit values.
 804:Drivers/CMSIS/Include/cmsis_gcc.h ****   \param [in]  value  Value to store
 805:Drivers/CMSIS/Include/cmsis_gcc.h ****   \param [in]    ptr  Pointer to location
 806:Drivers/CMSIS/Include/cmsis_gcc.h ****  */
 807:Drivers/CMSIS/Include/cmsis_gcc.h **** __STATIC_FORCEINLINE void __STLB(uint8_t value, volatile uint8_t *ptr)
 808:Drivers/CMSIS/Include/cmsis_gcc.h **** {
 809:Drivers/CMSIS/Include/cmsis_gcc.h ****    __ASM volatile ("stlb %1, %0" : "=Q" (*ptr) : "r" ((uint32_t)value) : "memory" );
 810:Drivers/CMSIS/Include/cmsis_gcc.h **** }
 811:Drivers/CMSIS/Include/cmsis_gcc.h **** 
 812:Drivers/CMSIS/Include/cmsis_gcc.h **** 
 813:Drivers/CMSIS/Include/cmsis_gcc.h **** /**
 814:Drivers/CMSIS/Include/cmsis_gcc.h ****   \brief   Store-Release (16 bit)
 815:Drivers/CMSIS/Include/cmsis_gcc.h ****   \details Executes a STLH instruction for 16 bit values.
 816:Drivers/CMSIS/Include/cmsis_gcc.h ****   \param [in]  value  Value to store
 817:Drivers/CMSIS/Include/cmsis_gcc.h ****   \param [in]    ptr  Pointer to location
 818:Drivers/CMSIS/Include/cmsis_gcc.h ****  */
 819:Drivers/CMSIS/Include/cmsis_gcc.h **** __STATIC_FORCEINLINE void __STLH(uint16_t value, volatile uint16_t *ptr)
 820:Drivers/CMSIS/Include/cmsis_gcc.h **** {
ARM GAS  /var/folders/ck/g3dcd5x55xs4107jgdl0snvr0000gn/T//ccTk6Q0O.s 			page 23


 821:Drivers/CMSIS/Include/cmsis_gcc.h ****    __ASM volatile ("stlh %1, %0" : "=Q" (*ptr) : "r" ((uint32_t)value) : "memory" );
 822:Drivers/CMSIS/Include/cmsis_gcc.h **** }
 823:Drivers/CMSIS/Include/cmsis_gcc.h **** 
 824:Drivers/CMSIS/Include/cmsis_gcc.h **** 
 825:Drivers/CMSIS/Include/cmsis_gcc.h **** /**
 826:Drivers/CMSIS/Include/cmsis_gcc.h ****   \brief   Store-Release (32 bit)
 827:Drivers/CMSIS/Include/cmsis_gcc.h ****   \details Executes a STL instruction for 32 bit values.
 828:Drivers/CMSIS/Include/cmsis_gcc.h ****   \param [in]  value  Value to store
 829:Drivers/CMSIS/Include/cmsis_gcc.h ****   \param [in]    ptr  Pointer to location
 830:Drivers/CMSIS/Include/cmsis_gcc.h ****  */
 831:Drivers/CMSIS/Include/cmsis_gcc.h **** __STATIC_FORCEINLINE void __STL(uint32_t value, volatile uint32_t *ptr)
 832:Drivers/CMSIS/Include/cmsis_gcc.h **** {
 833:Drivers/CMSIS/Include/cmsis_gcc.h ****    __ASM volatile ("stl %1, %0" : "=Q" (*ptr) : "r" ((uint32_t)value) : "memory" );
 834:Drivers/CMSIS/Include/cmsis_gcc.h **** }
 835:Drivers/CMSIS/Include/cmsis_gcc.h **** 
 836:Drivers/CMSIS/Include/cmsis_gcc.h **** 
 837:Drivers/CMSIS/Include/cmsis_gcc.h **** /**
 838:Drivers/CMSIS/Include/cmsis_gcc.h ****   \brief   Load-Acquire Exclusive (8 bit)
 839:Drivers/CMSIS/Include/cmsis_gcc.h ****   \details Executes a LDAB exclusive instruction for 8 bit value.
 840:Drivers/CMSIS/Include/cmsis_gcc.h ****   \param [in]    ptr  Pointer to data
 841:Drivers/CMSIS/Include/cmsis_gcc.h ****   \return             value of type uint8_t at (*ptr)
 842:Drivers/CMSIS/Include/cmsis_gcc.h ****  */
 843:Drivers/CMSIS/Include/cmsis_gcc.h **** __STATIC_FORCEINLINE uint8_t __LDAEXB(volatile uint8_t *ptr)
 844:Drivers/CMSIS/Include/cmsis_gcc.h **** {
 845:Drivers/CMSIS/Include/cmsis_gcc.h ****     uint32_t result;
 846:Drivers/CMSIS/Include/cmsis_gcc.h **** 
 847:Drivers/CMSIS/Include/cmsis_gcc.h ****    __ASM volatile ("ldaexb %0, %1" : "=r" (result) : "Q" (*ptr) : "memory" );
 848:Drivers/CMSIS/Include/cmsis_gcc.h ****    return ((uint8_t) result);
 849:Drivers/CMSIS/Include/cmsis_gcc.h **** }
 850:Drivers/CMSIS/Include/cmsis_gcc.h **** 
 851:Drivers/CMSIS/Include/cmsis_gcc.h **** 
 852:Drivers/CMSIS/Include/cmsis_gcc.h **** /**
 853:Drivers/CMSIS/Include/cmsis_gcc.h ****   \brief   Load-Acquire Exclusive (16 bit)
 854:Drivers/CMSIS/Include/cmsis_gcc.h ****   \details Executes a LDAH exclusive instruction for 16 bit values.
 855:Drivers/CMSIS/Include/cmsis_gcc.h ****   \param [in]    ptr  Pointer to data
 856:Drivers/CMSIS/Include/cmsis_gcc.h ****   \return        value of type uint16_t at (*ptr)
 857:Drivers/CMSIS/Include/cmsis_gcc.h ****  */
 858:Drivers/CMSIS/Include/cmsis_gcc.h **** __STATIC_FORCEINLINE uint16_t __LDAEXH(volatile uint16_t *ptr)
 859:Drivers/CMSIS/Include/cmsis_gcc.h **** {
 860:Drivers/CMSIS/Include/cmsis_gcc.h ****     uint32_t result;
 861:Drivers/CMSIS/Include/cmsis_gcc.h **** 
 862:Drivers/CMSIS/Include/cmsis_gcc.h ****    __ASM volatile ("ldaexh %0, %1" : "=r" (result) : "Q" (*ptr) : "memory" );
 863:Drivers/CMSIS/Include/cmsis_gcc.h ****    return ((uint16_t) result);
 864:Drivers/CMSIS/Include/cmsis_gcc.h **** }
 865:Drivers/CMSIS/Include/cmsis_gcc.h **** 
 866:Drivers/CMSIS/Include/cmsis_gcc.h **** 
 867:Drivers/CMSIS/Include/cmsis_gcc.h **** /**
 868:Drivers/CMSIS/Include/cmsis_gcc.h ****   \brief   Load-Acquire Exclusive (32 bit)
 869:Drivers/CMSIS/Include/cmsis_gcc.h ****   \details Executes a LDA exclusive instruction for 32 bit values.
 870:Drivers/CMSIS/Include/cmsis_gcc.h ****   \param [in]    ptr  Pointer to data
 871:Drivers/CMSIS/Include/cmsis_gcc.h ****   \return        value of type uint32_t at (*ptr)
 872:Drivers/CMSIS/Include/cmsis_gcc.h ****  */
 873:Drivers/CMSIS/Include/cmsis_gcc.h **** __STATIC_FORCEINLINE uint32_t __LDAEX(volatile uint32_t *ptr)
 874:Drivers/CMSIS/Include/cmsis_gcc.h **** {
 875:Drivers/CMSIS/Include/cmsis_gcc.h ****     uint32_t result;
 876:Drivers/CMSIS/Include/cmsis_gcc.h **** 
 877:Drivers/CMSIS/Include/cmsis_gcc.h ****    __ASM volatile ("ldaex %0, %1" : "=r" (result) : "Q" (*ptr) : "memory" );
ARM GAS  /var/folders/ck/g3dcd5x55xs4107jgdl0snvr0000gn/T//ccTk6Q0O.s 			page 24


 878:Drivers/CMSIS/Include/cmsis_gcc.h ****    return(result);
 879:Drivers/CMSIS/Include/cmsis_gcc.h **** }
 880:Drivers/CMSIS/Include/cmsis_gcc.h **** 
 881:Drivers/CMSIS/Include/cmsis_gcc.h **** 
 882:Drivers/CMSIS/Include/cmsis_gcc.h **** /**
 883:Drivers/CMSIS/Include/cmsis_gcc.h ****   \brief   Store-Release Exclusive (8 bit)
 884:Drivers/CMSIS/Include/cmsis_gcc.h ****   \details Executes a STLB exclusive instruction for 8 bit values.
 885:Drivers/CMSIS/Include/cmsis_gcc.h ****   \param [in]  value  Value to store
 886:Drivers/CMSIS/Include/cmsis_gcc.h ****   \param [in]    ptr  Pointer to location
 887:Drivers/CMSIS/Include/cmsis_gcc.h ****   \return          0  Function succeeded
 888:Drivers/CMSIS/Include/cmsis_gcc.h ****   \return          1  Function failed
 889:Drivers/CMSIS/Include/cmsis_gcc.h ****  */
 890:Drivers/CMSIS/Include/cmsis_gcc.h **** __STATIC_FORCEINLINE uint32_t __STLEXB(uint8_t value, volatile uint8_t *ptr)
 891:Drivers/CMSIS/Include/cmsis_gcc.h **** {
 892:Drivers/CMSIS/Include/cmsis_gcc.h ****    uint32_t result;
 893:Drivers/CMSIS/Include/cmsis_gcc.h **** 
 894:Drivers/CMSIS/Include/cmsis_gcc.h ****    __ASM volatile ("stlexb %0, %2, %1" : "=&r" (result), "=Q" (*ptr) : "r" ((uint32_t)value) : "mem
 895:Drivers/CMSIS/Include/cmsis_gcc.h ****    return(result);
 896:Drivers/CMSIS/Include/cmsis_gcc.h **** }
 897:Drivers/CMSIS/Include/cmsis_gcc.h **** 
 898:Drivers/CMSIS/Include/cmsis_gcc.h **** 
 899:Drivers/CMSIS/Include/cmsis_gcc.h **** /**
 900:Drivers/CMSIS/Include/cmsis_gcc.h ****   \brief   Store-Release Exclusive (16 bit)
 901:Drivers/CMSIS/Include/cmsis_gcc.h ****   \details Executes a STLH exclusive instruction for 16 bit values.
 902:Drivers/CMSIS/Include/cmsis_gcc.h ****   \param [in]  value  Value to store
 903:Drivers/CMSIS/Include/cmsis_gcc.h ****   \param [in]    ptr  Pointer to location
 904:Drivers/CMSIS/Include/cmsis_gcc.h ****   \return          0  Function succeeded
 905:Drivers/CMSIS/Include/cmsis_gcc.h ****   \return          1  Function failed
 906:Drivers/CMSIS/Include/cmsis_gcc.h ****  */
 907:Drivers/CMSIS/Include/cmsis_gcc.h **** __STATIC_FORCEINLINE uint32_t __STLEXH(uint16_t value, volatile uint16_t *ptr)
 908:Drivers/CMSIS/Include/cmsis_gcc.h **** {
 909:Drivers/CMSIS/Include/cmsis_gcc.h ****    uint32_t result;
 910:Drivers/CMSIS/Include/cmsis_gcc.h **** 
 911:Drivers/CMSIS/Include/cmsis_gcc.h ****    __ASM volatile ("stlexh %0, %2, %1" : "=&r" (result), "=Q" (*ptr) : "r" ((uint32_t)value) : "mem
 912:Drivers/CMSIS/Include/cmsis_gcc.h ****    return(result);
 913:Drivers/CMSIS/Include/cmsis_gcc.h **** }
 914:Drivers/CMSIS/Include/cmsis_gcc.h **** 
 915:Drivers/CMSIS/Include/cmsis_gcc.h **** 
 916:Drivers/CMSIS/Include/cmsis_gcc.h **** /**
 917:Drivers/CMSIS/Include/cmsis_gcc.h ****   \brief   Store-Release Exclusive (32 bit)
 918:Drivers/CMSIS/Include/cmsis_gcc.h ****   \details Executes a STL exclusive instruction for 32 bit values.
 919:Drivers/CMSIS/Include/cmsis_gcc.h ****   \param [in]  value  Value to store
 920:Drivers/CMSIS/Include/cmsis_gcc.h ****   \param [in]    ptr  Pointer to location
 921:Drivers/CMSIS/Include/cmsis_gcc.h ****   \return          0  Function succeeded
 922:Drivers/CMSIS/Include/cmsis_gcc.h ****   \return          1  Function failed
 923:Drivers/CMSIS/Include/cmsis_gcc.h ****  */
 924:Drivers/CMSIS/Include/cmsis_gcc.h **** __STATIC_FORCEINLINE uint32_t __STLEX(uint32_t value, volatile uint32_t *ptr)
 925:Drivers/CMSIS/Include/cmsis_gcc.h **** {
 926:Drivers/CMSIS/Include/cmsis_gcc.h ****    uint32_t result;
 927:Drivers/CMSIS/Include/cmsis_gcc.h **** 
 928:Drivers/CMSIS/Include/cmsis_gcc.h ****    __ASM volatile ("stlex %0, %2, %1" : "=&r" (result), "=Q" (*ptr) : "r" ((uint32_t)value) : "memo
 929:Drivers/CMSIS/Include/cmsis_gcc.h ****    return(result);
 930:Drivers/CMSIS/Include/cmsis_gcc.h **** }
 931:Drivers/CMSIS/Include/cmsis_gcc.h **** 
 932:Drivers/CMSIS/Include/cmsis_gcc.h **** #endif /* ((defined (__ARM_ARCH_8M_MAIN__ ) && (__ARM_ARCH_8M_MAIN__ == 1)) || \
 933:Drivers/CMSIS/Include/cmsis_gcc.h ****            (defined (__ARM_ARCH_8M_BASE__ ) && (__ARM_ARCH_8M_BASE__ == 1))    ) */
 934:Drivers/CMSIS/Include/cmsis_gcc.h **** 
ARM GAS  /var/folders/ck/g3dcd5x55xs4107jgdl0snvr0000gn/T//ccTk6Q0O.s 			page 25


 935:Drivers/CMSIS/Include/cmsis_gcc.h **** /*@}*/ /* end of group CMSIS_Core_InstructionInterface */
 936:Drivers/CMSIS/Include/cmsis_gcc.h **** 
 937:Drivers/CMSIS/Include/cmsis_gcc.h **** 
 938:Drivers/CMSIS/Include/cmsis_gcc.h **** /* ###########################  Core Function Access  ########################### */
 939:Drivers/CMSIS/Include/cmsis_gcc.h **** /** \ingroup  CMSIS_Core_FunctionInterface
 940:Drivers/CMSIS/Include/cmsis_gcc.h ****     \defgroup CMSIS_Core_RegAccFunctions CMSIS Core Register Access Functions
 941:Drivers/CMSIS/Include/cmsis_gcc.h ****   @{
 942:Drivers/CMSIS/Include/cmsis_gcc.h ****  */
 943:Drivers/CMSIS/Include/cmsis_gcc.h **** 
 944:Drivers/CMSIS/Include/cmsis_gcc.h **** /**
 945:Drivers/CMSIS/Include/cmsis_gcc.h ****   \brief   Enable IRQ Interrupts
 946:Drivers/CMSIS/Include/cmsis_gcc.h ****   \details Enables IRQ interrupts by clearing special-purpose register PRIMASK.
 947:Drivers/CMSIS/Include/cmsis_gcc.h ****            Can only be executed in Privileged modes.
 948:Drivers/CMSIS/Include/cmsis_gcc.h ****  */
 949:Drivers/CMSIS/Include/cmsis_gcc.h **** __STATIC_FORCEINLINE void __enable_irq(void)
 950:Drivers/CMSIS/Include/cmsis_gcc.h **** {
 951:Drivers/CMSIS/Include/cmsis_gcc.h ****   __ASM volatile ("cpsie i" : : : "memory");
 952:Drivers/CMSIS/Include/cmsis_gcc.h **** }
 953:Drivers/CMSIS/Include/cmsis_gcc.h **** 
 954:Drivers/CMSIS/Include/cmsis_gcc.h **** 
 955:Drivers/CMSIS/Include/cmsis_gcc.h **** /**
 956:Drivers/CMSIS/Include/cmsis_gcc.h ****   \brief   Disable IRQ Interrupts
 957:Drivers/CMSIS/Include/cmsis_gcc.h ****   \details Disables IRQ interrupts by setting special-purpose register PRIMASK.
 958:Drivers/CMSIS/Include/cmsis_gcc.h ****            Can only be executed in Privileged modes.
 959:Drivers/CMSIS/Include/cmsis_gcc.h ****  */
 960:Drivers/CMSIS/Include/cmsis_gcc.h **** __STATIC_FORCEINLINE void __disable_irq(void)
 961:Drivers/CMSIS/Include/cmsis_gcc.h **** {
 962:Drivers/CMSIS/Include/cmsis_gcc.h ****   __ASM volatile ("cpsid i" : : : "memory");
 963:Drivers/CMSIS/Include/cmsis_gcc.h **** }
 964:Drivers/CMSIS/Include/cmsis_gcc.h **** 
 965:Drivers/CMSIS/Include/cmsis_gcc.h **** 
 966:Drivers/CMSIS/Include/cmsis_gcc.h **** /**
 967:Drivers/CMSIS/Include/cmsis_gcc.h ****   \brief   Get Control Register
 968:Drivers/CMSIS/Include/cmsis_gcc.h ****   \details Returns the content of the Control Register.
 969:Drivers/CMSIS/Include/cmsis_gcc.h ****   \return               Control Register value
 970:Drivers/CMSIS/Include/cmsis_gcc.h ****  */
 971:Drivers/CMSIS/Include/cmsis_gcc.h **** __STATIC_FORCEINLINE uint32_t __get_CONTROL(void)
 972:Drivers/CMSIS/Include/cmsis_gcc.h **** {
 973:Drivers/CMSIS/Include/cmsis_gcc.h ****   uint32_t result;
 974:Drivers/CMSIS/Include/cmsis_gcc.h **** 
 975:Drivers/CMSIS/Include/cmsis_gcc.h ****   __ASM volatile ("MRS %0, control" : "=r" (result) );
 976:Drivers/CMSIS/Include/cmsis_gcc.h ****   return(result);
 977:Drivers/CMSIS/Include/cmsis_gcc.h **** }
 978:Drivers/CMSIS/Include/cmsis_gcc.h **** 
 979:Drivers/CMSIS/Include/cmsis_gcc.h **** 
 980:Drivers/CMSIS/Include/cmsis_gcc.h **** #if (defined (__ARM_FEATURE_CMSE ) && (__ARM_FEATURE_CMSE == 3))
 981:Drivers/CMSIS/Include/cmsis_gcc.h **** /**
 982:Drivers/CMSIS/Include/cmsis_gcc.h ****   \brief   Get Control Register (non-secure)
 983:Drivers/CMSIS/Include/cmsis_gcc.h ****   \details Returns the content of the non-secure Control Register when in secure mode.
 984:Drivers/CMSIS/Include/cmsis_gcc.h ****   \return               non-secure Control Register value
 985:Drivers/CMSIS/Include/cmsis_gcc.h ****  */
 986:Drivers/CMSIS/Include/cmsis_gcc.h **** __STATIC_FORCEINLINE uint32_t __TZ_get_CONTROL_NS(void)
 987:Drivers/CMSIS/Include/cmsis_gcc.h **** {
 988:Drivers/CMSIS/Include/cmsis_gcc.h ****   uint32_t result;
 989:Drivers/CMSIS/Include/cmsis_gcc.h **** 
 990:Drivers/CMSIS/Include/cmsis_gcc.h ****   __ASM volatile ("MRS %0, control_ns" : "=r" (result) );
 991:Drivers/CMSIS/Include/cmsis_gcc.h ****   return(result);
ARM GAS  /var/folders/ck/g3dcd5x55xs4107jgdl0snvr0000gn/T//ccTk6Q0O.s 			page 26


 992:Drivers/CMSIS/Include/cmsis_gcc.h **** }
 993:Drivers/CMSIS/Include/cmsis_gcc.h **** #endif
 994:Drivers/CMSIS/Include/cmsis_gcc.h **** 
 995:Drivers/CMSIS/Include/cmsis_gcc.h **** 
 996:Drivers/CMSIS/Include/cmsis_gcc.h **** /**
 997:Drivers/CMSIS/Include/cmsis_gcc.h ****   \brief   Set Control Register
 998:Drivers/CMSIS/Include/cmsis_gcc.h ****   \details Writes the given value to the Control Register.
 999:Drivers/CMSIS/Include/cmsis_gcc.h ****   \param [in]    control  Control Register value to set
1000:Drivers/CMSIS/Include/cmsis_gcc.h ****  */
1001:Drivers/CMSIS/Include/cmsis_gcc.h **** __STATIC_FORCEINLINE void __set_CONTROL(uint32_t control)
1002:Drivers/CMSIS/Include/cmsis_gcc.h **** {
1003:Drivers/CMSIS/Include/cmsis_gcc.h ****   __ASM volatile ("MSR control, %0" : : "r" (control) : "memory");
1004:Drivers/CMSIS/Include/cmsis_gcc.h ****   __ISB();
1005:Drivers/CMSIS/Include/cmsis_gcc.h **** }
1006:Drivers/CMSIS/Include/cmsis_gcc.h **** 
1007:Drivers/CMSIS/Include/cmsis_gcc.h **** 
1008:Drivers/CMSIS/Include/cmsis_gcc.h **** #if (defined (__ARM_FEATURE_CMSE ) && (__ARM_FEATURE_CMSE == 3))
1009:Drivers/CMSIS/Include/cmsis_gcc.h **** /**
1010:Drivers/CMSIS/Include/cmsis_gcc.h ****   \brief   Set Control Register (non-secure)
1011:Drivers/CMSIS/Include/cmsis_gcc.h ****   \details Writes the given value to the non-secure Control Register when in secure state.
1012:Drivers/CMSIS/Include/cmsis_gcc.h ****   \param [in]    control  Control Register value to set
1013:Drivers/CMSIS/Include/cmsis_gcc.h ****  */
1014:Drivers/CMSIS/Include/cmsis_gcc.h **** __STATIC_FORCEINLINE void __TZ_set_CONTROL_NS(uint32_t control)
1015:Drivers/CMSIS/Include/cmsis_gcc.h **** {
1016:Drivers/CMSIS/Include/cmsis_gcc.h ****   __ASM volatile ("MSR control_ns, %0" : : "r" (control) : "memory");
1017:Drivers/CMSIS/Include/cmsis_gcc.h ****   __ISB();
1018:Drivers/CMSIS/Include/cmsis_gcc.h **** }
1019:Drivers/CMSIS/Include/cmsis_gcc.h **** #endif
1020:Drivers/CMSIS/Include/cmsis_gcc.h **** 
1021:Drivers/CMSIS/Include/cmsis_gcc.h **** 
1022:Drivers/CMSIS/Include/cmsis_gcc.h **** /**
1023:Drivers/CMSIS/Include/cmsis_gcc.h ****   \brief   Get IPSR Register
1024:Drivers/CMSIS/Include/cmsis_gcc.h ****   \details Returns the content of the IPSR Register.
1025:Drivers/CMSIS/Include/cmsis_gcc.h ****   \return               IPSR Register value
1026:Drivers/CMSIS/Include/cmsis_gcc.h ****  */
1027:Drivers/CMSIS/Include/cmsis_gcc.h **** __STATIC_FORCEINLINE uint32_t __get_IPSR(void)
1028:Drivers/CMSIS/Include/cmsis_gcc.h **** {
1029:Drivers/CMSIS/Include/cmsis_gcc.h ****   uint32_t result;
1030:Drivers/CMSIS/Include/cmsis_gcc.h **** 
1031:Drivers/CMSIS/Include/cmsis_gcc.h ****   __ASM volatile ("MRS %0, ipsr" : "=r" (result) );
1032:Drivers/CMSIS/Include/cmsis_gcc.h ****   return(result);
1033:Drivers/CMSIS/Include/cmsis_gcc.h **** }
1034:Drivers/CMSIS/Include/cmsis_gcc.h **** 
1035:Drivers/CMSIS/Include/cmsis_gcc.h **** 
1036:Drivers/CMSIS/Include/cmsis_gcc.h **** /**
1037:Drivers/CMSIS/Include/cmsis_gcc.h ****   \brief   Get APSR Register
1038:Drivers/CMSIS/Include/cmsis_gcc.h ****   \details Returns the content of the APSR Register.
1039:Drivers/CMSIS/Include/cmsis_gcc.h ****   \return               APSR Register value
1040:Drivers/CMSIS/Include/cmsis_gcc.h ****  */
1041:Drivers/CMSIS/Include/cmsis_gcc.h **** __STATIC_FORCEINLINE uint32_t __get_APSR(void)
1042:Drivers/CMSIS/Include/cmsis_gcc.h **** {
1043:Drivers/CMSIS/Include/cmsis_gcc.h ****   uint32_t result;
1044:Drivers/CMSIS/Include/cmsis_gcc.h **** 
1045:Drivers/CMSIS/Include/cmsis_gcc.h ****   __ASM volatile ("MRS %0, apsr" : "=r" (result) );
1046:Drivers/CMSIS/Include/cmsis_gcc.h ****   return(result);
1047:Drivers/CMSIS/Include/cmsis_gcc.h **** }
1048:Drivers/CMSIS/Include/cmsis_gcc.h **** 
ARM GAS  /var/folders/ck/g3dcd5x55xs4107jgdl0snvr0000gn/T//ccTk6Q0O.s 			page 27


1049:Drivers/CMSIS/Include/cmsis_gcc.h **** 
1050:Drivers/CMSIS/Include/cmsis_gcc.h **** /**
1051:Drivers/CMSIS/Include/cmsis_gcc.h ****   \brief   Get xPSR Register
1052:Drivers/CMSIS/Include/cmsis_gcc.h ****   \details Returns the content of the xPSR Register.
1053:Drivers/CMSIS/Include/cmsis_gcc.h ****   \return               xPSR Register value
1054:Drivers/CMSIS/Include/cmsis_gcc.h ****  */
1055:Drivers/CMSIS/Include/cmsis_gcc.h **** __STATIC_FORCEINLINE uint32_t __get_xPSR(void)
1056:Drivers/CMSIS/Include/cmsis_gcc.h **** {
1057:Drivers/CMSIS/Include/cmsis_gcc.h ****   uint32_t result;
1058:Drivers/CMSIS/Include/cmsis_gcc.h **** 
1059:Drivers/CMSIS/Include/cmsis_gcc.h ****   __ASM volatile ("MRS %0, xpsr" : "=r" (result) );
1060:Drivers/CMSIS/Include/cmsis_gcc.h ****   return(result);
1061:Drivers/CMSIS/Include/cmsis_gcc.h **** }
1062:Drivers/CMSIS/Include/cmsis_gcc.h **** 
1063:Drivers/CMSIS/Include/cmsis_gcc.h **** 
1064:Drivers/CMSIS/Include/cmsis_gcc.h **** /**
1065:Drivers/CMSIS/Include/cmsis_gcc.h ****   \brief   Get Process Stack Pointer
1066:Drivers/CMSIS/Include/cmsis_gcc.h ****   \details Returns the current value of the Process Stack Pointer (PSP).
1067:Drivers/CMSIS/Include/cmsis_gcc.h ****   \return               PSP Register value
1068:Drivers/CMSIS/Include/cmsis_gcc.h ****  */
1069:Drivers/CMSIS/Include/cmsis_gcc.h **** __STATIC_FORCEINLINE uint32_t __get_PSP(void)
1070:Drivers/CMSIS/Include/cmsis_gcc.h **** {
1071:Drivers/CMSIS/Include/cmsis_gcc.h ****   uint32_t result;
1072:Drivers/CMSIS/Include/cmsis_gcc.h **** 
1073:Drivers/CMSIS/Include/cmsis_gcc.h ****   __ASM volatile ("MRS %0, psp"  : "=r" (result) );
1074:Drivers/CMSIS/Include/cmsis_gcc.h ****   return(result);
1075:Drivers/CMSIS/Include/cmsis_gcc.h **** }
1076:Drivers/CMSIS/Include/cmsis_gcc.h **** 
1077:Drivers/CMSIS/Include/cmsis_gcc.h **** 
1078:Drivers/CMSIS/Include/cmsis_gcc.h **** #if (defined (__ARM_FEATURE_CMSE ) && (__ARM_FEATURE_CMSE == 3))
1079:Drivers/CMSIS/Include/cmsis_gcc.h **** /**
1080:Drivers/CMSIS/Include/cmsis_gcc.h ****   \brief   Get Process Stack Pointer (non-secure)
1081:Drivers/CMSIS/Include/cmsis_gcc.h ****   \details Returns the current value of the non-secure Process Stack Pointer (PSP) when in secure s
1082:Drivers/CMSIS/Include/cmsis_gcc.h ****   \return               PSP Register value
1083:Drivers/CMSIS/Include/cmsis_gcc.h ****  */
1084:Drivers/CMSIS/Include/cmsis_gcc.h **** __STATIC_FORCEINLINE uint32_t __TZ_get_PSP_NS(void)
1085:Drivers/CMSIS/Include/cmsis_gcc.h **** {
1086:Drivers/CMSIS/Include/cmsis_gcc.h ****   uint32_t result;
1087:Drivers/CMSIS/Include/cmsis_gcc.h **** 
1088:Drivers/CMSIS/Include/cmsis_gcc.h ****   __ASM volatile ("MRS %0, psp_ns"  : "=r" (result) );
1089:Drivers/CMSIS/Include/cmsis_gcc.h ****   return(result);
1090:Drivers/CMSIS/Include/cmsis_gcc.h **** }
1091:Drivers/CMSIS/Include/cmsis_gcc.h **** #endif
1092:Drivers/CMSIS/Include/cmsis_gcc.h **** 
1093:Drivers/CMSIS/Include/cmsis_gcc.h **** 
1094:Drivers/CMSIS/Include/cmsis_gcc.h **** /**
1095:Drivers/CMSIS/Include/cmsis_gcc.h ****   \brief   Set Process Stack Pointer
1096:Drivers/CMSIS/Include/cmsis_gcc.h ****   \details Assigns the given value to the Process Stack Pointer (PSP).
1097:Drivers/CMSIS/Include/cmsis_gcc.h ****   \param [in]    topOfProcStack  Process Stack Pointer value to set
1098:Drivers/CMSIS/Include/cmsis_gcc.h ****  */
1099:Drivers/CMSIS/Include/cmsis_gcc.h **** __STATIC_FORCEINLINE void __set_PSP(uint32_t topOfProcStack)
1100:Drivers/CMSIS/Include/cmsis_gcc.h **** {
1101:Drivers/CMSIS/Include/cmsis_gcc.h ****   __ASM volatile ("MSR psp, %0" : : "r" (topOfProcStack) : );
1102:Drivers/CMSIS/Include/cmsis_gcc.h **** }
1103:Drivers/CMSIS/Include/cmsis_gcc.h **** 
1104:Drivers/CMSIS/Include/cmsis_gcc.h **** 
1105:Drivers/CMSIS/Include/cmsis_gcc.h **** #if (defined (__ARM_FEATURE_CMSE ) && (__ARM_FEATURE_CMSE == 3))
ARM GAS  /var/folders/ck/g3dcd5x55xs4107jgdl0snvr0000gn/T//ccTk6Q0O.s 			page 28


1106:Drivers/CMSIS/Include/cmsis_gcc.h **** /**
1107:Drivers/CMSIS/Include/cmsis_gcc.h ****   \brief   Set Process Stack Pointer (non-secure)
1108:Drivers/CMSIS/Include/cmsis_gcc.h ****   \details Assigns the given value to the non-secure Process Stack Pointer (PSP) when in secure sta
1109:Drivers/CMSIS/Include/cmsis_gcc.h ****   \param [in]    topOfProcStack  Process Stack Pointer value to set
1110:Drivers/CMSIS/Include/cmsis_gcc.h ****  */
1111:Drivers/CMSIS/Include/cmsis_gcc.h **** __STATIC_FORCEINLINE void __TZ_set_PSP_NS(uint32_t topOfProcStack)
1112:Drivers/CMSIS/Include/cmsis_gcc.h **** {
1113:Drivers/CMSIS/Include/cmsis_gcc.h ****   __ASM volatile ("MSR psp_ns, %0" : : "r" (topOfProcStack) : );
1114:Drivers/CMSIS/Include/cmsis_gcc.h **** }
1115:Drivers/CMSIS/Include/cmsis_gcc.h **** #endif
1116:Drivers/CMSIS/Include/cmsis_gcc.h **** 
1117:Drivers/CMSIS/Include/cmsis_gcc.h **** 
1118:Drivers/CMSIS/Include/cmsis_gcc.h **** /**
1119:Drivers/CMSIS/Include/cmsis_gcc.h ****   \brief   Get Main Stack Pointer
1120:Drivers/CMSIS/Include/cmsis_gcc.h ****   \details Returns the current value of the Main Stack Pointer (MSP).
1121:Drivers/CMSIS/Include/cmsis_gcc.h ****   \return               MSP Register value
1122:Drivers/CMSIS/Include/cmsis_gcc.h ****  */
1123:Drivers/CMSIS/Include/cmsis_gcc.h **** __STATIC_FORCEINLINE uint32_t __get_MSP(void)
1124:Drivers/CMSIS/Include/cmsis_gcc.h **** {
1125:Drivers/CMSIS/Include/cmsis_gcc.h ****   uint32_t result;
1126:Drivers/CMSIS/Include/cmsis_gcc.h **** 
1127:Drivers/CMSIS/Include/cmsis_gcc.h ****   __ASM volatile ("MRS %0, msp" : "=r" (result) );
1128:Drivers/CMSIS/Include/cmsis_gcc.h ****   return(result);
1129:Drivers/CMSIS/Include/cmsis_gcc.h **** }
1130:Drivers/CMSIS/Include/cmsis_gcc.h **** 
1131:Drivers/CMSIS/Include/cmsis_gcc.h **** 
1132:Drivers/CMSIS/Include/cmsis_gcc.h **** #if (defined (__ARM_FEATURE_CMSE ) && (__ARM_FEATURE_CMSE == 3))
1133:Drivers/CMSIS/Include/cmsis_gcc.h **** /**
1134:Drivers/CMSIS/Include/cmsis_gcc.h ****   \brief   Get Main Stack Pointer (non-secure)
1135:Drivers/CMSIS/Include/cmsis_gcc.h ****   \details Returns the current value of the non-secure Main Stack Pointer (MSP) when in secure stat
1136:Drivers/CMSIS/Include/cmsis_gcc.h ****   \return               MSP Register value
1137:Drivers/CMSIS/Include/cmsis_gcc.h ****  */
1138:Drivers/CMSIS/Include/cmsis_gcc.h **** __STATIC_FORCEINLINE uint32_t __TZ_get_MSP_NS(void)
1139:Drivers/CMSIS/Include/cmsis_gcc.h **** {
1140:Drivers/CMSIS/Include/cmsis_gcc.h ****   uint32_t result;
1141:Drivers/CMSIS/Include/cmsis_gcc.h **** 
1142:Drivers/CMSIS/Include/cmsis_gcc.h ****   __ASM volatile ("MRS %0, msp_ns" : "=r" (result) );
1143:Drivers/CMSIS/Include/cmsis_gcc.h ****   return(result);
1144:Drivers/CMSIS/Include/cmsis_gcc.h **** }
1145:Drivers/CMSIS/Include/cmsis_gcc.h **** #endif
1146:Drivers/CMSIS/Include/cmsis_gcc.h **** 
1147:Drivers/CMSIS/Include/cmsis_gcc.h **** 
1148:Drivers/CMSIS/Include/cmsis_gcc.h **** /**
1149:Drivers/CMSIS/Include/cmsis_gcc.h ****   \brief   Set Main Stack Pointer
1150:Drivers/CMSIS/Include/cmsis_gcc.h ****   \details Assigns the given value to the Main Stack Pointer (MSP).
1151:Drivers/CMSIS/Include/cmsis_gcc.h ****   \param [in]    topOfMainStack  Main Stack Pointer value to set
1152:Drivers/CMSIS/Include/cmsis_gcc.h ****  */
1153:Drivers/CMSIS/Include/cmsis_gcc.h **** __STATIC_FORCEINLINE void __set_MSP(uint32_t topOfMainStack)
1154:Drivers/CMSIS/Include/cmsis_gcc.h **** {
1155:Drivers/CMSIS/Include/cmsis_gcc.h ****   __ASM volatile ("MSR msp, %0" : : "r" (topOfMainStack) : );
1156:Drivers/CMSIS/Include/cmsis_gcc.h **** }
1157:Drivers/CMSIS/Include/cmsis_gcc.h **** 
1158:Drivers/CMSIS/Include/cmsis_gcc.h **** 
1159:Drivers/CMSIS/Include/cmsis_gcc.h **** #if (defined (__ARM_FEATURE_CMSE ) && (__ARM_FEATURE_CMSE == 3))
1160:Drivers/CMSIS/Include/cmsis_gcc.h **** /**
1161:Drivers/CMSIS/Include/cmsis_gcc.h ****   \brief   Set Main Stack Pointer (non-secure)
1162:Drivers/CMSIS/Include/cmsis_gcc.h ****   \details Assigns the given value to the non-secure Main Stack Pointer (MSP) when in secure state.
ARM GAS  /var/folders/ck/g3dcd5x55xs4107jgdl0snvr0000gn/T//ccTk6Q0O.s 			page 29


1163:Drivers/CMSIS/Include/cmsis_gcc.h ****   \param [in]    topOfMainStack  Main Stack Pointer value to set
1164:Drivers/CMSIS/Include/cmsis_gcc.h ****  */
1165:Drivers/CMSIS/Include/cmsis_gcc.h **** __STATIC_FORCEINLINE void __TZ_set_MSP_NS(uint32_t topOfMainStack)
1166:Drivers/CMSIS/Include/cmsis_gcc.h **** {
1167:Drivers/CMSIS/Include/cmsis_gcc.h ****   __ASM volatile ("MSR msp_ns, %0" : : "r" (topOfMainStack) : );
1168:Drivers/CMSIS/Include/cmsis_gcc.h **** }
1169:Drivers/CMSIS/Include/cmsis_gcc.h **** #endif
1170:Drivers/CMSIS/Include/cmsis_gcc.h **** 
1171:Drivers/CMSIS/Include/cmsis_gcc.h **** 
1172:Drivers/CMSIS/Include/cmsis_gcc.h **** #if (defined (__ARM_FEATURE_CMSE ) && (__ARM_FEATURE_CMSE == 3))
1173:Drivers/CMSIS/Include/cmsis_gcc.h **** /**
1174:Drivers/CMSIS/Include/cmsis_gcc.h ****   \brief   Get Stack Pointer (non-secure)
1175:Drivers/CMSIS/Include/cmsis_gcc.h ****   \details Returns the current value of the non-secure Stack Pointer (SP) when in secure state.
1176:Drivers/CMSIS/Include/cmsis_gcc.h ****   \return               SP Register value
1177:Drivers/CMSIS/Include/cmsis_gcc.h ****  */
1178:Drivers/CMSIS/Include/cmsis_gcc.h **** __STATIC_FORCEINLINE uint32_t __TZ_get_SP_NS(void)
1179:Drivers/CMSIS/Include/cmsis_gcc.h **** {
1180:Drivers/CMSIS/Include/cmsis_gcc.h ****   uint32_t result;
1181:Drivers/CMSIS/Include/cmsis_gcc.h **** 
1182:Drivers/CMSIS/Include/cmsis_gcc.h ****   __ASM volatile ("MRS %0, sp_ns" : "=r" (result) );
1183:Drivers/CMSIS/Include/cmsis_gcc.h ****   return(result);
1184:Drivers/CMSIS/Include/cmsis_gcc.h **** }
1185:Drivers/CMSIS/Include/cmsis_gcc.h **** 
1186:Drivers/CMSIS/Include/cmsis_gcc.h **** 
1187:Drivers/CMSIS/Include/cmsis_gcc.h **** /**
1188:Drivers/CMSIS/Include/cmsis_gcc.h ****   \brief   Set Stack Pointer (non-secure)
1189:Drivers/CMSIS/Include/cmsis_gcc.h ****   \details Assigns the given value to the non-secure Stack Pointer (SP) when in secure state.
1190:Drivers/CMSIS/Include/cmsis_gcc.h ****   \param [in]    topOfStack  Stack Pointer value to set
1191:Drivers/CMSIS/Include/cmsis_gcc.h ****  */
1192:Drivers/CMSIS/Include/cmsis_gcc.h **** __STATIC_FORCEINLINE void __TZ_set_SP_NS(uint32_t topOfStack)
1193:Drivers/CMSIS/Include/cmsis_gcc.h **** {
1194:Drivers/CMSIS/Include/cmsis_gcc.h ****   __ASM volatile ("MSR sp_ns, %0" : : "r" (topOfStack) : );
1195:Drivers/CMSIS/Include/cmsis_gcc.h **** }
1196:Drivers/CMSIS/Include/cmsis_gcc.h **** #endif
1197:Drivers/CMSIS/Include/cmsis_gcc.h **** 
1198:Drivers/CMSIS/Include/cmsis_gcc.h **** 
1199:Drivers/CMSIS/Include/cmsis_gcc.h **** /**
1200:Drivers/CMSIS/Include/cmsis_gcc.h ****   \brief   Get Priority Mask
1201:Drivers/CMSIS/Include/cmsis_gcc.h ****   \details Returns the current state of the priority mask bit from the Priority Mask Register.
1202:Drivers/CMSIS/Include/cmsis_gcc.h ****   \return               Priority Mask value
1203:Drivers/CMSIS/Include/cmsis_gcc.h ****  */
1204:Drivers/CMSIS/Include/cmsis_gcc.h **** __STATIC_FORCEINLINE uint32_t __get_PRIMASK(void)
1205:Drivers/CMSIS/Include/cmsis_gcc.h **** {
1206:Drivers/CMSIS/Include/cmsis_gcc.h ****   uint32_t result;
1207:Drivers/CMSIS/Include/cmsis_gcc.h **** 
1208:Drivers/CMSIS/Include/cmsis_gcc.h ****   __ASM volatile ("MRS %0, primask" : "=r" (result) );
1209:Drivers/CMSIS/Include/cmsis_gcc.h ****   return(result);
1210:Drivers/CMSIS/Include/cmsis_gcc.h **** }
1211:Drivers/CMSIS/Include/cmsis_gcc.h **** 
1212:Drivers/CMSIS/Include/cmsis_gcc.h **** 
1213:Drivers/CMSIS/Include/cmsis_gcc.h **** #if (defined (__ARM_FEATURE_CMSE ) && (__ARM_FEATURE_CMSE == 3))
1214:Drivers/CMSIS/Include/cmsis_gcc.h **** /**
1215:Drivers/CMSIS/Include/cmsis_gcc.h ****   \brief   Get Priority Mask (non-secure)
1216:Drivers/CMSIS/Include/cmsis_gcc.h ****   \details Returns the current state of the non-secure priority mask bit from the Priority Mask Reg
1217:Drivers/CMSIS/Include/cmsis_gcc.h ****   \return               Priority Mask value
1218:Drivers/CMSIS/Include/cmsis_gcc.h ****  */
1219:Drivers/CMSIS/Include/cmsis_gcc.h **** __STATIC_FORCEINLINE uint32_t __TZ_get_PRIMASK_NS(void)
ARM GAS  /var/folders/ck/g3dcd5x55xs4107jgdl0snvr0000gn/T//ccTk6Q0O.s 			page 30


1220:Drivers/CMSIS/Include/cmsis_gcc.h **** {
1221:Drivers/CMSIS/Include/cmsis_gcc.h ****   uint32_t result;
1222:Drivers/CMSIS/Include/cmsis_gcc.h **** 
1223:Drivers/CMSIS/Include/cmsis_gcc.h ****   __ASM volatile ("MRS %0, primask_ns" : "=r" (result) );
1224:Drivers/CMSIS/Include/cmsis_gcc.h ****   return(result);
1225:Drivers/CMSIS/Include/cmsis_gcc.h **** }
1226:Drivers/CMSIS/Include/cmsis_gcc.h **** #endif
1227:Drivers/CMSIS/Include/cmsis_gcc.h **** 
1228:Drivers/CMSIS/Include/cmsis_gcc.h **** 
1229:Drivers/CMSIS/Include/cmsis_gcc.h **** /**
1230:Drivers/CMSIS/Include/cmsis_gcc.h ****   \brief   Set Priority Mask
1231:Drivers/CMSIS/Include/cmsis_gcc.h ****   \details Assigns the given value to the Priority Mask Register.
1232:Drivers/CMSIS/Include/cmsis_gcc.h ****   \param [in]    priMask  Priority Mask
1233:Drivers/CMSIS/Include/cmsis_gcc.h ****  */
1234:Drivers/CMSIS/Include/cmsis_gcc.h **** __STATIC_FORCEINLINE void __set_PRIMASK(uint32_t priMask)
1235:Drivers/CMSIS/Include/cmsis_gcc.h **** {
1236:Drivers/CMSIS/Include/cmsis_gcc.h ****   __ASM volatile ("MSR primask, %0" : : "r" (priMask) : "memory");
1237:Drivers/CMSIS/Include/cmsis_gcc.h **** }
1238:Drivers/CMSIS/Include/cmsis_gcc.h **** 
1239:Drivers/CMSIS/Include/cmsis_gcc.h **** 
1240:Drivers/CMSIS/Include/cmsis_gcc.h **** #if (defined (__ARM_FEATURE_CMSE ) && (__ARM_FEATURE_CMSE == 3))
1241:Drivers/CMSIS/Include/cmsis_gcc.h **** /**
1242:Drivers/CMSIS/Include/cmsis_gcc.h ****   \brief   Set Priority Mask (non-secure)
1243:Drivers/CMSIS/Include/cmsis_gcc.h ****   \details Assigns the given value to the non-secure Priority Mask Register when in secure state.
1244:Drivers/CMSIS/Include/cmsis_gcc.h ****   \param [in]    priMask  Priority Mask
1245:Drivers/CMSIS/Include/cmsis_gcc.h ****  */
1246:Drivers/CMSIS/Include/cmsis_gcc.h **** __STATIC_FORCEINLINE void __TZ_set_PRIMASK_NS(uint32_t priMask)
1247:Drivers/CMSIS/Include/cmsis_gcc.h **** {
1248:Drivers/CMSIS/Include/cmsis_gcc.h ****   __ASM volatile ("MSR primask_ns, %0" : : "r" (priMask) : "memory");
1249:Drivers/CMSIS/Include/cmsis_gcc.h **** }
1250:Drivers/CMSIS/Include/cmsis_gcc.h **** #endif
1251:Drivers/CMSIS/Include/cmsis_gcc.h **** 
1252:Drivers/CMSIS/Include/cmsis_gcc.h **** 
1253:Drivers/CMSIS/Include/cmsis_gcc.h **** #if ((defined (__ARM_ARCH_7M__      ) && (__ARM_ARCH_7M__      == 1)) || \
1254:Drivers/CMSIS/Include/cmsis_gcc.h ****      (defined (__ARM_ARCH_7EM__     ) && (__ARM_ARCH_7EM__     == 1)) || \
1255:Drivers/CMSIS/Include/cmsis_gcc.h ****      (defined (__ARM_ARCH_8M_MAIN__ ) && (__ARM_ARCH_8M_MAIN__ == 1))    )
1256:Drivers/CMSIS/Include/cmsis_gcc.h **** /**
1257:Drivers/CMSIS/Include/cmsis_gcc.h ****   \brief   Enable FIQ
1258:Drivers/CMSIS/Include/cmsis_gcc.h ****   \details Enables FIQ interrupts by clearing special-purpose register FAULTMASK.
1259:Drivers/CMSIS/Include/cmsis_gcc.h ****            Can only be executed in Privileged modes.
1260:Drivers/CMSIS/Include/cmsis_gcc.h ****  */
1261:Drivers/CMSIS/Include/cmsis_gcc.h **** __STATIC_FORCEINLINE void __enable_fault_irq(void)
1262:Drivers/CMSIS/Include/cmsis_gcc.h **** {
1263:Drivers/CMSIS/Include/cmsis_gcc.h ****   __ASM volatile ("cpsie f" : : : "memory");
1264:Drivers/CMSIS/Include/cmsis_gcc.h **** }
1265:Drivers/CMSIS/Include/cmsis_gcc.h **** 
1266:Drivers/CMSIS/Include/cmsis_gcc.h **** 
1267:Drivers/CMSIS/Include/cmsis_gcc.h **** /**
1268:Drivers/CMSIS/Include/cmsis_gcc.h ****   \brief   Disable FIQ
1269:Drivers/CMSIS/Include/cmsis_gcc.h ****   \details Disables FIQ interrupts by setting special-purpose register FAULTMASK.
1270:Drivers/CMSIS/Include/cmsis_gcc.h ****            Can only be executed in Privileged modes.
1271:Drivers/CMSIS/Include/cmsis_gcc.h ****  */
1272:Drivers/CMSIS/Include/cmsis_gcc.h **** __STATIC_FORCEINLINE void __disable_fault_irq(void)
1273:Drivers/CMSIS/Include/cmsis_gcc.h **** {
1274:Drivers/CMSIS/Include/cmsis_gcc.h ****   __ASM volatile ("cpsid f" : : : "memory");
1275:Drivers/CMSIS/Include/cmsis_gcc.h **** }
1276:Drivers/CMSIS/Include/cmsis_gcc.h **** 
ARM GAS  /var/folders/ck/g3dcd5x55xs4107jgdl0snvr0000gn/T//ccTk6Q0O.s 			page 31


1277:Drivers/CMSIS/Include/cmsis_gcc.h **** 
1278:Drivers/CMSIS/Include/cmsis_gcc.h **** /**
1279:Drivers/CMSIS/Include/cmsis_gcc.h ****   \brief   Get Base Priority
1280:Drivers/CMSIS/Include/cmsis_gcc.h ****   \details Returns the current value of the Base Priority register.
1281:Drivers/CMSIS/Include/cmsis_gcc.h ****   \return               Base Priority register value
1282:Drivers/CMSIS/Include/cmsis_gcc.h ****  */
1283:Drivers/CMSIS/Include/cmsis_gcc.h **** __STATIC_FORCEINLINE uint32_t __get_BASEPRI(void)
1284:Drivers/CMSIS/Include/cmsis_gcc.h **** {
1285:Drivers/CMSIS/Include/cmsis_gcc.h ****   uint32_t result;
1286:Drivers/CMSIS/Include/cmsis_gcc.h **** 
1287:Drivers/CMSIS/Include/cmsis_gcc.h ****   __ASM volatile ("MRS %0, basepri" : "=r" (result) );
1288:Drivers/CMSIS/Include/cmsis_gcc.h ****   return(result);
1289:Drivers/CMSIS/Include/cmsis_gcc.h **** }
1290:Drivers/CMSIS/Include/cmsis_gcc.h **** 
1291:Drivers/CMSIS/Include/cmsis_gcc.h **** 
1292:Drivers/CMSIS/Include/cmsis_gcc.h **** #if (defined (__ARM_FEATURE_CMSE ) && (__ARM_FEATURE_CMSE == 3))
1293:Drivers/CMSIS/Include/cmsis_gcc.h **** /**
1294:Drivers/CMSIS/Include/cmsis_gcc.h ****   \brief   Get Base Priority (non-secure)
1295:Drivers/CMSIS/Include/cmsis_gcc.h ****   \details Returns the current value of the non-secure Base Priority register when in secure state.
1296:Drivers/CMSIS/Include/cmsis_gcc.h ****   \return               Base Priority register value
1297:Drivers/CMSIS/Include/cmsis_gcc.h ****  */
1298:Drivers/CMSIS/Include/cmsis_gcc.h **** __STATIC_FORCEINLINE uint32_t __TZ_get_BASEPRI_NS(void)
1299:Drivers/CMSIS/Include/cmsis_gcc.h **** {
1300:Drivers/CMSIS/Include/cmsis_gcc.h ****   uint32_t result;
1301:Drivers/CMSIS/Include/cmsis_gcc.h **** 
1302:Drivers/CMSIS/Include/cmsis_gcc.h ****   __ASM volatile ("MRS %0, basepri_ns" : "=r" (result) );
1303:Drivers/CMSIS/Include/cmsis_gcc.h ****   return(result);
1304:Drivers/CMSIS/Include/cmsis_gcc.h **** }
1305:Drivers/CMSIS/Include/cmsis_gcc.h **** #endif
1306:Drivers/CMSIS/Include/cmsis_gcc.h **** 
1307:Drivers/CMSIS/Include/cmsis_gcc.h **** 
1308:Drivers/CMSIS/Include/cmsis_gcc.h **** /**
1309:Drivers/CMSIS/Include/cmsis_gcc.h ****   \brief   Set Base Priority
1310:Drivers/CMSIS/Include/cmsis_gcc.h ****   \details Assigns the given value to the Base Priority register.
1311:Drivers/CMSIS/Include/cmsis_gcc.h ****   \param [in]    basePri  Base Priority value to set
1312:Drivers/CMSIS/Include/cmsis_gcc.h ****  */
1313:Drivers/CMSIS/Include/cmsis_gcc.h **** __STATIC_FORCEINLINE void __set_BASEPRI(uint32_t basePri)
1314:Drivers/CMSIS/Include/cmsis_gcc.h **** {
1315:Drivers/CMSIS/Include/cmsis_gcc.h ****   __ASM volatile ("MSR basepri, %0" : : "r" (basePri) : "memory");
1316:Drivers/CMSIS/Include/cmsis_gcc.h **** }
1317:Drivers/CMSIS/Include/cmsis_gcc.h **** 
1318:Drivers/CMSIS/Include/cmsis_gcc.h **** 
1319:Drivers/CMSIS/Include/cmsis_gcc.h **** #if (defined (__ARM_FEATURE_CMSE ) && (__ARM_FEATURE_CMSE == 3))
1320:Drivers/CMSIS/Include/cmsis_gcc.h **** /**
1321:Drivers/CMSIS/Include/cmsis_gcc.h ****   \brief   Set Base Priority (non-secure)
1322:Drivers/CMSIS/Include/cmsis_gcc.h ****   \details Assigns the given value to the non-secure Base Priority register when in secure state.
1323:Drivers/CMSIS/Include/cmsis_gcc.h ****   \param [in]    basePri  Base Priority value to set
1324:Drivers/CMSIS/Include/cmsis_gcc.h ****  */
1325:Drivers/CMSIS/Include/cmsis_gcc.h **** __STATIC_FORCEINLINE void __TZ_set_BASEPRI_NS(uint32_t basePri)
1326:Drivers/CMSIS/Include/cmsis_gcc.h **** {
1327:Drivers/CMSIS/Include/cmsis_gcc.h ****   __ASM volatile ("MSR basepri_ns, %0" : : "r" (basePri) : "memory");
1328:Drivers/CMSIS/Include/cmsis_gcc.h **** }
1329:Drivers/CMSIS/Include/cmsis_gcc.h **** #endif
1330:Drivers/CMSIS/Include/cmsis_gcc.h **** 
1331:Drivers/CMSIS/Include/cmsis_gcc.h **** 
1332:Drivers/CMSIS/Include/cmsis_gcc.h **** /**
1333:Drivers/CMSIS/Include/cmsis_gcc.h ****   \brief   Set Base Priority with condition
ARM GAS  /var/folders/ck/g3dcd5x55xs4107jgdl0snvr0000gn/T//ccTk6Q0O.s 			page 32


1334:Drivers/CMSIS/Include/cmsis_gcc.h ****   \details Assigns the given value to the Base Priority register only if BASEPRI masking is disable
1335:Drivers/CMSIS/Include/cmsis_gcc.h ****            or the new value increases the BASEPRI priority level.
1336:Drivers/CMSIS/Include/cmsis_gcc.h ****   \param [in]    basePri  Base Priority value to set
1337:Drivers/CMSIS/Include/cmsis_gcc.h ****  */
1338:Drivers/CMSIS/Include/cmsis_gcc.h **** __STATIC_FORCEINLINE void __set_BASEPRI_MAX(uint32_t basePri)
1339:Drivers/CMSIS/Include/cmsis_gcc.h **** {
1340:Drivers/CMSIS/Include/cmsis_gcc.h ****   __ASM volatile ("MSR basepri_max, %0" : : "r" (basePri) : "memory");
1341:Drivers/CMSIS/Include/cmsis_gcc.h **** }
1342:Drivers/CMSIS/Include/cmsis_gcc.h **** 
1343:Drivers/CMSIS/Include/cmsis_gcc.h **** 
1344:Drivers/CMSIS/Include/cmsis_gcc.h **** /**
1345:Drivers/CMSIS/Include/cmsis_gcc.h ****   \brief   Get Fault Mask
1346:Drivers/CMSIS/Include/cmsis_gcc.h ****   \details Returns the current value of the Fault Mask register.
1347:Drivers/CMSIS/Include/cmsis_gcc.h ****   \return               Fault Mask register value
1348:Drivers/CMSIS/Include/cmsis_gcc.h ****  */
1349:Drivers/CMSIS/Include/cmsis_gcc.h **** __STATIC_FORCEINLINE uint32_t __get_FAULTMASK(void)
1350:Drivers/CMSIS/Include/cmsis_gcc.h **** {
1351:Drivers/CMSIS/Include/cmsis_gcc.h ****   uint32_t result;
1352:Drivers/CMSIS/Include/cmsis_gcc.h **** 
1353:Drivers/CMSIS/Include/cmsis_gcc.h ****   __ASM volatile ("MRS %0, faultmask" : "=r" (result) );
1354:Drivers/CMSIS/Include/cmsis_gcc.h ****   return(result);
1355:Drivers/CMSIS/Include/cmsis_gcc.h **** }
1356:Drivers/CMSIS/Include/cmsis_gcc.h **** 
1357:Drivers/CMSIS/Include/cmsis_gcc.h **** 
1358:Drivers/CMSIS/Include/cmsis_gcc.h **** #if (defined (__ARM_FEATURE_CMSE ) && (__ARM_FEATURE_CMSE == 3))
1359:Drivers/CMSIS/Include/cmsis_gcc.h **** /**
1360:Drivers/CMSIS/Include/cmsis_gcc.h ****   \brief   Get Fault Mask (non-secure)
1361:Drivers/CMSIS/Include/cmsis_gcc.h ****   \details Returns the current value of the non-secure Fault Mask register when in secure state.
1362:Drivers/CMSIS/Include/cmsis_gcc.h ****   \return               Fault Mask register value
1363:Drivers/CMSIS/Include/cmsis_gcc.h ****  */
1364:Drivers/CMSIS/Include/cmsis_gcc.h **** __STATIC_FORCEINLINE uint32_t __TZ_get_FAULTMASK_NS(void)
1365:Drivers/CMSIS/Include/cmsis_gcc.h **** {
1366:Drivers/CMSIS/Include/cmsis_gcc.h ****   uint32_t result;
1367:Drivers/CMSIS/Include/cmsis_gcc.h **** 
1368:Drivers/CMSIS/Include/cmsis_gcc.h ****   __ASM volatile ("MRS %0, faultmask_ns" : "=r" (result) );
1369:Drivers/CMSIS/Include/cmsis_gcc.h ****   return(result);
1370:Drivers/CMSIS/Include/cmsis_gcc.h **** }
1371:Drivers/CMSIS/Include/cmsis_gcc.h **** #endif
1372:Drivers/CMSIS/Include/cmsis_gcc.h **** 
1373:Drivers/CMSIS/Include/cmsis_gcc.h **** 
1374:Drivers/CMSIS/Include/cmsis_gcc.h **** /**
1375:Drivers/CMSIS/Include/cmsis_gcc.h ****   \brief   Set Fault Mask
1376:Drivers/CMSIS/Include/cmsis_gcc.h ****   \details Assigns the given value to the Fault Mask register.
1377:Drivers/CMSIS/Include/cmsis_gcc.h ****   \param [in]    faultMask  Fault Mask value to set
1378:Drivers/CMSIS/Include/cmsis_gcc.h ****  */
1379:Drivers/CMSIS/Include/cmsis_gcc.h **** __STATIC_FORCEINLINE void __set_FAULTMASK(uint32_t faultMask)
1380:Drivers/CMSIS/Include/cmsis_gcc.h **** {
1381:Drivers/CMSIS/Include/cmsis_gcc.h ****   __ASM volatile ("MSR faultmask, %0" : : "r" (faultMask) : "memory");
1382:Drivers/CMSIS/Include/cmsis_gcc.h **** }
1383:Drivers/CMSIS/Include/cmsis_gcc.h **** 
1384:Drivers/CMSIS/Include/cmsis_gcc.h **** 
1385:Drivers/CMSIS/Include/cmsis_gcc.h **** #if (defined (__ARM_FEATURE_CMSE ) && (__ARM_FEATURE_CMSE == 3))
1386:Drivers/CMSIS/Include/cmsis_gcc.h **** /**
1387:Drivers/CMSIS/Include/cmsis_gcc.h ****   \brief   Set Fault Mask (non-secure)
1388:Drivers/CMSIS/Include/cmsis_gcc.h ****   \details Assigns the given value to the non-secure Fault Mask register when in secure state.
1389:Drivers/CMSIS/Include/cmsis_gcc.h ****   \param [in]    faultMask  Fault Mask value to set
1390:Drivers/CMSIS/Include/cmsis_gcc.h ****  */
ARM GAS  /var/folders/ck/g3dcd5x55xs4107jgdl0snvr0000gn/T//ccTk6Q0O.s 			page 33


1391:Drivers/CMSIS/Include/cmsis_gcc.h **** __STATIC_FORCEINLINE void __TZ_set_FAULTMASK_NS(uint32_t faultMask)
1392:Drivers/CMSIS/Include/cmsis_gcc.h **** {
1393:Drivers/CMSIS/Include/cmsis_gcc.h ****   __ASM volatile ("MSR faultmask_ns, %0" : : "r" (faultMask) : "memory");
1394:Drivers/CMSIS/Include/cmsis_gcc.h **** }
1395:Drivers/CMSIS/Include/cmsis_gcc.h **** #endif
1396:Drivers/CMSIS/Include/cmsis_gcc.h **** 
1397:Drivers/CMSIS/Include/cmsis_gcc.h **** #endif /* ((defined (__ARM_ARCH_7M__      ) && (__ARM_ARCH_7M__      == 1)) || \
1398:Drivers/CMSIS/Include/cmsis_gcc.h ****            (defined (__ARM_ARCH_7EM__     ) && (__ARM_ARCH_7EM__     == 1)) || \
1399:Drivers/CMSIS/Include/cmsis_gcc.h ****            (defined (__ARM_ARCH_8M_MAIN__ ) && (__ARM_ARCH_8M_MAIN__ == 1))    ) */
1400:Drivers/CMSIS/Include/cmsis_gcc.h **** 
1401:Drivers/CMSIS/Include/cmsis_gcc.h **** 
1402:Drivers/CMSIS/Include/cmsis_gcc.h **** #if ((defined (__ARM_ARCH_8M_MAIN__ ) && (__ARM_ARCH_8M_MAIN__ == 1)) || \
1403:Drivers/CMSIS/Include/cmsis_gcc.h ****      (defined (__ARM_ARCH_8M_BASE__ ) && (__ARM_ARCH_8M_BASE__ == 1))    )
1404:Drivers/CMSIS/Include/cmsis_gcc.h **** 
1405:Drivers/CMSIS/Include/cmsis_gcc.h **** /**
1406:Drivers/CMSIS/Include/cmsis_gcc.h ****   \brief   Get Process Stack Pointer Limit
1407:Drivers/CMSIS/Include/cmsis_gcc.h ****   Devices without ARMv8-M Main Extensions (i.e. Cortex-M23) lack the non-secure
1408:Drivers/CMSIS/Include/cmsis_gcc.h ****   Stack Pointer Limit register hence zero is returned always in non-secure
1409:Drivers/CMSIS/Include/cmsis_gcc.h ****   mode.
1410:Drivers/CMSIS/Include/cmsis_gcc.h **** 
1411:Drivers/CMSIS/Include/cmsis_gcc.h ****   \details Returns the current value of the Process Stack Pointer Limit (PSPLIM).
1412:Drivers/CMSIS/Include/cmsis_gcc.h ****   \return               PSPLIM Register value
1413:Drivers/CMSIS/Include/cmsis_gcc.h ****  */
1414:Drivers/CMSIS/Include/cmsis_gcc.h **** __STATIC_FORCEINLINE uint32_t __get_PSPLIM(void)
1415:Drivers/CMSIS/Include/cmsis_gcc.h **** {
1416:Drivers/CMSIS/Include/cmsis_gcc.h **** #if (!(defined (__ARM_ARCH_8M_MAIN__ ) && (__ARM_ARCH_8M_MAIN__ == 1)) && \
1417:Drivers/CMSIS/Include/cmsis_gcc.h ****     (!defined (__ARM_FEATURE_CMSE) || (__ARM_FEATURE_CMSE < 3)))
1418:Drivers/CMSIS/Include/cmsis_gcc.h ****     // without main extensions, the non-secure PSPLIM is RAZ/WI
1419:Drivers/CMSIS/Include/cmsis_gcc.h ****   return 0U;
1420:Drivers/CMSIS/Include/cmsis_gcc.h **** #else
1421:Drivers/CMSIS/Include/cmsis_gcc.h ****   uint32_t result;
1422:Drivers/CMSIS/Include/cmsis_gcc.h ****   __ASM volatile ("MRS %0, psplim"  : "=r" (result) );
1423:Drivers/CMSIS/Include/cmsis_gcc.h ****   return result;
1424:Drivers/CMSIS/Include/cmsis_gcc.h **** #endif
1425:Drivers/CMSIS/Include/cmsis_gcc.h **** }
1426:Drivers/CMSIS/Include/cmsis_gcc.h **** 
1427:Drivers/CMSIS/Include/cmsis_gcc.h **** #if (defined (__ARM_FEATURE_CMSE) && (__ARM_FEATURE_CMSE == 3))
1428:Drivers/CMSIS/Include/cmsis_gcc.h **** /**
1429:Drivers/CMSIS/Include/cmsis_gcc.h ****   \brief   Get Process Stack Pointer Limit (non-secure)
1430:Drivers/CMSIS/Include/cmsis_gcc.h ****   Devices without ARMv8-M Main Extensions (i.e. Cortex-M23) lack the non-secure
1431:Drivers/CMSIS/Include/cmsis_gcc.h ****   Stack Pointer Limit register hence zero is returned always.
1432:Drivers/CMSIS/Include/cmsis_gcc.h **** 
1433:Drivers/CMSIS/Include/cmsis_gcc.h ****   \details Returns the current value of the non-secure Process Stack Pointer Limit (PSPLIM) when in
1434:Drivers/CMSIS/Include/cmsis_gcc.h ****   \return               PSPLIM Register value
1435:Drivers/CMSIS/Include/cmsis_gcc.h ****  */
1436:Drivers/CMSIS/Include/cmsis_gcc.h **** __STATIC_FORCEINLINE uint32_t __TZ_get_PSPLIM_NS(void)
1437:Drivers/CMSIS/Include/cmsis_gcc.h **** {
1438:Drivers/CMSIS/Include/cmsis_gcc.h **** #if (!(defined (__ARM_ARCH_8M_MAIN__ ) && (__ARM_ARCH_8M_MAIN__ == 1)))
1439:Drivers/CMSIS/Include/cmsis_gcc.h ****   // without main extensions, the non-secure PSPLIM is RAZ/WI
1440:Drivers/CMSIS/Include/cmsis_gcc.h ****   return 0U;
1441:Drivers/CMSIS/Include/cmsis_gcc.h **** #else
1442:Drivers/CMSIS/Include/cmsis_gcc.h ****   uint32_t result;
1443:Drivers/CMSIS/Include/cmsis_gcc.h ****   __ASM volatile ("MRS %0, psplim_ns"  : "=r" (result) );
1444:Drivers/CMSIS/Include/cmsis_gcc.h ****   return result;
1445:Drivers/CMSIS/Include/cmsis_gcc.h **** #endif
1446:Drivers/CMSIS/Include/cmsis_gcc.h **** }
1447:Drivers/CMSIS/Include/cmsis_gcc.h **** #endif
ARM GAS  /var/folders/ck/g3dcd5x55xs4107jgdl0snvr0000gn/T//ccTk6Q0O.s 			page 34


1448:Drivers/CMSIS/Include/cmsis_gcc.h **** 
1449:Drivers/CMSIS/Include/cmsis_gcc.h **** 
1450:Drivers/CMSIS/Include/cmsis_gcc.h **** /**
1451:Drivers/CMSIS/Include/cmsis_gcc.h ****   \brief   Set Process Stack Pointer Limit
1452:Drivers/CMSIS/Include/cmsis_gcc.h ****   Devices without ARMv8-M Main Extensions (i.e. Cortex-M23) lack the non-secure
1453:Drivers/CMSIS/Include/cmsis_gcc.h ****   Stack Pointer Limit register hence the write is silently ignored in non-secure
1454:Drivers/CMSIS/Include/cmsis_gcc.h ****   mode.
1455:Drivers/CMSIS/Include/cmsis_gcc.h **** 
1456:Drivers/CMSIS/Include/cmsis_gcc.h ****   \details Assigns the given value to the Process Stack Pointer Limit (PSPLIM).
1457:Drivers/CMSIS/Include/cmsis_gcc.h ****   \param [in]    ProcStackPtrLimit  Process Stack Pointer Limit value to set
1458:Drivers/CMSIS/Include/cmsis_gcc.h ****  */
1459:Drivers/CMSIS/Include/cmsis_gcc.h **** __STATIC_FORCEINLINE void __set_PSPLIM(uint32_t ProcStackPtrLimit)
1460:Drivers/CMSIS/Include/cmsis_gcc.h **** {
1461:Drivers/CMSIS/Include/cmsis_gcc.h **** #if (!(defined (__ARM_ARCH_8M_MAIN__ ) && (__ARM_ARCH_8M_MAIN__ == 1)) && \
1462:Drivers/CMSIS/Include/cmsis_gcc.h ****     (!defined (__ARM_FEATURE_CMSE) || (__ARM_FEATURE_CMSE < 3)))
1463:Drivers/CMSIS/Include/cmsis_gcc.h ****   // without main extensions, the non-secure PSPLIM is RAZ/WI
1464:Drivers/CMSIS/Include/cmsis_gcc.h ****   (void)ProcStackPtrLimit;
1465:Drivers/CMSIS/Include/cmsis_gcc.h **** #else
1466:Drivers/CMSIS/Include/cmsis_gcc.h ****   __ASM volatile ("MSR psplim, %0" : : "r" (ProcStackPtrLimit));
1467:Drivers/CMSIS/Include/cmsis_gcc.h **** #endif
1468:Drivers/CMSIS/Include/cmsis_gcc.h **** }
1469:Drivers/CMSIS/Include/cmsis_gcc.h **** 
1470:Drivers/CMSIS/Include/cmsis_gcc.h **** 
1471:Drivers/CMSIS/Include/cmsis_gcc.h **** #if (defined (__ARM_FEATURE_CMSE  ) && (__ARM_FEATURE_CMSE   == 3))
1472:Drivers/CMSIS/Include/cmsis_gcc.h **** /**
1473:Drivers/CMSIS/Include/cmsis_gcc.h ****   \brief   Set Process Stack Pointer (non-secure)
1474:Drivers/CMSIS/Include/cmsis_gcc.h ****   Devices without ARMv8-M Main Extensions (i.e. Cortex-M23) lack the non-secure
1475:Drivers/CMSIS/Include/cmsis_gcc.h ****   Stack Pointer Limit register hence the write is silently ignored.
1476:Drivers/CMSIS/Include/cmsis_gcc.h **** 
1477:Drivers/CMSIS/Include/cmsis_gcc.h ****   \details Assigns the given value to the non-secure Process Stack Pointer Limit (PSPLIM) when in s
1478:Drivers/CMSIS/Include/cmsis_gcc.h ****   \param [in]    ProcStackPtrLimit  Process Stack Pointer Limit value to set
1479:Drivers/CMSIS/Include/cmsis_gcc.h ****  */
1480:Drivers/CMSIS/Include/cmsis_gcc.h **** __STATIC_FORCEINLINE void __TZ_set_PSPLIM_NS(uint32_t ProcStackPtrLimit)
1481:Drivers/CMSIS/Include/cmsis_gcc.h **** {
1482:Drivers/CMSIS/Include/cmsis_gcc.h **** #if (!(defined (__ARM_ARCH_8M_MAIN__ ) && (__ARM_ARCH_8M_MAIN__ == 1)))
1483:Drivers/CMSIS/Include/cmsis_gcc.h ****   // without main extensions, the non-secure PSPLIM is RAZ/WI
1484:Drivers/CMSIS/Include/cmsis_gcc.h ****   (void)ProcStackPtrLimit;
1485:Drivers/CMSIS/Include/cmsis_gcc.h **** #else
1486:Drivers/CMSIS/Include/cmsis_gcc.h ****   __ASM volatile ("MSR psplim_ns, %0\n" : : "r" (ProcStackPtrLimit));
1487:Drivers/CMSIS/Include/cmsis_gcc.h **** #endif
1488:Drivers/CMSIS/Include/cmsis_gcc.h **** }
1489:Drivers/CMSIS/Include/cmsis_gcc.h **** #endif
1490:Drivers/CMSIS/Include/cmsis_gcc.h **** 
1491:Drivers/CMSIS/Include/cmsis_gcc.h **** 
1492:Drivers/CMSIS/Include/cmsis_gcc.h **** /**
1493:Drivers/CMSIS/Include/cmsis_gcc.h ****   \brief   Get Main Stack Pointer Limit
1494:Drivers/CMSIS/Include/cmsis_gcc.h ****   Devices without ARMv8-M Main Extensions (i.e. Cortex-M23) lack the non-secure
1495:Drivers/CMSIS/Include/cmsis_gcc.h ****   Stack Pointer Limit register hence zero is returned always in non-secure
1496:Drivers/CMSIS/Include/cmsis_gcc.h ****   mode.
1497:Drivers/CMSIS/Include/cmsis_gcc.h **** 
1498:Drivers/CMSIS/Include/cmsis_gcc.h ****   \details Returns the current value of the Main Stack Pointer Limit (MSPLIM).
1499:Drivers/CMSIS/Include/cmsis_gcc.h ****   \return               MSPLIM Register value
1500:Drivers/CMSIS/Include/cmsis_gcc.h ****  */
1501:Drivers/CMSIS/Include/cmsis_gcc.h **** __STATIC_FORCEINLINE uint32_t __get_MSPLIM(void)
1502:Drivers/CMSIS/Include/cmsis_gcc.h **** {
1503:Drivers/CMSIS/Include/cmsis_gcc.h **** #if (!(defined (__ARM_ARCH_8M_MAIN__ ) && (__ARM_ARCH_8M_MAIN__ == 1)) && \
1504:Drivers/CMSIS/Include/cmsis_gcc.h ****     (!defined (__ARM_FEATURE_CMSE) || (__ARM_FEATURE_CMSE < 3)))
ARM GAS  /var/folders/ck/g3dcd5x55xs4107jgdl0snvr0000gn/T//ccTk6Q0O.s 			page 35


1505:Drivers/CMSIS/Include/cmsis_gcc.h ****   // without main extensions, the non-secure MSPLIM is RAZ/WI
1506:Drivers/CMSIS/Include/cmsis_gcc.h ****   return 0U;
1507:Drivers/CMSIS/Include/cmsis_gcc.h **** #else
1508:Drivers/CMSIS/Include/cmsis_gcc.h ****   uint32_t result;
1509:Drivers/CMSIS/Include/cmsis_gcc.h ****   __ASM volatile ("MRS %0, msplim" : "=r" (result) );
1510:Drivers/CMSIS/Include/cmsis_gcc.h ****   return result;
1511:Drivers/CMSIS/Include/cmsis_gcc.h **** #endif
1512:Drivers/CMSIS/Include/cmsis_gcc.h **** }
1513:Drivers/CMSIS/Include/cmsis_gcc.h **** 
1514:Drivers/CMSIS/Include/cmsis_gcc.h **** 
1515:Drivers/CMSIS/Include/cmsis_gcc.h **** #if (defined (__ARM_FEATURE_CMSE  ) && (__ARM_FEATURE_CMSE   == 3))
1516:Drivers/CMSIS/Include/cmsis_gcc.h **** /**
1517:Drivers/CMSIS/Include/cmsis_gcc.h ****   \brief   Get Main Stack Pointer Limit (non-secure)
1518:Drivers/CMSIS/Include/cmsis_gcc.h ****   Devices without ARMv8-M Main Extensions (i.e. Cortex-M23) lack the non-secure
1519:Drivers/CMSIS/Include/cmsis_gcc.h ****   Stack Pointer Limit register hence zero is returned always.
1520:Drivers/CMSIS/Include/cmsis_gcc.h **** 
1521:Drivers/CMSIS/Include/cmsis_gcc.h ****   \details Returns the current value of the non-secure Main Stack Pointer Limit(MSPLIM) when in sec
1522:Drivers/CMSIS/Include/cmsis_gcc.h ****   \return               MSPLIM Register value
1523:Drivers/CMSIS/Include/cmsis_gcc.h ****  */
1524:Drivers/CMSIS/Include/cmsis_gcc.h **** __STATIC_FORCEINLINE uint32_t __TZ_get_MSPLIM_NS(void)
1525:Drivers/CMSIS/Include/cmsis_gcc.h **** {
1526:Drivers/CMSIS/Include/cmsis_gcc.h **** #if (!(defined (__ARM_ARCH_8M_MAIN__ ) && (__ARM_ARCH_8M_MAIN__ == 1)))
1527:Drivers/CMSIS/Include/cmsis_gcc.h ****   // without main extensions, the non-secure MSPLIM is RAZ/WI
1528:Drivers/CMSIS/Include/cmsis_gcc.h ****   return 0U;
1529:Drivers/CMSIS/Include/cmsis_gcc.h **** #else
1530:Drivers/CMSIS/Include/cmsis_gcc.h ****   uint32_t result;
1531:Drivers/CMSIS/Include/cmsis_gcc.h ****   __ASM volatile ("MRS %0, msplim_ns" : "=r" (result) );
1532:Drivers/CMSIS/Include/cmsis_gcc.h ****   return result;
1533:Drivers/CMSIS/Include/cmsis_gcc.h **** #endif
1534:Drivers/CMSIS/Include/cmsis_gcc.h **** }
1535:Drivers/CMSIS/Include/cmsis_gcc.h **** #endif
1536:Drivers/CMSIS/Include/cmsis_gcc.h **** 
1537:Drivers/CMSIS/Include/cmsis_gcc.h **** 
1538:Drivers/CMSIS/Include/cmsis_gcc.h **** /**
1539:Drivers/CMSIS/Include/cmsis_gcc.h ****   \brief   Set Main Stack Pointer Limit
1540:Drivers/CMSIS/Include/cmsis_gcc.h ****   Devices without ARMv8-M Main Extensions (i.e. Cortex-M23) lack the non-secure
1541:Drivers/CMSIS/Include/cmsis_gcc.h ****   Stack Pointer Limit register hence the write is silently ignored in non-secure
1542:Drivers/CMSIS/Include/cmsis_gcc.h ****   mode.
1543:Drivers/CMSIS/Include/cmsis_gcc.h **** 
1544:Drivers/CMSIS/Include/cmsis_gcc.h ****   \details Assigns the given value to the Main Stack Pointer Limit (MSPLIM).
1545:Drivers/CMSIS/Include/cmsis_gcc.h ****   \param [in]    MainStackPtrLimit  Main Stack Pointer Limit value to set
1546:Drivers/CMSIS/Include/cmsis_gcc.h ****  */
1547:Drivers/CMSIS/Include/cmsis_gcc.h **** __STATIC_FORCEINLINE void __set_MSPLIM(uint32_t MainStackPtrLimit)
1548:Drivers/CMSIS/Include/cmsis_gcc.h **** {
1549:Drivers/CMSIS/Include/cmsis_gcc.h **** #if (!(defined (__ARM_ARCH_8M_MAIN__ ) && (__ARM_ARCH_8M_MAIN__ == 1)) && \
1550:Drivers/CMSIS/Include/cmsis_gcc.h ****     (!defined (__ARM_FEATURE_CMSE) || (__ARM_FEATURE_CMSE < 3)))
1551:Drivers/CMSIS/Include/cmsis_gcc.h ****   // without main extensions, the non-secure MSPLIM is RAZ/WI
1552:Drivers/CMSIS/Include/cmsis_gcc.h ****   (void)MainStackPtrLimit;
1553:Drivers/CMSIS/Include/cmsis_gcc.h **** #else
1554:Drivers/CMSIS/Include/cmsis_gcc.h ****   __ASM volatile ("MSR msplim, %0" : : "r" (MainStackPtrLimit));
1555:Drivers/CMSIS/Include/cmsis_gcc.h **** #endif
1556:Drivers/CMSIS/Include/cmsis_gcc.h **** }
1557:Drivers/CMSIS/Include/cmsis_gcc.h **** 
1558:Drivers/CMSIS/Include/cmsis_gcc.h **** 
1559:Drivers/CMSIS/Include/cmsis_gcc.h **** #if (defined (__ARM_FEATURE_CMSE  ) && (__ARM_FEATURE_CMSE   == 3))
1560:Drivers/CMSIS/Include/cmsis_gcc.h **** /**
1561:Drivers/CMSIS/Include/cmsis_gcc.h ****   \brief   Set Main Stack Pointer Limit (non-secure)
ARM GAS  /var/folders/ck/g3dcd5x55xs4107jgdl0snvr0000gn/T//ccTk6Q0O.s 			page 36


1562:Drivers/CMSIS/Include/cmsis_gcc.h ****   Devices without ARMv8-M Main Extensions (i.e. Cortex-M23) lack the non-secure
1563:Drivers/CMSIS/Include/cmsis_gcc.h ****   Stack Pointer Limit register hence the write is silently ignored.
1564:Drivers/CMSIS/Include/cmsis_gcc.h **** 
1565:Drivers/CMSIS/Include/cmsis_gcc.h ****   \details Assigns the given value to the non-secure Main Stack Pointer Limit (MSPLIM) when in secu
1566:Drivers/CMSIS/Include/cmsis_gcc.h ****   \param [in]    MainStackPtrLimit  Main Stack Pointer value to set
1567:Drivers/CMSIS/Include/cmsis_gcc.h ****  */
1568:Drivers/CMSIS/Include/cmsis_gcc.h **** __STATIC_FORCEINLINE void __TZ_set_MSPLIM_NS(uint32_t MainStackPtrLimit)
1569:Drivers/CMSIS/Include/cmsis_gcc.h **** {
1570:Drivers/CMSIS/Include/cmsis_gcc.h **** #if (!(defined (__ARM_ARCH_8M_MAIN__ ) && (__ARM_ARCH_8M_MAIN__ == 1)))
1571:Drivers/CMSIS/Include/cmsis_gcc.h ****   // without main extensions, the non-secure MSPLIM is RAZ/WI
1572:Drivers/CMSIS/Include/cmsis_gcc.h ****   (void)MainStackPtrLimit;
1573:Drivers/CMSIS/Include/cmsis_gcc.h **** #else
1574:Drivers/CMSIS/Include/cmsis_gcc.h ****   __ASM volatile ("MSR msplim_ns, %0" : : "r" (MainStackPtrLimit));
1575:Drivers/CMSIS/Include/cmsis_gcc.h **** #endif
1576:Drivers/CMSIS/Include/cmsis_gcc.h **** }
1577:Drivers/CMSIS/Include/cmsis_gcc.h **** #endif
1578:Drivers/CMSIS/Include/cmsis_gcc.h **** 
1579:Drivers/CMSIS/Include/cmsis_gcc.h **** #endif /* ((defined (__ARM_ARCH_8M_MAIN__ ) && (__ARM_ARCH_8M_MAIN__ == 1)) || \
1580:Drivers/CMSIS/Include/cmsis_gcc.h ****            (defined (__ARM_ARCH_8M_BASE__ ) && (__ARM_ARCH_8M_BASE__ == 1))    ) */
1581:Drivers/CMSIS/Include/cmsis_gcc.h **** 
1582:Drivers/CMSIS/Include/cmsis_gcc.h **** 
1583:Drivers/CMSIS/Include/cmsis_gcc.h **** /**
1584:Drivers/CMSIS/Include/cmsis_gcc.h ****   \brief   Get FPSCR
1585:Drivers/CMSIS/Include/cmsis_gcc.h ****   \details Returns the current value of the Floating Point Status/Control register.
1586:Drivers/CMSIS/Include/cmsis_gcc.h ****   \return               Floating Point Status/Control register value
1587:Drivers/CMSIS/Include/cmsis_gcc.h ****  */
1588:Drivers/CMSIS/Include/cmsis_gcc.h **** __STATIC_FORCEINLINE uint32_t __get_FPSCR(void)
1589:Drivers/CMSIS/Include/cmsis_gcc.h **** {
1590:Drivers/CMSIS/Include/cmsis_gcc.h **** #if ((defined (__FPU_PRESENT) && (__FPU_PRESENT == 1U)) && \
1591:Drivers/CMSIS/Include/cmsis_gcc.h ****      (defined (__FPU_USED   ) && (__FPU_USED    == 1U))     )
1592:Drivers/CMSIS/Include/cmsis_gcc.h **** #if __has_builtin(__builtin_arm_get_fpscr)
1593:Drivers/CMSIS/Include/cmsis_gcc.h **** // Re-enable using built-in when GCC has been fixed
1594:Drivers/CMSIS/Include/cmsis_gcc.h **** // || (__GNUC__ > 7) || (__GNUC__ == 7 && __GNUC_MINOR__ >= 2)
1595:Drivers/CMSIS/Include/cmsis_gcc.h ****   /* see https://gcc.gnu.org/ml/gcc-patches/2017-04/msg00443.html */
1596:Drivers/CMSIS/Include/cmsis_gcc.h ****   return __builtin_arm_get_fpscr();
1597:Drivers/CMSIS/Include/cmsis_gcc.h **** #else
1598:Drivers/CMSIS/Include/cmsis_gcc.h ****   uint32_t result;
1599:Drivers/CMSIS/Include/cmsis_gcc.h **** 
1600:Drivers/CMSIS/Include/cmsis_gcc.h ****   __ASM volatile ("VMRS %0, fpscr" : "=r" (result) );
1601:Drivers/CMSIS/Include/cmsis_gcc.h ****   return(result);
1602:Drivers/CMSIS/Include/cmsis_gcc.h **** #endif
1603:Drivers/CMSIS/Include/cmsis_gcc.h **** #else
1604:Drivers/CMSIS/Include/cmsis_gcc.h ****   return(0U);
1605:Drivers/CMSIS/Include/cmsis_gcc.h **** #endif
1606:Drivers/CMSIS/Include/cmsis_gcc.h **** }
1607:Drivers/CMSIS/Include/cmsis_gcc.h **** 
1608:Drivers/CMSIS/Include/cmsis_gcc.h **** 
1609:Drivers/CMSIS/Include/cmsis_gcc.h **** /**
1610:Drivers/CMSIS/Include/cmsis_gcc.h ****   \brief   Set FPSCR
1611:Drivers/CMSIS/Include/cmsis_gcc.h ****   \details Assigns the given value to the Floating Point Status/Control register.
1612:Drivers/CMSIS/Include/cmsis_gcc.h ****   \param [in]    fpscr  Floating Point Status/Control value to set
1613:Drivers/CMSIS/Include/cmsis_gcc.h ****  */
1614:Drivers/CMSIS/Include/cmsis_gcc.h **** __STATIC_FORCEINLINE void __set_FPSCR(uint32_t fpscr)
1615:Drivers/CMSIS/Include/cmsis_gcc.h **** {
1616:Drivers/CMSIS/Include/cmsis_gcc.h **** #if ((defined (__FPU_PRESENT) && (__FPU_PRESENT == 1U)) && \
1617:Drivers/CMSIS/Include/cmsis_gcc.h ****      (defined (__FPU_USED   ) && (__FPU_USED    == 1U))     )
1618:Drivers/CMSIS/Include/cmsis_gcc.h **** #if __has_builtin(__builtin_arm_set_fpscr)
ARM GAS  /var/folders/ck/g3dcd5x55xs4107jgdl0snvr0000gn/T//ccTk6Q0O.s 			page 37


1619:Drivers/CMSIS/Include/cmsis_gcc.h **** // Re-enable using built-in when GCC has been fixed
1620:Drivers/CMSIS/Include/cmsis_gcc.h **** // || (__GNUC__ > 7) || (__GNUC__ == 7 && __GNUC_MINOR__ >= 2)
1621:Drivers/CMSIS/Include/cmsis_gcc.h ****   /* see https://gcc.gnu.org/ml/gcc-patches/2017-04/msg00443.html */
1622:Drivers/CMSIS/Include/cmsis_gcc.h ****   __builtin_arm_set_fpscr(fpscr);
1623:Drivers/CMSIS/Include/cmsis_gcc.h **** #else
1624:Drivers/CMSIS/Include/cmsis_gcc.h ****   __ASM volatile ("VMSR fpscr, %0" : : "r" (fpscr) : "vfpcc", "memory");
1625:Drivers/CMSIS/Include/cmsis_gcc.h **** #endif
1626:Drivers/CMSIS/Include/cmsis_gcc.h **** #else
1627:Drivers/CMSIS/Include/cmsis_gcc.h ****   (void)fpscr;
1628:Drivers/CMSIS/Include/cmsis_gcc.h **** #endif
1629:Drivers/CMSIS/Include/cmsis_gcc.h **** }
1630:Drivers/CMSIS/Include/cmsis_gcc.h **** 
1631:Drivers/CMSIS/Include/cmsis_gcc.h **** 
1632:Drivers/CMSIS/Include/cmsis_gcc.h **** /*@} end of CMSIS_Core_RegAccFunctions */
1633:Drivers/CMSIS/Include/cmsis_gcc.h **** 
1634:Drivers/CMSIS/Include/cmsis_gcc.h **** 
1635:Drivers/CMSIS/Include/cmsis_gcc.h **** /* ###################  Compiler specific Intrinsics  ########################### */
1636:Drivers/CMSIS/Include/cmsis_gcc.h **** /** \defgroup CMSIS_SIMD_intrinsics CMSIS SIMD Intrinsics
1637:Drivers/CMSIS/Include/cmsis_gcc.h ****   Access to dedicated SIMD instructions
1638:Drivers/CMSIS/Include/cmsis_gcc.h ****   @{
1639:Drivers/CMSIS/Include/cmsis_gcc.h **** */
1640:Drivers/CMSIS/Include/cmsis_gcc.h **** 
1641:Drivers/CMSIS/Include/cmsis_gcc.h **** #if (defined (__ARM_FEATURE_DSP) && (__ARM_FEATURE_DSP == 1))
1642:Drivers/CMSIS/Include/cmsis_gcc.h **** 
1643:Drivers/CMSIS/Include/cmsis_gcc.h **** __STATIC_FORCEINLINE uint32_t __SADD8(uint32_t op1, uint32_t op2)
1644:Drivers/CMSIS/Include/cmsis_gcc.h **** {
1645:Drivers/CMSIS/Include/cmsis_gcc.h ****   uint32_t result;
1646:Drivers/CMSIS/Include/cmsis_gcc.h **** 
1647:Drivers/CMSIS/Include/cmsis_gcc.h ****   __ASM volatile ("sadd8 %0, %1, %2" : "=r" (result) : "r" (op1), "r" (op2) );
1648:Drivers/CMSIS/Include/cmsis_gcc.h ****   return(result);
1649:Drivers/CMSIS/Include/cmsis_gcc.h **** }
1650:Drivers/CMSIS/Include/cmsis_gcc.h **** 
1651:Drivers/CMSIS/Include/cmsis_gcc.h **** __STATIC_FORCEINLINE uint32_t __QADD8(uint32_t op1, uint32_t op2)
1652:Drivers/CMSIS/Include/cmsis_gcc.h **** {
1653:Drivers/CMSIS/Include/cmsis_gcc.h ****   uint32_t result;
1654:Drivers/CMSIS/Include/cmsis_gcc.h **** 
1655:Drivers/CMSIS/Include/cmsis_gcc.h ****   __ASM ("qadd8 %0, %1, %2" : "=r" (result) : "r" (op1), "r" (op2) );
1656:Drivers/CMSIS/Include/cmsis_gcc.h ****   return(result);
1657:Drivers/CMSIS/Include/cmsis_gcc.h **** }
1658:Drivers/CMSIS/Include/cmsis_gcc.h **** 
1659:Drivers/CMSIS/Include/cmsis_gcc.h **** __STATIC_FORCEINLINE uint32_t __SHADD8(uint32_t op1, uint32_t op2)
1660:Drivers/CMSIS/Include/cmsis_gcc.h **** {
1661:Drivers/CMSIS/Include/cmsis_gcc.h ****   uint32_t result;
1662:Drivers/CMSIS/Include/cmsis_gcc.h **** 
1663:Drivers/CMSIS/Include/cmsis_gcc.h ****   __ASM ("shadd8 %0, %1, %2" : "=r" (result) : "r" (op1), "r" (op2) );
1664:Drivers/CMSIS/Include/cmsis_gcc.h ****   return(result);
1665:Drivers/CMSIS/Include/cmsis_gcc.h **** }
1666:Drivers/CMSIS/Include/cmsis_gcc.h **** 
1667:Drivers/CMSIS/Include/cmsis_gcc.h **** __STATIC_FORCEINLINE uint32_t __UADD8(uint32_t op1, uint32_t op2)
1668:Drivers/CMSIS/Include/cmsis_gcc.h **** {
1669:Drivers/CMSIS/Include/cmsis_gcc.h ****   uint32_t result;
1670:Drivers/CMSIS/Include/cmsis_gcc.h **** 
1671:Drivers/CMSIS/Include/cmsis_gcc.h ****   __ASM volatile ("uadd8 %0, %1, %2" : "=r" (result) : "r" (op1), "r" (op2) );
1672:Drivers/CMSIS/Include/cmsis_gcc.h ****   return(result);
1673:Drivers/CMSIS/Include/cmsis_gcc.h **** }
1674:Drivers/CMSIS/Include/cmsis_gcc.h **** 
1675:Drivers/CMSIS/Include/cmsis_gcc.h **** __STATIC_FORCEINLINE uint32_t __UQADD8(uint32_t op1, uint32_t op2)
ARM GAS  /var/folders/ck/g3dcd5x55xs4107jgdl0snvr0000gn/T//ccTk6Q0O.s 			page 38


1676:Drivers/CMSIS/Include/cmsis_gcc.h **** {
1677:Drivers/CMSIS/Include/cmsis_gcc.h ****   uint32_t result;
1678:Drivers/CMSIS/Include/cmsis_gcc.h **** 
1679:Drivers/CMSIS/Include/cmsis_gcc.h ****   __ASM ("uqadd8 %0, %1, %2" : "=r" (result) : "r" (op1), "r" (op2) );
1680:Drivers/CMSIS/Include/cmsis_gcc.h ****   return(result);
1681:Drivers/CMSIS/Include/cmsis_gcc.h **** }
1682:Drivers/CMSIS/Include/cmsis_gcc.h **** 
1683:Drivers/CMSIS/Include/cmsis_gcc.h **** __STATIC_FORCEINLINE uint32_t __UHADD8(uint32_t op1, uint32_t op2)
1684:Drivers/CMSIS/Include/cmsis_gcc.h **** {
1685:Drivers/CMSIS/Include/cmsis_gcc.h ****   uint32_t result;
1686:Drivers/CMSIS/Include/cmsis_gcc.h **** 
1687:Drivers/CMSIS/Include/cmsis_gcc.h ****   __ASM ("uhadd8 %0, %1, %2" : "=r" (result) : "r" (op1), "r" (op2) );
1688:Drivers/CMSIS/Include/cmsis_gcc.h ****   return(result);
1689:Drivers/CMSIS/Include/cmsis_gcc.h **** }
1690:Drivers/CMSIS/Include/cmsis_gcc.h **** 
1691:Drivers/CMSIS/Include/cmsis_gcc.h **** 
1692:Drivers/CMSIS/Include/cmsis_gcc.h **** __STATIC_FORCEINLINE uint32_t __SSUB8(uint32_t op1, uint32_t op2)
1693:Drivers/CMSIS/Include/cmsis_gcc.h **** {
1694:Drivers/CMSIS/Include/cmsis_gcc.h ****   uint32_t result;
1695:Drivers/CMSIS/Include/cmsis_gcc.h **** 
1696:Drivers/CMSIS/Include/cmsis_gcc.h ****   __ASM volatile ("ssub8 %0, %1, %2" : "=r" (result) : "r" (op1), "r" (op2) );
1697:Drivers/CMSIS/Include/cmsis_gcc.h ****   return(result);
1698:Drivers/CMSIS/Include/cmsis_gcc.h **** }
1699:Drivers/CMSIS/Include/cmsis_gcc.h **** 
1700:Drivers/CMSIS/Include/cmsis_gcc.h **** __STATIC_FORCEINLINE uint32_t __QSUB8(uint32_t op1, uint32_t op2)
1701:Drivers/CMSIS/Include/cmsis_gcc.h **** {
1702:Drivers/CMSIS/Include/cmsis_gcc.h ****   uint32_t result;
1703:Drivers/CMSIS/Include/cmsis_gcc.h **** 
1704:Drivers/CMSIS/Include/cmsis_gcc.h ****   __ASM ("qsub8 %0, %1, %2" : "=r" (result) : "r" (op1), "r" (op2) );
1705:Drivers/CMSIS/Include/cmsis_gcc.h ****   return(result);
1706:Drivers/CMSIS/Include/cmsis_gcc.h **** }
1707:Drivers/CMSIS/Include/cmsis_gcc.h **** 
1708:Drivers/CMSIS/Include/cmsis_gcc.h **** __STATIC_FORCEINLINE uint32_t __SHSUB8(uint32_t op1, uint32_t op2)
1709:Drivers/CMSIS/Include/cmsis_gcc.h **** {
1710:Drivers/CMSIS/Include/cmsis_gcc.h ****   uint32_t result;
1711:Drivers/CMSIS/Include/cmsis_gcc.h **** 
1712:Drivers/CMSIS/Include/cmsis_gcc.h ****   __ASM ("shsub8 %0, %1, %2" : "=r" (result) : "r" (op1), "r" (op2) );
1713:Drivers/CMSIS/Include/cmsis_gcc.h ****   return(result);
1714:Drivers/CMSIS/Include/cmsis_gcc.h **** }
1715:Drivers/CMSIS/Include/cmsis_gcc.h **** 
1716:Drivers/CMSIS/Include/cmsis_gcc.h **** __STATIC_FORCEINLINE uint32_t __USUB8(uint32_t op1, uint32_t op2)
1717:Drivers/CMSIS/Include/cmsis_gcc.h **** {
1718:Drivers/CMSIS/Include/cmsis_gcc.h ****   uint32_t result;
1719:Drivers/CMSIS/Include/cmsis_gcc.h **** 
1720:Drivers/CMSIS/Include/cmsis_gcc.h ****   __ASM volatile ("usub8 %0, %1, %2" : "=r" (result) : "r" (op1), "r" (op2) );
1721:Drivers/CMSIS/Include/cmsis_gcc.h ****   return(result);
1722:Drivers/CMSIS/Include/cmsis_gcc.h **** }
1723:Drivers/CMSIS/Include/cmsis_gcc.h **** 
1724:Drivers/CMSIS/Include/cmsis_gcc.h **** __STATIC_FORCEINLINE uint32_t __UQSUB8(uint32_t op1, uint32_t op2)
1725:Drivers/CMSIS/Include/cmsis_gcc.h **** {
1726:Drivers/CMSIS/Include/cmsis_gcc.h ****   uint32_t result;
1727:Drivers/CMSIS/Include/cmsis_gcc.h **** 
1728:Drivers/CMSIS/Include/cmsis_gcc.h ****   __ASM ("uqsub8 %0, %1, %2" : "=r" (result) : "r" (op1), "r" (op2) );
1729:Drivers/CMSIS/Include/cmsis_gcc.h ****   return(result);
1730:Drivers/CMSIS/Include/cmsis_gcc.h **** }
1731:Drivers/CMSIS/Include/cmsis_gcc.h **** 
1732:Drivers/CMSIS/Include/cmsis_gcc.h **** __STATIC_FORCEINLINE uint32_t __UHSUB8(uint32_t op1, uint32_t op2)
ARM GAS  /var/folders/ck/g3dcd5x55xs4107jgdl0snvr0000gn/T//ccTk6Q0O.s 			page 39


1733:Drivers/CMSIS/Include/cmsis_gcc.h **** {
1734:Drivers/CMSIS/Include/cmsis_gcc.h ****   uint32_t result;
1735:Drivers/CMSIS/Include/cmsis_gcc.h **** 
1736:Drivers/CMSIS/Include/cmsis_gcc.h ****   __ASM ("uhsub8 %0, %1, %2" : "=r" (result) : "r" (op1), "r" (op2) );
1737:Drivers/CMSIS/Include/cmsis_gcc.h ****   return(result);
1738:Drivers/CMSIS/Include/cmsis_gcc.h **** }
1739:Drivers/CMSIS/Include/cmsis_gcc.h **** 
1740:Drivers/CMSIS/Include/cmsis_gcc.h **** 
1741:Drivers/CMSIS/Include/cmsis_gcc.h **** __STATIC_FORCEINLINE uint32_t __SADD16(uint32_t op1, uint32_t op2)
1742:Drivers/CMSIS/Include/cmsis_gcc.h **** {
1743:Drivers/CMSIS/Include/cmsis_gcc.h ****   uint32_t result;
1744:Drivers/CMSIS/Include/cmsis_gcc.h **** 
1745:Drivers/CMSIS/Include/cmsis_gcc.h ****   __ASM volatile ("sadd16 %0, %1, %2" : "=r" (result) : "r" (op1), "r" (op2) );
1746:Drivers/CMSIS/Include/cmsis_gcc.h ****   return(result);
1747:Drivers/CMSIS/Include/cmsis_gcc.h **** }
1748:Drivers/CMSIS/Include/cmsis_gcc.h **** 
1749:Drivers/CMSIS/Include/cmsis_gcc.h **** __STATIC_FORCEINLINE uint32_t __QADD16(uint32_t op1, uint32_t op2)
1750:Drivers/CMSIS/Include/cmsis_gcc.h **** {
1751:Drivers/CMSIS/Include/cmsis_gcc.h ****   uint32_t result;
1752:Drivers/CMSIS/Include/cmsis_gcc.h **** 
1753:Drivers/CMSIS/Include/cmsis_gcc.h ****   __ASM ("qadd16 %0, %1, %2" : "=r" (result) : "r" (op1), "r" (op2) );
1754:Drivers/CMSIS/Include/cmsis_gcc.h ****   return(result);
1755:Drivers/CMSIS/Include/cmsis_gcc.h **** }
1756:Drivers/CMSIS/Include/cmsis_gcc.h **** 
1757:Drivers/CMSIS/Include/cmsis_gcc.h **** __STATIC_FORCEINLINE uint32_t __SHADD16(uint32_t op1, uint32_t op2)
1758:Drivers/CMSIS/Include/cmsis_gcc.h **** {
1759:Drivers/CMSIS/Include/cmsis_gcc.h ****   uint32_t result;
1760:Drivers/CMSIS/Include/cmsis_gcc.h **** 
1761:Drivers/CMSIS/Include/cmsis_gcc.h ****   __ASM ("shadd16 %0, %1, %2" : "=r" (result) : "r" (op1), "r" (op2) );
1762:Drivers/CMSIS/Include/cmsis_gcc.h ****   return(result);
1763:Drivers/CMSIS/Include/cmsis_gcc.h **** }
1764:Drivers/CMSIS/Include/cmsis_gcc.h **** 
1765:Drivers/CMSIS/Include/cmsis_gcc.h **** __STATIC_FORCEINLINE uint32_t __UADD16(uint32_t op1, uint32_t op2)
1766:Drivers/CMSIS/Include/cmsis_gcc.h **** {
1767:Drivers/CMSIS/Include/cmsis_gcc.h ****   uint32_t result;
1768:Drivers/CMSIS/Include/cmsis_gcc.h **** 
1769:Drivers/CMSIS/Include/cmsis_gcc.h ****   __ASM volatile ("uadd16 %0, %1, %2" : "=r" (result) : "r" (op1), "r" (op2) );
1770:Drivers/CMSIS/Include/cmsis_gcc.h ****   return(result);
1771:Drivers/CMSIS/Include/cmsis_gcc.h **** }
1772:Drivers/CMSIS/Include/cmsis_gcc.h **** 
1773:Drivers/CMSIS/Include/cmsis_gcc.h **** __STATIC_FORCEINLINE uint32_t __UQADD16(uint32_t op1, uint32_t op2)
1774:Drivers/CMSIS/Include/cmsis_gcc.h **** {
1775:Drivers/CMSIS/Include/cmsis_gcc.h ****   uint32_t result;
1776:Drivers/CMSIS/Include/cmsis_gcc.h **** 
1777:Drivers/CMSIS/Include/cmsis_gcc.h ****   __ASM ("uqadd16 %0, %1, %2" : "=r" (result) : "r" (op1), "r" (op2) );
1778:Drivers/CMSIS/Include/cmsis_gcc.h ****   return(result);
1779:Drivers/CMSIS/Include/cmsis_gcc.h **** }
1780:Drivers/CMSIS/Include/cmsis_gcc.h **** 
1781:Drivers/CMSIS/Include/cmsis_gcc.h **** __STATIC_FORCEINLINE uint32_t __UHADD16(uint32_t op1, uint32_t op2)
1782:Drivers/CMSIS/Include/cmsis_gcc.h **** {
1783:Drivers/CMSIS/Include/cmsis_gcc.h ****   uint32_t result;
1784:Drivers/CMSIS/Include/cmsis_gcc.h **** 
1785:Drivers/CMSIS/Include/cmsis_gcc.h ****   __ASM ("uhadd16 %0, %1, %2" : "=r" (result) : "r" (op1), "r" (op2) );
1786:Drivers/CMSIS/Include/cmsis_gcc.h ****   return(result);
1787:Drivers/CMSIS/Include/cmsis_gcc.h **** }
1788:Drivers/CMSIS/Include/cmsis_gcc.h **** 
1789:Drivers/CMSIS/Include/cmsis_gcc.h **** __STATIC_FORCEINLINE uint32_t __SSUB16(uint32_t op1, uint32_t op2)
ARM GAS  /var/folders/ck/g3dcd5x55xs4107jgdl0snvr0000gn/T//ccTk6Q0O.s 			page 40


1790:Drivers/CMSIS/Include/cmsis_gcc.h **** {
1791:Drivers/CMSIS/Include/cmsis_gcc.h ****   uint32_t result;
1792:Drivers/CMSIS/Include/cmsis_gcc.h **** 
1793:Drivers/CMSIS/Include/cmsis_gcc.h ****   __ASM volatile ("ssub16 %0, %1, %2" : "=r" (result) : "r" (op1), "r" (op2) );
1794:Drivers/CMSIS/Include/cmsis_gcc.h ****   return(result);
1795:Drivers/CMSIS/Include/cmsis_gcc.h **** }
1796:Drivers/CMSIS/Include/cmsis_gcc.h **** 
1797:Drivers/CMSIS/Include/cmsis_gcc.h **** __STATIC_FORCEINLINE uint32_t __QSUB16(uint32_t op1, uint32_t op2)
1798:Drivers/CMSIS/Include/cmsis_gcc.h **** {
1799:Drivers/CMSIS/Include/cmsis_gcc.h ****   uint32_t result;
1800:Drivers/CMSIS/Include/cmsis_gcc.h **** 
1801:Drivers/CMSIS/Include/cmsis_gcc.h ****   __ASM ("qsub16 %0, %1, %2" : "=r" (result) : "r" (op1), "r" (op2) );
1802:Drivers/CMSIS/Include/cmsis_gcc.h ****   return(result);
1803:Drivers/CMSIS/Include/cmsis_gcc.h **** }
1804:Drivers/CMSIS/Include/cmsis_gcc.h **** 
1805:Drivers/CMSIS/Include/cmsis_gcc.h **** __STATIC_FORCEINLINE uint32_t __SHSUB16(uint32_t op1, uint32_t op2)
1806:Drivers/CMSIS/Include/cmsis_gcc.h **** {
1807:Drivers/CMSIS/Include/cmsis_gcc.h ****   uint32_t result;
1808:Drivers/CMSIS/Include/cmsis_gcc.h **** 
1809:Drivers/CMSIS/Include/cmsis_gcc.h ****   __ASM ("shsub16 %0, %1, %2" : "=r" (result) : "r" (op1), "r" (op2) );
1810:Drivers/CMSIS/Include/cmsis_gcc.h ****   return(result);
1811:Drivers/CMSIS/Include/cmsis_gcc.h **** }
1812:Drivers/CMSIS/Include/cmsis_gcc.h **** 
1813:Drivers/CMSIS/Include/cmsis_gcc.h **** __STATIC_FORCEINLINE uint32_t __USUB16(uint32_t op1, uint32_t op2)
1814:Drivers/CMSIS/Include/cmsis_gcc.h **** {
1815:Drivers/CMSIS/Include/cmsis_gcc.h ****   uint32_t result;
1816:Drivers/CMSIS/Include/cmsis_gcc.h **** 
1817:Drivers/CMSIS/Include/cmsis_gcc.h ****   __ASM volatile ("usub16 %0, %1, %2" : "=r" (result) : "r" (op1), "r" (op2) );
1818:Drivers/CMSIS/Include/cmsis_gcc.h ****   return(result);
1819:Drivers/CMSIS/Include/cmsis_gcc.h **** }
1820:Drivers/CMSIS/Include/cmsis_gcc.h **** 
1821:Drivers/CMSIS/Include/cmsis_gcc.h **** __STATIC_FORCEINLINE uint32_t __UQSUB16(uint32_t op1, uint32_t op2)
1822:Drivers/CMSIS/Include/cmsis_gcc.h **** {
1823:Drivers/CMSIS/Include/cmsis_gcc.h ****   uint32_t result;
1824:Drivers/CMSIS/Include/cmsis_gcc.h **** 
1825:Drivers/CMSIS/Include/cmsis_gcc.h ****   __ASM ("uqsub16 %0, %1, %2" : "=r" (result) : "r" (op1), "r" (op2) );
1826:Drivers/CMSIS/Include/cmsis_gcc.h ****   return(result);
1827:Drivers/CMSIS/Include/cmsis_gcc.h **** }
1828:Drivers/CMSIS/Include/cmsis_gcc.h **** 
1829:Drivers/CMSIS/Include/cmsis_gcc.h **** __STATIC_FORCEINLINE uint32_t __UHSUB16(uint32_t op1, uint32_t op2)
1830:Drivers/CMSIS/Include/cmsis_gcc.h **** {
1831:Drivers/CMSIS/Include/cmsis_gcc.h ****   uint32_t result;
1832:Drivers/CMSIS/Include/cmsis_gcc.h **** 
1833:Drivers/CMSIS/Include/cmsis_gcc.h ****   __ASM ("uhsub16 %0, %1, %2" : "=r" (result) : "r" (op1), "r" (op2) );
1834:Drivers/CMSIS/Include/cmsis_gcc.h ****   return(result);
1835:Drivers/CMSIS/Include/cmsis_gcc.h **** }
1836:Drivers/CMSIS/Include/cmsis_gcc.h **** 
1837:Drivers/CMSIS/Include/cmsis_gcc.h **** __STATIC_FORCEINLINE uint32_t __SASX(uint32_t op1, uint32_t op2)
1838:Drivers/CMSIS/Include/cmsis_gcc.h **** {
1839:Drivers/CMSIS/Include/cmsis_gcc.h ****   uint32_t result;
1840:Drivers/CMSIS/Include/cmsis_gcc.h **** 
1841:Drivers/CMSIS/Include/cmsis_gcc.h ****   __ASM volatile ("sasx %0, %1, %2" : "=r" (result) : "r" (op1), "r" (op2) );
1842:Drivers/CMSIS/Include/cmsis_gcc.h ****   return(result);
1843:Drivers/CMSIS/Include/cmsis_gcc.h **** }
1844:Drivers/CMSIS/Include/cmsis_gcc.h **** 
1845:Drivers/CMSIS/Include/cmsis_gcc.h **** __STATIC_FORCEINLINE uint32_t __QASX(uint32_t op1, uint32_t op2)
1846:Drivers/CMSIS/Include/cmsis_gcc.h **** {
ARM GAS  /var/folders/ck/g3dcd5x55xs4107jgdl0snvr0000gn/T//ccTk6Q0O.s 			page 41


1847:Drivers/CMSIS/Include/cmsis_gcc.h ****   uint32_t result;
1848:Drivers/CMSIS/Include/cmsis_gcc.h **** 
1849:Drivers/CMSIS/Include/cmsis_gcc.h ****   __ASM ("qasx %0, %1, %2" : "=r" (result) : "r" (op1), "r" (op2) );
1850:Drivers/CMSIS/Include/cmsis_gcc.h ****   return(result);
1851:Drivers/CMSIS/Include/cmsis_gcc.h **** }
1852:Drivers/CMSIS/Include/cmsis_gcc.h **** 
1853:Drivers/CMSIS/Include/cmsis_gcc.h **** __STATIC_FORCEINLINE uint32_t __SHASX(uint32_t op1, uint32_t op2)
1854:Drivers/CMSIS/Include/cmsis_gcc.h **** {
1855:Drivers/CMSIS/Include/cmsis_gcc.h ****   uint32_t result;
1856:Drivers/CMSIS/Include/cmsis_gcc.h **** 
1857:Drivers/CMSIS/Include/cmsis_gcc.h ****   __ASM ("shasx %0, %1, %2" : "=r" (result) : "r" (op1), "r" (op2) );
1858:Drivers/CMSIS/Include/cmsis_gcc.h ****   return(result);
1859:Drivers/CMSIS/Include/cmsis_gcc.h **** }
1860:Drivers/CMSIS/Include/cmsis_gcc.h **** 
1861:Drivers/CMSIS/Include/cmsis_gcc.h **** __STATIC_FORCEINLINE uint32_t __UASX(uint32_t op1, uint32_t op2)
1862:Drivers/CMSIS/Include/cmsis_gcc.h **** {
1863:Drivers/CMSIS/Include/cmsis_gcc.h ****   uint32_t result;
1864:Drivers/CMSIS/Include/cmsis_gcc.h **** 
1865:Drivers/CMSIS/Include/cmsis_gcc.h ****   __ASM volatile ("uasx %0, %1, %2" : "=r" (result) : "r" (op1), "r" (op2) );
1866:Drivers/CMSIS/Include/cmsis_gcc.h ****   return(result);
1867:Drivers/CMSIS/Include/cmsis_gcc.h **** }
1868:Drivers/CMSIS/Include/cmsis_gcc.h **** 
1869:Drivers/CMSIS/Include/cmsis_gcc.h **** __STATIC_FORCEINLINE uint32_t __UQASX(uint32_t op1, uint32_t op2)
1870:Drivers/CMSIS/Include/cmsis_gcc.h **** {
1871:Drivers/CMSIS/Include/cmsis_gcc.h ****   uint32_t result;
1872:Drivers/CMSIS/Include/cmsis_gcc.h **** 
1873:Drivers/CMSIS/Include/cmsis_gcc.h ****   __ASM ("uqasx %0, %1, %2" : "=r" (result) : "r" (op1), "r" (op2) );
1874:Drivers/CMSIS/Include/cmsis_gcc.h ****   return(result);
1875:Drivers/CMSIS/Include/cmsis_gcc.h **** }
1876:Drivers/CMSIS/Include/cmsis_gcc.h **** 
1877:Drivers/CMSIS/Include/cmsis_gcc.h **** __STATIC_FORCEINLINE uint32_t __UHASX(uint32_t op1, uint32_t op2)
1878:Drivers/CMSIS/Include/cmsis_gcc.h **** {
1879:Drivers/CMSIS/Include/cmsis_gcc.h ****   uint32_t result;
1880:Drivers/CMSIS/Include/cmsis_gcc.h **** 
1881:Drivers/CMSIS/Include/cmsis_gcc.h ****   __ASM ("uhasx %0, %1, %2" : "=r" (result) : "r" (op1), "r" (op2) );
1882:Drivers/CMSIS/Include/cmsis_gcc.h ****   return(result);
1883:Drivers/CMSIS/Include/cmsis_gcc.h **** }
1884:Drivers/CMSIS/Include/cmsis_gcc.h **** 
1885:Drivers/CMSIS/Include/cmsis_gcc.h **** __STATIC_FORCEINLINE uint32_t __SSAX(uint32_t op1, uint32_t op2)
1886:Drivers/CMSIS/Include/cmsis_gcc.h **** {
1887:Drivers/CMSIS/Include/cmsis_gcc.h ****   uint32_t result;
1888:Drivers/CMSIS/Include/cmsis_gcc.h **** 
1889:Drivers/CMSIS/Include/cmsis_gcc.h ****   __ASM volatile ("ssax %0, %1, %2" : "=r" (result) : "r" (op1), "r" (op2) );
1890:Drivers/CMSIS/Include/cmsis_gcc.h ****   return(result);
1891:Drivers/CMSIS/Include/cmsis_gcc.h **** }
1892:Drivers/CMSIS/Include/cmsis_gcc.h **** 
1893:Drivers/CMSIS/Include/cmsis_gcc.h **** __STATIC_FORCEINLINE uint32_t __QSAX(uint32_t op1, uint32_t op2)
1894:Drivers/CMSIS/Include/cmsis_gcc.h **** {
1895:Drivers/CMSIS/Include/cmsis_gcc.h ****   uint32_t result;
1896:Drivers/CMSIS/Include/cmsis_gcc.h **** 
1897:Drivers/CMSIS/Include/cmsis_gcc.h ****   __ASM ("qsax %0, %1, %2" : "=r" (result) : "r" (op1), "r" (op2) );
1898:Drivers/CMSIS/Include/cmsis_gcc.h ****   return(result);
1899:Drivers/CMSIS/Include/cmsis_gcc.h **** }
1900:Drivers/CMSIS/Include/cmsis_gcc.h **** 
1901:Drivers/CMSIS/Include/cmsis_gcc.h **** __STATIC_FORCEINLINE uint32_t __SHSAX(uint32_t op1, uint32_t op2)
1902:Drivers/CMSIS/Include/cmsis_gcc.h **** {
1903:Drivers/CMSIS/Include/cmsis_gcc.h ****   uint32_t result;
ARM GAS  /var/folders/ck/g3dcd5x55xs4107jgdl0snvr0000gn/T//ccTk6Q0O.s 			page 42


1904:Drivers/CMSIS/Include/cmsis_gcc.h **** 
1905:Drivers/CMSIS/Include/cmsis_gcc.h ****   __ASM ("shsax %0, %1, %2" : "=r" (result) : "r" (op1), "r" (op2) );
1906:Drivers/CMSIS/Include/cmsis_gcc.h ****   return(result);
1907:Drivers/CMSIS/Include/cmsis_gcc.h **** }
1908:Drivers/CMSIS/Include/cmsis_gcc.h **** 
1909:Drivers/CMSIS/Include/cmsis_gcc.h **** __STATIC_FORCEINLINE uint32_t __USAX(uint32_t op1, uint32_t op2)
1910:Drivers/CMSIS/Include/cmsis_gcc.h **** {
1911:Drivers/CMSIS/Include/cmsis_gcc.h ****   uint32_t result;
1912:Drivers/CMSIS/Include/cmsis_gcc.h **** 
1913:Drivers/CMSIS/Include/cmsis_gcc.h ****   __ASM volatile ("usax %0, %1, %2" : "=r" (result) : "r" (op1), "r" (op2) );
1914:Drivers/CMSIS/Include/cmsis_gcc.h ****   return(result);
1915:Drivers/CMSIS/Include/cmsis_gcc.h **** }
1916:Drivers/CMSIS/Include/cmsis_gcc.h **** 
1917:Drivers/CMSIS/Include/cmsis_gcc.h **** __STATIC_FORCEINLINE uint32_t __UQSAX(uint32_t op1, uint32_t op2)
1918:Drivers/CMSIS/Include/cmsis_gcc.h **** {
1919:Drivers/CMSIS/Include/cmsis_gcc.h ****   uint32_t result;
1920:Drivers/CMSIS/Include/cmsis_gcc.h **** 
1921:Drivers/CMSIS/Include/cmsis_gcc.h ****   __ASM ("uqsax %0, %1, %2" : "=r" (result) : "r" (op1), "r" (op2) );
1922:Drivers/CMSIS/Include/cmsis_gcc.h ****   return(result);
1923:Drivers/CMSIS/Include/cmsis_gcc.h **** }
1924:Drivers/CMSIS/Include/cmsis_gcc.h **** 
1925:Drivers/CMSIS/Include/cmsis_gcc.h **** __STATIC_FORCEINLINE uint32_t __UHSAX(uint32_t op1, uint32_t op2)
1926:Drivers/CMSIS/Include/cmsis_gcc.h **** {
1927:Drivers/CMSIS/Include/cmsis_gcc.h ****   uint32_t result;
1928:Drivers/CMSIS/Include/cmsis_gcc.h **** 
1929:Drivers/CMSIS/Include/cmsis_gcc.h ****   __ASM ("uhsax %0, %1, %2" : "=r" (result) : "r" (op1), "r" (op2) );
1930:Drivers/CMSIS/Include/cmsis_gcc.h ****   return(result);
1931:Drivers/CMSIS/Include/cmsis_gcc.h **** }
1932:Drivers/CMSIS/Include/cmsis_gcc.h **** 
1933:Drivers/CMSIS/Include/cmsis_gcc.h **** __STATIC_FORCEINLINE uint32_t __USAD8(uint32_t op1, uint32_t op2)
1934:Drivers/CMSIS/Include/cmsis_gcc.h **** {
1935:Drivers/CMSIS/Include/cmsis_gcc.h ****   uint32_t result;
1936:Drivers/CMSIS/Include/cmsis_gcc.h **** 
1937:Drivers/CMSIS/Include/cmsis_gcc.h ****   __ASM ("usad8 %0, %1, %2" : "=r" (result) : "r" (op1), "r" (op2) );
1938:Drivers/CMSIS/Include/cmsis_gcc.h ****   return(result);
1939:Drivers/CMSIS/Include/cmsis_gcc.h **** }
1940:Drivers/CMSIS/Include/cmsis_gcc.h **** 
1941:Drivers/CMSIS/Include/cmsis_gcc.h **** __STATIC_FORCEINLINE uint32_t __USADA8(uint32_t op1, uint32_t op2, uint32_t op3)
1942:Drivers/CMSIS/Include/cmsis_gcc.h **** {
1943:Drivers/CMSIS/Include/cmsis_gcc.h ****   uint32_t result;
1944:Drivers/CMSIS/Include/cmsis_gcc.h **** 
1945:Drivers/CMSIS/Include/cmsis_gcc.h ****   __ASM ("usada8 %0, %1, %2, %3" : "=r" (result) : "r" (op1), "r" (op2), "r" (op3) );
1946:Drivers/CMSIS/Include/cmsis_gcc.h ****   return(result);
1947:Drivers/CMSIS/Include/cmsis_gcc.h **** }
1948:Drivers/CMSIS/Include/cmsis_gcc.h **** 
1949:Drivers/CMSIS/Include/cmsis_gcc.h **** #define __SSAT16(ARG1, ARG2) \
1950:Drivers/CMSIS/Include/cmsis_gcc.h **** __extension__ \
1951:Drivers/CMSIS/Include/cmsis_gcc.h **** ({                          \
1952:Drivers/CMSIS/Include/cmsis_gcc.h ****   int32_t __RES, __ARG1 = (ARG1); \
1953:Drivers/CMSIS/Include/cmsis_gcc.h ****   __ASM volatile ("ssat16 %0, %1, %2" : "=r" (__RES) :  "I" (ARG2), "r" (__ARG1) : "cc" ); \
1954:Drivers/CMSIS/Include/cmsis_gcc.h ****   __RES; \
1955:Drivers/CMSIS/Include/cmsis_gcc.h ****  })
1956:Drivers/CMSIS/Include/cmsis_gcc.h **** 
1957:Drivers/CMSIS/Include/cmsis_gcc.h **** #define __USAT16(ARG1, ARG2) \
1958:Drivers/CMSIS/Include/cmsis_gcc.h **** __extension__ \
1959:Drivers/CMSIS/Include/cmsis_gcc.h **** ({                          \
1960:Drivers/CMSIS/Include/cmsis_gcc.h ****   uint32_t __RES, __ARG1 = (ARG1); \
ARM GAS  /var/folders/ck/g3dcd5x55xs4107jgdl0snvr0000gn/T//ccTk6Q0O.s 			page 43


1961:Drivers/CMSIS/Include/cmsis_gcc.h ****   __ASM volatile ("usat16 %0, %1, %2" : "=r" (__RES) :  "I" (ARG2), "r" (__ARG1) : "cc" ); \
1962:Drivers/CMSIS/Include/cmsis_gcc.h ****   __RES; \
1963:Drivers/CMSIS/Include/cmsis_gcc.h ****  })
1964:Drivers/CMSIS/Include/cmsis_gcc.h **** 
1965:Drivers/CMSIS/Include/cmsis_gcc.h **** __STATIC_FORCEINLINE uint32_t __UXTB16(uint32_t op1)
1966:Drivers/CMSIS/Include/cmsis_gcc.h **** {
1967:Drivers/CMSIS/Include/cmsis_gcc.h ****   uint32_t result;
1968:Drivers/CMSIS/Include/cmsis_gcc.h **** 
1969:Drivers/CMSIS/Include/cmsis_gcc.h ****   __ASM ("uxtb16 %0, %1" : "=r" (result) : "r" (op1));
1970:Drivers/CMSIS/Include/cmsis_gcc.h ****   return(result);
1971:Drivers/CMSIS/Include/cmsis_gcc.h **** }
1972:Drivers/CMSIS/Include/cmsis_gcc.h **** 
1973:Drivers/CMSIS/Include/cmsis_gcc.h **** __STATIC_FORCEINLINE uint32_t __UXTAB16(uint32_t op1, uint32_t op2)
1974:Drivers/CMSIS/Include/cmsis_gcc.h **** {
1975:Drivers/CMSIS/Include/cmsis_gcc.h ****   uint32_t result;
1976:Drivers/CMSIS/Include/cmsis_gcc.h **** 
1977:Drivers/CMSIS/Include/cmsis_gcc.h ****   __ASM ("uxtab16 %0, %1, %2" : "=r" (result) : "r" (op1), "r" (op2) );
1978:Drivers/CMSIS/Include/cmsis_gcc.h ****   return(result);
1979:Drivers/CMSIS/Include/cmsis_gcc.h **** }
1980:Drivers/CMSIS/Include/cmsis_gcc.h **** 
1981:Drivers/CMSIS/Include/cmsis_gcc.h **** __STATIC_FORCEINLINE uint32_t __SXTB16(uint32_t op1)
1982:Drivers/CMSIS/Include/cmsis_gcc.h **** {
1983:Drivers/CMSIS/Include/cmsis_gcc.h ****   uint32_t result;
1984:Drivers/CMSIS/Include/cmsis_gcc.h **** 
1985:Drivers/CMSIS/Include/cmsis_gcc.h ****   __ASM ("sxtb16 %0, %1" : "=r" (result) : "r" (op1));
1986:Drivers/CMSIS/Include/cmsis_gcc.h ****   return(result);
1987:Drivers/CMSIS/Include/cmsis_gcc.h **** }
1988:Drivers/CMSIS/Include/cmsis_gcc.h **** 
1989:Drivers/CMSIS/Include/cmsis_gcc.h **** __STATIC_FORCEINLINE uint32_t __SXTB16_RORn(uint32_t op1, uint32_t rotate)
1990:Drivers/CMSIS/Include/cmsis_gcc.h **** {
1991:Drivers/CMSIS/Include/cmsis_gcc.h ****   uint32_t result;
1992:Drivers/CMSIS/Include/cmsis_gcc.h ****   if (__builtin_constant_p(rotate) && ((rotate == 8U) || (rotate == 16U) || (rotate == 24U))) {
1993:Drivers/CMSIS/Include/cmsis_gcc.h ****     __ASM volatile ("sxtb16 %0, %1, ROR %2" : "=r" (result) : "r" (op1), "i" (rotate) );
1994:Drivers/CMSIS/Include/cmsis_gcc.h ****   } else {
1995:Drivers/CMSIS/Include/cmsis_gcc.h ****     result = __SXTB16(__ROR(op1, rotate)) ;
1996:Drivers/CMSIS/Include/cmsis_gcc.h ****   }
1997:Drivers/CMSIS/Include/cmsis_gcc.h ****   return result;
1998:Drivers/CMSIS/Include/cmsis_gcc.h **** }
1999:Drivers/CMSIS/Include/cmsis_gcc.h **** 
2000:Drivers/CMSIS/Include/cmsis_gcc.h **** __STATIC_FORCEINLINE uint32_t __SXTAB16(uint32_t op1, uint32_t op2)
2001:Drivers/CMSIS/Include/cmsis_gcc.h **** {
2002:Drivers/CMSIS/Include/cmsis_gcc.h ****   uint32_t result;
2003:Drivers/CMSIS/Include/cmsis_gcc.h **** 
2004:Drivers/CMSIS/Include/cmsis_gcc.h ****   __ASM ("sxtab16 %0, %1, %2" : "=r" (result) : "r" (op1), "r" (op2) );
2005:Drivers/CMSIS/Include/cmsis_gcc.h ****   return(result);
2006:Drivers/CMSIS/Include/cmsis_gcc.h **** }
2007:Drivers/CMSIS/Include/cmsis_gcc.h **** 
2008:Drivers/CMSIS/Include/cmsis_gcc.h **** __STATIC_FORCEINLINE uint32_t __SXTAB16_RORn(uint32_t op1, uint32_t op2, uint32_t rotate)
2009:Drivers/CMSIS/Include/cmsis_gcc.h **** {
2010:Drivers/CMSIS/Include/cmsis_gcc.h ****   uint32_t result;
2011:Drivers/CMSIS/Include/cmsis_gcc.h ****   if (__builtin_constant_p(rotate) && ((rotate == 8U) || (rotate == 16U) || (rotate == 24U))) {
2012:Drivers/CMSIS/Include/cmsis_gcc.h ****     __ASM volatile ("sxtab16 %0, %1, %2, ROR %3" : "=r" (result) : "r" (op1) , "r" (op2) , "i" (rot
2013:Drivers/CMSIS/Include/cmsis_gcc.h ****   } else {
2014:Drivers/CMSIS/Include/cmsis_gcc.h ****     result = __SXTAB16(op1, __ROR(op2, rotate));
2015:Drivers/CMSIS/Include/cmsis_gcc.h ****   }
2016:Drivers/CMSIS/Include/cmsis_gcc.h ****   return result;
2017:Drivers/CMSIS/Include/cmsis_gcc.h **** }
ARM GAS  /var/folders/ck/g3dcd5x55xs4107jgdl0snvr0000gn/T//ccTk6Q0O.s 			page 44


2018:Drivers/CMSIS/Include/cmsis_gcc.h **** 
2019:Drivers/CMSIS/Include/cmsis_gcc.h **** 
2020:Drivers/CMSIS/Include/cmsis_gcc.h **** __STATIC_FORCEINLINE uint32_t __SMUAD  (uint32_t op1, uint32_t op2)
2021:Drivers/CMSIS/Include/cmsis_gcc.h **** {
2022:Drivers/CMSIS/Include/cmsis_gcc.h ****   uint32_t result;
2023:Drivers/CMSIS/Include/cmsis_gcc.h **** 
2024:Drivers/CMSIS/Include/cmsis_gcc.h ****   __ASM volatile ("smuad %0, %1, %2" : "=r" (result) : "r" (op1), "r" (op2) );
2025:Drivers/CMSIS/Include/cmsis_gcc.h ****   return(result);
2026:Drivers/CMSIS/Include/cmsis_gcc.h **** }
2027:Drivers/CMSIS/Include/cmsis_gcc.h **** 
2028:Drivers/CMSIS/Include/cmsis_gcc.h **** __STATIC_FORCEINLINE uint32_t __SMUADX (uint32_t op1, uint32_t op2)
2029:Drivers/CMSIS/Include/cmsis_gcc.h **** {
2030:Drivers/CMSIS/Include/cmsis_gcc.h ****   uint32_t result;
2031:Drivers/CMSIS/Include/cmsis_gcc.h **** 
2032:Drivers/CMSIS/Include/cmsis_gcc.h ****   __ASM volatile ("smuadx %0, %1, %2" : "=r" (result) : "r" (op1), "r" (op2) );
2033:Drivers/CMSIS/Include/cmsis_gcc.h ****   return(result);
2034:Drivers/CMSIS/Include/cmsis_gcc.h **** }
2035:Drivers/CMSIS/Include/cmsis_gcc.h **** 
2036:Drivers/CMSIS/Include/cmsis_gcc.h **** __STATIC_FORCEINLINE uint32_t __SMLAD (uint32_t op1, uint32_t op2, uint32_t op3)
 204              		.loc 2 2036 31 view .LVU77
 205              	.LBB39:
2037:Drivers/CMSIS/Include/cmsis_gcc.h **** {
2038:Drivers/CMSIS/Include/cmsis_gcc.h ****   uint32_t result;
 206              		.loc 2 2038 3 view .LVU78
2039:Drivers/CMSIS/Include/cmsis_gcc.h **** 
2040:Drivers/CMSIS/Include/cmsis_gcc.h ****   __ASM volatile ("smlad %0, %1, %2, %3" : "=r" (result) : "r" (op1), "r" (op2), "r" (op3) );
 207              		.loc 2 2040 3 view .LVU79
 208              		.syntax unified
 209              	@ 2040 "Drivers/CMSIS/Include/cmsis_gcc.h" 1
 210 007c 20FB0610 		smlad r0, r0, r6, r1
 211              	@ 0 "" 2
 212              	.LVL30:
2041:Drivers/CMSIS/Include/cmsis_gcc.h ****   return(result);
 213              		.loc 2 2041 3 view .LVU80
 214              		.loc 2 2041 3 is_stmt 0 view .LVU81
 215              		.thumb
 216              		.syntax unified
 217              	.LBE39:
 218              	.LBE38:
 211:DSP/Source/FilteringFunctions/arm_correlate_q7.c **** 
 212:DSP/Source/FilteringFunctions/arm_correlate_q7.c ****       /* x[2] , x[3] */
 213:DSP/Source/FilteringFunctions/arm_correlate_q7.c ****       in1 = (q15_t) * px++;
 219              		.loc 1 213 7 is_stmt 1 view .LVU82
 220              		.loc 1 213 21 is_stmt 0 view .LVU83
 221 0080 93F90210 		ldrsb	r1, [r3, #2]
 222              	.LVL31:
 214:DSP/Source/FilteringFunctions/arm_correlate_q7.c ****       in2 = (q15_t) * px++;
 223              		.loc 1 214 7 is_stmt 1 view .LVU84
 224              		.loc 1 214 25 is_stmt 0 view .LVU85
 225 0084 1E1D     		adds	r6, r3, #4
 226              	.LVL32:
 227              		.loc 1 214 21 view .LVU86
 228 0086 93F90330 		ldrsb	r3, [r3, #3]
 229              	.LVL33:
 215:DSP/Source/FilteringFunctions/arm_correlate_q7.c ****       input1 = ((q31_t) in1 & 0x0000FFFF) | ((q31_t) in2 << 16);
 230              		.loc 1 215 7 is_stmt 1 view .LVU87
 231              		.loc 1 215 29 is_stmt 0 view .LVU88
ARM GAS  /var/folders/ck/g3dcd5x55xs4107jgdl0snvr0000gn/T//ccTk6Q0O.s 			page 45


 232 008a 89B2     		uxth	r1, r1
 233              		.loc 1 215 14 view .LVU89
 234 008c 41EA0341 		orr	r1, r1, r3, lsl #16
 235              	.LVL34:
 216:DSP/Source/FilteringFunctions/arm_correlate_q7.c **** 
 217:DSP/Source/FilteringFunctions/arm_correlate_q7.c ****       /* y[srcBLen - 2] , y[srcBLen - 1] */
 218:DSP/Source/FilteringFunctions/arm_correlate_q7.c ****       in1 = (q15_t) * py++;
 236              		.loc 1 218 7 is_stmt 1 view .LVU90
 237              		.loc 1 218 21 is_stmt 0 view .LVU91
 238 0090 94F90280 		ldrsb	r8, [r4, #2]
 239              	.LVL35:
 219:DSP/Source/FilteringFunctions/arm_correlate_q7.c ****       in2 = (q15_t) * py++;
 240              		.loc 1 219 7 is_stmt 1 view .LVU92
 241              		.loc 1 219 25 is_stmt 0 view .LVU93
 242 0094 231D     		adds	r3, r4, #4
 243              	.LVL36:
 244              		.loc 1 219 21 view .LVU94
 245 0096 94F90340 		ldrsb	r4, [r4, #3]
 246              	.LVL37:
 220:DSP/Source/FilteringFunctions/arm_correlate_q7.c ****       input2 = ((q31_t) in1 & 0x0000FFFF) | ((q31_t) in2 << 16);
 247              		.loc 1 220 7 is_stmt 1 view .LVU95
 248              		.loc 1 220 29 is_stmt 0 view .LVU96
 249 009a 1FFA88F8 		uxth	r8, r8
 250              		.loc 1 220 14 view .LVU97
 251 009e 48EA0448 		orr	r8, r8, r4, lsl #16
 252              	.LVL38:
 221:DSP/Source/FilteringFunctions/arm_correlate_q7.c **** 
 222:DSP/Source/FilteringFunctions/arm_correlate_q7.c ****       /* x[2] * y[srcBLen - 2] */
 223:DSP/Source/FilteringFunctions/arm_correlate_q7.c ****       /* x[3] * y[srcBLen - 1] */
 224:DSP/Source/FilteringFunctions/arm_correlate_q7.c ****       sum = __SMLAD(input1, input2, sum);
 253              		.loc 1 224 7 is_stmt 1 view .LVU98
 254              	.LBB40:
 255              	.LBI40:
2036:Drivers/CMSIS/Include/cmsis_gcc.h **** {
 256              		.loc 2 2036 31 view .LVU99
 257              	.LBB41:
2038:Drivers/CMSIS/Include/cmsis_gcc.h **** 
 258              		.loc 2 2038 3 view .LVU100
2040:Drivers/CMSIS/Include/cmsis_gcc.h ****   return(result);
 259              		.loc 2 2040 3 view .LVU101
 260              		.syntax unified
 261              	@ 2040 "Drivers/CMSIS/Include/cmsis_gcc.h" 1
 262 00a2 21FB0801 		smlad r1, r1, r8, r0
 263              	@ 0 "" 2
 264              	.LVL39:
 265              		.loc 2 2041 3 view .LVU102
 266              		.loc 2 2041 3 is_stmt 0 view .LVU103
 267              		.thumb
 268              		.syntax unified
 269              	.LBE41:
 270              	.LBE40:
 225:DSP/Source/FilteringFunctions/arm_correlate_q7.c **** 
 226:DSP/Source/FilteringFunctions/arm_correlate_q7.c **** 
 227:DSP/Source/FilteringFunctions/arm_correlate_q7.c ****       /* Decrement the loop counter */
 228:DSP/Source/FilteringFunctions/arm_correlate_q7.c ****       k--;
 271              		.loc 1 228 7 is_stmt 1 view .LVU104
 272              		.loc 1 228 8 is_stmt 0 view .LVU105
ARM GAS  /var/folders/ck/g3dcd5x55xs4107jgdl0snvr0000gn/T//ccTk6Q0O.s 			page 46


 273 00a6 013D     		subs	r5, r5, #1
 274              	.LVL40:
 219:DSP/Source/FilteringFunctions/arm_correlate_q7.c ****       input2 = ((q31_t) in1 & 0x0000FFFF) | ((q31_t) in2 << 16);
 275              		.loc 1 219 25 view .LVU106
 276 00a8 1C46     		mov	r4, r3
 277              	.LVL41:
 214:DSP/Source/FilteringFunctions/arm_correlate_q7.c ****       input1 = ((q31_t) in1 & 0x0000FFFF) | ((q31_t) in2 << 16);
 278              		.loc 1 214 25 view .LVU107
 279 00aa 3346     		mov	r3, r6
 280              	.LVL42:
 281              	.L5:
 196:DSP/Source/FilteringFunctions/arm_correlate_q7.c ****     {
 282              		.loc 1 196 14 is_stmt 1 view .LVU108
 283 00ac 002D     		cmp	r5, #0
 284 00ae D7D1     		bne	.L6
 229:DSP/Source/FilteringFunctions/arm_correlate_q7.c ****     }
 230:DSP/Source/FilteringFunctions/arm_correlate_q7.c **** 
 231:DSP/Source/FilteringFunctions/arm_correlate_q7.c ****     /* If the count is not a multiple of 4, compute any remaining MACs here.
 232:DSP/Source/FilteringFunctions/arm_correlate_q7.c ****      ** No loop unrolling is used. */
 233:DSP/Source/FilteringFunctions/arm_correlate_q7.c ****     k = count % 0x4U;
 285              		.loc 1 233 7 is_stmt 0 view .LVU109
 286 00b0 DDF80C80 		ldr	r8, [sp, #12]
 287              		.loc 1 233 5 is_stmt 1 view .LVU110
 288              		.loc 1 233 7 is_stmt 0 view .LVU111
 289 00b4 0EF00300 		and	r0, lr, #3
 290              	.LVL43:
 234:DSP/Source/FilteringFunctions/arm_correlate_q7.c **** 
 235:DSP/Source/FilteringFunctions/arm_correlate_q7.c ****     while (k > 0U)
 291              		.loc 1 235 5 is_stmt 1 view .LVU112
 292              		.loc 1 235 11 is_stmt 0 view .LVU113
 293 00b8 06E0     		b	.L7
 294              	.L8:
 236:DSP/Source/FilteringFunctions/arm_correlate_q7.c ****     {
 237:DSP/Source/FilteringFunctions/arm_correlate_q7.c ****       /* Perform the multiply-accumulates */
 238:DSP/Source/FilteringFunctions/arm_correlate_q7.c ****       /* x[0] * y[srcBLen - 1] */
 239:DSP/Source/FilteringFunctions/arm_correlate_q7.c ****       sum += (q31_t) ((q15_t) * px++ * *py++);
 295              		.loc 1 239 7 is_stmt 1 view .LVU114
 296              	.LVL44:
 297              		.loc 1 239 31 is_stmt 0 view .LVU115
 298 00ba 13F9015B 		ldrsb	r5, [r3], #1
 299              	.LVL45:
 300              		.loc 1 239 40 view .LVU116
 301 00be 14F9016B 		ldrsb	r6, [r4], #1
 302              	.LVL46:
 303              		.loc 1 239 11 view .LVU117
 304 00c2 06FB0511 		mla	r1, r6, r5, r1
 305              	.LVL47:
 240:DSP/Source/FilteringFunctions/arm_correlate_q7.c **** 
 241:DSP/Source/FilteringFunctions/arm_correlate_q7.c ****       /* Decrement the loop counter */
 242:DSP/Source/FilteringFunctions/arm_correlate_q7.c ****       k--;
 306              		.loc 1 242 7 is_stmt 1 view .LVU118
 307              		.loc 1 242 8 is_stmt 0 view .LVU119
 308 00c6 0138     		subs	r0, r0, #1
 309              	.LVL48:
 310              	.L7:
 235:DSP/Source/FilteringFunctions/arm_correlate_q7.c ****     {
 311              		.loc 1 235 14 is_stmt 1 view .LVU120
ARM GAS  /var/folders/ck/g3dcd5x55xs4107jgdl0snvr0000gn/T//ccTk6Q0O.s 			page 47


 312 00c8 0028     		cmp	r0, #0
 313 00ca F6D1     		bne	.L8
 243:DSP/Source/FilteringFunctions/arm_correlate_q7.c ****     }
 244:DSP/Source/FilteringFunctions/arm_correlate_q7.c **** 
 245:DSP/Source/FilteringFunctions/arm_correlate_q7.c ****     /* Store the result in the accumulator in the destination buffer. */
 246:DSP/Source/FilteringFunctions/arm_correlate_q7.c ****     *pOut = (q7_t) (__SSAT(sum >> 7, 8));
 314              		.loc 1 246 5 view .LVU121
 315              	.LBB42:
 316              		.loc 1 246 21 view .LVU122
 317 00cc C911     		asrs	r1, r1, #7
 318              	.LVL49:
 319              		.loc 1 246 21 view .LVU123
 320              		.syntax unified
 321              	@ 246 "DSP/Source/FilteringFunctions/arm_correlate_q7.c" 1
 322 00ce 01F30701 		ssat r1, #8, r1
 323              	@ 0 "" 2
 324              	.LVL50:
 325              		.loc 1 246 21 view .LVU124
 326              		.thumb
 327              		.syntax unified
 328              	.LBE42:
 329              		.loc 1 246 11 is_stmt 0 view .LVU125
 330 00d2 88F80010 		strb	r1, [r8]
 247:DSP/Source/FilteringFunctions/arm_correlate_q7.c ****     /* Destination pointer is updated according to the address modifier, inc */
 248:DSP/Source/FilteringFunctions/arm_correlate_q7.c ****     pOut += inc;
 331              		.loc 1 248 5 is_stmt 1 view .LVU126
 332              		.loc 1 248 10 is_stmt 0 view .LVU127
 333 00d6 B844     		add	r8, r8, r7
 334              	.LVL51:
 249:DSP/Source/FilteringFunctions/arm_correlate_q7.c **** 
 250:DSP/Source/FilteringFunctions/arm_correlate_q7.c ****     /* Update the inputA and inputB pointers for next MAC calculation */
 251:DSP/Source/FilteringFunctions/arm_correlate_q7.c ****     py = pSrc1 - count;
 335              		.loc 1 251 5 is_stmt 1 view .LVU128
 336              		.loc 1 251 8 is_stmt 0 view .LVU129
 337 00d8 A9EB0E04 		sub	r4, r9, lr
 338              	.LVL52:
 252:DSP/Source/FilteringFunctions/arm_correlate_q7.c ****     px = pIn1;
 339              		.loc 1 252 5 is_stmt 1 view .LVU130
 253:DSP/Source/FilteringFunctions/arm_correlate_q7.c **** 
 254:DSP/Source/FilteringFunctions/arm_correlate_q7.c ****     /* Increment the MAC count */
 255:DSP/Source/FilteringFunctions/arm_correlate_q7.c ****     count++;
 340              		.loc 1 255 5 view .LVU131
 341              		.loc 1 255 10 is_stmt 0 view .LVU132
 342 00dc 0EF1010E 		add	lr, lr, #1
 343              	.LVL53:
 256:DSP/Source/FilteringFunctions/arm_correlate_q7.c **** 
 257:DSP/Source/FilteringFunctions/arm_correlate_q7.c ****     /* Decrement the loop counter */
 258:DSP/Source/FilteringFunctions/arm_correlate_q7.c ****     blockSize1--;
 344              		.loc 1 258 5 is_stmt 1 view .LVU133
 345              		.loc 1 258 15 is_stmt 0 view .LVU134
 346 00e0 013A     		subs	r2, r2, #1
 347              	.LVL54:
 348              	.L4:
 186:DSP/Source/FilteringFunctions/arm_correlate_q7.c ****   {
 349              		.loc 1 186 21 is_stmt 1 view .LVU135
 350 00e2 32B1     		cbz	r2, .L34
 189:DSP/Source/FilteringFunctions/arm_correlate_q7.c **** 
ARM GAS  /var/folders/ck/g3dcd5x55xs4107jgdl0snvr0000gn/T//ccTk6Q0O.s 			page 48


 351              		.loc 1 189 5 view .LVU136
 352              	.LVL55:
 192:DSP/Source/FilteringFunctions/arm_correlate_q7.c **** 
 353              		.loc 1 192 5 view .LVU137
 192:DSP/Source/FilteringFunctions/arm_correlate_q7.c **** 
 354              		.loc 1 192 7 is_stmt 0 view .LVU138
 355 00e4 4FEA9E05 		lsr	r5, lr, #2
 356              	.LVL56:
 196:DSP/Source/FilteringFunctions/arm_correlate_q7.c ****     {
 357              		.loc 1 196 5 is_stmt 1 view .LVU139
 196:DSP/Source/FilteringFunctions/arm_correlate_q7.c ****     {
 358              		.loc 1 196 11 is_stmt 0 view .LVU140
 359 00e8 029B     		ldr	r3, [sp, #8]
 189:DSP/Source/FilteringFunctions/arm_correlate_q7.c **** 
 360              		.loc 1 189 9 view .LVU141
 361 00ea 0021     		movs	r1, #0
 362 00ec CDF80C80 		str	r8, [sp, #12]
 196:DSP/Source/FilteringFunctions/arm_correlate_q7.c ****     {
 363              		.loc 1 196 11 view .LVU142
 364 00f0 DCE7     		b	.L5
 365              	.LVL57:
 366              	.L34:
 259:DSP/Source/FilteringFunctions/arm_correlate_q7.c ****   }
 260:DSP/Source/FilteringFunctions/arm_correlate_q7.c **** 
 261:DSP/Source/FilteringFunctions/arm_correlate_q7.c ****   /* --------------------------
 262:DSP/Source/FilteringFunctions/arm_correlate_q7.c ****    * Initializations of stage2
 263:DSP/Source/FilteringFunctions/arm_correlate_q7.c ****    * ------------------------*/
 264:DSP/Source/FilteringFunctions/arm_correlate_q7.c **** 
 265:DSP/Source/FilteringFunctions/arm_correlate_q7.c ****   /* sum = x[0] * y[0] + x[1] * y[1] +...+ x[srcBLen-1] * y[srcBLen-1]
 266:DSP/Source/FilteringFunctions/arm_correlate_q7.c ****    * sum = x[1] * y[0] + x[2] * y[1] +...+ x[srcBLen] * y[srcBLen-1]
 267:DSP/Source/FilteringFunctions/arm_correlate_q7.c ****    * ....
 268:DSP/Source/FilteringFunctions/arm_correlate_q7.c ****    * sum = x[srcALen-srcBLen-2] * y[0] + x[srcALen-srcBLen-1] * y[1] +...+ x[srcALen-1] * y[srcBLen
 269:DSP/Source/FilteringFunctions/arm_correlate_q7.c ****    */
 270:DSP/Source/FilteringFunctions/arm_correlate_q7.c **** 
 271:DSP/Source/FilteringFunctions/arm_correlate_q7.c ****   /* Working pointer of inputA */
 272:DSP/Source/FilteringFunctions/arm_correlate_q7.c ****   px = pIn1;
 273:DSP/Source/FilteringFunctions/arm_correlate_q7.c **** 
 274:DSP/Source/FilteringFunctions/arm_correlate_q7.c ****   /* Working pointer of inputB */
 275:DSP/Source/FilteringFunctions/arm_correlate_q7.c ****   py = pIn2;
 276:DSP/Source/FilteringFunctions/arm_correlate_q7.c **** 
 277:DSP/Source/FilteringFunctions/arm_correlate_q7.c ****   /* count is index by which the pointer pIn1 to be incremented */
 278:DSP/Source/FilteringFunctions/arm_correlate_q7.c ****   count = 0U;
 279:DSP/Source/FilteringFunctions/arm_correlate_q7.c **** 
 280:DSP/Source/FilteringFunctions/arm_correlate_q7.c ****   /* -------------------
 281:DSP/Source/FilteringFunctions/arm_correlate_q7.c ****    * Stage2 process
 282:DSP/Source/FilteringFunctions/arm_correlate_q7.c ****    * ------------------*/
 283:DSP/Source/FilteringFunctions/arm_correlate_q7.c **** 
 284:DSP/Source/FilteringFunctions/arm_correlate_q7.c ****   /* Stage2 depends on srcBLen as in this stage srcBLen number of MACS are performed.
 285:DSP/Source/FilteringFunctions/arm_correlate_q7.c ****    * So, to loop unroll over blockSize2,
 286:DSP/Source/FilteringFunctions/arm_correlate_q7.c ****    * srcBLen should be greater than or equal to 4 */
 287:DSP/Source/FilteringFunctions/arm_correlate_q7.c ****   if (srcBLen >= 4U)
 367              		.loc 1 287 6 view .LVU143
 368 00f2 5046     		mov	r0, r10
 272:DSP/Source/FilteringFunctions/arm_correlate_q7.c **** 
 369              		.loc 1 272 3 is_stmt 1 view .LVU144
 275:DSP/Source/FilteringFunctions/arm_correlate_q7.c **** 
 370              		.loc 1 275 3 view .LVU145
ARM GAS  /var/folders/ck/g3dcd5x55xs4107jgdl0snvr0000gn/T//ccTk6Q0O.s 			page 49


 371              	.LVL58:
 278:DSP/Source/FilteringFunctions/arm_correlate_q7.c **** 
 372              		.loc 1 278 3 view .LVU146
 373              		.loc 1 287 3 view .LVU147
 374              		.loc 1 287 6 is_stmt 0 view .LVU148
 375 00f4 BBF1030F 		cmp	fp, #3
 376 00f8 40F21C81 		bls	.L31
 377              	.LVL59:
 288:DSP/Source/FilteringFunctions/arm_correlate_q7.c ****   {
 289:DSP/Source/FilteringFunctions/arm_correlate_q7.c ****     /* Loop unroll over blockSize2, by 4 */
 290:DSP/Source/FilteringFunctions/arm_correlate_q7.c ****     blkCnt = blockSize2 >> 2U;
 378              		.loc 1 290 5 is_stmt 1 view .LVU149
 379              		.loc 1 290 12 is_stmt 0 view .LVU150
 380 00fc 4FEA9C01 		lsr	r1, ip, #2
 381              	.LVL60:
 291:DSP/Source/FilteringFunctions/arm_correlate_q7.c **** 
 292:DSP/Source/FilteringFunctions/arm_correlate_q7.c ****     while (blkCnt > 0U)
 382              		.loc 1 292 5 is_stmt 1 view .LVU151
 272:DSP/Source/FilteringFunctions/arm_correlate_q7.c **** 
 383              		.loc 1 272 6 is_stmt 0 view .LVU152
 384 0100 029B     		ldr	r3, [sp, #8]
 385 0102 C246     		mov	r10, r8
 386 0104 0392     		str	r2, [sp, #12]
 387 0106 0890     		str	r0, [sp, #32]
 388 0108 0A46     		mov	r2, r1
 389              	.LVL61:
 272:DSP/Source/FilteringFunctions/arm_correlate_q7.c **** 
 390              		.loc 1 272 6 view .LVU153
 391 010a CDF824C0 		str	ip, [sp, #36]
 392 010e CDF810B0 		str	fp, [sp, #16]
 393 0112 BB46     		mov	fp, r7
 394              	.LVL62:
 395              		.loc 1 292 11 view .LVU154
 396 0114 25E0     		b	.L11
 397              	.LVL63:
 398              	.L36:
 399              	.LBB43:
 293:DSP/Source/FilteringFunctions/arm_correlate_q7.c ****     {
 294:DSP/Source/FilteringFunctions/arm_correlate_q7.c ****       /* Set all accumulators to zero */
 295:DSP/Source/FilteringFunctions/arm_correlate_q7.c ****       acc0 = 0;
 296:DSP/Source/FilteringFunctions/arm_correlate_q7.c ****       acc1 = 0;
 297:DSP/Source/FilteringFunctions/arm_correlate_q7.c ****       acc2 = 0;
 298:DSP/Source/FilteringFunctions/arm_correlate_q7.c ****       acc3 = 0;
 299:DSP/Source/FilteringFunctions/arm_correlate_q7.c **** 
 300:DSP/Source/FilteringFunctions/arm_correlate_q7.c ****       /* read x[0], x[1], x[2] samples */
 301:DSP/Source/FilteringFunctions/arm_correlate_q7.c ****       x0 = *px++;
 302:DSP/Source/FilteringFunctions/arm_correlate_q7.c ****       x1 = *px++;
 303:DSP/Source/FilteringFunctions/arm_correlate_q7.c ****       x2 = *px++;
 304:DSP/Source/FilteringFunctions/arm_correlate_q7.c **** 
 305:DSP/Source/FilteringFunctions/arm_correlate_q7.c ****       /* Apply loop unrolling and compute 4 MACs simultaneously. */
 306:DSP/Source/FilteringFunctions/arm_correlate_q7.c ****       k = srcBLen >> 2U;
 307:DSP/Source/FilteringFunctions/arm_correlate_q7.c **** 
 308:DSP/Source/FilteringFunctions/arm_correlate_q7.c ****       /* First part of the processing with loop unrolling.  Compute 4 MACs at a time.
 309:DSP/Source/FilteringFunctions/arm_correlate_q7.c ****        ** a second loop below computes MACs for the remaining 1 to 3 samples. */
 310:DSP/Source/FilteringFunctions/arm_correlate_q7.c ****       do
 311:DSP/Source/FilteringFunctions/arm_correlate_q7.c ****       {
 312:DSP/Source/FilteringFunctions/arm_correlate_q7.c ****         /* Read y[0] sample */
ARM GAS  /var/folders/ck/g3dcd5x55xs4107jgdl0snvr0000gn/T//ccTk6Q0O.s 			page 50


 313:DSP/Source/FilteringFunctions/arm_correlate_q7.c ****         c0 = *py++;
 314:DSP/Source/FilteringFunctions/arm_correlate_q7.c ****         /* Read y[1] sample */
 315:DSP/Source/FilteringFunctions/arm_correlate_q7.c ****         c1 = *py++;
 316:DSP/Source/FilteringFunctions/arm_correlate_q7.c **** 
 317:DSP/Source/FilteringFunctions/arm_correlate_q7.c ****         /* Read x[3] sample */
 318:DSP/Source/FilteringFunctions/arm_correlate_q7.c ****         x3 = *px++;
 319:DSP/Source/FilteringFunctions/arm_correlate_q7.c **** 
 320:DSP/Source/FilteringFunctions/arm_correlate_q7.c ****         /* x[0] and x[1] are packed */
 321:DSP/Source/FilteringFunctions/arm_correlate_q7.c ****         in1 = (q15_t) x0;
 322:DSP/Source/FilteringFunctions/arm_correlate_q7.c ****         in2 = (q15_t) x1;
 323:DSP/Source/FilteringFunctions/arm_correlate_q7.c **** 
 324:DSP/Source/FilteringFunctions/arm_correlate_q7.c ****         input1 = ((q31_t) in1 & 0x0000FFFF) | ((q31_t) in2 << 16);
 325:DSP/Source/FilteringFunctions/arm_correlate_q7.c **** 
 326:DSP/Source/FilteringFunctions/arm_correlate_q7.c ****         /* y[0] and y[1] are packed */
 327:DSP/Source/FilteringFunctions/arm_correlate_q7.c ****         in1 = (q15_t) c0;
 328:DSP/Source/FilteringFunctions/arm_correlate_q7.c ****         in2 = (q15_t) c1;
 329:DSP/Source/FilteringFunctions/arm_correlate_q7.c **** 
 330:DSP/Source/FilteringFunctions/arm_correlate_q7.c ****         input2 = ((q31_t) in1 & 0x0000FFFF) | ((q31_t) in2 << 16);
 331:DSP/Source/FilteringFunctions/arm_correlate_q7.c **** 
 332:DSP/Source/FilteringFunctions/arm_correlate_q7.c ****         /* acc0 += x[0] * y[0] + x[1] * y[1]  */
 333:DSP/Source/FilteringFunctions/arm_correlate_q7.c ****         acc0 = __SMLAD(input1, input2, acc0);
 334:DSP/Source/FilteringFunctions/arm_correlate_q7.c **** 
 335:DSP/Source/FilteringFunctions/arm_correlate_q7.c ****         /* x[1] and x[2] are packed */
 336:DSP/Source/FilteringFunctions/arm_correlate_q7.c ****         in1 = (q15_t) x1;
 337:DSP/Source/FilteringFunctions/arm_correlate_q7.c ****         in2 = (q15_t) x2;
 338:DSP/Source/FilteringFunctions/arm_correlate_q7.c **** 
 339:DSP/Source/FilteringFunctions/arm_correlate_q7.c ****         input1 = ((q31_t) in1 & 0x0000FFFF) | ((q31_t) in2 << 16);
 340:DSP/Source/FilteringFunctions/arm_correlate_q7.c **** 
 341:DSP/Source/FilteringFunctions/arm_correlate_q7.c ****         /* acc1 += x[1] * y[0] + x[2] * y[1] */
 342:DSP/Source/FilteringFunctions/arm_correlate_q7.c ****         acc1 = __SMLAD(input1, input2, acc1);
 343:DSP/Source/FilteringFunctions/arm_correlate_q7.c **** 
 344:DSP/Source/FilteringFunctions/arm_correlate_q7.c ****         /* x[2] and x[3] are packed */
 345:DSP/Source/FilteringFunctions/arm_correlate_q7.c ****         in1 = (q15_t) x2;
 346:DSP/Source/FilteringFunctions/arm_correlate_q7.c ****         in2 = (q15_t) x3;
 347:DSP/Source/FilteringFunctions/arm_correlate_q7.c **** 
 348:DSP/Source/FilteringFunctions/arm_correlate_q7.c ****         input1 = ((q31_t) in1 & 0x0000FFFF) | ((q31_t) in2 << 16);
 349:DSP/Source/FilteringFunctions/arm_correlate_q7.c **** 
 350:DSP/Source/FilteringFunctions/arm_correlate_q7.c ****         /* acc2 += x[2] * y[0] + x[3] * y[1]  */
 351:DSP/Source/FilteringFunctions/arm_correlate_q7.c ****         acc2 = __SMLAD(input1, input2, acc2);
 352:DSP/Source/FilteringFunctions/arm_correlate_q7.c **** 
 353:DSP/Source/FilteringFunctions/arm_correlate_q7.c ****         /* Read x[4] sample */
 354:DSP/Source/FilteringFunctions/arm_correlate_q7.c ****         x0 = *(px++);
 355:DSP/Source/FilteringFunctions/arm_correlate_q7.c **** 
 356:DSP/Source/FilteringFunctions/arm_correlate_q7.c ****         /* x[3] and x[4] are packed */
 357:DSP/Source/FilteringFunctions/arm_correlate_q7.c ****         in1 = (q15_t) x3;
 358:DSP/Source/FilteringFunctions/arm_correlate_q7.c ****         in2 = (q15_t) x0;
 359:DSP/Source/FilteringFunctions/arm_correlate_q7.c **** 
 360:DSP/Source/FilteringFunctions/arm_correlate_q7.c ****         input1 = ((q31_t) in1 & 0x0000FFFF) | ((q31_t) in2 << 16);
 361:DSP/Source/FilteringFunctions/arm_correlate_q7.c **** 
 362:DSP/Source/FilteringFunctions/arm_correlate_q7.c ****         /* acc3 += x[3] * y[0] + x[4] * y[1]  */
 363:DSP/Source/FilteringFunctions/arm_correlate_q7.c ****         acc3 = __SMLAD(input1, input2, acc3);
 364:DSP/Source/FilteringFunctions/arm_correlate_q7.c **** 
 365:DSP/Source/FilteringFunctions/arm_correlate_q7.c ****         /* Read y[2] sample */
 366:DSP/Source/FilteringFunctions/arm_correlate_q7.c ****         c0 = *py++;
 367:DSP/Source/FilteringFunctions/arm_correlate_q7.c ****         /* Read y[3] sample */
 368:DSP/Source/FilteringFunctions/arm_correlate_q7.c ****         c1 = *py++;
 369:DSP/Source/FilteringFunctions/arm_correlate_q7.c **** 
ARM GAS  /var/folders/ck/g3dcd5x55xs4107jgdl0snvr0000gn/T//ccTk6Q0O.s 			page 51


 370:DSP/Source/FilteringFunctions/arm_correlate_q7.c ****         /* Read x[5] sample */
 371:DSP/Source/FilteringFunctions/arm_correlate_q7.c ****         x1 = *px++;
 372:DSP/Source/FilteringFunctions/arm_correlate_q7.c **** 
 373:DSP/Source/FilteringFunctions/arm_correlate_q7.c ****         /* x[2] and x[3] are packed */
 374:DSP/Source/FilteringFunctions/arm_correlate_q7.c ****         in1 = (q15_t) x2;
 375:DSP/Source/FilteringFunctions/arm_correlate_q7.c ****         in2 = (q15_t) x3;
 376:DSP/Source/FilteringFunctions/arm_correlate_q7.c **** 
 377:DSP/Source/FilteringFunctions/arm_correlate_q7.c ****         input1 = ((q31_t) in1 & 0x0000FFFF) | ((q31_t) in2 << 16);
 378:DSP/Source/FilteringFunctions/arm_correlate_q7.c **** 
 379:DSP/Source/FilteringFunctions/arm_correlate_q7.c ****         /* y[2] and y[3] are packed */
 380:DSP/Source/FilteringFunctions/arm_correlate_q7.c ****         in1 = (q15_t) c0;
 381:DSP/Source/FilteringFunctions/arm_correlate_q7.c ****         in2 = (q15_t) c1;
 382:DSP/Source/FilteringFunctions/arm_correlate_q7.c **** 
 383:DSP/Source/FilteringFunctions/arm_correlate_q7.c ****         input2 = ((q31_t) in1 & 0x0000FFFF) | ((q31_t) in2 << 16);
 384:DSP/Source/FilteringFunctions/arm_correlate_q7.c **** 
 385:DSP/Source/FilteringFunctions/arm_correlate_q7.c ****         /* acc0 += x[2] * y[2] + x[3] * y[3]  */
 386:DSP/Source/FilteringFunctions/arm_correlate_q7.c ****         acc0 = __SMLAD(input1, input2, acc0);
 387:DSP/Source/FilteringFunctions/arm_correlate_q7.c **** 
 388:DSP/Source/FilteringFunctions/arm_correlate_q7.c ****         /* x[3] and x[4] are packed */
 389:DSP/Source/FilteringFunctions/arm_correlate_q7.c ****         in1 = (q15_t) x3;
 390:DSP/Source/FilteringFunctions/arm_correlate_q7.c ****         in2 = (q15_t) x0;
 391:DSP/Source/FilteringFunctions/arm_correlate_q7.c **** 
 392:DSP/Source/FilteringFunctions/arm_correlate_q7.c ****         input1 = ((q31_t) in1 & 0x0000FFFF) | ((q31_t) in2 << 16);
 393:DSP/Source/FilteringFunctions/arm_correlate_q7.c **** 
 394:DSP/Source/FilteringFunctions/arm_correlate_q7.c ****         /* acc1 += x[3] * y[2] + x[4] * y[3]  */
 395:DSP/Source/FilteringFunctions/arm_correlate_q7.c ****         acc1 = __SMLAD(input1, input2, acc1);
 396:DSP/Source/FilteringFunctions/arm_correlate_q7.c **** 
 397:DSP/Source/FilteringFunctions/arm_correlate_q7.c ****         /* x[4] and x[5] are packed */
 398:DSP/Source/FilteringFunctions/arm_correlate_q7.c ****         in1 = (q15_t) x0;
 399:DSP/Source/FilteringFunctions/arm_correlate_q7.c ****         in2 = (q15_t) x1;
 400:DSP/Source/FilteringFunctions/arm_correlate_q7.c **** 
 401:DSP/Source/FilteringFunctions/arm_correlate_q7.c ****         input1 = ((q31_t) in1 & 0x0000FFFF) | ((q31_t) in2 << 16);
 402:DSP/Source/FilteringFunctions/arm_correlate_q7.c **** 
 403:DSP/Source/FilteringFunctions/arm_correlate_q7.c ****         /* acc2 += x[4] * y[2] + x[5] * y[3]  */
 404:DSP/Source/FilteringFunctions/arm_correlate_q7.c ****         acc2 = __SMLAD(input1, input2, acc2);
 405:DSP/Source/FilteringFunctions/arm_correlate_q7.c **** 
 406:DSP/Source/FilteringFunctions/arm_correlate_q7.c ****         /* Read x[6] sample */
 407:DSP/Source/FilteringFunctions/arm_correlate_q7.c ****         x2 = *px++;
 408:DSP/Source/FilteringFunctions/arm_correlate_q7.c **** 
 409:DSP/Source/FilteringFunctions/arm_correlate_q7.c ****         /* x[5] and x[6] are packed */
 410:DSP/Source/FilteringFunctions/arm_correlate_q7.c ****         in1 = (q15_t) x1;
 411:DSP/Source/FilteringFunctions/arm_correlate_q7.c ****         in2 = (q15_t) x2;
 412:DSP/Source/FilteringFunctions/arm_correlate_q7.c **** 
 413:DSP/Source/FilteringFunctions/arm_correlate_q7.c ****         input1 = ((q31_t) in1 & 0x0000FFFF) | ((q31_t) in2 << 16);
 414:DSP/Source/FilteringFunctions/arm_correlate_q7.c **** 
 415:DSP/Source/FilteringFunctions/arm_correlate_q7.c ****         /* acc3 += x[5] * y[2] + x[6] * y[3]  */
 416:DSP/Source/FilteringFunctions/arm_correlate_q7.c ****         acc3 = __SMLAD(input1, input2, acc3);
 417:DSP/Source/FilteringFunctions/arm_correlate_q7.c **** 
 418:DSP/Source/FilteringFunctions/arm_correlate_q7.c ****       } while (--k);
 419:DSP/Source/FilteringFunctions/arm_correlate_q7.c **** 
 420:DSP/Source/FilteringFunctions/arm_correlate_q7.c ****       /* If the srcBLen is not a multiple of 4, compute any remaining MACs here.
 421:DSP/Source/FilteringFunctions/arm_correlate_q7.c ****        ** No loop unrolling is used. */
 422:DSP/Source/FilteringFunctions/arm_correlate_q7.c ****       k = srcBLen % 0x4U;
 423:DSP/Source/FilteringFunctions/arm_correlate_q7.c **** 
 424:DSP/Source/FilteringFunctions/arm_correlate_q7.c ****       while (k > 0U)
 425:DSP/Source/FilteringFunctions/arm_correlate_q7.c ****       {
 426:DSP/Source/FilteringFunctions/arm_correlate_q7.c ****         /* Read y[4] sample */
ARM GAS  /var/folders/ck/g3dcd5x55xs4107jgdl0snvr0000gn/T//ccTk6Q0O.s 			page 52


 427:DSP/Source/FilteringFunctions/arm_correlate_q7.c ****         c0 = *py++;
 428:DSP/Source/FilteringFunctions/arm_correlate_q7.c **** 
 429:DSP/Source/FilteringFunctions/arm_correlate_q7.c ****         /* Read x[7] sample */
 430:DSP/Source/FilteringFunctions/arm_correlate_q7.c ****         x3 = *px++;
 431:DSP/Source/FilteringFunctions/arm_correlate_q7.c **** 
 432:DSP/Source/FilteringFunctions/arm_correlate_q7.c ****         /* Perform the multiply-accumulates */
 433:DSP/Source/FilteringFunctions/arm_correlate_q7.c ****         /* acc0 +=  x[4] * y[4] */
 434:DSP/Source/FilteringFunctions/arm_correlate_q7.c ****         acc0 += ((q15_t) x0 * c0);
 435:DSP/Source/FilteringFunctions/arm_correlate_q7.c ****         /* acc1 +=  x[5] * y[4] */
 436:DSP/Source/FilteringFunctions/arm_correlate_q7.c ****         acc1 += ((q15_t) x1 * c0);
 437:DSP/Source/FilteringFunctions/arm_correlate_q7.c ****         /* acc2 +=  x[6] * y[4] */
 438:DSP/Source/FilteringFunctions/arm_correlate_q7.c ****         acc2 += ((q15_t) x2 * c0);
 439:DSP/Source/FilteringFunctions/arm_correlate_q7.c ****         /* acc3 +=  x[7] * y[4] */
 440:DSP/Source/FilteringFunctions/arm_correlate_q7.c ****         acc3 += ((q15_t) x3 * c0);
 441:DSP/Source/FilteringFunctions/arm_correlate_q7.c **** 
 442:DSP/Source/FilteringFunctions/arm_correlate_q7.c ****         /* Reuse the present samples for the next MAC */
 443:DSP/Source/FilteringFunctions/arm_correlate_q7.c ****         x0 = x1;
 444:DSP/Source/FilteringFunctions/arm_correlate_q7.c ****         x1 = x2;
 445:DSP/Source/FilteringFunctions/arm_correlate_q7.c ****         x2 = x3;
 446:DSP/Source/FilteringFunctions/arm_correlate_q7.c **** 
 447:DSP/Source/FilteringFunctions/arm_correlate_q7.c ****         /* Decrement the loop counter */
 448:DSP/Source/FilteringFunctions/arm_correlate_q7.c ****         k--;
 449:DSP/Source/FilteringFunctions/arm_correlate_q7.c ****       }
 450:DSP/Source/FilteringFunctions/arm_correlate_q7.c **** 
 451:DSP/Source/FilteringFunctions/arm_correlate_q7.c ****       /* Store the result in the accumulator in the destination buffer. */
 452:DSP/Source/FilteringFunctions/arm_correlate_q7.c ****       *pOut = (q7_t) (__SSAT(acc0 >> 7, 8));
 400              		.loc 1 452 23 view .LVU155
 401 0116 DDF814A0 		ldr	r10, [sp, #20]
 402              	.LBE43:
 403              		.loc 1 452 7 is_stmt 1 view .LVU156
 404              	.LBB44:
 405              		.loc 1 452 23 view .LVU157
 406 011a F611     		asrs	r6, r6, #7
 407              	.LVL64:
 408              		.loc 1 452 23 view .LVU158
 409              		.syntax unified
 410              	@ 452 "DSP/Source/FilteringFunctions/arm_correlate_q7.c" 1
 411 011c 06F30706 		ssat r6, #8, r6
 412              	@ 0 "" 2
 413              	.LVL65:
 414              		.loc 1 452 23 view .LVU159
 415              		.thumb
 416              		.syntax unified
 417              	.LBE44:
 418              		.loc 1 452 13 is_stmt 0 view .LVU160
 419 0120 8AF80060 		strb	r6, [r10]
 453:DSP/Source/FilteringFunctions/arm_correlate_q7.c ****       /* Destination pointer is updated according to the address modifier, inc */
 454:DSP/Source/FilteringFunctions/arm_correlate_q7.c ****       pOut += inc;
 420              		.loc 1 454 7 is_stmt 1 view .LVU161
 421              		.loc 1 454 12 is_stmt 0 view .LVU162
 422 0124 0AEB0B01 		add	r1, r10, fp
 423              	.LVL66:
 455:DSP/Source/FilteringFunctions/arm_correlate_q7.c **** 
 456:DSP/Source/FilteringFunctions/arm_correlate_q7.c ****       *pOut = (q7_t) (__SSAT(acc1 >> 7, 8));
 424              		.loc 1 456 7 is_stmt 1 view .LVU163
 425              	.LBB45:
 426              		.loc 1 456 23 view .LVU164
ARM GAS  /var/folders/ck/g3dcd5x55xs4107jgdl0snvr0000gn/T//ccTk6Q0O.s 			page 53


 427 0128 DB11     		asrs	r3, r3, #7
 428              	.LVL67:
 429              		.loc 1 456 23 view .LVU165
 430              		.syntax unified
 431              	@ 456 "DSP/Source/FilteringFunctions/arm_correlate_q7.c" 1
 432 012a 03F30703 		ssat r3, #8, r3
 433              	@ 0 "" 2
 434              	.LVL68:
 435              		.loc 1 456 23 view .LVU166
 436              		.thumb
 437              		.syntax unified
 438              	.LBE45:
 439              		.loc 1 456 13 is_stmt 0 view .LVU167
 440 012e 0AF80B30 		strb	r3, [r10, fp]
 457:DSP/Source/FilteringFunctions/arm_correlate_q7.c ****       pOut += inc;
 441              		.loc 1 457 7 is_stmt 1 view .LVU168
 442              		.loc 1 457 12 is_stmt 0 view .LVU169
 443 0132 01EB0B03 		add	r3, r1, fp
 444              	.LVL69:
 458:DSP/Source/FilteringFunctions/arm_correlate_q7.c **** 
 459:DSP/Source/FilteringFunctions/arm_correlate_q7.c ****       *pOut = (q7_t) (__SSAT(acc2 >> 7, 8));
 445              		.loc 1 459 7 is_stmt 1 view .LVU170
 446              	.LBB46:
 447              		.loc 1 459 23 view .LVU171
 448 0136 4FEAEE1E 		asr	lr, lr, #7
 449              	.LVL70:
 450              		.loc 1 459 23 view .LVU172
 451              		.syntax unified
 452              	@ 459 "DSP/Source/FilteringFunctions/arm_correlate_q7.c" 1
 453 013a 0EF3070E 		ssat lr, #8, lr
 454              	@ 0 "" 2
 455              	.LVL71:
 456              		.loc 1 459 23 view .LVU173
 457              		.thumb
 458              		.syntax unified
 459              	.LBE46:
 460              		.loc 1 459 13 is_stmt 0 view .LVU174
 461 013e 01F80BE0 		strb	lr, [r1, fp]
 460:DSP/Source/FilteringFunctions/arm_correlate_q7.c ****       pOut += inc;
 462              		.loc 1 460 7 is_stmt 1 view .LVU175
 463              		.loc 1 460 12 is_stmt 0 view .LVU176
 464 0142 03EB0B01 		add	r1, r3, fp
 465              	.LVL72:
 461:DSP/Source/FilteringFunctions/arm_correlate_q7.c **** 
 462:DSP/Source/FilteringFunctions/arm_correlate_q7.c ****       *pOut = (q7_t) (__SSAT(acc3 >> 7, 8));
 466              		.loc 1 462 7 is_stmt 1 view .LVU177
 467              	.LBB47:
 468              		.loc 1 462 23 view .LVU178
 469 0146 4FEAEC1C 		asr	ip, ip, #7
 470              	.LVL73:
 471              		.loc 1 462 23 view .LVU179
 472              		.syntax unified
 473              	@ 462 "DSP/Source/FilteringFunctions/arm_correlate_q7.c" 1
 474 014a 0CF3070C 		ssat ip, #8, ip
 475              	@ 0 "" 2
 476              	.LVL74:
 477              		.loc 1 462 23 view .LVU180
ARM GAS  /var/folders/ck/g3dcd5x55xs4107jgdl0snvr0000gn/T//ccTk6Q0O.s 			page 54


 478              		.thumb
 479              		.syntax unified
 480              	.LBE47:
 481              		.loc 1 462 13 is_stmt 0 view .LVU181
 482 014e 03F80BC0 		strb	ip, [r3, fp]
 463:DSP/Source/FilteringFunctions/arm_correlate_q7.c ****       pOut += inc;
 483              		.loc 1 463 7 is_stmt 1 view .LVU182
 484              		.loc 1 463 12 is_stmt 0 view .LVU183
 485 0152 01EB0B0A 		add	r10, r1, fp
 486              	.LVL75:
 464:DSP/Source/FilteringFunctions/arm_correlate_q7.c **** 
 465:DSP/Source/FilteringFunctions/arm_correlate_q7.c **** 	  count += 4U;
 487              		.loc 1 465 4 is_stmt 1 view .LVU184
 488              		.loc 1 465 10 is_stmt 0 view .LVU185
 489 0156 039B     		ldr	r3, [sp, #12]
 490 0158 0433     		adds	r3, r3, #4
 491 015a 0393     		str	r3, [sp, #12]
 492              	.LVL76:
 466:DSP/Source/FilteringFunctions/arm_correlate_q7.c ****       /* Update the inputA and inputB pointers for next MAC calculation */
 467:DSP/Source/FilteringFunctions/arm_correlate_q7.c ****       px = pIn1 + count;
 493              		.loc 1 467 7 is_stmt 1 view .LVU186
 494              		.loc 1 467 10 is_stmt 0 view .LVU187
 495 015c 0299     		ldr	r1, [sp, #8]
 496 015e CB18     		adds	r3, r1, r3
 497              	.LVL77:
 468:DSP/Source/FilteringFunctions/arm_correlate_q7.c ****       py = pIn2;
 498              		.loc 1 468 7 is_stmt 1 view .LVU188
 469:DSP/Source/FilteringFunctions/arm_correlate_q7.c **** 
 470:DSP/Source/FilteringFunctions/arm_correlate_q7.c ****       /* Decrement the loop counter */
 471:DSP/Source/FilteringFunctions/arm_correlate_q7.c ****       blkCnt--;
 499              		.loc 1 471 7 view .LVU189
 500              		.loc 1 471 13 is_stmt 0 view .LVU190
 501 0160 013A     		subs	r2, r2, #1
 502              	.LVL78:
 503              	.L11:
 292:DSP/Source/FilteringFunctions/arm_correlate_q7.c ****     {
 504              		.loc 1 292 19 is_stmt 1 view .LVU191
 505 0162 002A     		cmp	r2, #0
 506 0164 70D0     		beq	.L35
 295:DSP/Source/FilteringFunctions/arm_correlate_q7.c ****       acc1 = 0;
 507              		.loc 1 295 7 view .LVU192
 508              	.LVL79:
 296:DSP/Source/FilteringFunctions/arm_correlate_q7.c ****       acc2 = 0;
 509              		.loc 1 296 7 view .LVU193
 297:DSP/Source/FilteringFunctions/arm_correlate_q7.c ****       acc3 = 0;
 510              		.loc 1 297 7 view .LVU194
 298:DSP/Source/FilteringFunctions/arm_correlate_q7.c **** 
 511              		.loc 1 298 7 view .LVU195
 301:DSP/Source/FilteringFunctions/arm_correlate_q7.c ****       x1 = *px++;
 512              		.loc 1 301 7 view .LVU196
 301:DSP/Source/FilteringFunctions/arm_correlate_q7.c ****       x1 = *px++;
 513              		.loc 1 301 10 is_stmt 0 view .LVU197
 514 0166 93F90000 		ldrsb	r0, [r3]
 515              	.LVL80:
 302:DSP/Source/FilteringFunctions/arm_correlate_q7.c ****       x2 = *px++;
 516              		.loc 1 302 7 is_stmt 1 view .LVU198
 302:DSP/Source/FilteringFunctions/arm_correlate_q7.c ****       x2 = *px++;
ARM GAS  /var/folders/ck/g3dcd5x55xs4107jgdl0snvr0000gn/T//ccTk6Q0O.s 			page 55


 517              		.loc 1 302 10 is_stmt 0 view .LVU199
 518 016a 93F90110 		ldrsb	r1, [r3, #1]
 519              	.LVL81:
 303:DSP/Source/FilteringFunctions/arm_correlate_q7.c **** 
 520              		.loc 1 303 7 is_stmt 1 view .LVU200
 303:DSP/Source/FilteringFunctions/arm_correlate_q7.c **** 
 521              		.loc 1 303 15 is_stmt 0 view .LVU201
 522 016e DC1C     		adds	r4, r3, #3
 523              	.LVL82:
 303:DSP/Source/FilteringFunctions/arm_correlate_q7.c **** 
 524              		.loc 1 303 10 view .LVU202
 525 0170 93F90280 		ldrsb	r8, [r3, #2]
 526              	.LVL83:
 306:DSP/Source/FilteringFunctions/arm_correlate_q7.c **** 
 527              		.loc 1 306 7 is_stmt 1 view .LVU203
 306:DSP/Source/FilteringFunctions/arm_correlate_q7.c **** 
 528              		.loc 1 306 9 is_stmt 0 view .LVU204
 529 0174 049B     		ldr	r3, [sp, #16]
 530 0176 9F08     		lsrs	r7, r3, #2
 531              	.LVL84:
 306:DSP/Source/FilteringFunctions/arm_correlate_q7.c **** 
 532              		.loc 1 306 9 view .LVU205
 533 0178 019D     		ldr	r5, [sp, #4]
 298:DSP/Source/FilteringFunctions/arm_correlate_q7.c **** 
 534              		.loc 1 298 12 view .LVU206
 535 017a 4FF0000C 		mov	ip, #0
 297:DSP/Source/FilteringFunctions/arm_correlate_q7.c ****       acc3 = 0;
 536              		.loc 1 297 12 view .LVU207
 537 017e E646     		mov	lr, ip
 296:DSP/Source/FilteringFunctions/arm_correlate_q7.c ****       acc2 = 0;
 538              		.loc 1 296 12 view .LVU208
 539 0180 6346     		mov	r3, ip
 295:DSP/Source/FilteringFunctions/arm_correlate_q7.c ****       acc1 = 0;
 540              		.loc 1 295 12 view .LVU209
 541 0182 6646     		mov	r6, ip
 542 0184 CDF814A0 		str	r10, [sp, #20]
 543 0188 0692     		str	r2, [sp, #24]
 544 018a CDF81CB0 		str	fp, [sp, #28]
 545 018e BB46     		mov	fp, r7
 546              	.LVL85:
 547              	.L12:
 310:DSP/Source/FilteringFunctions/arm_correlate_q7.c ****       {
 548              		.loc 1 310 7 is_stmt 1 view .LVU210
 313:DSP/Source/FilteringFunctions/arm_correlate_q7.c ****         /* Read y[1] sample */
 549              		.loc 1 313 9 view .LVU211
 313:DSP/Source/FilteringFunctions/arm_correlate_q7.c ****         /* Read y[1] sample */
 550              		.loc 1 313 12 is_stmt 0 view .LVU212
 551 0190 95F90020 		ldrsb	r2, [r5]
 552              	.LVL86:
 315:DSP/Source/FilteringFunctions/arm_correlate_q7.c **** 
 553              		.loc 1 315 9 is_stmt 1 view .LVU213
 315:DSP/Source/FilteringFunctions/arm_correlate_q7.c **** 
 554              		.loc 1 315 12 is_stmt 0 view .LVU214
 555 0194 95F90190 		ldrsb	r9, [r5, #1]
 556              	.LVL87:
 318:DSP/Source/FilteringFunctions/arm_correlate_q7.c **** 
 557              		.loc 1 318 9 is_stmt 1 view .LVU215
ARM GAS  /var/folders/ck/g3dcd5x55xs4107jgdl0snvr0000gn/T//ccTk6Q0O.s 			page 56


 318:DSP/Source/FilteringFunctions/arm_correlate_q7.c **** 
 558              		.loc 1 318 12 is_stmt 0 view .LVU216
 559 0198 94F90070 		ldrsb	r7, [r4]
 560              	.LVL88:
 321:DSP/Source/FilteringFunctions/arm_correlate_q7.c ****         in2 = (q15_t) x1;
 561              		.loc 1 321 9 is_stmt 1 view .LVU217
 322:DSP/Source/FilteringFunctions/arm_correlate_q7.c **** 
 562              		.loc 1 322 9 view .LVU218
 324:DSP/Source/FilteringFunctions/arm_correlate_q7.c **** 
 563              		.loc 1 324 9 view .LVU219
 324:DSP/Source/FilteringFunctions/arm_correlate_q7.c **** 
 564              		.loc 1 324 31 is_stmt 0 view .LVU220
 565 019c 80B2     		uxth	r0, r0
 324:DSP/Source/FilteringFunctions/arm_correlate_q7.c **** 
 566              		.loc 1 324 16 view .LVU221
 567 019e 40EA0140 		orr	r0, r0, r1, lsl #16
 568              	.LVL89:
 327:DSP/Source/FilteringFunctions/arm_correlate_q7.c ****         in2 = (q15_t) c1;
 569              		.loc 1 327 9 is_stmt 1 view .LVU222
 328:DSP/Source/FilteringFunctions/arm_correlate_q7.c **** 
 570              		.loc 1 328 9 view .LVU223
 330:DSP/Source/FilteringFunctions/arm_correlate_q7.c **** 
 571              		.loc 1 330 9 view .LVU224
 330:DSP/Source/FilteringFunctions/arm_correlate_q7.c **** 
 572              		.loc 1 330 31 is_stmt 0 view .LVU225
 573 01a2 92B2     		uxth	r2, r2
 330:DSP/Source/FilteringFunctions/arm_correlate_q7.c **** 
 574              		.loc 1 330 16 view .LVU226
 575 01a4 42EA0942 		orr	r2, r2, r9, lsl #16
 576              	.LVL90:
 333:DSP/Source/FilteringFunctions/arm_correlate_q7.c **** 
 577              		.loc 1 333 9 is_stmt 1 view .LVU227
 578              	.LBB48:
 579              	.LBI48:
2036:Drivers/CMSIS/Include/cmsis_gcc.h **** {
 580              		.loc 2 2036 31 view .LVU228
 581              	.LBB49:
2038:Drivers/CMSIS/Include/cmsis_gcc.h **** 
 582              		.loc 2 2038 3 view .LVU229
2040:Drivers/CMSIS/Include/cmsis_gcc.h ****   return(result);
 583              		.loc 2 2040 3 view .LVU230
 584              		.syntax unified
 585              	@ 2040 "Drivers/CMSIS/Include/cmsis_gcc.h" 1
 586 01a8 20FB0266 		smlad r6, r0, r2, r6
 587              	@ 0 "" 2
 588              	.LVL91:
 589              		.loc 2 2041 3 view .LVU231
 590              		.loc 2 2041 3 is_stmt 0 view .LVU232
 591              		.thumb
 592              		.syntax unified
 593              	.LBE49:
 594              	.LBE48:
 336:DSP/Source/FilteringFunctions/arm_correlate_q7.c ****         in2 = (q15_t) x2;
 595              		.loc 1 336 9 is_stmt 1 view .LVU233
 337:DSP/Source/FilteringFunctions/arm_correlate_q7.c **** 
 596              		.loc 1 337 9 view .LVU234
 339:DSP/Source/FilteringFunctions/arm_correlate_q7.c **** 
ARM GAS  /var/folders/ck/g3dcd5x55xs4107jgdl0snvr0000gn/T//ccTk6Q0O.s 			page 57


 597              		.loc 1 339 9 view .LVU235
 339:DSP/Source/FilteringFunctions/arm_correlate_q7.c **** 
 598              		.loc 1 339 31 is_stmt 0 view .LVU236
 599 01ac 89B2     		uxth	r1, r1
 600              	.LVL92:
 339:DSP/Source/FilteringFunctions/arm_correlate_q7.c **** 
 601              		.loc 1 339 16 view .LVU237
 602 01ae 41EA0841 		orr	r1, r1, r8, lsl #16
 603              	.LVL93:
 342:DSP/Source/FilteringFunctions/arm_correlate_q7.c **** 
 604              		.loc 1 342 9 is_stmt 1 view .LVU238
 605              	.LBB50:
 606              	.LBI50:
2036:Drivers/CMSIS/Include/cmsis_gcc.h **** {
 607              		.loc 2 2036 31 view .LVU239
 608              	.LBB51:
2038:Drivers/CMSIS/Include/cmsis_gcc.h **** 
 609              		.loc 2 2038 3 view .LVU240
2040:Drivers/CMSIS/Include/cmsis_gcc.h ****   return(result);
 610              		.loc 2 2040 3 view .LVU241
 611              		.syntax unified
 612              	@ 2040 "Drivers/CMSIS/Include/cmsis_gcc.h" 1
 613 01b2 21FB0233 		smlad r3, r1, r2, r3
 614              	@ 0 "" 2
 615              	.LVL94:
 616              		.loc 2 2041 3 view .LVU242
 617              		.loc 2 2041 3 is_stmt 0 view .LVU243
 618              		.thumb
 619              		.syntax unified
 620              	.LBE51:
 621              	.LBE50:
 345:DSP/Source/FilteringFunctions/arm_correlate_q7.c ****         in2 = (q15_t) x3;
 622              		.loc 1 345 9 is_stmt 1 view .LVU244
 346:DSP/Source/FilteringFunctions/arm_correlate_q7.c **** 
 623              		.loc 1 346 9 view .LVU245
 348:DSP/Source/FilteringFunctions/arm_correlate_q7.c **** 
 624              		.loc 1 348 9 view .LVU246
 348:DSP/Source/FilteringFunctions/arm_correlate_q7.c **** 
 625              		.loc 1 348 31 is_stmt 0 view .LVU247
 626 01b6 1FFA88F8 		uxth	r8, r8
 348:DSP/Source/FilteringFunctions/arm_correlate_q7.c **** 
 627              		.loc 1 348 16 view .LVU248
 628 01ba 48EA0748 		orr	r8, r8, r7, lsl #16
 629              	.LVL95:
 351:DSP/Source/FilteringFunctions/arm_correlate_q7.c **** 
 630              		.loc 1 351 9 is_stmt 1 view .LVU249
 631              	.LBB52:
 632              	.LBI52:
2036:Drivers/CMSIS/Include/cmsis_gcc.h **** {
 633              		.loc 2 2036 31 view .LVU250
 634              	.LBB53:
2038:Drivers/CMSIS/Include/cmsis_gcc.h **** 
 635              		.loc 2 2038 3 view .LVU251
2040:Drivers/CMSIS/Include/cmsis_gcc.h ****   return(result);
 636              		.loc 2 2040 3 view .LVU252
 637              		.syntax unified
 638              	@ 2040 "Drivers/CMSIS/Include/cmsis_gcc.h" 1
ARM GAS  /var/folders/ck/g3dcd5x55xs4107jgdl0snvr0000gn/T//ccTk6Q0O.s 			page 58


 639 01be 28FB02EA 		smlad r10, r8, r2, lr
 640              	@ 0 "" 2
 641              	.LVL96:
 642              		.loc 2 2041 3 view .LVU253
 643              		.loc 2 2041 3 is_stmt 0 view .LVU254
 644              		.thumb
 645              		.syntax unified
 646              	.LBE53:
 647              	.LBE52:
 354:DSP/Source/FilteringFunctions/arm_correlate_q7.c **** 
 648              		.loc 1 354 9 is_stmt 1 view .LVU255
 354:DSP/Source/FilteringFunctions/arm_correlate_q7.c **** 
 649              		.loc 1 354 12 is_stmt 0 view .LVU256
 650 01c2 94F90100 		ldrsb	r0, [r4, #1]
 651              	.LVL97:
 357:DSP/Source/FilteringFunctions/arm_correlate_q7.c ****         in2 = (q15_t) x0;
 652              		.loc 1 357 9 is_stmt 1 view .LVU257
 358:DSP/Source/FilteringFunctions/arm_correlate_q7.c **** 
 653              		.loc 1 358 9 view .LVU258
 360:DSP/Source/FilteringFunctions/arm_correlate_q7.c **** 
 654              		.loc 1 360 9 view .LVU259
 360:DSP/Source/FilteringFunctions/arm_correlate_q7.c **** 
 655              		.loc 1 360 31 is_stmt 0 view .LVU260
 656 01c6 BFB2     		uxth	r7, r7
 657              	.LVL98:
 360:DSP/Source/FilteringFunctions/arm_correlate_q7.c **** 
 658              		.loc 1 360 16 view .LVU261
 659 01c8 47EA0047 		orr	r7, r7, r0, lsl #16
 660              	.LVL99:
 363:DSP/Source/FilteringFunctions/arm_correlate_q7.c **** 
 661              		.loc 1 363 9 is_stmt 1 view .LVU262
 662              	.LBB54:
 663              	.LBI54:
2036:Drivers/CMSIS/Include/cmsis_gcc.h **** {
 664              		.loc 2 2036 31 view .LVU263
 665              	.LBB55:
2038:Drivers/CMSIS/Include/cmsis_gcc.h **** 
 666              		.loc 2 2038 3 view .LVU264
2040:Drivers/CMSIS/Include/cmsis_gcc.h ****   return(result);
 667              		.loc 2 2040 3 view .LVU265
 668              		.syntax unified
 669              	@ 2040 "Drivers/CMSIS/Include/cmsis_gcc.h" 1
 670 01cc 27FB02C2 		smlad r2, r7, r2, ip
 671              	@ 0 "" 2
 672              	.LVL100:
 673              		.loc 2 2041 3 view .LVU266
 674              		.loc 2 2041 3 is_stmt 0 view .LVU267
 675              		.thumb
 676              		.syntax unified
 677              	.LBE55:
 678              	.LBE54:
 366:DSP/Source/FilteringFunctions/arm_correlate_q7.c ****         /* Read y[3] sample */
 679              		.loc 1 366 9 is_stmt 1 view .LVU268
 366:DSP/Source/FilteringFunctions/arm_correlate_q7.c ****         /* Read y[3] sample */
 680              		.loc 1 366 12 is_stmt 0 view .LVU269
 681 01d0 95F90290 		ldrsb	r9, [r5, #2]
 682              	.LVL101:
ARM GAS  /var/folders/ck/g3dcd5x55xs4107jgdl0snvr0000gn/T//ccTk6Q0O.s 			page 59


 368:DSP/Source/FilteringFunctions/arm_correlate_q7.c **** 
 683              		.loc 1 368 9 is_stmt 1 view .LVU270
 368:DSP/Source/FilteringFunctions/arm_correlate_q7.c **** 
 684              		.loc 1 368 12 is_stmt 0 view .LVU271
 685 01d4 95F903C0 		ldrsb	ip, [r5, #3]
 686 01d8 0435     		adds	r5, r5, #4
 687              	.LVL102:
 371:DSP/Source/FilteringFunctions/arm_correlate_q7.c **** 
 688              		.loc 1 371 9 is_stmt 1 view .LVU272
 371:DSP/Source/FilteringFunctions/arm_correlate_q7.c **** 
 689              		.loc 1 371 12 is_stmt 0 view .LVU273
 690 01da 94F90210 		ldrsb	r1, [r4, #2]
 691              	.LVL103:
 374:DSP/Source/FilteringFunctions/arm_correlate_q7.c ****         in2 = (q15_t) x3;
 692              		.loc 1 374 9 is_stmt 1 view .LVU274
 375:DSP/Source/FilteringFunctions/arm_correlate_q7.c **** 
 693              		.loc 1 375 9 view .LVU275
 377:DSP/Source/FilteringFunctions/arm_correlate_q7.c **** 
 694              		.loc 1 377 9 view .LVU276
 380:DSP/Source/FilteringFunctions/arm_correlate_q7.c ****         in2 = (q15_t) c1;
 695              		.loc 1 380 9 view .LVU277
 381:DSP/Source/FilteringFunctions/arm_correlate_q7.c **** 
 696              		.loc 1 381 9 view .LVU278
 383:DSP/Source/FilteringFunctions/arm_correlate_q7.c **** 
 697              		.loc 1 383 9 view .LVU279
 383:DSP/Source/FilteringFunctions/arm_correlate_q7.c **** 
 698              		.loc 1 383 31 is_stmt 0 view .LVU280
 699 01de 1FFA89F9 		uxth	r9, r9
 383:DSP/Source/FilteringFunctions/arm_correlate_q7.c **** 
 700              		.loc 1 383 16 view .LVU281
 701 01e2 49EA0C49 		orr	r9, r9, ip, lsl #16
 702              	.LVL104:
 386:DSP/Source/FilteringFunctions/arm_correlate_q7.c **** 
 703              		.loc 1 386 9 is_stmt 1 view .LVU282
 704              	.LBB56:
 705              	.LBI56:
2036:Drivers/CMSIS/Include/cmsis_gcc.h **** {
 706              		.loc 2 2036 31 view .LVU283
 707              	.LBB57:
2038:Drivers/CMSIS/Include/cmsis_gcc.h **** 
 708              		.loc 2 2038 3 view .LVU284
2040:Drivers/CMSIS/Include/cmsis_gcc.h ****   return(result);
 709              		.loc 2 2040 3 view .LVU285
 710              		.syntax unified
 711              	@ 2040 "Drivers/CMSIS/Include/cmsis_gcc.h" 1
 712 01e6 28FB0966 		smlad r6, r8, r9, r6
 713              	@ 0 "" 2
 714              	.LVL105:
 715              		.loc 2 2041 3 view .LVU286
 716              		.loc 2 2041 3 is_stmt 0 view .LVU287
 717              		.thumb
 718              		.syntax unified
 719              	.LBE57:
 720              	.LBE56:
 389:DSP/Source/FilteringFunctions/arm_correlate_q7.c ****         in2 = (q15_t) x0;
 721              		.loc 1 389 9 is_stmt 1 view .LVU288
 390:DSP/Source/FilteringFunctions/arm_correlate_q7.c **** 
ARM GAS  /var/folders/ck/g3dcd5x55xs4107jgdl0snvr0000gn/T//ccTk6Q0O.s 			page 60


 722              		.loc 1 390 9 view .LVU289
 392:DSP/Source/FilteringFunctions/arm_correlate_q7.c **** 
 723              		.loc 1 392 9 view .LVU290
 395:DSP/Source/FilteringFunctions/arm_correlate_q7.c **** 
 724              		.loc 1 395 9 view .LVU291
 725              	.LBB58:
 726              	.LBI58:
2036:Drivers/CMSIS/Include/cmsis_gcc.h **** {
 727              		.loc 2 2036 31 view .LVU292
 728              	.LBB59:
2038:Drivers/CMSIS/Include/cmsis_gcc.h **** 
 729              		.loc 2 2038 3 view .LVU293
2040:Drivers/CMSIS/Include/cmsis_gcc.h ****   return(result);
 730              		.loc 2 2040 3 view .LVU294
 731              		.syntax unified
 732              	@ 2040 "Drivers/CMSIS/Include/cmsis_gcc.h" 1
 733 01ea 27FB0937 		smlad r7, r7, r9, r3
 734              	@ 0 "" 2
 735              	.LVL106:
 736              		.loc 2 2041 3 view .LVU295
 737              		.loc 2 2041 3 is_stmt 0 view .LVU296
 738              		.thumb
 739              		.syntax unified
 740              	.LBE59:
 741              	.LBE58:
 395:DSP/Source/FilteringFunctions/arm_correlate_q7.c **** 
 742              		.loc 1 395 14 discriminator 1 view .LVU297
 743 01ee 3B46     		mov	r3, r7
 744              	.LVL107:
 398:DSP/Source/FilteringFunctions/arm_correlate_q7.c ****         in2 = (q15_t) x1;
 745              		.loc 1 398 9 is_stmt 1 view .LVU298
 399:DSP/Source/FilteringFunctions/arm_correlate_q7.c **** 
 746              		.loc 1 399 9 view .LVU299
 401:DSP/Source/FilteringFunctions/arm_correlate_q7.c **** 
 747              		.loc 1 401 9 view .LVU300
 401:DSP/Source/FilteringFunctions/arm_correlate_q7.c **** 
 748              		.loc 1 401 31 is_stmt 0 view .LVU301
 749 01f0 1FFA80FE 		uxth	lr, r0
 401:DSP/Source/FilteringFunctions/arm_correlate_q7.c **** 
 750              		.loc 1 401 16 view .LVU302
 751 01f4 4EEA014E 		orr	lr, lr, r1, lsl #16
 752              	.LVL108:
 404:DSP/Source/FilteringFunctions/arm_correlate_q7.c **** 
 753              		.loc 1 404 9 is_stmt 1 view .LVU303
 754              	.LBB60:
 755              	.LBI60:
2036:Drivers/CMSIS/Include/cmsis_gcc.h **** {
 756              		.loc 2 2036 31 view .LVU304
 757              	.LBB61:
2038:Drivers/CMSIS/Include/cmsis_gcc.h **** 
 758              		.loc 2 2038 3 view .LVU305
2040:Drivers/CMSIS/Include/cmsis_gcc.h ****   return(result);
 759              		.loc 2 2040 3 view .LVU306
 760              		.syntax unified
 761              	@ 2040 "Drivers/CMSIS/Include/cmsis_gcc.h" 1
 762 01f8 2EFB09AE 		smlad lr, lr, r9, r10
 763              	@ 0 "" 2
ARM GAS  /var/folders/ck/g3dcd5x55xs4107jgdl0snvr0000gn/T//ccTk6Q0O.s 			page 61


 764              	.LVL109:
 765              		.loc 2 2041 3 view .LVU307
 766              		.loc 2 2041 3 is_stmt 0 view .LVU308
 767              		.thumb
 768              		.syntax unified
 769              	.LBE61:
 770              	.LBE60:
 407:DSP/Source/FilteringFunctions/arm_correlate_q7.c **** 
 771              		.loc 1 407 9 is_stmt 1 view .LVU309
 407:DSP/Source/FilteringFunctions/arm_correlate_q7.c **** 
 772              		.loc 1 407 12 is_stmt 0 view .LVU310
 773 01fc 94F90380 		ldrsb	r8, [r4, #3]
 774 0200 0434     		adds	r4, r4, #4
 775              	.LVL110:
 410:DSP/Source/FilteringFunctions/arm_correlate_q7.c ****         in2 = (q15_t) x2;
 776              		.loc 1 410 9 is_stmt 1 view .LVU311
 411:DSP/Source/FilteringFunctions/arm_correlate_q7.c **** 
 777              		.loc 1 411 9 view .LVU312
 413:DSP/Source/FilteringFunctions/arm_correlate_q7.c **** 
 778              		.loc 1 413 9 view .LVU313
 413:DSP/Source/FilteringFunctions/arm_correlate_q7.c **** 
 779              		.loc 1 413 31 is_stmt 0 view .LVU314
 780 0202 1FFA81FC 		uxth	ip, r1
 781              	.LVL111:
 413:DSP/Source/FilteringFunctions/arm_correlate_q7.c **** 
 782              		.loc 1 413 16 view .LVU315
 783 0206 4CEA084C 		orr	ip, ip, r8, lsl #16
 784              	.LVL112:
 416:DSP/Source/FilteringFunctions/arm_correlate_q7.c **** 
 785              		.loc 1 416 9 is_stmt 1 view .LVU316
 786              	.LBB62:
 787              	.LBI62:
2036:Drivers/CMSIS/Include/cmsis_gcc.h **** {
 788              		.loc 2 2036 31 view .LVU317
 789              	.LBB63:
2038:Drivers/CMSIS/Include/cmsis_gcc.h **** 
 790              		.loc 2 2038 3 view .LVU318
2040:Drivers/CMSIS/Include/cmsis_gcc.h ****   return(result);
 791              		.loc 2 2040 3 view .LVU319
 792              		.syntax unified
 793              	@ 2040 "Drivers/CMSIS/Include/cmsis_gcc.h" 1
 794 020a 2CFB092C 		smlad ip, ip, r9, r2
 795              	@ 0 "" 2
 796              	.LVL113:
 797              		.loc 2 2041 3 view .LVU320
 798              		.loc 2 2041 3 is_stmt 0 view .LVU321
 799              		.thumb
 800              		.syntax unified
 801              	.LBE63:
 802              	.LBE62:
 418:DSP/Source/FilteringFunctions/arm_correlate_q7.c **** 
 803              		.loc 1 418 16 is_stmt 1 discriminator 1 view .LVU322
 418:DSP/Source/FilteringFunctions/arm_correlate_q7.c **** 
 804              		.loc 1 418 16 is_stmt 0 discriminator 1 view .LVU323
 805 020e BBF1010B 		subs	fp, fp, #1
 806              	.LVL114:
 418:DSP/Source/FilteringFunctions/arm_correlate_q7.c **** 
ARM GAS  /var/folders/ck/g3dcd5x55xs4107jgdl0snvr0000gn/T//ccTk6Q0O.s 			page 62


 807              		.loc 1 418 16 discriminator 1 view .LVU324
 808 0212 BDD1     		bne	.L12
 422:DSP/Source/FilteringFunctions/arm_correlate_q7.c **** 
 809              		.loc 1 422 9 view .LVU325
 810 0214 069A     		ldr	r2, [sp, #24]
 811 0216 DDF81CB0 		ldr	fp, [sp, #28]
 812              	.LVL115:
 422:DSP/Source/FilteringFunctions/arm_correlate_q7.c **** 
 813              		.loc 1 422 7 is_stmt 1 view .LVU326
 422:DSP/Source/FilteringFunctions/arm_correlate_q7.c **** 
 814              		.loc 1 422 9 is_stmt 0 view .LVU327
 815 021a 049F     		ldr	r7, [sp, #16]
 816              	.LVL116:
 422:DSP/Source/FilteringFunctions/arm_correlate_q7.c **** 
 817              		.loc 1 422 9 view .LVU328
 818 021c 07F00307 		and	r7, r7, #3
 819              	.LVL117:
 424:DSP/Source/FilteringFunctions/arm_correlate_q7.c ****       {
 820              		.loc 1 424 7 is_stmt 1 view .LVU329
 821              	.L13:
 424:DSP/Source/FilteringFunctions/arm_correlate_q7.c ****       {
 822              		.loc 1 424 16 view .LVU330
 823 0220 002F     		cmp	r7, #0
 824 0222 3FF478AF 		beq	.L36
 427:DSP/Source/FilteringFunctions/arm_correlate_q7.c **** 
 825              		.loc 1 427 9 view .LVU331
 826              	.LVL118:
 427:DSP/Source/FilteringFunctions/arm_correlate_q7.c **** 
 827              		.loc 1 427 12 is_stmt 0 view .LVU332
 828 0226 15F9019B 		ldrsb	r9, [r5], #1
 829              	.LVL119:
 430:DSP/Source/FilteringFunctions/arm_correlate_q7.c **** 
 830              		.loc 1 430 9 is_stmt 1 view .LVU333
 430:DSP/Source/FilteringFunctions/arm_correlate_q7.c **** 
 831              		.loc 1 430 12 is_stmt 0 view .LVU334
 832 022a 14F901AB 		ldrsb	r10, [r4], #1
 833              	.LVL120:
 434:DSP/Source/FilteringFunctions/arm_correlate_q7.c ****         /* acc1 +=  x[5] * y[4] */
 834              		.loc 1 434 9 is_stmt 1 view .LVU335
 434:DSP/Source/FilteringFunctions/arm_correlate_q7.c ****         /* acc1 +=  x[5] * y[4] */
 835              		.loc 1 434 14 is_stmt 0 view .LVU336
 836 022e 09FB0066 		mla	r6, r9, r0, r6
 837              	.LVL121:
 436:DSP/Source/FilteringFunctions/arm_correlate_q7.c ****         /* acc2 +=  x[6] * y[4] */
 838              		.loc 1 436 9 is_stmt 1 view .LVU337
 436:DSP/Source/FilteringFunctions/arm_correlate_q7.c ****         /* acc2 +=  x[6] * y[4] */
 839              		.loc 1 436 14 is_stmt 0 view .LVU338
 840 0232 01FB0933 		mla	r3, r1, r9, r3
 841              	.LVL122:
 438:DSP/Source/FilteringFunctions/arm_correlate_q7.c ****         /* acc3 +=  x[7] * y[4] */
 842              		.loc 1 438 9 is_stmt 1 view .LVU339
 438:DSP/Source/FilteringFunctions/arm_correlate_q7.c ****         /* acc3 +=  x[7] * y[4] */
 843              		.loc 1 438 14 is_stmt 0 view .LVU340
 844 0236 08FB09EE 		mla	lr, r8, r9, lr
 845              	.LVL123:
 440:DSP/Source/FilteringFunctions/arm_correlate_q7.c **** 
 846              		.loc 1 440 9 is_stmt 1 view .LVU341
ARM GAS  /var/folders/ck/g3dcd5x55xs4107jgdl0snvr0000gn/T//ccTk6Q0O.s 			page 63


 440:DSP/Source/FilteringFunctions/arm_correlate_q7.c **** 
 847              		.loc 1 440 14 is_stmt 0 view .LVU342
 848 023a 0AFB09CC 		mla	ip, r10, r9, ip
 849              	.LVL124:
 443:DSP/Source/FilteringFunctions/arm_correlate_q7.c ****         x1 = x2;
 850              		.loc 1 443 9 is_stmt 1 view .LVU343
 444:DSP/Source/FilteringFunctions/arm_correlate_q7.c ****         x2 = x3;
 851              		.loc 1 444 9 view .LVU344
 445:DSP/Source/FilteringFunctions/arm_correlate_q7.c **** 
 852              		.loc 1 445 9 view .LVU345
 448:DSP/Source/FilteringFunctions/arm_correlate_q7.c ****       }
 853              		.loc 1 448 9 view .LVU346
 448:DSP/Source/FilteringFunctions/arm_correlate_q7.c ****       }
 854              		.loc 1 448 10 is_stmt 0 view .LVU347
 855 023e 013F     		subs	r7, r7, #1
 856              	.LVL125:
 443:DSP/Source/FilteringFunctions/arm_correlate_q7.c ****         x1 = x2;
 857              		.loc 1 443 12 view .LVU348
 858 0240 0846     		mov	r0, r1
 444:DSP/Source/FilteringFunctions/arm_correlate_q7.c ****         x2 = x3;
 859              		.loc 1 444 12 view .LVU349
 860 0242 4146     		mov	r1, r8
 861              	.LVL126:
 445:DSP/Source/FilteringFunctions/arm_correlate_q7.c **** 
 862              		.loc 1 445 12 view .LVU350
 863 0244 D046     		mov	r8, r10
 864 0246 EBE7     		b	.L13
 865              	.LVL127:
 866              	.L35:
 472:DSP/Source/FilteringFunctions/arm_correlate_q7.c ****     }
 473:DSP/Source/FilteringFunctions/arm_correlate_q7.c **** 
 474:DSP/Source/FilteringFunctions/arm_correlate_q7.c ****     /* If the blockSize2 is not a multiple of 4, compute any remaining output samples here.
 475:DSP/Source/FilteringFunctions/arm_correlate_q7.c ****      ** No loop unrolling is used. */
 476:DSP/Source/FilteringFunctions/arm_correlate_q7.c ****     blkCnt = blockSize2 % 0x4U;
 867              		.loc 1 476 12 view .LVU351
 868 0248 D046     		mov	r8, r10
 869 024a 039A     		ldr	r2, [sp, #12]
 870              	.LVL128:
 871              		.loc 1 476 12 view .LVU352
 872 024c 0898     		ldr	r0, [sp, #32]
 873 024e 5F46     		mov	r7, fp
 874 0250 DDF824C0 		ldr	ip, [sp, #36]
 875 0254 DDF810B0 		ldr	fp, [sp, #16]
 876              		.loc 1 476 5 is_stmt 1 view .LVU353
 877              		.loc 1 476 12 is_stmt 0 view .LVU354
 878 0258 0CF0030E 		and	lr, ip, #3
 879              	.LVL129:
 477:DSP/Source/FilteringFunctions/arm_correlate_q7.c **** 
 478:DSP/Source/FilteringFunctions/arm_correlate_q7.c ****     while (blkCnt > 0U)
 880              		.loc 1 478 5 is_stmt 1 view .LVU355
 881 025c 8246     		mov	r10, r0
 882              	.LVL130:
 883              		.loc 1 478 5 is_stmt 0 view .LVU356
 884 025e 7146     		mov	r1, lr
 885 0260 9646     		mov	lr, r2
 886              	.LVL131:
 887              		.loc 1 478 5 view .LVU357
ARM GAS  /var/folders/ck/g3dcd5x55xs4107jgdl0snvr0000gn/T//ccTk6Q0O.s 			page 64


 888 0262 DDF80890 		ldr	r9, [sp, #8]
 889 0266 0A46     		mov	r2, r1
 890              		.loc 1 478 11 view .LVU358
 891 0268 17E0     		b	.L16
 892              	.LVL132:
 893              	.L39:
 479:DSP/Source/FilteringFunctions/arm_correlate_q7.c ****     {
 480:DSP/Source/FilteringFunctions/arm_correlate_q7.c ****       /* Accumulator is made zero for every iteration */
 481:DSP/Source/FilteringFunctions/arm_correlate_q7.c ****       sum = 0;
 482:DSP/Source/FilteringFunctions/arm_correlate_q7.c **** 
 483:DSP/Source/FilteringFunctions/arm_correlate_q7.c ****       /* Apply loop unrolling and compute 4 MACs simultaneously. */
 484:DSP/Source/FilteringFunctions/arm_correlate_q7.c ****       k = srcBLen >> 2U;
 485:DSP/Source/FilteringFunctions/arm_correlate_q7.c **** 
 486:DSP/Source/FilteringFunctions/arm_correlate_q7.c ****       /* First part of the processing with loop unrolling.  Compute 4 MACs at a time.
 487:DSP/Source/FilteringFunctions/arm_correlate_q7.c ****        ** a second loop below computes MACs for the remaining 1 to 3 samples. */
 488:DSP/Source/FilteringFunctions/arm_correlate_q7.c ****       while (k > 0U)
 489:DSP/Source/FilteringFunctions/arm_correlate_q7.c ****       {
 490:DSP/Source/FilteringFunctions/arm_correlate_q7.c ****         /* Reading two inputs of SrcA buffer and packing */
 491:DSP/Source/FilteringFunctions/arm_correlate_q7.c ****         in1 = (q15_t) * px++;
 492:DSP/Source/FilteringFunctions/arm_correlate_q7.c ****         in2 = (q15_t) * px++;
 493:DSP/Source/FilteringFunctions/arm_correlate_q7.c ****         input1 = ((q31_t) in1 & 0x0000FFFF) | ((q31_t) in2 << 16);
 494:DSP/Source/FilteringFunctions/arm_correlate_q7.c **** 
 495:DSP/Source/FilteringFunctions/arm_correlate_q7.c ****         /* Reading two inputs of SrcB buffer and packing */
 496:DSP/Source/FilteringFunctions/arm_correlate_q7.c ****         in1 = (q15_t) * py++;
 497:DSP/Source/FilteringFunctions/arm_correlate_q7.c ****         in2 = (q15_t) * py++;
 498:DSP/Source/FilteringFunctions/arm_correlate_q7.c ****         input2 = ((q31_t) in1 & 0x0000FFFF) | ((q31_t) in2 << 16);
 499:DSP/Source/FilteringFunctions/arm_correlate_q7.c **** 
 500:DSP/Source/FilteringFunctions/arm_correlate_q7.c ****         /* Perform the multiply-accumulates */
 501:DSP/Source/FilteringFunctions/arm_correlate_q7.c ****         sum = __SMLAD(input1, input2, sum);
 502:DSP/Source/FilteringFunctions/arm_correlate_q7.c **** 
 503:DSP/Source/FilteringFunctions/arm_correlate_q7.c ****         /* Reading two inputs of SrcA buffer and packing */
 504:DSP/Source/FilteringFunctions/arm_correlate_q7.c ****         in1 = (q15_t) * px++;
 505:DSP/Source/FilteringFunctions/arm_correlate_q7.c ****         in2 = (q15_t) * px++;
 506:DSP/Source/FilteringFunctions/arm_correlate_q7.c ****         input1 = ((q31_t) in1 & 0x0000FFFF) | ((q31_t) in2 << 16);
 507:DSP/Source/FilteringFunctions/arm_correlate_q7.c **** 
 508:DSP/Source/FilteringFunctions/arm_correlate_q7.c ****         /* Reading two inputs of SrcB buffer and packing */
 509:DSP/Source/FilteringFunctions/arm_correlate_q7.c ****         in1 = (q15_t) * py++;
 510:DSP/Source/FilteringFunctions/arm_correlate_q7.c ****         in2 = (q15_t) * py++;
 511:DSP/Source/FilteringFunctions/arm_correlate_q7.c ****         input2 = ((q31_t) in1 & 0x0000FFFF) | ((q31_t) in2 << 16);
 512:DSP/Source/FilteringFunctions/arm_correlate_q7.c **** 
 513:DSP/Source/FilteringFunctions/arm_correlate_q7.c ****         /* Perform the multiply-accumulates */
 514:DSP/Source/FilteringFunctions/arm_correlate_q7.c ****         sum = __SMLAD(input1, input2, sum);
 515:DSP/Source/FilteringFunctions/arm_correlate_q7.c **** 
 516:DSP/Source/FilteringFunctions/arm_correlate_q7.c ****         /* Decrement the loop counter */
 517:DSP/Source/FilteringFunctions/arm_correlate_q7.c ****         k--;
 518:DSP/Source/FilteringFunctions/arm_correlate_q7.c ****       }
 519:DSP/Source/FilteringFunctions/arm_correlate_q7.c **** 
 520:DSP/Source/FilteringFunctions/arm_correlate_q7.c ****       /* If the srcBLen is not a multiple of 4, compute any remaining MACs here.
 521:DSP/Source/FilteringFunctions/arm_correlate_q7.c ****        ** No loop unrolling is used. */
 522:DSP/Source/FilteringFunctions/arm_correlate_q7.c ****       k = srcBLen % 0x4U;
 894              		.loc 1 522 9 view .LVU359
 895 026a DDF80C80 		ldr	r8, [sp, #12]
 896              		.loc 1 522 7 is_stmt 1 view .LVU360
 897              		.loc 1 522 9 is_stmt 0 view .LVU361
 898 026e 0BF00304 		and	r4, fp, #3
 899              	.LVL133:
 523:DSP/Source/FilteringFunctions/arm_correlate_q7.c **** 
ARM GAS  /var/folders/ck/g3dcd5x55xs4107jgdl0snvr0000gn/T//ccTk6Q0O.s 			page 65


 524:DSP/Source/FilteringFunctions/arm_correlate_q7.c ****       while (k > 0U)
 900              		.loc 1 524 7 is_stmt 1 view .LVU362
 901              	.L19:
 902              		.loc 1 524 16 view .LVU363
 903 0272 3CB1     		cbz	r4, .L37
 525:DSP/Source/FilteringFunctions/arm_correlate_q7.c ****       {
 526:DSP/Source/FilteringFunctions/arm_correlate_q7.c ****         /* Perform the multiply-accumulates */
 527:DSP/Source/FilteringFunctions/arm_correlate_q7.c ****         sum += ((q15_t) * px++ * *py++);
 904              		.loc 1 527 9 view .LVU364
 905              	.LVL134:
 906              		.loc 1 527 25 is_stmt 0 view .LVU365
 907 0274 13F9015B 		ldrsb	r5, [r3], #1
 908              	.LVL135:
 909              		.loc 1 527 34 view .LVU366
 910 0278 10F9016B 		ldrsb	r6, [r0], #1
 911              	.LVL136:
 912              		.loc 1 527 13 view .LVU367
 913 027c 06FB0511 		mla	r1, r6, r5, r1
 914              	.LVL137:
