ARM GAS  /var/folders/ck/g3dcd5x55xs4107jgdl0snvr0000gn/T//cciZYsJV.s 			page 1


   1              		.cpu cortex-m4
   2              		.arch armv7e-m
   3              		.fpu fpv4-sp-d16
   4              		.eabi_attribute 27, 1
   5              		.eabi_attribute 28, 1
   6              		.eabi_attribute 20, 1
   7              		.eabi_attribute 21, 1
   8              		.eabi_attribute 23, 3
   9              		.eabi_attribute 24, 1
  10              		.eabi_attribute 25, 1
  11              		.eabi_attribute 26, 1
  12              		.eabi_attribute 30, 1
  13              		.eabi_attribute 34, 1
  14              		.eabi_attribute 18, 4
  15              		.file	"arm_bitreversal.c"
  16              		.text
  17              	.Ltext0:
  18              		.cfi_sections	.debug_frame
  19              		.file 1 "DSP/Source/TransformFunctions/arm_bitreversal.c"
  20              		.section	.text.arm_bitreversal_f32,"ax",%progbits
  21              		.align	1
  22              		.global	arm_bitreversal_f32
  23              		.syntax unified
  24              		.thumb
  25              		.thumb_func
  27              	arm_bitreversal_f32:
  28              	.LVL0:
  29              	.LFB139:
   1:DSP/Source/TransformFunctions/arm_bitreversal.c **** /* ----------------------------------------------------------------------
   2:DSP/Source/TransformFunctions/arm_bitreversal.c ****  * Project:      CMSIS DSP Library
   3:DSP/Source/TransformFunctions/arm_bitreversal.c ****  * Title:        arm_bitreversal.c
   4:DSP/Source/TransformFunctions/arm_bitreversal.c ****  * Description:  Bitreversal functions
   5:DSP/Source/TransformFunctions/arm_bitreversal.c ****  *
   6:DSP/Source/TransformFunctions/arm_bitreversal.c ****  * $Date:        27. January 2017
   7:DSP/Source/TransformFunctions/arm_bitreversal.c ****  * $Revision:    V.1.5.1
   8:DSP/Source/TransformFunctions/arm_bitreversal.c ****  *
   9:DSP/Source/TransformFunctions/arm_bitreversal.c ****  * Target Processor: Cortex-M cores
  10:DSP/Source/TransformFunctions/arm_bitreversal.c ****  * -------------------------------------------------------------------- */
  11:DSP/Source/TransformFunctions/arm_bitreversal.c **** /*
  12:DSP/Source/TransformFunctions/arm_bitreversal.c ****  * Copyright (C) 2010-2017 ARM Limited or its affiliates. All rights reserved.
  13:DSP/Source/TransformFunctions/arm_bitreversal.c ****  *
  14:DSP/Source/TransformFunctions/arm_bitreversal.c ****  * SPDX-License-Identifier: Apache-2.0
  15:DSP/Source/TransformFunctions/arm_bitreversal.c ****  *
  16:DSP/Source/TransformFunctions/arm_bitreversal.c ****  * Licensed under the Apache License, Version 2.0 (the License); you may
  17:DSP/Source/TransformFunctions/arm_bitreversal.c ****  * not use this file except in compliance with the License.
  18:DSP/Source/TransformFunctions/arm_bitreversal.c ****  * You may obtain a copy of the License at
  19:DSP/Source/TransformFunctions/arm_bitreversal.c ****  *
  20:DSP/Source/TransformFunctions/arm_bitreversal.c ****  * www.apache.org/licenses/LICENSE-2.0
  21:DSP/Source/TransformFunctions/arm_bitreversal.c ****  *
  22:DSP/Source/TransformFunctions/arm_bitreversal.c ****  * Unless required by applicable law or agreed to in writing, software
  23:DSP/Source/TransformFunctions/arm_bitreversal.c ****  * distributed under the License is distributed on an AS IS BASIS, WITHOUT
  24:DSP/Source/TransformFunctions/arm_bitreversal.c ****  * WARRANTIES OR CONDITIONS OF ANY KIND, either express or implied.
  25:DSP/Source/TransformFunctions/arm_bitreversal.c ****  * See the License for the specific language governing permissions and
  26:DSP/Source/TransformFunctions/arm_bitreversal.c ****  * limitations under the License.
  27:DSP/Source/TransformFunctions/arm_bitreversal.c ****  */
  28:DSP/Source/TransformFunctions/arm_bitreversal.c **** 
  29:DSP/Source/TransformFunctions/arm_bitreversal.c **** #include "arm_math.h"
ARM GAS  /var/folders/ck/g3dcd5x55xs4107jgdl0snvr0000gn/T//cciZYsJV.s 			page 2


  30:DSP/Source/TransformFunctions/arm_bitreversal.c **** #include "arm_common_tables.h"
  31:DSP/Source/TransformFunctions/arm_bitreversal.c **** 
  32:DSP/Source/TransformFunctions/arm_bitreversal.c **** /*
  33:DSP/Source/TransformFunctions/arm_bitreversal.c **** * @brief  In-place bit reversal function.
  34:DSP/Source/TransformFunctions/arm_bitreversal.c **** * @param[in, out] *pSrc        points to the in-place buffer of floating-point data type.
  35:DSP/Source/TransformFunctions/arm_bitreversal.c **** * @param[in]      fftSize      length of the FFT.
  36:DSP/Source/TransformFunctions/arm_bitreversal.c **** * @param[in]      bitRevFactor bit reversal modifier that supports different size FFTs with the sam
  37:DSP/Source/TransformFunctions/arm_bitreversal.c **** * @param[in]      *pBitRevTab  points to the bit reversal table.
  38:DSP/Source/TransformFunctions/arm_bitreversal.c **** * @return none.
  39:DSP/Source/TransformFunctions/arm_bitreversal.c **** */
  40:DSP/Source/TransformFunctions/arm_bitreversal.c **** 
  41:DSP/Source/TransformFunctions/arm_bitreversal.c **** void arm_bitreversal_f32(
  42:DSP/Source/TransformFunctions/arm_bitreversal.c **** float32_t * pSrc,
  43:DSP/Source/TransformFunctions/arm_bitreversal.c **** uint16_t fftSize,
  44:DSP/Source/TransformFunctions/arm_bitreversal.c **** uint16_t bitRevFactor,
  45:DSP/Source/TransformFunctions/arm_bitreversal.c **** uint16_t * pBitRevTab)
  46:DSP/Source/TransformFunctions/arm_bitreversal.c **** {
  30              		.loc 1 46 1 view -0
  31              		.cfi_startproc
  32              		@ args = 0, pretend = 0, frame = 0
  33              		@ frame_needed = 0, uses_anonymous_args = 0
  34              		.loc 1 46 1 is_stmt 0 view .LVU1
  35 0000 2DE9F043 		push	{r4, r5, r6, r7, r8, r9, lr}
  36              	.LCFI0:
  37              		.cfi_def_cfa_offset 28
  38              		.cfi_offset 4, -28
  39              		.cfi_offset 5, -24
  40              		.cfi_offset 6, -20
  41              		.cfi_offset 7, -16
  42              		.cfi_offset 8, -12
  43              		.cfi_offset 9, -8
  44              		.cfi_offset 14, -4
  47:DSP/Source/TransformFunctions/arm_bitreversal.c ****    uint16_t fftLenBy2, fftLenBy2p1;
  45              		.loc 1 47 4 is_stmt 1 view .LVU2
  48:DSP/Source/TransformFunctions/arm_bitreversal.c ****    uint16_t i, j;
  46              		.loc 1 48 4 view .LVU3
  49:DSP/Source/TransformFunctions/arm_bitreversal.c ****    float32_t in;
  47              		.loc 1 49 4 view .LVU4
  50:DSP/Source/TransformFunctions/arm_bitreversal.c **** 
  51:DSP/Source/TransformFunctions/arm_bitreversal.c ****    /*  Initializations */
  52:DSP/Source/TransformFunctions/arm_bitreversal.c ****    j = 0U;
  48              		.loc 1 52 4 view .LVU5
  49              	.LVL1:
  53:DSP/Source/TransformFunctions/arm_bitreversal.c ****    fftLenBy2 = fftSize >> 1U;
  50              		.loc 1 53 4 view .LVU6
  51              		.loc 1 53 14 is_stmt 0 view .LVU7
  52 0004 4C08     		lsrs	r4, r1, #1
  53              	.LVL2:
  54:DSP/Source/TransformFunctions/arm_bitreversal.c ****    fftLenBy2p1 = (fftSize >> 1U) + 1U;
  54              		.loc 1 54 4 is_stmt 1 view .LVU8
  55              		.loc 1 54 16 is_stmt 0 view .LVU9
  56 0006 651C     		adds	r5, r4, #1
  57              	.LVL3:
  55:DSP/Source/TransformFunctions/arm_bitreversal.c **** 
  56:DSP/Source/TransformFunctions/arm_bitreversal.c ****    /* Bit Reversal Implementation */
  57:DSP/Source/TransformFunctions/arm_bitreversal.c ****    for (i = 0U; i <= (fftLenBy2 - 2U); i += 2U)
  58              		.loc 1 57 4 is_stmt 1 view .LVU10
ARM GAS  /var/folders/ck/g3dcd5x55xs4107jgdl0snvr0000gn/T//cciZYsJV.s 			page 3


  52:DSP/Source/TransformFunctions/arm_bitreversal.c ****    fftLenBy2 = fftSize >> 1U;
  59              		.loc 1 52 6 is_stmt 0 view .LVU11
  60 0008 4FF0000E 		mov	lr, #0
  61              		.loc 1 57 11 view .LVU12
  62 000c 7146     		mov	r1, lr
  63              	.LVL4:
  64              		.loc 1 57 4 view .LVU13
  65 000e 27E0     		b	.L2
  66              	.LVL5:
  67              	.L3:
  58:DSP/Source/TransformFunctions/arm_bitreversal.c ****    {
  59:DSP/Source/TransformFunctions/arm_bitreversal.c ****       if (i < j)
  60:DSP/Source/TransformFunctions/arm_bitreversal.c ****       {
  61:DSP/Source/TransformFunctions/arm_bitreversal.c ****          /*  pSrc[i] <-> pSrc[j]; */
  62:DSP/Source/TransformFunctions/arm_bitreversal.c ****          in = pSrc[2U * i];
  63:DSP/Source/TransformFunctions/arm_bitreversal.c ****          pSrc[2U * i] = pSrc[2U * j];
  64:DSP/Source/TransformFunctions/arm_bitreversal.c ****          pSrc[2U * j] = in;
  65:DSP/Source/TransformFunctions/arm_bitreversal.c **** 
  66:DSP/Source/TransformFunctions/arm_bitreversal.c ****          /*  pSrc[i+1U] <-> pSrc[j+1U] */
  67:DSP/Source/TransformFunctions/arm_bitreversal.c ****          in = pSrc[(2U * i) + 1U];
  68:DSP/Source/TransformFunctions/arm_bitreversal.c ****          pSrc[(2U * i) + 1U] = pSrc[(2U * j) + 1U];
  69:DSP/Source/TransformFunctions/arm_bitreversal.c ****          pSrc[(2U * j) + 1U] = in;
  70:DSP/Source/TransformFunctions/arm_bitreversal.c **** 
  71:DSP/Source/TransformFunctions/arm_bitreversal.c ****          /*  pSrc[i+fftLenBy2p1] <-> pSrc[j+fftLenBy2p1] */
  72:DSP/Source/TransformFunctions/arm_bitreversal.c ****          in = pSrc[2U * (i + fftLenBy2p1)];
  73:DSP/Source/TransformFunctions/arm_bitreversal.c ****          pSrc[2U * (i + fftLenBy2p1)] = pSrc[2U * (j + fftLenBy2p1)];
  74:DSP/Source/TransformFunctions/arm_bitreversal.c ****          pSrc[2U * (j + fftLenBy2p1)] = in;
  75:DSP/Source/TransformFunctions/arm_bitreversal.c **** 
  76:DSP/Source/TransformFunctions/arm_bitreversal.c ****          /*  pSrc[i+fftLenBy2p1+1U] <-> pSrc[j+fftLenBy2p1+1U] */
  77:DSP/Source/TransformFunctions/arm_bitreversal.c ****          in = pSrc[(2U * (i + fftLenBy2p1)) + 1U];
  78:DSP/Source/TransformFunctions/arm_bitreversal.c ****          pSrc[(2U * (i + fftLenBy2p1)) + 1U] =
  79:DSP/Source/TransformFunctions/arm_bitreversal.c ****          pSrc[(2U * (j + fftLenBy2p1)) + 1U];
  80:DSP/Source/TransformFunctions/arm_bitreversal.c ****          pSrc[(2U * (j + fftLenBy2p1)) + 1U] = in;
  81:DSP/Source/TransformFunctions/arm_bitreversal.c **** 
  82:DSP/Source/TransformFunctions/arm_bitreversal.c ****       }
  83:DSP/Source/TransformFunctions/arm_bitreversal.c **** 
  84:DSP/Source/TransformFunctions/arm_bitreversal.c ****       /*  pSrc[i+1U] <-> pSrc[j+1U] */
  85:DSP/Source/TransformFunctions/arm_bitreversal.c ****       in = pSrc[2U * (i + 1U)];
  68              		.loc 1 85 7 is_stmt 1 view .LVU14
  69              		.loc 1 85 25 is_stmt 0 view .LVU15
  70 0010 0CF10107 		add	r7, ip, #1
  71              		.loc 1 85 16 view .LVU16
  72 0014 00EBC707 		add	r7, r0, r7, lsl #3
  73              		.loc 1 85 10 view .LVU17
  74 0018 D7F80080 		ldr	r8, [r7]	@ float
  75              	.LVL6:
  86:DSP/Source/TransformFunctions/arm_bitreversal.c ****       pSrc[2U * (i + 1U)] = pSrc[2U * (j + fftLenBy2)];
  76              		.loc 1 86 7 is_stmt 1 view .LVU18
  77              		.loc 1 86 42 is_stmt 0 view .LVU19
  78 001c 0EEB0406 		add	r6, lr, r4
  79              		.loc 1 86 33 view .LVU20
  80 0020 4FEAC60E 		lsl	lr, r6, #3
  81              	.LVL7:
  82              		.loc 1 86 33 view .LVU21
  83 0024 00EBC606 		add	r6, r0, r6, lsl #3
  84 0028 D6F80090 		ldr	r9, [r6]	@ float
  85              		.loc 1 86 27 view .LVU22
ARM GAS  /var/folders/ck/g3dcd5x55xs4107jgdl0snvr0000gn/T//cciZYsJV.s 			page 4


  86 002c C7F80090 		str	r9, [r7]	@ float
  87:DSP/Source/TransformFunctions/arm_bitreversal.c ****       pSrc[2U * (j + fftLenBy2)] = in;
  87              		.loc 1 87 7 is_stmt 1 view .LVU23
  88              		.loc 1 87 34 is_stmt 0 view .LVU24
  89 0030 C6F80080 		str	r8, [r6]	@ float
  88:DSP/Source/TransformFunctions/arm_bitreversal.c **** 
  89:DSP/Source/TransformFunctions/arm_bitreversal.c ****       /*  pSrc[i+2U] <-> pSrc[j+2U] */
  90:DSP/Source/TransformFunctions/arm_bitreversal.c ****       in = pSrc[(2U * (i + 1U)) + 1U];
  90              		.loc 1 90 7 is_stmt 1 view .LVU25
  91              		.loc 1 90 16 is_stmt 0 view .LVU26
  92 0034 4FEACC0C 		lsl	ip, ip, #3
  93 0038 0CF10C0C 		add	ip, ip, #12
  94 003c 8444     		add	ip, ip, r0
  95              		.loc 1 90 10 view .LVU27
  96 003e DCF80060 		ldr	r6, [ip]	@ float
  97              	.LVL8:
  91:DSP/Source/TransformFunctions/arm_bitreversal.c ****       pSrc[(2U * (i + 1U)) + 1U] = pSrc[(2U * (j + fftLenBy2)) + 1U];
  98              		.loc 1 91 7 is_stmt 1 view .LVU28
  99              		.loc 1 91 40 is_stmt 0 view .LVU29
 100 0042 0EF1040E 		add	lr, lr, #4
 101 0046 8644     		add	lr, lr, r0
 102 0048 DEF80070 		ldr	r7, [lr]	@ float
 103              		.loc 1 91 34 view .LVU30
 104 004c CCF80070 		str	r7, [ip]	@ float
  92:DSP/Source/TransformFunctions/arm_bitreversal.c ****       pSrc[(2U * (j + fftLenBy2)) + 1U] = in;
 105              		.loc 1 92 7 is_stmt 1 view .LVU31
 106              		.loc 1 92 41 is_stmt 0 view .LVU32
 107 0050 CEF80060 		str	r6, [lr]	@ float
  93:DSP/Source/TransformFunctions/arm_bitreversal.c **** 
  94:DSP/Source/TransformFunctions/arm_bitreversal.c ****       /*  Reading the index for the bit reversal */
  95:DSP/Source/TransformFunctions/arm_bitreversal.c ****       j = *pBitRevTab;
 108              		.loc 1 95 7 is_stmt 1 view .LVU33
 109              		.loc 1 95 9 is_stmt 0 view .LVU34
 110 0054 B3F800E0 		ldrh	lr, [r3]
 111              	.LVL9:
  96:DSP/Source/TransformFunctions/arm_bitreversal.c **** 
  97:DSP/Source/TransformFunctions/arm_bitreversal.c ****       /*  Updating the bit reversal index depending on the fft length  */
  98:DSP/Source/TransformFunctions/arm_bitreversal.c ****       pBitRevTab += bitRevFactor;
 112              		.loc 1 98 7 is_stmt 1 view .LVU35
 113              		.loc 1 98 18 is_stmt 0 view .LVU36
 114 0058 03EB4203 		add	r3, r3, r2, lsl #1
 115              	.LVL10:
  57:DSP/Source/TransformFunctions/arm_bitreversal.c ****    {
 116              		.loc 1 57 42 is_stmt 1 discriminator 2 view .LVU37
 117 005c 0231     		adds	r1, r1, #2
 118              	.LVL11:
  57:DSP/Source/TransformFunctions/arm_bitreversal.c ****    {
 119              		.loc 1 57 42 is_stmt 0 discriminator 2 view .LVU38
 120 005e 89B2     		uxth	r1, r1
 121              	.LVL12:
 122              	.L2:
  57:DSP/Source/TransformFunctions/arm_bitreversal.c ****    {
 123              		.loc 1 57 19 is_stmt 1 discriminator 1 view .LVU39
 124 0060 8C46     		mov	ip, r1
  57:DSP/Source/TransformFunctions/arm_bitreversal.c ****    {
 125              		.loc 1 57 33 is_stmt 0 discriminator 1 view .LVU40
 126 0062 A61E     		subs	r6, r4, #2
ARM GAS  /var/folders/ck/g3dcd5x55xs4107jgdl0snvr0000gn/T//cciZYsJV.s 			page 5


  57:DSP/Source/TransformFunctions/arm_bitreversal.c ****    {
 127              		.loc 1 57 19 discriminator 1 view .LVU41
 128 0064 B142     		cmp	r1, r6
 129 0066 3ED8     		bhi	.L6
  59:DSP/Source/TransformFunctions/arm_bitreversal.c ****       {
 130              		.loc 1 59 7 is_stmt 1 view .LVU42
  59:DSP/Source/TransformFunctions/arm_bitreversal.c ****       {
 131              		.loc 1 59 10 is_stmt 0 view .LVU43
 132 0068 7145     		cmp	r1, lr
 133 006a D1D2     		bcs	.L3
  62:DSP/Source/TransformFunctions/arm_bitreversal.c ****          pSrc[2U * i] = pSrc[2U * j];
 134              		.loc 1 62 10 is_stmt 1 view .LVU44
  62:DSP/Source/TransformFunctions/arm_bitreversal.c ****          pSrc[2U * i] = pSrc[2U * j];
 135              		.loc 1 62 19 is_stmt 0 view .LVU45
 136 006c 4FEACC07 		lsl	r7, ip, #3
 137 0070 00EBCC09 		add	r9, r0, ip, lsl #3
  62:DSP/Source/TransformFunctions/arm_bitreversal.c ****          pSrc[2U * i] = pSrc[2U * j];
 138              		.loc 1 62 13 view .LVU46
 139 0074 D9ED007A 		vldr.32	s15, [r9]
 140              	.LVL13:
  63:DSP/Source/TransformFunctions/arm_bitreversal.c ****          pSrc[2U * j] = in;
 141              		.loc 1 63 10 is_stmt 1 view .LVU47
  63:DSP/Source/TransformFunctions/arm_bitreversal.c ****          pSrc[2U * j] = in;
 142              		.loc 1 63 29 is_stmt 0 view .LVU48
 143 0078 4FEACE06 		lsl	r6, lr, #3
 144 007c 00EBCE08 		add	r8, r0, lr, lsl #3
 145 0080 98ED007A 		vldr.32	s14, [r8]
  63:DSP/Source/TransformFunctions/arm_bitreversal.c ****          pSrc[2U * j] = in;
 146              		.loc 1 63 23 view .LVU49
 147 0084 89ED007A 		vstr.32	s14, [r9]
  64:DSP/Source/TransformFunctions/arm_bitreversal.c **** 
 148              		.loc 1 64 10 is_stmt 1 view .LVU50
  64:DSP/Source/TransformFunctions/arm_bitreversal.c **** 
 149              		.loc 1 64 23 is_stmt 0 view .LVU51
 150 0088 C8ED007A 		vstr.32	s15, [r8]
  67:DSP/Source/TransformFunctions/arm_bitreversal.c ****          pSrc[(2U * i) + 1U] = pSrc[(2U * j) + 1U];
 151              		.loc 1 67 10 is_stmt 1 view .LVU52
  67:DSP/Source/TransformFunctions/arm_bitreversal.c ****          pSrc[(2U * i) + 1U] = pSrc[(2U * j) + 1U];
 152              		.loc 1 67 19 is_stmt 0 view .LVU53
 153 008c 0437     		adds	r7, r7, #4
 154 008e 0744     		add	r7, r7, r0
  67:DSP/Source/TransformFunctions/arm_bitreversal.c ****          pSrc[(2U * i) + 1U] = pSrc[(2U * j) + 1U];
 155              		.loc 1 67 13 view .LVU54
 156 0090 D7F80080 		ldr	r8, [r7]	@ float
 157              	.LVL14:
  68:DSP/Source/TransformFunctions/arm_bitreversal.c ****          pSrc[(2U * j) + 1U] = in;
 158              		.loc 1 68 10 is_stmt 1 view .LVU55
  68:DSP/Source/TransformFunctions/arm_bitreversal.c ****          pSrc[(2U * j) + 1U] = in;
 159              		.loc 1 68 36 is_stmt 0 view .LVU56
 160 0094 0436     		adds	r6, r6, #4
 161 0096 0644     		add	r6, r6, r0
 162 0098 D6F80090 		ldr	r9, [r6]	@ float
  68:DSP/Source/TransformFunctions/arm_bitreversal.c ****          pSrc[(2U * j) + 1U] = in;
 163              		.loc 1 68 30 view .LVU57
 164 009c C7F80090 		str	r9, [r7]	@ float
  69:DSP/Source/TransformFunctions/arm_bitreversal.c **** 
 165              		.loc 1 69 10 is_stmt 1 view .LVU58
ARM GAS  /var/folders/ck/g3dcd5x55xs4107jgdl0snvr0000gn/T//cciZYsJV.s 			page 6


  69:DSP/Source/TransformFunctions/arm_bitreversal.c **** 
 166              		.loc 1 69 30 is_stmt 0 view .LVU59
 167 00a0 C6F80080 		str	r8, [r6]	@ float
  72:DSP/Source/TransformFunctions/arm_bitreversal.c ****          pSrc[2U * (i + fftLenBy2p1)] = pSrc[2U * (j + fftLenBy2p1)];
 168              		.loc 1 72 10 is_stmt 1 view .LVU60
  72:DSP/Source/TransformFunctions/arm_bitreversal.c ****          pSrc[2U * (i + fftLenBy2p1)] = pSrc[2U * (j + fftLenBy2p1)];
 169              		.loc 1 72 28 is_stmt 0 view .LVU61
 170 00a4 01EB0509 		add	r9, r1, r5
  72:DSP/Source/TransformFunctions/arm_bitreversal.c ****          pSrc[2U * (i + fftLenBy2p1)] = pSrc[2U * (j + fftLenBy2p1)];
 171              		.loc 1 72 19 view .LVU62
 172 00a8 4FEAC907 		lsl	r7, r9, #3
 173 00ac 00EBC909 		add	r9, r0, r9, lsl #3
  72:DSP/Source/TransformFunctions/arm_bitreversal.c ****          pSrc[2U * (i + fftLenBy2p1)] = pSrc[2U * (j + fftLenBy2p1)];
 174              		.loc 1 72 13 view .LVU63
 175 00b0 D9ED007A 		vldr.32	s15, [r9]
 176              	.LVL15:
  73:DSP/Source/TransformFunctions/arm_bitreversal.c ****          pSrc[2U * (j + fftLenBy2p1)] = in;
 177              		.loc 1 73 10 is_stmt 1 view .LVU64
  73:DSP/Source/TransformFunctions/arm_bitreversal.c ****          pSrc[2U * (j + fftLenBy2p1)] = in;
 178              		.loc 1 73 54 is_stmt 0 view .LVU65
 179 00b4 0EEB0508 		add	r8, lr, r5
  73:DSP/Source/TransformFunctions/arm_bitreversal.c ****          pSrc[2U * (j + fftLenBy2p1)] = in;
 180              		.loc 1 73 45 view .LVU66
 181 00b8 4FEAC806 		lsl	r6, r8, #3
 182 00bc 00EBC808 		add	r8, r0, r8, lsl #3
 183 00c0 98ED007A 		vldr.32	s14, [r8]
  73:DSP/Source/TransformFunctions/arm_bitreversal.c ****          pSrc[2U * (j + fftLenBy2p1)] = in;
 184              		.loc 1 73 39 view .LVU67
 185 00c4 89ED007A 		vstr.32	s14, [r9]
  74:DSP/Source/TransformFunctions/arm_bitreversal.c **** 
 186              		.loc 1 74 10 is_stmt 1 view .LVU68
  74:DSP/Source/TransformFunctions/arm_bitreversal.c **** 
 187              		.loc 1 74 39 is_stmt 0 view .LVU69
 188 00c8 C8ED007A 		vstr.32	s15, [r8]
  77:DSP/Source/TransformFunctions/arm_bitreversal.c ****          pSrc[(2U * (i + fftLenBy2p1)) + 1U] =
 189              		.loc 1 77 10 is_stmt 1 view .LVU70
  77:DSP/Source/TransformFunctions/arm_bitreversal.c ****          pSrc[(2U * (i + fftLenBy2p1)) + 1U] =
 190              		.loc 1 77 19 is_stmt 0 view .LVU71
 191 00cc 0437     		adds	r7, r7, #4
 192 00ce 0744     		add	r7, r7, r0
  77:DSP/Source/TransformFunctions/arm_bitreversal.c ****          pSrc[(2U * (i + fftLenBy2p1)) + 1U] =
 193              		.loc 1 77 13 view .LVU72
 194 00d0 D7F80080 		ldr	r8, [r7]	@ float
 195              	.LVL16:
  78:DSP/Source/TransformFunctions/arm_bitreversal.c ****          pSrc[(2U * (j + fftLenBy2p1)) + 1U];
 196              		.loc 1 78 10 is_stmt 1 view .LVU73
  79:DSP/Source/TransformFunctions/arm_bitreversal.c ****          pSrc[(2U * (j + fftLenBy2p1)) + 1U] = in;
 197              		.loc 1 79 14 is_stmt 0 view .LVU74
 198 00d4 0436     		adds	r6, r6, #4
 199 00d6 0644     		add	r6, r6, r0
 200 00d8 D6F80090 		ldr	r9, [r6]	@ float
  78:DSP/Source/TransformFunctions/arm_bitreversal.c ****          pSrc[(2U * (j + fftLenBy2p1)) + 1U];
 201              		.loc 1 78 46 view .LVU75
 202 00dc C7F80090 		str	r9, [r7]	@ float
  80:DSP/Source/TransformFunctions/arm_bitreversal.c **** 
 203              		.loc 1 80 10 is_stmt 1 view .LVU76
  80:DSP/Source/TransformFunctions/arm_bitreversal.c **** 
ARM GAS  /var/folders/ck/g3dcd5x55xs4107jgdl0snvr0000gn/T//cciZYsJV.s 			page 7


 204              		.loc 1 80 46 is_stmt 0 view .LVU77
 205 00e0 C6F80080 		str	r8, [r6]	@ float
 206 00e4 94E7     		b	.L3
 207              	.LVL17:
 208              	.L6:
  99:DSP/Source/TransformFunctions/arm_bitreversal.c ****    }
 100:DSP/Source/TransformFunctions/arm_bitreversal.c **** }
 209              		.loc 1 100 1 view .LVU78
 210 00e6 BDE8F083 		pop	{r4, r5, r6, r7, r8, r9, pc}
 211              		.loc 1 100 1 view .LVU79
 212              		.cfi_endproc
 213              	.LFE139:
 215              		.section	.text.arm_bitreversal_q31,"ax",%progbits
 216              		.align	1
 217              		.global	arm_bitreversal_q31
 218              		.syntax unified
 219              		.thumb
 220              		.thumb_func
 222              	arm_bitreversal_q31:
 223              	.LVL18:
 224              	.LFB140:
 101:DSP/Source/TransformFunctions/arm_bitreversal.c **** 
 102:DSP/Source/TransformFunctions/arm_bitreversal.c **** 
 103:DSP/Source/TransformFunctions/arm_bitreversal.c **** 
 104:DSP/Source/TransformFunctions/arm_bitreversal.c **** /*
 105:DSP/Source/TransformFunctions/arm_bitreversal.c **** * @brief  In-place bit reversal function.
 106:DSP/Source/TransformFunctions/arm_bitreversal.c **** * @param[in, out] *pSrc        points to the in-place buffer of Q31 data type.
 107:DSP/Source/TransformFunctions/arm_bitreversal.c **** * @param[in]      fftLen       length of the FFT.
 108:DSP/Source/TransformFunctions/arm_bitreversal.c **** * @param[in]      bitRevFactor bit reversal modifier that supports different size FFTs with the sam
 109:DSP/Source/TransformFunctions/arm_bitreversal.c **** * @param[in]      *pBitRevTab  points to bit reversal table.
 110:DSP/Source/TransformFunctions/arm_bitreversal.c **** * @return none.
 111:DSP/Source/TransformFunctions/arm_bitreversal.c **** */
 112:DSP/Source/TransformFunctions/arm_bitreversal.c **** 
 113:DSP/Source/TransformFunctions/arm_bitreversal.c **** void arm_bitreversal_q31(
 114:DSP/Source/TransformFunctions/arm_bitreversal.c **** q31_t * pSrc,
 115:DSP/Source/TransformFunctions/arm_bitreversal.c **** uint32_t fftLen,
 116:DSP/Source/TransformFunctions/arm_bitreversal.c **** uint16_t bitRevFactor,
 117:DSP/Source/TransformFunctions/arm_bitreversal.c **** uint16_t * pBitRevTable)
 118:DSP/Source/TransformFunctions/arm_bitreversal.c **** {
 225              		.loc 1 118 1 is_stmt 1 view -0
 226              		.cfi_startproc
 227              		@ args = 0, pretend = 0, frame = 0
 228              		@ frame_needed = 0, uses_anonymous_args = 0
 229              		.loc 1 118 1 is_stmt 0 view .LVU81
 230 0000 2DE9F047 		push	{r4, r5, r6, r7, r8, r9, r10, lr}
 231              	.LCFI1:
 232              		.cfi_def_cfa_offset 32
 233              		.cfi_offset 4, -32
 234              		.cfi_offset 5, -28
 235              		.cfi_offset 6, -24
 236              		.cfi_offset 7, -20
 237              		.cfi_offset 8, -16
 238              		.cfi_offset 9, -12
 239              		.cfi_offset 10, -8
 240              		.cfi_offset 14, -4
 241 0004 9246     		mov	r10, r2
 119:DSP/Source/TransformFunctions/arm_bitreversal.c ****    uint32_t fftLenBy2, fftLenBy2p1, i, j;
ARM GAS  /var/folders/ck/g3dcd5x55xs4107jgdl0snvr0000gn/T//cciZYsJV.s 			page 8


 242              		.loc 1 119 4 is_stmt 1 view .LVU82
 120:DSP/Source/TransformFunctions/arm_bitreversal.c ****    q31_t in;
 243              		.loc 1 120 4 view .LVU83
 121:DSP/Source/TransformFunctions/arm_bitreversal.c **** 
 122:DSP/Source/TransformFunctions/arm_bitreversal.c ****    /*  Initializations      */
 123:DSP/Source/TransformFunctions/arm_bitreversal.c ****    j = 0U;
 244              		.loc 1 123 4 view .LVU84
 245              	.LVL19:
 124:DSP/Source/TransformFunctions/arm_bitreversal.c ****    fftLenBy2 = fftLen / 2U;
 246              		.loc 1 124 4 view .LVU85
 247              		.loc 1 124 14 is_stmt 0 view .LVU86
 248 0006 4C08     		lsrs	r4, r1, #1
 249              	.LVL20:
 125:DSP/Source/TransformFunctions/arm_bitreversal.c ****    fftLenBy2p1 = (fftLen / 2U) + 1U;
 250              		.loc 1 125 4 is_stmt 1 view .LVU87
 251              		.loc 1 125 16 is_stmt 0 view .LVU88
 252 0008 651C     		adds	r5, r4, #1
 253              	.LVL21:
 126:DSP/Source/TransformFunctions/arm_bitreversal.c **** 
 127:DSP/Source/TransformFunctions/arm_bitreversal.c ****    /* Bit Reversal Implementation */
 128:DSP/Source/TransformFunctions/arm_bitreversal.c ****    for (i = 0U; i <= (fftLenBy2 - 2U); i += 2U)
 254              		.loc 1 128 4 is_stmt 1 view .LVU89
 123:DSP/Source/TransformFunctions/arm_bitreversal.c ****    fftLenBy2 = fftLen / 2U;
 255              		.loc 1 123 6 is_stmt 0 view .LVU90
 256 000a 4FF0000C 		mov	ip, #0
 257              		.loc 1 128 11 view .LVU91
 258 000e 6146     		mov	r1, ip
 259              	.LVL22:
 260              		.loc 1 128 4 view .LVU92
 261 0010 1FE0     		b	.L8
 262              	.LVL23:
 263              	.L9:
 129:DSP/Source/TransformFunctions/arm_bitreversal.c ****    {
 130:DSP/Source/TransformFunctions/arm_bitreversal.c ****       if (i < j)
 131:DSP/Source/TransformFunctions/arm_bitreversal.c ****       {
 132:DSP/Source/TransformFunctions/arm_bitreversal.c ****          /*  pSrc[i] <-> pSrc[j]; */
 133:DSP/Source/TransformFunctions/arm_bitreversal.c ****          in = pSrc[2U * i];
 134:DSP/Source/TransformFunctions/arm_bitreversal.c ****          pSrc[2U * i] = pSrc[2U * j];
 135:DSP/Source/TransformFunctions/arm_bitreversal.c ****          pSrc[2U * j] = in;
 136:DSP/Source/TransformFunctions/arm_bitreversal.c **** 
 137:DSP/Source/TransformFunctions/arm_bitreversal.c ****          /*  pSrc[i+1U] <-> pSrc[j+1U] */
 138:DSP/Source/TransformFunctions/arm_bitreversal.c ****          in = pSrc[(2U * i) + 1U];
 139:DSP/Source/TransformFunctions/arm_bitreversal.c ****          pSrc[(2U * i) + 1U] = pSrc[(2U * j) + 1U];
 140:DSP/Source/TransformFunctions/arm_bitreversal.c ****          pSrc[(2U * j) + 1U] = in;
 141:DSP/Source/TransformFunctions/arm_bitreversal.c **** 
 142:DSP/Source/TransformFunctions/arm_bitreversal.c ****          /*  pSrc[i+fftLenBy2p1] <-> pSrc[j+fftLenBy2p1] */
 143:DSP/Source/TransformFunctions/arm_bitreversal.c ****          in = pSrc[2U * (i + fftLenBy2p1)];
 144:DSP/Source/TransformFunctions/arm_bitreversal.c ****          pSrc[2U * (i + fftLenBy2p1)] = pSrc[2U * (j + fftLenBy2p1)];
 145:DSP/Source/TransformFunctions/arm_bitreversal.c ****          pSrc[2U * (j + fftLenBy2p1)] = in;
 146:DSP/Source/TransformFunctions/arm_bitreversal.c **** 
 147:DSP/Source/TransformFunctions/arm_bitreversal.c ****          /*  pSrc[i+fftLenBy2p1+1U] <-> pSrc[j+fftLenBy2p1+1U] */
 148:DSP/Source/TransformFunctions/arm_bitreversal.c ****          in = pSrc[(2U * (i + fftLenBy2p1)) + 1U];
 149:DSP/Source/TransformFunctions/arm_bitreversal.c ****          pSrc[(2U * (i + fftLenBy2p1)) + 1U] =
 150:DSP/Source/TransformFunctions/arm_bitreversal.c ****          pSrc[(2U * (j + fftLenBy2p1)) + 1U];
 151:DSP/Source/TransformFunctions/arm_bitreversal.c ****          pSrc[(2U * (j + fftLenBy2p1)) + 1U] = in;
 152:DSP/Source/TransformFunctions/arm_bitreversal.c **** 
 153:DSP/Source/TransformFunctions/arm_bitreversal.c ****       }
ARM GAS  /var/folders/ck/g3dcd5x55xs4107jgdl0snvr0000gn/T//cciZYsJV.s 			page 9


 154:DSP/Source/TransformFunctions/arm_bitreversal.c **** 
 155:DSP/Source/TransformFunctions/arm_bitreversal.c ****       /*  pSrc[i+1U] <-> pSrc[j+1U] */
 156:DSP/Source/TransformFunctions/arm_bitreversal.c ****       in = pSrc[2U * (i + 1U)];
 264              		.loc 1 156 7 is_stmt 1 view .LVU93
 265              		.loc 1 156 25 is_stmt 0 view .LVU94
 266 0012 4E1C     		adds	r6, r1, #1
 267              		.loc 1 156 10 view .LVU95
 268 0014 50F83670 		ldr	r7, [r0, r6, lsl #3]
 269              	.LVL24:
 157:DSP/Source/TransformFunctions/arm_bitreversal.c ****       pSrc[2U * (i + 1U)] = pSrc[2U * (j + fftLenBy2)];
 270              		.loc 1 157 7 is_stmt 1 view .LVU96
 271              		.loc 1 157 42 is_stmt 0 view .LVU97
 272 0018 0CEB040E 		add	lr, ip, r4
 273              		.loc 1 157 33 view .LVU98
 274 001c 4FEACE0C 		lsl	ip, lr, #3
 275              	.LVL25:
 276              		.loc 1 157 27 view .LVU99
 277 0020 50F83E20 		ldr	r2, [r0, lr, lsl #3]
 278 0024 40F83620 		str	r2, [r0, r6, lsl #3]
 158:DSP/Source/TransformFunctions/arm_bitreversal.c ****       pSrc[2U * (j + fftLenBy2)] = in;
 279              		.loc 1 158 7 is_stmt 1 view .LVU100
 280              		.loc 1 158 34 is_stmt 0 view .LVU101
 281 0028 40F83E70 		str	r7, [r0, lr, lsl #3]
 159:DSP/Source/TransformFunctions/arm_bitreversal.c **** 
 160:DSP/Source/TransformFunctions/arm_bitreversal.c ****       /*  pSrc[i+2U] <-> pSrc[j+2U] */
 161:DSP/Source/TransformFunctions/arm_bitreversal.c ****       in = pSrc[(2U * (i + 1U)) + 1U];
 282              		.loc 1 161 7 is_stmt 1 view .LVU102
 283              		.loc 1 161 16 is_stmt 0 view .LVU103
 284 002c 4FEAC10E 		lsl	lr, r1, #3
 285 0030 0EF10C0E 		add	lr, lr, #12
 286              		.loc 1 161 10 view .LVU104
 287 0034 50F80E60 		ldr	r6, [r0, lr]
 288              	.LVL26:
 162:DSP/Source/TransformFunctions/arm_bitreversal.c ****       pSrc[(2U * (i + 1U)) + 1U] = pSrc[(2U * (j + fftLenBy2)) + 1U];
 289              		.loc 1 162 7 is_stmt 1 view .LVU105
 290              		.loc 1 162 40 is_stmt 0 view .LVU106
 291 0038 0CF1040C 		add	ip, ip, #4
 292              		.loc 1 162 34 view .LVU107
 293 003c 50F80C20 		ldr	r2, [r0, ip]
 294 0040 40F80E20 		str	r2, [r0, lr]
 163:DSP/Source/TransformFunctions/arm_bitreversal.c ****       pSrc[(2U * (j + fftLenBy2)) + 1U] = in;
 295              		.loc 1 163 7 is_stmt 1 view .LVU108
 296              		.loc 1 163 41 is_stmt 0 view .LVU109
 297 0044 40F80C60 		str	r6, [r0, ip]
 164:DSP/Source/TransformFunctions/arm_bitreversal.c **** 
 165:DSP/Source/TransformFunctions/arm_bitreversal.c ****       /*  Reading the index for the bit reversal */
 166:DSP/Source/TransformFunctions/arm_bitreversal.c ****       j = *pBitRevTable;
 298              		.loc 1 166 7 is_stmt 1 view .LVU110
 299              		.loc 1 166 11 is_stmt 0 view .LVU111
 300 0048 B3F800C0 		ldrh	ip, [r3]
 301              	.LVL27:
 167:DSP/Source/TransformFunctions/arm_bitreversal.c **** 
 168:DSP/Source/TransformFunctions/arm_bitreversal.c ****       /*  Updating the bit reversal index depending on the fft length */
 169:DSP/Source/TransformFunctions/arm_bitreversal.c ****       pBitRevTable += bitRevFactor;
 302              		.loc 1 169 7 is_stmt 1 view .LVU112
 303              		.loc 1 169 20 is_stmt 0 view .LVU113
 304 004c 03EB4A03 		add	r3, r3, r10, lsl #1
ARM GAS  /var/folders/ck/g3dcd5x55xs4107jgdl0snvr0000gn/T//cciZYsJV.s 			page 10


 305              	.LVL28:
 128:DSP/Source/TransformFunctions/arm_bitreversal.c ****    {
 306              		.loc 1 128 42 is_stmt 1 discriminator 2 view .LVU114
 307 0050 0231     		adds	r1, r1, #2
 308              	.LVL29:
 309              	.L8:
 128:DSP/Source/TransformFunctions/arm_bitreversal.c ****    {
 310              		.loc 1 128 19 discriminator 1 view .LVU115
 128:DSP/Source/TransformFunctions/arm_bitreversal.c ****    {
 311              		.loc 1 128 33 is_stmt 0 discriminator 1 view .LVU116
 312 0052 A61E     		subs	r6, r4, #2
 128:DSP/Source/TransformFunctions/arm_bitreversal.c ****    {
 313              		.loc 1 128 19 discriminator 1 view .LVU117
 314 0054 8E42     		cmp	r6, r1
 315 0056 2FD3     		bcc	.L12
 130:DSP/Source/TransformFunctions/arm_bitreversal.c ****       {
 316              		.loc 1 130 7 is_stmt 1 view .LVU118
 130:DSP/Source/TransformFunctions/arm_bitreversal.c ****       {
 317              		.loc 1 130 10 is_stmt 0 view .LVU119
 318 0058 6145     		cmp	r1, ip
 319 005a DAD2     		bcs	.L9
 133:DSP/Source/TransformFunctions/arm_bitreversal.c ****          pSrc[2U * i] = pSrc[2U * j];
 320              		.loc 1 133 10 is_stmt 1 view .LVU120
 133:DSP/Source/TransformFunctions/arm_bitreversal.c ****          pSrc[2U * i] = pSrc[2U * j];
 321              		.loc 1 133 19 is_stmt 0 view .LVU121
 322 005c CE00     		lsls	r6, r1, #3
 133:DSP/Source/TransformFunctions/arm_bitreversal.c ****          pSrc[2U * i] = pSrc[2U * j];
 323              		.loc 1 133 13 view .LVU122
 324 005e 50F83170 		ldr	r7, [r0, r1, lsl #3]
 325              	.LVL30:
 134:DSP/Source/TransformFunctions/arm_bitreversal.c ****          pSrc[2U * j] = in;
 326              		.loc 1 134 10 is_stmt 1 view .LVU123
 134:DSP/Source/TransformFunctions/arm_bitreversal.c ****          pSrc[2U * j] = in;
 327              		.loc 1 134 29 is_stmt 0 view .LVU124
 328 0062 4FEACC0E 		lsl	lr, ip, #3
 134:DSP/Source/TransformFunctions/arm_bitreversal.c ****          pSrc[2U * j] = in;
 329              		.loc 1 134 23 view .LVU125
 330 0066 50F83C20 		ldr	r2, [r0, ip, lsl #3]
 331 006a 40F83120 		str	r2, [r0, r1, lsl #3]
 135:DSP/Source/TransformFunctions/arm_bitreversal.c **** 
 332              		.loc 1 135 10 is_stmt 1 view .LVU126
 135:DSP/Source/TransformFunctions/arm_bitreversal.c **** 
 333              		.loc 1 135 23 is_stmt 0 view .LVU127
 334 006e 40F83C70 		str	r7, [r0, ip, lsl #3]
 138:DSP/Source/TransformFunctions/arm_bitreversal.c ****          pSrc[(2U * i) + 1U] = pSrc[(2U * j) + 1U];
 335              		.loc 1 138 10 is_stmt 1 view .LVU128
 138:DSP/Source/TransformFunctions/arm_bitreversal.c ****          pSrc[(2U * i) + 1U] = pSrc[(2U * j) + 1U];
 336              		.loc 1 138 19 is_stmt 0 view .LVU129
 337 0072 0436     		adds	r6, r6, #4
 138:DSP/Source/TransformFunctions/arm_bitreversal.c ****          pSrc[(2U * i) + 1U] = pSrc[(2U * j) + 1U];
 338              		.loc 1 138 13 view .LVU130
 339 0074 8759     		ldr	r7, [r0, r6]
 340              	.LVL31:
 139:DSP/Source/TransformFunctions/arm_bitreversal.c ****          pSrc[(2U * j) + 1U] = in;
 341              		.loc 1 139 10 is_stmt 1 view .LVU131
 139:DSP/Source/TransformFunctions/arm_bitreversal.c ****          pSrc[(2U * j) + 1U] = in;
 342              		.loc 1 139 36 is_stmt 0 view .LVU132
ARM GAS  /var/folders/ck/g3dcd5x55xs4107jgdl0snvr0000gn/T//cciZYsJV.s 			page 11


 343 0076 0EF1040E 		add	lr, lr, #4
 139:DSP/Source/TransformFunctions/arm_bitreversal.c ****          pSrc[(2U * j) + 1U] = in;
 344              		.loc 1 139 30 view .LVU133
 345 007a 50F80E20 		ldr	r2, [r0, lr]
 346 007e 8251     		str	r2, [r0, r6]
 140:DSP/Source/TransformFunctions/arm_bitreversal.c **** 
 347              		.loc 1 140 10 is_stmt 1 view .LVU134
 140:DSP/Source/TransformFunctions/arm_bitreversal.c **** 
 348              		.loc 1 140 30 is_stmt 0 view .LVU135
 349 0080 40F80E70 		str	r7, [r0, lr]
 143:DSP/Source/TransformFunctions/arm_bitreversal.c ****          pSrc[2U * (i + fftLenBy2p1)] = pSrc[2U * (j + fftLenBy2p1)];
 350              		.loc 1 143 10 is_stmt 1 view .LVU136
 143:DSP/Source/TransformFunctions/arm_bitreversal.c ****          pSrc[2U * (i + fftLenBy2p1)] = pSrc[2U * (j + fftLenBy2p1)];
 351              		.loc 1 143 28 is_stmt 0 view .LVU137
 352 0084 01EB0509 		add	r9, r1, r5
 143:DSP/Source/TransformFunctions/arm_bitreversal.c ****          pSrc[2U * (i + fftLenBy2p1)] = pSrc[2U * (j + fftLenBy2p1)];
 353              		.loc 1 143 19 view .LVU138
 354 0088 4FEAC907 		lsl	r7, r9, #3
 355              	.LVL32:
 143:DSP/Source/TransformFunctions/arm_bitreversal.c ****          pSrc[2U * (i + fftLenBy2p1)] = pSrc[2U * (j + fftLenBy2p1)];
 356              		.loc 1 143 13 view .LVU139
 357 008c 50F83960 		ldr	r6, [r0, r9, lsl #3]
 358              	.LVL33:
 144:DSP/Source/TransformFunctions/arm_bitreversal.c ****          pSrc[2U * (j + fftLenBy2p1)] = in;
 359              		.loc 1 144 10 is_stmt 1 view .LVU140
 144:DSP/Source/TransformFunctions/arm_bitreversal.c ****          pSrc[2U * (j + fftLenBy2p1)] = in;
 360              		.loc 1 144 54 is_stmt 0 view .LVU141
 361 0090 0CEB0508 		add	r8, ip, r5
 144:DSP/Source/TransformFunctions/arm_bitreversal.c ****          pSrc[2U * (j + fftLenBy2p1)] = in;
 362              		.loc 1 144 45 view .LVU142
 363 0094 4FEAC80E 		lsl	lr, r8, #3
 144:DSP/Source/TransformFunctions/arm_bitreversal.c ****          pSrc[2U * (j + fftLenBy2p1)] = in;
 364              		.loc 1 144 39 view .LVU143
 365 0098 50F83820 		ldr	r2, [r0, r8, lsl #3]
 366 009c 40F83920 		str	r2, [r0, r9, lsl #3]
 145:DSP/Source/TransformFunctions/arm_bitreversal.c **** 
 367              		.loc 1 145 10 is_stmt 1 view .LVU144
 145:DSP/Source/TransformFunctions/arm_bitreversal.c **** 
 368              		.loc 1 145 39 is_stmt 0 view .LVU145
 369 00a0 40F83860 		str	r6, [r0, r8, lsl #3]
 148:DSP/Source/TransformFunctions/arm_bitreversal.c ****          pSrc[(2U * (i + fftLenBy2p1)) + 1U] =
 370              		.loc 1 148 10 is_stmt 1 view .LVU146
 148:DSP/Source/TransformFunctions/arm_bitreversal.c ****          pSrc[(2U * (i + fftLenBy2p1)) + 1U] =
 371              		.loc 1 148 19 is_stmt 0 view .LVU147
 372 00a4 0437     		adds	r7, r7, #4
 148:DSP/Source/TransformFunctions/arm_bitreversal.c ****          pSrc[(2U * (i + fftLenBy2p1)) + 1U] =
 373              		.loc 1 148 13 view .LVU148
 374 00a6 C659     		ldr	r6, [r0, r7]
 375              	.LVL34:
 149:DSP/Source/TransformFunctions/arm_bitreversal.c ****          pSrc[(2U * (j + fftLenBy2p1)) + 1U];
 376              		.loc 1 149 10 is_stmt 1 view .LVU149
 150:DSP/Source/TransformFunctions/arm_bitreversal.c ****          pSrc[(2U * (j + fftLenBy2p1)) + 1U] = in;
 377              		.loc 1 150 14 is_stmt 0 view .LVU150
 378 00a8 0EF1040E 		add	lr, lr, #4
 149:DSP/Source/TransformFunctions/arm_bitreversal.c ****          pSrc[(2U * (j + fftLenBy2p1)) + 1U];
 379              		.loc 1 149 46 view .LVU151
 380 00ac 50F80E20 		ldr	r2, [r0, lr]
ARM GAS  /var/folders/ck/g3dcd5x55xs4107jgdl0snvr0000gn/T//cciZYsJV.s 			page 12


 381 00b0 C251     		str	r2, [r0, r7]
 151:DSP/Source/TransformFunctions/arm_bitreversal.c **** 
 382              		.loc 1 151 10 is_stmt 1 view .LVU152
 151:DSP/Source/TransformFunctions/arm_bitreversal.c **** 
 383              		.loc 1 151 46 is_stmt 0 view .LVU153
 384 00b2 40F80E60 		str	r6, [r0, lr]
 385 00b6 ACE7     		b	.L9
 386              	.LVL35:
 387              	.L12:
 170:DSP/Source/TransformFunctions/arm_bitreversal.c ****    }
 171:DSP/Source/TransformFunctions/arm_bitreversal.c **** }
 388              		.loc 1 171 1 view .LVU154
 389 00b8 BDE8F087 		pop	{r4, r5, r6, r7, r8, r9, r10, pc}
 390              		.loc 1 171 1 view .LVU155
 391              		.cfi_endproc
 392              	.LFE140:
 394              		.section	.text.arm_bitreversal_q15,"ax",%progbits
 395              		.align	1
 396              		.global	arm_bitreversal_q15
 397              		.syntax unified
 398              		.thumb
 399              		.thumb_func
 401              	arm_bitreversal_q15:
 402              	.LVL36:
 403              	.LFB141:
 172:DSP/Source/TransformFunctions/arm_bitreversal.c **** 
 173:DSP/Source/TransformFunctions/arm_bitreversal.c **** 
 174:DSP/Source/TransformFunctions/arm_bitreversal.c **** 
 175:DSP/Source/TransformFunctions/arm_bitreversal.c **** /*
 176:DSP/Source/TransformFunctions/arm_bitreversal.c ****    * @brief  In-place bit reversal function.
 177:DSP/Source/TransformFunctions/arm_bitreversal.c ****    * @param[in, out] *pSrc        points to the in-place buffer of Q15 data type.
 178:DSP/Source/TransformFunctions/arm_bitreversal.c ****    * @param[in]      fftLen       length of the FFT.
 179:DSP/Source/TransformFunctions/arm_bitreversal.c ****    * @param[in]      bitRevFactor bit reversal modifier that supports different size FFTs with the 
 180:DSP/Source/TransformFunctions/arm_bitreversal.c ****    * @param[in]      *pBitRevTab  points to bit reversal table.
 181:DSP/Source/TransformFunctions/arm_bitreversal.c ****    * @return none.
 182:DSP/Source/TransformFunctions/arm_bitreversal.c **** */
 183:DSP/Source/TransformFunctions/arm_bitreversal.c **** 
 184:DSP/Source/TransformFunctions/arm_bitreversal.c **** void arm_bitreversal_q15(
 185:DSP/Source/TransformFunctions/arm_bitreversal.c **** q15_t * pSrc16,
 186:DSP/Source/TransformFunctions/arm_bitreversal.c **** uint32_t fftLen,
 187:DSP/Source/TransformFunctions/arm_bitreversal.c **** uint16_t bitRevFactor,
 188:DSP/Source/TransformFunctions/arm_bitreversal.c **** uint16_t * pBitRevTab)
 189:DSP/Source/TransformFunctions/arm_bitreversal.c **** {
 404              		.loc 1 189 1 is_stmt 1 view -0
 405              		.cfi_startproc
 406              		@ args = 0, pretend = 0, frame = 0
 407              		@ frame_needed = 0, uses_anonymous_args = 0
 408              		.loc 1 189 1 is_stmt 0 view .LVU157
 409 0000 2DE9F041 		push	{r4, r5, r6, r7, r8, lr}
 410              	.LCFI2:
 411              		.cfi_def_cfa_offset 24
 412              		.cfi_offset 4, -24
 413              		.cfi_offset 5, -20
 414              		.cfi_offset 6, -16
 415              		.cfi_offset 7, -12
 416              		.cfi_offset 8, -8
 417              		.cfi_offset 14, -4
ARM GAS  /var/folders/ck/g3dcd5x55xs4107jgdl0snvr0000gn/T//cciZYsJV.s 			page 13


 190:DSP/Source/TransformFunctions/arm_bitreversal.c ****    q31_t *pSrc = (q31_t *) pSrc16;
 418              		.loc 1 190 4 is_stmt 1 view .LVU158
 419              	.LVL37:
 191:DSP/Source/TransformFunctions/arm_bitreversal.c ****    q31_t in;
 420              		.loc 1 191 4 view .LVU159
 192:DSP/Source/TransformFunctions/arm_bitreversal.c ****    uint32_t fftLenBy2, fftLenBy2p1;
 421              		.loc 1 192 4 view .LVU160
 193:DSP/Source/TransformFunctions/arm_bitreversal.c ****    uint32_t i, j;
 422              		.loc 1 193 4 view .LVU161
 194:DSP/Source/TransformFunctions/arm_bitreversal.c **** 
 195:DSP/Source/TransformFunctions/arm_bitreversal.c ****    /*  Initializations */
 196:DSP/Source/TransformFunctions/arm_bitreversal.c ****    j = 0U;
 423              		.loc 1 196 4 view .LVU162
 197:DSP/Source/TransformFunctions/arm_bitreversal.c ****    fftLenBy2 = fftLen / 2U;
 424              		.loc 1 197 4 view .LVU163
 425              		.loc 1 197 14 is_stmt 0 view .LVU164
 426 0004 4C08     		lsrs	r4, r1, #1
 427              	.LVL38:
 198:DSP/Source/TransformFunctions/arm_bitreversal.c ****    fftLenBy2p1 = (fftLen / 2U) + 1U;
 428              		.loc 1 198 4 is_stmt 1 view .LVU165
 429              		.loc 1 198 16 is_stmt 0 view .LVU166
 430 0006 661C     		adds	r6, r4, #1
 431              	.LVL39:
 199:DSP/Source/TransformFunctions/arm_bitreversal.c **** 
 200:DSP/Source/TransformFunctions/arm_bitreversal.c ****    /* Bit Reversal Implementation */
 201:DSP/Source/TransformFunctions/arm_bitreversal.c ****    for (i = 0U; i <= (fftLenBy2 - 2U); i += 2U)
 432              		.loc 1 201 4 is_stmt 1 view .LVU167
 196:DSP/Source/TransformFunctions/arm_bitreversal.c ****    fftLenBy2 = fftLen / 2U;
 433              		.loc 1 196 6 is_stmt 0 view .LVU168
 434 0008 4FF0000C 		mov	ip, #0
 435              		.loc 1 201 11 view .LVU169
 436 000c E646     		mov	lr, ip
 437              		.loc 1 201 4 view .LVU170
 438 000e 10E0     		b	.L14
 439              	.LVL40:
 440              	.L15:
 202:DSP/Source/TransformFunctions/arm_bitreversal.c ****    {
 203:DSP/Source/TransformFunctions/arm_bitreversal.c ****       if (i < j)
 204:DSP/Source/TransformFunctions/arm_bitreversal.c ****       {
 205:DSP/Source/TransformFunctions/arm_bitreversal.c ****          /*  pSrc[i] <-> pSrc[j]; */
 206:DSP/Source/TransformFunctions/arm_bitreversal.c ****          /*  pSrc[i+1U] <-> pSrc[j+1U] */
 207:DSP/Source/TransformFunctions/arm_bitreversal.c ****          in = pSrc[i];
 208:DSP/Source/TransformFunctions/arm_bitreversal.c ****          pSrc[i] = pSrc[j];
 209:DSP/Source/TransformFunctions/arm_bitreversal.c ****          pSrc[j] = in;
 210:DSP/Source/TransformFunctions/arm_bitreversal.c **** 
 211:DSP/Source/TransformFunctions/arm_bitreversal.c ****          /*  pSrc[i + fftLenBy2p1] <-> pSrc[j + fftLenBy2p1];  */
 212:DSP/Source/TransformFunctions/arm_bitreversal.c ****          /*  pSrc[i + fftLenBy2p1+1U] <-> pSrc[j + fftLenBy2p1+1U] */
 213:DSP/Source/TransformFunctions/arm_bitreversal.c ****          in = pSrc[i + fftLenBy2p1];
 214:DSP/Source/TransformFunctions/arm_bitreversal.c ****          pSrc[i + fftLenBy2p1] = pSrc[j + fftLenBy2p1];
 215:DSP/Source/TransformFunctions/arm_bitreversal.c ****          pSrc[j + fftLenBy2p1] = in;
 216:DSP/Source/TransformFunctions/arm_bitreversal.c ****       }
 217:DSP/Source/TransformFunctions/arm_bitreversal.c **** 
 218:DSP/Source/TransformFunctions/arm_bitreversal.c ****       /*  pSrc[i+1U] <-> pSrc[j+fftLenBy2];         */
 219:DSP/Source/TransformFunctions/arm_bitreversal.c ****       /*  pSrc[i+2] <-> pSrc[j+fftLenBy2+1U]  */
 220:DSP/Source/TransformFunctions/arm_bitreversal.c ****       in = pSrc[i + 1U];
 441              		.loc 1 220 7 is_stmt 1 view .LVU171
 442              		.loc 1 220 16 is_stmt 0 view .LVU172
ARM GAS  /var/folders/ck/g3dcd5x55xs4107jgdl0snvr0000gn/T//cciZYsJV.s 			page 14


 443 0010 0EF10101 		add	r1, lr, #1
 444              		.loc 1 220 10 view .LVU173
 445 0014 50F82150 		ldr	r5, [r0, r1, lsl #2]
 446              	.LVL41:
 221:DSP/Source/TransformFunctions/arm_bitreversal.c ****       pSrc[i + 1U] = pSrc[j + fftLenBy2];
 447              		.loc 1 221 7 is_stmt 1 view .LVU174
 448              		.loc 1 221 29 is_stmt 0 view .LVU175
 449 0018 A444     		add	ip, ip, r4
 450              	.LVL42:
 451              		.loc 1 221 20 view .LVU176
 452 001a 50F82C70 		ldr	r7, [r0, ip, lsl #2]
 453 001e 40F82170 		str	r7, [r0, r1, lsl #2]
 222:DSP/Source/TransformFunctions/arm_bitreversal.c ****       pSrc[j + fftLenBy2] = in;
 454              		.loc 1 222 7 is_stmt 1 view .LVU177
 455              		.loc 1 222 27 is_stmt 0 view .LVU178
 456 0022 40F82C50 		str	r5, [r0, ip, lsl #2]
 223:DSP/Source/TransformFunctions/arm_bitreversal.c **** 
 224:DSP/Source/TransformFunctions/arm_bitreversal.c ****       /*  Reading the index for the bit reversal */
 225:DSP/Source/TransformFunctions/arm_bitreversal.c ****       j = *pBitRevTab;
 457              		.loc 1 225 7 is_stmt 1 view .LVU179
 458              		.loc 1 225 11 is_stmt 0 view .LVU180
 459 0026 B3F800C0 		ldrh	ip, [r3]
 460              	.LVL43:
 226:DSP/Source/TransformFunctions/arm_bitreversal.c **** 
 227:DSP/Source/TransformFunctions/arm_bitreversal.c ****       /*  Updating the bit reversal index depending on the fft length  */
 228:DSP/Source/TransformFunctions/arm_bitreversal.c ****       pBitRevTab += bitRevFactor;
 461              		.loc 1 228 7 is_stmt 1 view .LVU181
 462              		.loc 1 228 18 is_stmt 0 view .LVU182
 463 002a 03EB4203 		add	r3, r3, r2, lsl #1
 464              	.LVL44:
 201:DSP/Source/TransformFunctions/arm_bitreversal.c ****    {
 465              		.loc 1 201 42 is_stmt 1 discriminator 2 view .LVU183
 466 002e 0EF1020E 		add	lr, lr, #2
 467              	.LVL45:
 468              	.L14:
 201:DSP/Source/TransformFunctions/arm_bitreversal.c ****    {
 469              		.loc 1 201 19 discriminator 1 view .LVU184
 201:DSP/Source/TransformFunctions/arm_bitreversal.c ****    {
 470              		.loc 1 201 33 is_stmt 0 discriminator 1 view .LVU185
 471 0032 A11E     		subs	r1, r4, #2
 201:DSP/Source/TransformFunctions/arm_bitreversal.c ****    {
 472              		.loc 1 201 19 discriminator 1 view .LVU186
 473 0034 7145     		cmp	r1, lr
 474 0036 16D3     		bcc	.L18
 203:DSP/Source/TransformFunctions/arm_bitreversal.c ****       {
 475              		.loc 1 203 7 is_stmt 1 view .LVU187
 203:DSP/Source/TransformFunctions/arm_bitreversal.c ****       {
 476              		.loc 1 203 10 is_stmt 0 view .LVU188
 477 0038 E645     		cmp	lr, ip
 478 003a E9D2     		bcs	.L15
 207:DSP/Source/TransformFunctions/arm_bitreversal.c ****          pSrc[i] = pSrc[j];
 479              		.loc 1 207 10 is_stmt 1 view .LVU189
 207:DSP/Source/TransformFunctions/arm_bitreversal.c ****          pSrc[i] = pSrc[j];
 480              		.loc 1 207 13 is_stmt 0 view .LVU190
 481 003c 50F82E50 		ldr	r5, [r0, lr, lsl #2]
 482              	.LVL46:
 208:DSP/Source/TransformFunctions/arm_bitreversal.c ****          pSrc[j] = in;
ARM GAS  /var/folders/ck/g3dcd5x55xs4107jgdl0snvr0000gn/T//cciZYsJV.s 			page 15


 483              		.loc 1 208 10 is_stmt 1 view .LVU191
 208:DSP/Source/TransformFunctions/arm_bitreversal.c ****          pSrc[j] = in;
 484              		.loc 1 208 24 is_stmt 0 view .LVU192
 485 0040 50F82C10 		ldr	r1, [r0, ip, lsl #2]
 208:DSP/Source/TransformFunctions/arm_bitreversal.c ****          pSrc[j] = in;
 486              		.loc 1 208 18 view .LVU193
 487 0044 40F82E10 		str	r1, [r0, lr, lsl #2]
 209:DSP/Source/TransformFunctions/arm_bitreversal.c **** 
 488              		.loc 1 209 10 is_stmt 1 view .LVU194
 209:DSP/Source/TransformFunctions/arm_bitreversal.c **** 
 489              		.loc 1 209 18 is_stmt 0 view .LVU195
 490 0048 40F82C50 		str	r5, [r0, ip, lsl #2]
 213:DSP/Source/TransformFunctions/arm_bitreversal.c ****          pSrc[i + fftLenBy2p1] = pSrc[j + fftLenBy2p1];
 491              		.loc 1 213 10 is_stmt 1 view .LVU196
 213:DSP/Source/TransformFunctions/arm_bitreversal.c ****          pSrc[i + fftLenBy2p1] = pSrc[j + fftLenBy2p1];
 492              		.loc 1 213 22 is_stmt 0 view .LVU197
 493 004c 0EEB0607 		add	r7, lr, r6
 213:DSP/Source/TransformFunctions/arm_bitreversal.c ****          pSrc[i + fftLenBy2p1] = pSrc[j + fftLenBy2p1];
 494              		.loc 1 213 13 view .LVU198
 495 0050 50F82780 		ldr	r8, [r0, r7, lsl #2]
 496              	.LVL47:
 214:DSP/Source/TransformFunctions/arm_bitreversal.c ****          pSrc[j + fftLenBy2p1] = in;
 497              		.loc 1 214 10 is_stmt 1 view .LVU199
 214:DSP/Source/TransformFunctions/arm_bitreversal.c ****          pSrc[j + fftLenBy2p1] = in;
 498              		.loc 1 214 41 is_stmt 0 view .LVU200
 499 0054 0CEB0601 		add	r1, ip, r6
 214:DSP/Source/TransformFunctions/arm_bitreversal.c ****          pSrc[j + fftLenBy2p1] = in;
 500              		.loc 1 214 32 view .LVU201
 501 0058 50F82150 		ldr	r5, [r0, r1, lsl #2]
 502 005c 40F82750 		str	r5, [r0, r7, lsl #2]
 215:DSP/Source/TransformFunctions/arm_bitreversal.c ****       }
 503              		.loc 1 215 10 is_stmt 1 view .LVU202
 215:DSP/Source/TransformFunctions/arm_bitreversal.c ****       }
 504              		.loc 1 215 32 is_stmt 0 view .LVU203
 505 0060 40F82180 		str	r8, [r0, r1, lsl #2]
 506 0064 D4E7     		b	.L15
 507              	.LVL48:
 508              	.L18:
 229:DSP/Source/TransformFunctions/arm_bitreversal.c ****    }
 230:DSP/Source/TransformFunctions/arm_bitreversal.c **** }
 509              		.loc 1 230 1 view .LVU204
 510 0066 BDE8F081 		pop	{r4, r5, r6, r7, r8, pc}
 511              		.loc 1 230 1 view .LVU205
 512              		.cfi_endproc
 513              	.LFE141:
 515              		.text
 516              	.Letext0:
 517              		.file 2 "/Users/luban/.local/xPacks/arm-none-eabi-gcc/xpack-arm-none-eabi-gcc-13.2.1-1.1/arm-none-
 518              		.file 3 "/Users/luban/.local/xPacks/arm-none-eabi-gcc/xpack-arm-none-eabi-gcc-13.2.1-1.1/arm-none-
 519              		.file 4 "DSP/Inc/arm_math.h"
ARM GAS  /var/folders/ck/g3dcd5x55xs4107jgdl0snvr0000gn/T//cciZYsJV.s 			page 16


DEFINED SYMBOLS
                            *ABS*:00000000 arm_bitreversal.c
/var/folders/ck/g3dcd5x55xs4107jgdl0snvr0000gn/T//cciZYsJV.s:21     .text.arm_bitreversal_f32:00000000 $t
/var/folders/ck/g3dcd5x55xs4107jgdl0snvr0000gn/T//cciZYsJV.s:27     .text.arm_bitreversal_f32:00000000 arm_bitreversal_f32
/var/folders/ck/g3dcd5x55xs4107jgdl0snvr0000gn/T//cciZYsJV.s:216    .text.arm_bitreversal_q31:00000000 $t
/var/folders/ck/g3dcd5x55xs4107jgdl0snvr0000gn/T//cciZYsJV.s:222    .text.arm_bitreversal_q31:00000000 arm_bitreversal_q31
/var/folders/ck/g3dcd5x55xs4107jgdl0snvr0000gn/T//cciZYsJV.s:395    .text.arm_bitreversal_q15:00000000 $t
/var/folders/ck/g3dcd5x55xs4107jgdl0snvr0000gn/T//cciZYsJV.s:401    .text.arm_bitreversal_q15:00000000 arm_bitreversal_q15

NO UNDEFINED SYMBOLS
