ARM GAS  /var/folders/ck/g3dcd5x55xs4107jgdl0snvr0000gn/T//ccAHxcHi.s 			page 1


   1              		.cpu cortex-m4
   2              		.arch armv7e-m
   3              		.fpu fpv4-sp-d16
   4              		.eabi_attribute 27, 1
   5              		.eabi_attribute 28, 1
   6              		.eabi_attribute 20, 1
   7              		.eabi_attribute 21, 1
   8              		.eabi_attribute 23, 3
   9              		.eabi_attribute 24, 1
  10              		.eabi_attribute 25, 1
  11              		.eabi_attribute 26, 1
  12              		.eabi_attribute 30, 1
  13              		.eabi_attribute 34, 1
  14              		.eabi_attribute 18, 4
  15              		.file	"arm_rfft_fast_init_f32.c"
  16              		.text
  17              	.Ltext0:
  18              		.cfi_sections	.debug_frame
  19              		.file 1 "DSP/Source/TransformFunctions/arm_rfft_fast_init_f32.c"
  20              		.section	.text.arm_rfft_fast_init_f32,"ax",%progbits
  21              		.align	1
  22              		.global	arm_rfft_fast_init_f32
  23              		.syntax unified
  24              		.thumb
  25              		.thumb_func
  27              	arm_rfft_fast_init_f32:
  28              	.LVL0:
  29              	.LFB139:
   1:DSP/Source/TransformFunctions/arm_rfft_fast_init_f32.c **** /* ----------------------------------------------------------------------
   2:DSP/Source/TransformFunctions/arm_rfft_fast_init_f32.c ****  * Project:      CMSIS DSP Library
   3:DSP/Source/TransformFunctions/arm_rfft_fast_init_f32.c ****  * Title:        arm_cfft_init_f32.c
   4:DSP/Source/TransformFunctions/arm_rfft_fast_init_f32.c ****  * Description:  Split Radix Decimation in Frequency CFFT Floating point processing function
   5:DSP/Source/TransformFunctions/arm_rfft_fast_init_f32.c ****  *
   6:DSP/Source/TransformFunctions/arm_rfft_fast_init_f32.c ****  * $Date:        27. January 2017
   7:DSP/Source/TransformFunctions/arm_rfft_fast_init_f32.c ****  * $Revision:    V.1.5.1
   8:DSP/Source/TransformFunctions/arm_rfft_fast_init_f32.c ****  *
   9:DSP/Source/TransformFunctions/arm_rfft_fast_init_f32.c ****  * Target Processor: Cortex-M cores
  10:DSP/Source/TransformFunctions/arm_rfft_fast_init_f32.c ****  * -------------------------------------------------------------------- */
  11:DSP/Source/TransformFunctions/arm_rfft_fast_init_f32.c **** /*
  12:DSP/Source/TransformFunctions/arm_rfft_fast_init_f32.c ****  * Copyright (C) 2010-2017 ARM Limited or its affiliates. All rights reserved.
  13:DSP/Source/TransformFunctions/arm_rfft_fast_init_f32.c ****  *
  14:DSP/Source/TransformFunctions/arm_rfft_fast_init_f32.c ****  * SPDX-License-Identifier: Apache-2.0
  15:DSP/Source/TransformFunctions/arm_rfft_fast_init_f32.c ****  *
  16:DSP/Source/TransformFunctions/arm_rfft_fast_init_f32.c ****  * Licensed under the Apache License, Version 2.0 (the License); you may
  17:DSP/Source/TransformFunctions/arm_rfft_fast_init_f32.c ****  * not use this file except in compliance with the License.
  18:DSP/Source/TransformFunctions/arm_rfft_fast_init_f32.c ****  * You may obtain a copy of the License at
  19:DSP/Source/TransformFunctions/arm_rfft_fast_init_f32.c ****  *
  20:DSP/Source/TransformFunctions/arm_rfft_fast_init_f32.c ****  * www.apache.org/licenses/LICENSE-2.0
  21:DSP/Source/TransformFunctions/arm_rfft_fast_init_f32.c ****  *
  22:DSP/Source/TransformFunctions/arm_rfft_fast_init_f32.c ****  * Unless required by applicable law or agreed to in writing, software
  23:DSP/Source/TransformFunctions/arm_rfft_fast_init_f32.c ****  * distributed under the License is distributed on an AS IS BASIS, WITHOUT
  24:DSP/Source/TransformFunctions/arm_rfft_fast_init_f32.c ****  * WARRANTIES OR CONDITIONS OF ANY KIND, either express or implied.
  25:DSP/Source/TransformFunctions/arm_rfft_fast_init_f32.c ****  * See the License for the specific language governing permissions and
  26:DSP/Source/TransformFunctions/arm_rfft_fast_init_f32.c ****  * limitations under the License.
  27:DSP/Source/TransformFunctions/arm_rfft_fast_init_f32.c ****  */
  28:DSP/Source/TransformFunctions/arm_rfft_fast_init_f32.c **** 
  29:DSP/Source/TransformFunctions/arm_rfft_fast_init_f32.c **** #include "arm_math.h"
ARM GAS  /var/folders/ck/g3dcd5x55xs4107jgdl0snvr0000gn/T//ccAHxcHi.s 			page 2


  30:DSP/Source/TransformFunctions/arm_rfft_fast_init_f32.c **** #include "arm_common_tables.h"
  31:DSP/Source/TransformFunctions/arm_rfft_fast_init_f32.c **** 
  32:DSP/Source/TransformFunctions/arm_rfft_fast_init_f32.c **** /**
  33:DSP/Source/TransformFunctions/arm_rfft_fast_init_f32.c ****  * @ingroup groupTransforms
  34:DSP/Source/TransformFunctions/arm_rfft_fast_init_f32.c ****  */
  35:DSP/Source/TransformFunctions/arm_rfft_fast_init_f32.c **** 
  36:DSP/Source/TransformFunctions/arm_rfft_fast_init_f32.c **** /**
  37:DSP/Source/TransformFunctions/arm_rfft_fast_init_f32.c ****  * @addtogroup RealFFT
  38:DSP/Source/TransformFunctions/arm_rfft_fast_init_f32.c ****  * @{
  39:DSP/Source/TransformFunctions/arm_rfft_fast_init_f32.c ****  */
  40:DSP/Source/TransformFunctions/arm_rfft_fast_init_f32.c **** 
  41:DSP/Source/TransformFunctions/arm_rfft_fast_init_f32.c **** /**
  42:DSP/Source/TransformFunctions/arm_rfft_fast_init_f32.c **** * @brief  Initialization function for the floating-point real FFT.
  43:DSP/Source/TransformFunctions/arm_rfft_fast_init_f32.c **** * @param[in,out] *S             points to an arm_rfft_fast_instance_f32 structure.
  44:DSP/Source/TransformFunctions/arm_rfft_fast_init_f32.c **** * @param[in]     fftLen         length of the Real Sequence.
  45:DSP/Source/TransformFunctions/arm_rfft_fast_init_f32.c **** * @return        The function returns ARM_MATH_SUCCESS if initialization is successful or ARM_MATH_
  46:DSP/Source/TransformFunctions/arm_rfft_fast_init_f32.c **** *
  47:DSP/Source/TransformFunctions/arm_rfft_fast_init_f32.c **** * \par Description:
  48:DSP/Source/TransformFunctions/arm_rfft_fast_init_f32.c **** * \par
  49:DSP/Source/TransformFunctions/arm_rfft_fast_init_f32.c **** * The parameter <code>fftLen</code>	Specifies length of RFFT/CIFFT process. Supported FFT Lengths a
  50:DSP/Source/TransformFunctions/arm_rfft_fast_init_f32.c **** * \par
  51:DSP/Source/TransformFunctions/arm_rfft_fast_init_f32.c **** * This Function also initializes Twiddle factor table pointer and Bit reversal table pointer.
  52:DSP/Source/TransformFunctions/arm_rfft_fast_init_f32.c **** */
  53:DSP/Source/TransformFunctions/arm_rfft_fast_init_f32.c **** arm_status arm_rfft_fast_init_f32(
  54:DSP/Source/TransformFunctions/arm_rfft_fast_init_f32.c ****   arm_rfft_fast_instance_f32 * S,
  55:DSP/Source/TransformFunctions/arm_rfft_fast_init_f32.c ****   uint16_t fftLen)
  56:DSP/Source/TransformFunctions/arm_rfft_fast_init_f32.c **** {
  30              		.loc 1 56 1 view -0
  31              		.cfi_startproc
  32              		@ args = 0, pretend = 0, frame = 0
  33              		@ frame_needed = 0, uses_anonymous_args = 0
  34              		@ link register save eliminated.
  57:DSP/Source/TransformFunctions/arm_rfft_fast_init_f32.c ****   arm_cfft_instance_f32 * Sint;
  35              		.loc 1 57 3 view .LVU1
  58:DSP/Source/TransformFunctions/arm_rfft_fast_init_f32.c ****   /*  Initialise the default arm status */
  59:DSP/Source/TransformFunctions/arm_rfft_fast_init_f32.c ****   arm_status status = ARM_MATH_SUCCESS;
  36              		.loc 1 59 3 view .LVU2
  60:DSP/Source/TransformFunctions/arm_rfft_fast_init_f32.c ****   /*  Initialise the FFT length */
  61:DSP/Source/TransformFunctions/arm_rfft_fast_init_f32.c ****   Sint = &(S->Sint);
  37              		.loc 1 61 3 view .LVU3
  62:DSP/Source/TransformFunctions/arm_rfft_fast_init_f32.c ****   Sint->fftLen = fftLen/2;
  38              		.loc 1 62 3 view .LVU4
  39              		.loc 1 62 16 is_stmt 0 view .LVU5
  40 0000 4B08     		lsrs	r3, r1, #1
  41 0002 0380     		strh	r3, [r0]	@ movhi
  63:DSP/Source/TransformFunctions/arm_rfft_fast_init_f32.c ****   S->fftLenRFFT = fftLen;
  42              		.loc 1 63 3 is_stmt 1 view .LVU6
  43              		.loc 1 63 17 is_stmt 0 view .LVU7
  44 0004 0182     		strh	r1, [r0, #16]	@ movhi
  64:DSP/Source/TransformFunctions/arm_rfft_fast_init_f32.c **** 
  65:DSP/Source/TransformFunctions/arm_rfft_fast_init_f32.c ****   /*  Initializations of structure parameters depending on the FFT length */
  66:DSP/Source/TransformFunctions/arm_rfft_fast_init_f32.c ****   switch (Sint->fftLen)
  45              		.loc 1 66 3 is_stmt 1 view .LVU8
  46 0006 B3F5807F 		cmp	r3, #256
  47 000a 50D0     		beq	.L2
  48 000c 22D8     		bhi	.L3
  49 000e 402B     		cmp	r3, #64
ARM GAS  /var/folders/ck/g3dcd5x55xs4107jgdl0snvr0000gn/T//ccAHxcHi.s 			page 3


  50 0010 58D0     		beq	.L4
  51 0012 10D8     		bhi	.L5
  52 0014 102B     		cmp	r3, #16
  53 0016 5FD0     		beq	.L6
  54 0018 202B     		cmp	r3, #32
  55 001a 09D1     		bne	.L13
  67:DSP/Source/TransformFunctions/arm_rfft_fast_init_f32.c ****   {
  68:DSP/Source/TransformFunctions/arm_rfft_fast_init_f32.c ****   case 2048U:
  69:DSP/Source/TransformFunctions/arm_rfft_fast_init_f32.c ****     /*  Initializations of structure parameters for 2048 point FFT */
  70:DSP/Source/TransformFunctions/arm_rfft_fast_init_f32.c ****     /*  Initialise the bit reversal table length */
  71:DSP/Source/TransformFunctions/arm_rfft_fast_init_f32.c ****     Sint->bitRevLength = ARMBITREVINDEXTABLE_2048_TABLE_LENGTH;
  72:DSP/Source/TransformFunctions/arm_rfft_fast_init_f32.c ****     /*  Initialise the bit reversal table pointer */
  73:DSP/Source/TransformFunctions/arm_rfft_fast_init_f32.c ****     Sint->pBitRevTable = (uint16_t *)armBitRevIndexTable2048;
  74:DSP/Source/TransformFunctions/arm_rfft_fast_init_f32.c ****     /*  Initialise the Twiddle coefficient pointers */
  75:DSP/Source/TransformFunctions/arm_rfft_fast_init_f32.c **** 		Sint->pTwiddle     = (float32_t *) twiddleCoef_2048;
  76:DSP/Source/TransformFunctions/arm_rfft_fast_init_f32.c **** 		S->pTwiddleRFFT    = (float32_t *) twiddleCoef_rfft_4096;
  77:DSP/Source/TransformFunctions/arm_rfft_fast_init_f32.c ****     break;
  78:DSP/Source/TransformFunctions/arm_rfft_fast_init_f32.c ****   case 1024U:
  79:DSP/Source/TransformFunctions/arm_rfft_fast_init_f32.c ****     Sint->bitRevLength = ARMBITREVINDEXTABLE_1024_TABLE_LENGTH;
  80:DSP/Source/TransformFunctions/arm_rfft_fast_init_f32.c ****     Sint->pBitRevTable = (uint16_t *)armBitRevIndexTable1024;
  81:DSP/Source/TransformFunctions/arm_rfft_fast_init_f32.c **** 		Sint->pTwiddle     = (float32_t *) twiddleCoef_1024;
  82:DSP/Source/TransformFunctions/arm_rfft_fast_init_f32.c **** 		S->pTwiddleRFFT    = (float32_t *) twiddleCoef_rfft_2048;
  83:DSP/Source/TransformFunctions/arm_rfft_fast_init_f32.c ****     break;
  84:DSP/Source/TransformFunctions/arm_rfft_fast_init_f32.c ****   case 512U:
  85:DSP/Source/TransformFunctions/arm_rfft_fast_init_f32.c ****     Sint->bitRevLength = ARMBITREVINDEXTABLE_512_TABLE_LENGTH;
  86:DSP/Source/TransformFunctions/arm_rfft_fast_init_f32.c ****     Sint->pBitRevTable = (uint16_t *)armBitRevIndexTable512;
  87:DSP/Source/TransformFunctions/arm_rfft_fast_init_f32.c **** 		Sint->pTwiddle     = (float32_t *) twiddleCoef_512;
  88:DSP/Source/TransformFunctions/arm_rfft_fast_init_f32.c **** 		S->pTwiddleRFFT    = (float32_t *) twiddleCoef_rfft_1024;
  89:DSP/Source/TransformFunctions/arm_rfft_fast_init_f32.c ****     break;
  90:DSP/Source/TransformFunctions/arm_rfft_fast_init_f32.c ****   case 256U:
  91:DSP/Source/TransformFunctions/arm_rfft_fast_init_f32.c ****     Sint->bitRevLength = ARMBITREVINDEXTABLE_256_TABLE_LENGTH;
  92:DSP/Source/TransformFunctions/arm_rfft_fast_init_f32.c ****     Sint->pBitRevTable = (uint16_t *)armBitRevIndexTable256;
  93:DSP/Source/TransformFunctions/arm_rfft_fast_init_f32.c **** 		Sint->pTwiddle     = (float32_t *) twiddleCoef_256;
  94:DSP/Source/TransformFunctions/arm_rfft_fast_init_f32.c **** 		S->pTwiddleRFFT    = (float32_t *) twiddleCoef_rfft_512;
  95:DSP/Source/TransformFunctions/arm_rfft_fast_init_f32.c ****     break;
  96:DSP/Source/TransformFunctions/arm_rfft_fast_init_f32.c ****   case 128U:
  97:DSP/Source/TransformFunctions/arm_rfft_fast_init_f32.c ****     Sint->bitRevLength = ARMBITREVINDEXTABLE_128_TABLE_LENGTH;
  98:DSP/Source/TransformFunctions/arm_rfft_fast_init_f32.c ****     Sint->pBitRevTable = (uint16_t *)armBitRevIndexTable128;
  99:DSP/Source/TransformFunctions/arm_rfft_fast_init_f32.c **** 		Sint->pTwiddle     = (float32_t *) twiddleCoef_128;
 100:DSP/Source/TransformFunctions/arm_rfft_fast_init_f32.c **** 		S->pTwiddleRFFT    = (float32_t *) twiddleCoef_rfft_256;
 101:DSP/Source/TransformFunctions/arm_rfft_fast_init_f32.c ****     break;
 102:DSP/Source/TransformFunctions/arm_rfft_fast_init_f32.c ****   case 64U:
 103:DSP/Source/TransformFunctions/arm_rfft_fast_init_f32.c ****     Sint->bitRevLength = ARMBITREVINDEXTABLE_64_TABLE_LENGTH;
 104:DSP/Source/TransformFunctions/arm_rfft_fast_init_f32.c ****     Sint->pBitRevTable = (uint16_t *)armBitRevIndexTable64;
 105:DSP/Source/TransformFunctions/arm_rfft_fast_init_f32.c **** 		Sint->pTwiddle     = (float32_t *) twiddleCoef_64;
 106:DSP/Source/TransformFunctions/arm_rfft_fast_init_f32.c **** 		S->pTwiddleRFFT    = (float32_t *) twiddleCoef_rfft_128;
 107:DSP/Source/TransformFunctions/arm_rfft_fast_init_f32.c ****     break;
 108:DSP/Source/TransformFunctions/arm_rfft_fast_init_f32.c ****   case 32U:
 109:DSP/Source/TransformFunctions/arm_rfft_fast_init_f32.c ****     Sint->bitRevLength = ARMBITREVINDEXTABLE_32_TABLE_LENGTH;
  56              		.loc 1 109 5 view .LVU9
  57              		.loc 1 109 24 is_stmt 0 view .LVU10
  58 001c 3023     		movs	r3, #48
  59 001e 8381     		strh	r3, [r0, #12]	@ movhi
 110:DSP/Source/TransformFunctions/arm_rfft_fast_init_f32.c ****     Sint->pBitRevTable = (uint16_t *)armBitRevIndexTable32;
  60              		.loc 1 110 5 is_stmt 1 view .LVU11
  61              		.loc 1 110 24 is_stmt 0 view .LVU12
  62 0020 324B     		ldr	r3, .L16
ARM GAS  /var/folders/ck/g3dcd5x55xs4107jgdl0snvr0000gn/T//ccAHxcHi.s 			page 4


  63 0022 8360     		str	r3, [r0, #8]
 111:DSP/Source/TransformFunctions/arm_rfft_fast_init_f32.c **** 		Sint->pTwiddle     = (float32_t *) twiddleCoef_32;
  64              		.loc 1 111 3 is_stmt 1 view .LVU13
  65              		.loc 1 111 22 is_stmt 0 view .LVU14
  66 0024 324B     		ldr	r3, .L16+4
  67 0026 4360     		str	r3, [r0, #4]
 112:DSP/Source/TransformFunctions/arm_rfft_fast_init_f32.c **** 		S->pTwiddleRFFT    = (float32_t *) twiddleCoef_rfft_64;
  68              		.loc 1 112 3 is_stmt 1 view .LVU15
  69              		.loc 1 112 22 is_stmt 0 view .LVU16
  70 0028 324B     		ldr	r3, .L16+8
  71 002a 4361     		str	r3, [r0, #20]
 113:DSP/Source/TransformFunctions/arm_rfft_fast_init_f32.c ****     break;
  72              		.loc 1 113 5 is_stmt 1 view .LVU17
  59:DSP/Source/TransformFunctions/arm_rfft_fast_init_f32.c ****   /*  Initialise the FFT length */
  73              		.loc 1 59 14 is_stmt 0 view .LVU18
  74 002c 0020     		movs	r0, #0
  75              	.LVL1:
  76              		.loc 1 113 5 view .LVU19
  77 002e 7047     		bx	lr
  78              	.LVL2:
  79              	.L13:
  66:DSP/Source/TransformFunctions/arm_rfft_fast_init_f32.c ****   {
  80              		.loc 1 66 3 view .LVU20
  81 0030 4FF0FF30 		mov	r0, #-1
  82              	.LVL3:
  66:DSP/Source/TransformFunctions/arm_rfft_fast_init_f32.c ****   {
  83              		.loc 1 66 3 view .LVU21
  84 0034 7047     		bx	lr
  85              	.LVL4:
  86              	.L5:
  66:DSP/Source/TransformFunctions/arm_rfft_fast_init_f32.c ****   {
  87              		.loc 1 66 3 view .LVU22
  88 0036 802B     		cmp	r3, #128
  89 0038 09D1     		bne	.L14
  97:DSP/Source/TransformFunctions/arm_rfft_fast_init_f32.c ****     Sint->pBitRevTable = (uint16_t *)armBitRevIndexTable128;
  90              		.loc 1 97 5 is_stmt 1 view .LVU23
  97:DSP/Source/TransformFunctions/arm_rfft_fast_init_f32.c ****     Sint->pBitRevTable = (uint16_t *)armBitRevIndexTable128;
  91              		.loc 1 97 24 is_stmt 0 view .LVU24
  92 003a D023     		movs	r3, #208
  93 003c 8381     		strh	r3, [r0, #12]	@ movhi
  98:DSP/Source/TransformFunctions/arm_rfft_fast_init_f32.c **** 		Sint->pTwiddle     = (float32_t *) twiddleCoef_128;
  94              		.loc 1 98 5 is_stmt 1 view .LVU25
  98:DSP/Source/TransformFunctions/arm_rfft_fast_init_f32.c **** 		Sint->pTwiddle     = (float32_t *) twiddleCoef_128;
  95              		.loc 1 98 24 is_stmt 0 view .LVU26
  96 003e 2E4B     		ldr	r3, .L16+12
  97 0040 8360     		str	r3, [r0, #8]
  99:DSP/Source/TransformFunctions/arm_rfft_fast_init_f32.c **** 		S->pTwiddleRFFT    = (float32_t *) twiddleCoef_rfft_256;
  98              		.loc 1 99 3 is_stmt 1 view .LVU27
  99:DSP/Source/TransformFunctions/arm_rfft_fast_init_f32.c **** 		S->pTwiddleRFFT    = (float32_t *) twiddleCoef_rfft_256;
  99              		.loc 1 99 22 is_stmt 0 view .LVU28
 100 0042 2E4B     		ldr	r3, .L16+16
 101 0044 4360     		str	r3, [r0, #4]
 100:DSP/Source/TransformFunctions/arm_rfft_fast_init_f32.c ****     break;
 102              		.loc 1 100 3 is_stmt 1 view .LVU29
 100:DSP/Source/TransformFunctions/arm_rfft_fast_init_f32.c ****     break;
 103              		.loc 1 100 22 is_stmt 0 view .LVU30
 104 0046 2E4B     		ldr	r3, .L16+20
ARM GAS  /var/folders/ck/g3dcd5x55xs4107jgdl0snvr0000gn/T//ccAHxcHi.s 			page 5


 105 0048 4361     		str	r3, [r0, #20]
 101:DSP/Source/TransformFunctions/arm_rfft_fast_init_f32.c ****   case 64U:
 106              		.loc 1 101 5 is_stmt 1 view .LVU31
  59:DSP/Source/TransformFunctions/arm_rfft_fast_init_f32.c ****   /*  Initialise the FFT length */
 107              		.loc 1 59 14 is_stmt 0 view .LVU32
 108 004a 0020     		movs	r0, #0
 109              	.LVL5:
 101:DSP/Source/TransformFunctions/arm_rfft_fast_init_f32.c ****   case 64U:
 110              		.loc 1 101 5 view .LVU33
 111 004c 7047     		bx	lr
 112              	.LVL6:
 113              	.L14:
  66:DSP/Source/TransformFunctions/arm_rfft_fast_init_f32.c ****   {
 114              		.loc 1 66 3 view .LVU34
 115 004e 4FF0FF30 		mov	r0, #-1
 116              	.LVL7:
  66:DSP/Source/TransformFunctions/arm_rfft_fast_init_f32.c ****   {
 117              		.loc 1 66 3 view .LVU35
 118 0052 7047     		bx	lr
 119              	.LVL8:
 120              	.L3:
  66:DSP/Source/TransformFunctions/arm_rfft_fast_init_f32.c ****   {
 121              		.loc 1 66 3 view .LVU36
 122 0054 B3F5806F 		cmp	r3, #1024
 123 0058 1ED0     		beq	.L10
 124 005a B3F5006F 		cmp	r3, #2048
 125 005e 10D0     		beq	.L11
 126 0060 B3F5007F 		cmp	r3, #512
 127 0064 0AD1     		bne	.L15
  85:DSP/Source/TransformFunctions/arm_rfft_fast_init_f32.c ****     Sint->pBitRevTable = (uint16_t *)armBitRevIndexTable512;
 128              		.loc 1 85 5 is_stmt 1 view .LVU37
  85:DSP/Source/TransformFunctions/arm_rfft_fast_init_f32.c ****     Sint->pBitRevTable = (uint16_t *)armBitRevIndexTable512;
 129              		.loc 1 85 24 is_stmt 0 view .LVU38
 130 0066 4FF4E073 		mov	r3, #448
 131 006a 8381     		strh	r3, [r0, #12]	@ movhi
  86:DSP/Source/TransformFunctions/arm_rfft_fast_init_f32.c **** 		Sint->pTwiddle     = (float32_t *) twiddleCoef_512;
 132              		.loc 1 86 5 is_stmt 1 view .LVU39
  86:DSP/Source/TransformFunctions/arm_rfft_fast_init_f32.c **** 		Sint->pTwiddle     = (float32_t *) twiddleCoef_512;
 133              		.loc 1 86 24 is_stmt 0 view .LVU40
 134 006c 254B     		ldr	r3, .L16+24
 135 006e 8360     		str	r3, [r0, #8]
  87:DSP/Source/TransformFunctions/arm_rfft_fast_init_f32.c **** 		S->pTwiddleRFFT    = (float32_t *) twiddleCoef_rfft_1024;
 136              		.loc 1 87 3 is_stmt 1 view .LVU41
  87:DSP/Source/TransformFunctions/arm_rfft_fast_init_f32.c **** 		S->pTwiddleRFFT    = (float32_t *) twiddleCoef_rfft_1024;
 137              		.loc 1 87 22 is_stmt 0 view .LVU42
 138 0070 254B     		ldr	r3, .L16+28
 139 0072 4360     		str	r3, [r0, #4]
  88:DSP/Source/TransformFunctions/arm_rfft_fast_init_f32.c ****     break;
 140              		.loc 1 88 3 is_stmt 1 view .LVU43
  88:DSP/Source/TransformFunctions/arm_rfft_fast_init_f32.c ****     break;
 141              		.loc 1 88 22 is_stmt 0 view .LVU44
 142 0074 254B     		ldr	r3, .L16+32
 143 0076 4361     		str	r3, [r0, #20]
  89:DSP/Source/TransformFunctions/arm_rfft_fast_init_f32.c ****   case 256U:
 144              		.loc 1 89 5 is_stmt 1 view .LVU45
  59:DSP/Source/TransformFunctions/arm_rfft_fast_init_f32.c ****   /*  Initialise the FFT length */
 145              		.loc 1 59 14 is_stmt 0 view .LVU46
ARM GAS  /var/folders/ck/g3dcd5x55xs4107jgdl0snvr0000gn/T//ccAHxcHi.s 			page 6


 146 0078 0020     		movs	r0, #0
 147              	.LVL9:
  89:DSP/Source/TransformFunctions/arm_rfft_fast_init_f32.c ****   case 256U:
 148              		.loc 1 89 5 view .LVU47
 149 007a 7047     		bx	lr
 150              	.LVL10:
 151              	.L15:
  66:DSP/Source/TransformFunctions/arm_rfft_fast_init_f32.c ****   {
 152              		.loc 1 66 3 view .LVU48
 153 007c 4FF0FF30 		mov	r0, #-1
 154              	.LVL11:
  66:DSP/Source/TransformFunctions/arm_rfft_fast_init_f32.c ****   {
 155              		.loc 1 66 3 view .LVU49
 156 0080 7047     		bx	lr
 157              	.LVL12:
 158              	.L11:
  71:DSP/Source/TransformFunctions/arm_rfft_fast_init_f32.c ****     /*  Initialise the bit reversal table pointer */
 159              		.loc 1 71 5 is_stmt 1 view .LVU50
  71:DSP/Source/TransformFunctions/arm_rfft_fast_init_f32.c ****     /*  Initialise the bit reversal table pointer */
 160              		.loc 1 71 24 is_stmt 0 view .LVU51
 161 0082 4FF46E63 		mov	r3, #3808
 162 0086 8381     		strh	r3, [r0, #12]	@ movhi
  73:DSP/Source/TransformFunctions/arm_rfft_fast_init_f32.c ****     /*  Initialise the Twiddle coefficient pointers */
 163              		.loc 1 73 5 is_stmt 1 view .LVU52
  73:DSP/Source/TransformFunctions/arm_rfft_fast_init_f32.c ****     /*  Initialise the Twiddle coefficient pointers */
 164              		.loc 1 73 24 is_stmt 0 view .LVU53
 165 0088 214B     		ldr	r3, .L16+36
 166 008a 8360     		str	r3, [r0, #8]
  75:DSP/Source/TransformFunctions/arm_rfft_fast_init_f32.c **** 		S->pTwiddleRFFT    = (float32_t *) twiddleCoef_rfft_4096;
 167              		.loc 1 75 3 is_stmt 1 view .LVU54
  75:DSP/Source/TransformFunctions/arm_rfft_fast_init_f32.c **** 		S->pTwiddleRFFT    = (float32_t *) twiddleCoef_rfft_4096;
 168              		.loc 1 75 22 is_stmt 0 view .LVU55
 169 008c 214B     		ldr	r3, .L16+40
 170 008e 4360     		str	r3, [r0, #4]
  76:DSP/Source/TransformFunctions/arm_rfft_fast_init_f32.c ****     break;
 171              		.loc 1 76 3 is_stmt 1 view .LVU56
  76:DSP/Source/TransformFunctions/arm_rfft_fast_init_f32.c ****     break;
 172              		.loc 1 76 22 is_stmt 0 view .LVU57
 173 0090 214B     		ldr	r3, .L16+44
 174 0092 4361     		str	r3, [r0, #20]
  77:DSP/Source/TransformFunctions/arm_rfft_fast_init_f32.c ****   case 1024U:
 175              		.loc 1 77 5 is_stmt 1 view .LVU58
  59:DSP/Source/TransformFunctions/arm_rfft_fast_init_f32.c ****   /*  Initialise the FFT length */
 176              		.loc 1 59 14 is_stmt 0 view .LVU59
 177 0094 0020     		movs	r0, #0
 178              	.LVL13:
  77:DSP/Source/TransformFunctions/arm_rfft_fast_init_f32.c ****   case 1024U:
 179              		.loc 1 77 5 view .LVU60
 180 0096 7047     		bx	lr
 181              	.LVL14:
 182              	.L10:
  79:DSP/Source/TransformFunctions/arm_rfft_fast_init_f32.c ****     Sint->pBitRevTable = (uint16_t *)armBitRevIndexTable1024;
 183              		.loc 1 79 5 is_stmt 1 view .LVU61
  79:DSP/Source/TransformFunctions/arm_rfft_fast_init_f32.c ****     Sint->pBitRevTable = (uint16_t *)armBitRevIndexTable1024;
 184              		.loc 1 79 24 is_stmt 0 view .LVU62
 185 0098 4FF4E163 		mov	r3, #1800
 186 009c 8381     		strh	r3, [r0, #12]	@ movhi
ARM GAS  /var/folders/ck/g3dcd5x55xs4107jgdl0snvr0000gn/T//ccAHxcHi.s 			page 7


  80:DSP/Source/TransformFunctions/arm_rfft_fast_init_f32.c **** 		Sint->pTwiddle     = (float32_t *) twiddleCoef_1024;
 187              		.loc 1 80 5 is_stmt 1 view .LVU63
  80:DSP/Source/TransformFunctions/arm_rfft_fast_init_f32.c **** 		Sint->pTwiddle     = (float32_t *) twiddleCoef_1024;
 188              		.loc 1 80 24 is_stmt 0 view .LVU64
 189 009e 1F4B     		ldr	r3, .L16+48
 190 00a0 8360     		str	r3, [r0, #8]
  81:DSP/Source/TransformFunctions/arm_rfft_fast_init_f32.c **** 		S->pTwiddleRFFT    = (float32_t *) twiddleCoef_rfft_2048;
 191              		.loc 1 81 3 is_stmt 1 view .LVU65
  81:DSP/Source/TransformFunctions/arm_rfft_fast_init_f32.c **** 		S->pTwiddleRFFT    = (float32_t *) twiddleCoef_rfft_2048;
 192              		.loc 1 81 22 is_stmt 0 view .LVU66
 193 00a2 1F4B     		ldr	r3, .L16+52
 194 00a4 4360     		str	r3, [r0, #4]
  82:DSP/Source/TransformFunctions/arm_rfft_fast_init_f32.c ****     break;
 195              		.loc 1 82 3 is_stmt 1 view .LVU67
  82:DSP/Source/TransformFunctions/arm_rfft_fast_init_f32.c ****     break;
 196              		.loc 1 82 22 is_stmt 0 view .LVU68
 197 00a6 1F4B     		ldr	r3, .L16+56
 198 00a8 4361     		str	r3, [r0, #20]
  83:DSP/Source/TransformFunctions/arm_rfft_fast_init_f32.c ****   case 512U:
 199              		.loc 1 83 5 is_stmt 1 view .LVU69
  59:DSP/Source/TransformFunctions/arm_rfft_fast_init_f32.c ****   /*  Initialise the FFT length */
 200              		.loc 1 59 14 is_stmt 0 view .LVU70
 201 00aa 0020     		movs	r0, #0
 202              	.LVL15:
  83:DSP/Source/TransformFunctions/arm_rfft_fast_init_f32.c ****   case 512U:
 203              		.loc 1 83 5 view .LVU71
 204 00ac 7047     		bx	lr
 205              	.LVL16:
 206              	.L2:
  91:DSP/Source/TransformFunctions/arm_rfft_fast_init_f32.c ****     Sint->pBitRevTable = (uint16_t *)armBitRevIndexTable256;
 207              		.loc 1 91 5 is_stmt 1 view .LVU72
  91:DSP/Source/TransformFunctions/arm_rfft_fast_init_f32.c ****     Sint->pBitRevTable = (uint16_t *)armBitRevIndexTable256;
 208              		.loc 1 91 24 is_stmt 0 view .LVU73
 209 00ae 4FF4DC73 		mov	r3, #440
 210 00b2 8381     		strh	r3, [r0, #12]	@ movhi
  92:DSP/Source/TransformFunctions/arm_rfft_fast_init_f32.c **** 		Sint->pTwiddle     = (float32_t *) twiddleCoef_256;
 211              		.loc 1 92 5 is_stmt 1 view .LVU74
  92:DSP/Source/TransformFunctions/arm_rfft_fast_init_f32.c **** 		Sint->pTwiddle     = (float32_t *) twiddleCoef_256;
 212              		.loc 1 92 24 is_stmt 0 view .LVU75
 213 00b4 1C4B     		ldr	r3, .L16+60
 214 00b6 8360     		str	r3, [r0, #8]
  93:DSP/Source/TransformFunctions/arm_rfft_fast_init_f32.c **** 		S->pTwiddleRFFT    = (float32_t *) twiddleCoef_rfft_512;
 215              		.loc 1 93 3 is_stmt 1 view .LVU76
  93:DSP/Source/TransformFunctions/arm_rfft_fast_init_f32.c **** 		S->pTwiddleRFFT    = (float32_t *) twiddleCoef_rfft_512;
 216              		.loc 1 93 22 is_stmt 0 view .LVU77
 217 00b8 1C4B     		ldr	r3, .L16+64
 218 00ba 4360     		str	r3, [r0, #4]
  94:DSP/Source/TransformFunctions/arm_rfft_fast_init_f32.c ****     break;
 219              		.loc 1 94 3 is_stmt 1 view .LVU78
  94:DSP/Source/TransformFunctions/arm_rfft_fast_init_f32.c ****     break;
 220              		.loc 1 94 22 is_stmt 0 view .LVU79
 221 00bc 1C4B     		ldr	r3, .L16+68
 222 00be 4361     		str	r3, [r0, #20]
  95:DSP/Source/TransformFunctions/arm_rfft_fast_init_f32.c ****   case 128U:
 223              		.loc 1 95 5 is_stmt 1 view .LVU80
  59:DSP/Source/TransformFunctions/arm_rfft_fast_init_f32.c ****   /*  Initialise the FFT length */
 224              		.loc 1 59 14 is_stmt 0 view .LVU81
ARM GAS  /var/folders/ck/g3dcd5x55xs4107jgdl0snvr0000gn/T//ccAHxcHi.s 			page 8


 225 00c0 0020     		movs	r0, #0
 226              	.LVL17:
  95:DSP/Source/TransformFunctions/arm_rfft_fast_init_f32.c ****   case 128U:
 227              		.loc 1 95 5 view .LVU82
 228 00c2 7047     		bx	lr
 229              	.LVL18:
 230              	.L4:
 103:DSP/Source/TransformFunctions/arm_rfft_fast_init_f32.c ****     Sint->pBitRevTable = (uint16_t *)armBitRevIndexTable64;
 231              		.loc 1 103 5 is_stmt 1 view .LVU83
 103:DSP/Source/TransformFunctions/arm_rfft_fast_init_f32.c ****     Sint->pBitRevTable = (uint16_t *)armBitRevIndexTable64;
 232              		.loc 1 103 24 is_stmt 0 view .LVU84
 233 00c4 3823     		movs	r3, #56
 234 00c6 8381     		strh	r3, [r0, #12]	@ movhi
 104:DSP/Source/TransformFunctions/arm_rfft_fast_init_f32.c **** 		Sint->pTwiddle     = (float32_t *) twiddleCoef_64;
 235              		.loc 1 104 5 is_stmt 1 view .LVU85
 104:DSP/Source/TransformFunctions/arm_rfft_fast_init_f32.c **** 		Sint->pTwiddle     = (float32_t *) twiddleCoef_64;
 236              		.loc 1 104 24 is_stmt 0 view .LVU86
 237 00c8 1A4B     		ldr	r3, .L16+72
 238 00ca 8360     		str	r3, [r0, #8]
 105:DSP/Source/TransformFunctions/arm_rfft_fast_init_f32.c **** 		S->pTwiddleRFFT    = (float32_t *) twiddleCoef_rfft_128;
 239              		.loc 1 105 3 is_stmt 1 view .LVU87
 105:DSP/Source/TransformFunctions/arm_rfft_fast_init_f32.c **** 		S->pTwiddleRFFT    = (float32_t *) twiddleCoef_rfft_128;
 240              		.loc 1 105 22 is_stmt 0 view .LVU88
 241 00cc 1A4B     		ldr	r3, .L16+76
 242 00ce 4360     		str	r3, [r0, #4]
 106:DSP/Source/TransformFunctions/arm_rfft_fast_init_f32.c ****     break;
 243              		.loc 1 106 3 is_stmt 1 view .LVU89
 106:DSP/Source/TransformFunctions/arm_rfft_fast_init_f32.c ****     break;
 244              		.loc 1 106 22 is_stmt 0 view .LVU90
 245 00d0 1A4B     		ldr	r3, .L16+80
 246 00d2 4361     		str	r3, [r0, #20]
 107:DSP/Source/TransformFunctions/arm_rfft_fast_init_f32.c ****   case 32U:
 247              		.loc 1 107 5 is_stmt 1 view .LVU91
  59:DSP/Source/TransformFunctions/arm_rfft_fast_init_f32.c ****   /*  Initialise the FFT length */
 248              		.loc 1 59 14 is_stmt 0 view .LVU92
 249 00d4 0020     		movs	r0, #0
 250              	.LVL19:
 107:DSP/Source/TransformFunctions/arm_rfft_fast_init_f32.c ****   case 32U:
 251              		.loc 1 107 5 view .LVU93
 252 00d6 7047     		bx	lr
 253              	.LVL20:
 254              	.L6:
 114:DSP/Source/TransformFunctions/arm_rfft_fast_init_f32.c ****   case 16U:
 115:DSP/Source/TransformFunctions/arm_rfft_fast_init_f32.c ****     Sint->bitRevLength = ARMBITREVINDEXTABLE_16_TABLE_LENGTH;
 255              		.loc 1 115 5 is_stmt 1 view .LVU94
 256              		.loc 1 115 24 is_stmt 0 view .LVU95
 257 00d8 1423     		movs	r3, #20
 258 00da 8381     		strh	r3, [r0, #12]	@ movhi
 116:DSP/Source/TransformFunctions/arm_rfft_fast_init_f32.c ****     Sint->pBitRevTable = (uint16_t *)armBitRevIndexTable16;
 259              		.loc 1 116 5 is_stmt 1 view .LVU96
 260              		.loc 1 116 24 is_stmt 0 view .LVU97
 261 00dc 184B     		ldr	r3, .L16+84
 262 00de 8360     		str	r3, [r0, #8]
 117:DSP/Source/TransformFunctions/arm_rfft_fast_init_f32.c **** 		Sint->pTwiddle     = (float32_t *) twiddleCoef_16;
 263              		.loc 1 117 3 is_stmt 1 view .LVU98
 264              		.loc 1 117 22 is_stmt 0 view .LVU99
 265 00e0 184B     		ldr	r3, .L16+88
ARM GAS  /var/folders/ck/g3dcd5x55xs4107jgdl0snvr0000gn/T//ccAHxcHi.s 			page 9


 266 00e2 4360     		str	r3, [r0, #4]
 118:DSP/Source/TransformFunctions/arm_rfft_fast_init_f32.c **** 		S->pTwiddleRFFT    = (float32_t *) twiddleCoef_rfft_32;
 267              		.loc 1 118 3 is_stmt 1 view .LVU100
 268              		.loc 1 118 22 is_stmt 0 view .LVU101
 269 00e4 184B     		ldr	r3, .L16+92
 270 00e6 4361     		str	r3, [r0, #20]
 119:DSP/Source/TransformFunctions/arm_rfft_fast_init_f32.c ****     break;
 271              		.loc 1 119 5 is_stmt 1 view .LVU102
  59:DSP/Source/TransformFunctions/arm_rfft_fast_init_f32.c ****   /*  Initialise the FFT length */
 272              		.loc 1 59 14 is_stmt 0 view .LVU103
 273 00e8 0020     		movs	r0, #0
 274              	.LVL21:
 120:DSP/Source/TransformFunctions/arm_rfft_fast_init_f32.c ****   default:
 121:DSP/Source/TransformFunctions/arm_rfft_fast_init_f32.c ****     /*  Reporting argument error if fftSize is not valid value */
 122:DSP/Source/TransformFunctions/arm_rfft_fast_init_f32.c ****     status = ARM_MATH_ARGUMENT_ERROR;
 123:DSP/Source/TransformFunctions/arm_rfft_fast_init_f32.c ****     break;
 124:DSP/Source/TransformFunctions/arm_rfft_fast_init_f32.c ****   }
 125:DSP/Source/TransformFunctions/arm_rfft_fast_init_f32.c **** 
 126:DSP/Source/TransformFunctions/arm_rfft_fast_init_f32.c ****   return (status);
 275              		.loc 1 126 3 is_stmt 1 view .LVU104
 127:DSP/Source/TransformFunctions/arm_rfft_fast_init_f32.c **** }
 276              		.loc 1 127 1 is_stmt 0 view .LVU105
 277 00ea 7047     		bx	lr
 278              	.L17:
 279              		.align	2
 280              	.L16:
 281 00ec 00000000 		.word	armBitRevIndexTable32
 282 00f0 00000000 		.word	twiddleCoef_32
 283 00f4 00000000 		.word	twiddleCoef_rfft_64
 284 00f8 00000000 		.word	armBitRevIndexTable128
 285 00fc 00000000 		.word	twiddleCoef_128
 286 0100 00000000 		.word	twiddleCoef_rfft_256
 287 0104 00000000 		.word	armBitRevIndexTable512
 288 0108 00000000 		.word	twiddleCoef_512
 289 010c 00000000 		.word	twiddleCoef_rfft_1024
 290 0110 00000000 		.word	armBitRevIndexTable2048
 291 0114 00000000 		.word	twiddleCoef_2048
 292 0118 00000000 		.word	twiddleCoef_rfft_4096
 293 011c 00000000 		.word	armBitRevIndexTable1024
 294 0120 00000000 		.word	twiddleCoef_1024
 295 0124 00000000 		.word	twiddleCoef_rfft_2048
 296 0128 00000000 		.word	armBitRevIndexTable256
 297 012c 00000000 		.word	twiddleCoef_256
 298 0130 00000000 		.word	twiddleCoef_rfft_512
 299 0134 00000000 		.word	armBitRevIndexTable64
 300 0138 00000000 		.word	twiddleCoef_64
 301 013c 00000000 		.word	twiddleCoef_rfft_128
 302 0140 00000000 		.word	armBitRevIndexTable16
 303 0144 00000000 		.word	twiddleCoef_16
 304 0148 00000000 		.word	twiddleCoef_rfft_32
 305              		.cfi_endproc
 306              	.LFE139:
 308              		.text
 309              	.Letext0:
 310              		.file 2 "/Users/luban/.local/xPacks/arm-none-eabi-gcc/xpack-arm-none-eabi-gcc-13.2.1-1.1/arm-none-
 311              		.file 3 "/Users/luban/.local/xPacks/arm-none-eabi-gcc/xpack-arm-none-eabi-gcc-13.2.1-1.1/arm-none-
 312              		.file 4 "DSP/Inc/arm_math.h"
ARM GAS  /var/folders/ck/g3dcd5x55xs4107jgdl0snvr0000gn/T//ccAHxcHi.s 			page 10


 313              		.file 5 "DSP/Inc/arm_common_tables.h"
ARM GAS  /var/folders/ck/g3dcd5x55xs4107jgdl0snvr0000gn/T//ccAHxcHi.s 			page 11


DEFINED SYMBOLS
                            *ABS*:00000000 arm_rfft_fast_init_f32.c
/var/folders/ck/g3dcd5x55xs4107jgdl0snvr0000gn/T//ccAHxcHi.s:21     .text.arm_rfft_fast_init_f32:00000000 $t
/var/folders/ck/g3dcd5x55xs4107jgdl0snvr0000gn/T//ccAHxcHi.s:27     .text.arm_rfft_fast_init_f32:00000000 arm_rfft_fast_init_f32
/var/folders/ck/g3dcd5x55xs4107jgdl0snvr0000gn/T//ccAHxcHi.s:281    .text.arm_rfft_fast_init_f32:000000ec $d

UNDEFINED SYMBOLS
armBitRevIndexTable32
twiddleCoef_32
twiddleCoef_rfft_64
armBitRevIndexTable128
twiddleCoef_128
twiddleCoef_rfft_256
armBitRevIndexTable512
twiddleCoef_512
twiddleCoef_rfft_1024
armBitRevIndexTable2048
twiddleCoef_2048
twiddleCoef_rfft_4096
armBitRevIndexTable1024
twiddleCoef_1024
twiddleCoef_rfft_2048
armBitRevIndexTable256
twiddleCoef_256
twiddleCoef_rfft_512
armBitRevIndexTable64
twiddleCoef_64
twiddleCoef_rfft_128
armBitRevIndexTable16
twiddleCoef_16
twiddleCoef_rfft_32
