ARM GAS  /var/folders/ck/g3dcd5x55xs4107jgdl0snvr0000gn/T//ccJw5eTe.s 			page 1


   1              		.cpu cortex-m4
   2              		.arch armv7e-m
   3              		.fpu fpv4-sp-d16
   4              		.eabi_attribute 27, 1
   5              		.eabi_attribute 28, 1
   6              		.eabi_attribute 20, 1
   7              		.eabi_attribute 21, 1
   8              		.eabi_attribute 23, 3
   9              		.eabi_attribute 24, 1
  10              		.eabi_attribute 25, 1
  11              		.eabi_attribute 26, 1
  12              		.eabi_attribute 30, 1
  13              		.eabi_attribute 34, 1
  14              		.eabi_attribute 18, 4
  15              		.file	"arm_negate_f32.c"
  16              		.text
  17              	.Ltext0:
  18              		.cfi_sections	.debug_frame
  19              		.file 1 "DSP/Source/BasicMathFunctions/arm_negate_f32.c"
  20              		.section	.text.arm_negate_f32,"ax",%progbits
  21              		.align	1
  22              		.global	arm_negate_f32
  23              		.syntax unified
  24              		.thumb
  25              		.thumb_func
  27              	arm_negate_f32:
  28              	.LVL0:
  29              	.LFB139:
   1:DSP/Source/BasicMathFunctions/arm_negate_f32.c **** /* ----------------------------------------------------------------------
   2:DSP/Source/BasicMathFunctions/arm_negate_f32.c ****  * Project:      CMSIS DSP Library
   3:DSP/Source/BasicMathFunctions/arm_negate_f32.c ****  * Title:        arm_negate_f32.c
   4:DSP/Source/BasicMathFunctions/arm_negate_f32.c ****  * Description:  Negates floating-point vectors
   5:DSP/Source/BasicMathFunctions/arm_negate_f32.c ****  *
   6:DSP/Source/BasicMathFunctions/arm_negate_f32.c ****  * $Date:        27. January 2017
   7:DSP/Source/BasicMathFunctions/arm_negate_f32.c ****  * $Revision:    V.1.5.1
   8:DSP/Source/BasicMathFunctions/arm_negate_f32.c ****  *
   9:DSP/Source/BasicMathFunctions/arm_negate_f32.c ****  * Target Processor: Cortex-M cores
  10:DSP/Source/BasicMathFunctions/arm_negate_f32.c ****  * -------------------------------------------------------------------- */
  11:DSP/Source/BasicMathFunctions/arm_negate_f32.c **** /*
  12:DSP/Source/BasicMathFunctions/arm_negate_f32.c ****  * Copyright (C) 2010-2017 ARM Limited or its affiliates. All rights reserved.
  13:DSP/Source/BasicMathFunctions/arm_negate_f32.c ****  *
  14:DSP/Source/BasicMathFunctions/arm_negate_f32.c ****  * SPDX-License-Identifier: Apache-2.0
  15:DSP/Source/BasicMathFunctions/arm_negate_f32.c ****  *
  16:DSP/Source/BasicMathFunctions/arm_negate_f32.c ****  * Licensed under the Apache License, Version 2.0 (the License); you may
  17:DSP/Source/BasicMathFunctions/arm_negate_f32.c ****  * not use this file except in compliance with the License.
  18:DSP/Source/BasicMathFunctions/arm_negate_f32.c ****  * You may obtain a copy of the License at
  19:DSP/Source/BasicMathFunctions/arm_negate_f32.c ****  *
  20:DSP/Source/BasicMathFunctions/arm_negate_f32.c ****  * www.apache.org/licenses/LICENSE-2.0
  21:DSP/Source/BasicMathFunctions/arm_negate_f32.c ****  *
  22:DSP/Source/BasicMathFunctions/arm_negate_f32.c ****  * Unless required by applicable law or agreed to in writing, software
  23:DSP/Source/BasicMathFunctions/arm_negate_f32.c ****  * distributed under the License is distributed on an AS IS BASIS, WITHOUT
  24:DSP/Source/BasicMathFunctions/arm_negate_f32.c ****  * WARRANTIES OR CONDITIONS OF ANY KIND, either express or implied.
  25:DSP/Source/BasicMathFunctions/arm_negate_f32.c ****  * See the License for the specific language governing permissions and
  26:DSP/Source/BasicMathFunctions/arm_negate_f32.c ****  * limitations under the License.
  27:DSP/Source/BasicMathFunctions/arm_negate_f32.c ****  */
  28:DSP/Source/BasicMathFunctions/arm_negate_f32.c **** 
  29:DSP/Source/BasicMathFunctions/arm_negate_f32.c **** #include "arm_math.h"
ARM GAS  /var/folders/ck/g3dcd5x55xs4107jgdl0snvr0000gn/T//ccJw5eTe.s 			page 2


  30:DSP/Source/BasicMathFunctions/arm_negate_f32.c **** 
  31:DSP/Source/BasicMathFunctions/arm_negate_f32.c **** /**
  32:DSP/Source/BasicMathFunctions/arm_negate_f32.c ****  * @ingroup groupMath
  33:DSP/Source/BasicMathFunctions/arm_negate_f32.c ****  */
  34:DSP/Source/BasicMathFunctions/arm_negate_f32.c **** 
  35:DSP/Source/BasicMathFunctions/arm_negate_f32.c **** /**
  36:DSP/Source/BasicMathFunctions/arm_negate_f32.c ****  * @defgroup negate Vector Negate
  37:DSP/Source/BasicMathFunctions/arm_negate_f32.c ****  *
  38:DSP/Source/BasicMathFunctions/arm_negate_f32.c ****  * Negates the elements of a vector.
  39:DSP/Source/BasicMathFunctions/arm_negate_f32.c ****  *
  40:DSP/Source/BasicMathFunctions/arm_negate_f32.c ****  * <pre>
  41:DSP/Source/BasicMathFunctions/arm_negate_f32.c ****  *     pDst[n] = -pSrc[n],   0 <= n < blockSize.
  42:DSP/Source/BasicMathFunctions/arm_negate_f32.c ****  * </pre>
  43:DSP/Source/BasicMathFunctions/arm_negate_f32.c ****  *
  44:DSP/Source/BasicMathFunctions/arm_negate_f32.c ****  * The functions support in-place computation allowing the source and
  45:DSP/Source/BasicMathFunctions/arm_negate_f32.c ****  * destination pointers to reference the same memory buffer.
  46:DSP/Source/BasicMathFunctions/arm_negate_f32.c ****  * There are separate functions for floating-point, Q7, Q15, and Q31 data types.
  47:DSP/Source/BasicMathFunctions/arm_negate_f32.c ****  */
  48:DSP/Source/BasicMathFunctions/arm_negate_f32.c **** 
  49:DSP/Source/BasicMathFunctions/arm_negate_f32.c **** /**
  50:DSP/Source/BasicMathFunctions/arm_negate_f32.c ****  * @addtogroup negate
  51:DSP/Source/BasicMathFunctions/arm_negate_f32.c ****  * @{
  52:DSP/Source/BasicMathFunctions/arm_negate_f32.c ****  */
  53:DSP/Source/BasicMathFunctions/arm_negate_f32.c **** 
  54:DSP/Source/BasicMathFunctions/arm_negate_f32.c **** /**
  55:DSP/Source/BasicMathFunctions/arm_negate_f32.c ****  * @brief  Negates the elements of a floating-point vector.
  56:DSP/Source/BasicMathFunctions/arm_negate_f32.c ****  * @param[in]  *pSrc points to the input vector
  57:DSP/Source/BasicMathFunctions/arm_negate_f32.c ****  * @param[out]  *pDst points to the output vector
  58:DSP/Source/BasicMathFunctions/arm_negate_f32.c ****  * @param[in]  blockSize number of samples in the vector
  59:DSP/Source/BasicMathFunctions/arm_negate_f32.c ****  * @return none.
  60:DSP/Source/BasicMathFunctions/arm_negate_f32.c ****  */
  61:DSP/Source/BasicMathFunctions/arm_negate_f32.c **** 
  62:DSP/Source/BasicMathFunctions/arm_negate_f32.c **** void arm_negate_f32(
  63:DSP/Source/BasicMathFunctions/arm_negate_f32.c ****   float32_t * pSrc,
  64:DSP/Source/BasicMathFunctions/arm_negate_f32.c ****   float32_t * pDst,
  65:DSP/Source/BasicMathFunctions/arm_negate_f32.c ****   uint32_t blockSize)
  66:DSP/Source/BasicMathFunctions/arm_negate_f32.c **** {
  30              		.loc 1 66 1 view -0
  31              		.cfi_startproc
  32              		@ args = 0, pretend = 0, frame = 0
  33              		@ frame_needed = 0, uses_anonymous_args = 0
  34              		@ link register save eliminated.
  67:DSP/Source/BasicMathFunctions/arm_negate_f32.c ****   uint32_t blkCnt;                               /* loop counter */
  35              		.loc 1 67 3 view .LVU1
  68:DSP/Source/BasicMathFunctions/arm_negate_f32.c **** 
  69:DSP/Source/BasicMathFunctions/arm_negate_f32.c **** 
  70:DSP/Source/BasicMathFunctions/arm_negate_f32.c **** #if defined (ARM_MATH_DSP)
  71:DSP/Source/BasicMathFunctions/arm_negate_f32.c **** 
  72:DSP/Source/BasicMathFunctions/arm_negate_f32.c **** /* Run the below code for Cortex-M4 and Cortex-M3 */
  73:DSP/Source/BasicMathFunctions/arm_negate_f32.c ****   float32_t in1, in2, in3, in4;                  /* temporary variables */
  36              		.loc 1 73 3 view .LVU2
  74:DSP/Source/BasicMathFunctions/arm_negate_f32.c **** 
  75:DSP/Source/BasicMathFunctions/arm_negate_f32.c ****   /*loop Unrolling */
  76:DSP/Source/BasicMathFunctions/arm_negate_f32.c ****   blkCnt = blockSize >> 2U;
  37              		.loc 1 76 3 view .LVU3
  38              		.loc 1 76 10 is_stmt 0 view .LVU4
  39 0000 9308     		lsrs	r3, r2, #2
ARM GAS  /var/folders/ck/g3dcd5x55xs4107jgdl0snvr0000gn/T//ccJw5eTe.s 			page 3


  40              	.LVL1:
  77:DSP/Source/BasicMathFunctions/arm_negate_f32.c **** 
  78:DSP/Source/BasicMathFunctions/arm_negate_f32.c ****   /* First part of the processing with loop unrolling.  Compute 4 outputs at a time.
  79:DSP/Source/BasicMathFunctions/arm_negate_f32.c ****    ** a second loop below computes the remaining 1 to 3 samples. */
  80:DSP/Source/BasicMathFunctions/arm_negate_f32.c ****   while (blkCnt > 0U)
  41              		.loc 1 80 3 is_stmt 1 view .LVU5
  42              		.loc 1 80 9 is_stmt 0 view .LVU6
  43 0002 1AE0     		b	.L2
  44              	.L3:
  81:DSP/Source/BasicMathFunctions/arm_negate_f32.c ****   {
  82:DSP/Source/BasicMathFunctions/arm_negate_f32.c ****     /* read inputs from source */
  83:DSP/Source/BasicMathFunctions/arm_negate_f32.c ****     in1 = *pSrc;
  45              		.loc 1 83 5 is_stmt 1 view .LVU7
  46              		.loc 1 83 9 is_stmt 0 view .LVU8
  47 0004 90ED006A 		vldr.32	s12, [r0]
  48              	.LVL2:
  84:DSP/Source/BasicMathFunctions/arm_negate_f32.c ****     in2 = *(pSrc + 1);
  49              		.loc 1 84 5 is_stmt 1 view .LVU9
  50              		.loc 1 84 9 is_stmt 0 view .LVU10
  51 0008 D0ED016A 		vldr.32	s13, [r0, #4]
  52              	.LVL3:
  85:DSP/Source/BasicMathFunctions/arm_negate_f32.c ****     in3 = *(pSrc + 2);
  53              		.loc 1 85 5 is_stmt 1 view .LVU11
  54              		.loc 1 85 9 is_stmt 0 view .LVU12
  55 000c 90ED027A 		vldr.32	s14, [r0, #8]
  56              	.LVL4:
  86:DSP/Source/BasicMathFunctions/arm_negate_f32.c ****     in4 = *(pSrc + 3);
  57              		.loc 1 86 5 is_stmt 1 view .LVU13
  58              		.loc 1 86 9 is_stmt 0 view .LVU14
  59 0010 D0ED037A 		vldr.32	s15, [r0, #12]
  60              	.LVL5:
  87:DSP/Source/BasicMathFunctions/arm_negate_f32.c **** 
  88:DSP/Source/BasicMathFunctions/arm_negate_f32.c ****     /* negate the input */
  89:DSP/Source/BasicMathFunctions/arm_negate_f32.c ****     in1 = -in1;
  61              		.loc 1 89 5 is_stmt 1 view .LVU15
  62              		.loc 1 89 9 is_stmt 0 view .LVU16
  63 0014 B1EE466A 		vneg.f32	s12, s12
  64              	.LVL6:
  90:DSP/Source/BasicMathFunctions/arm_negate_f32.c ****     in2 = -in2;
  65              		.loc 1 90 5 is_stmt 1 view .LVU17
  66              		.loc 1 90 9 is_stmt 0 view .LVU18
  67 0018 F1EE666A 		vneg.f32	s13, s13
  68              	.LVL7:
  91:DSP/Source/BasicMathFunctions/arm_negate_f32.c ****     in3 = -in3;
  69              		.loc 1 91 5 is_stmt 1 view .LVU19
  70              		.loc 1 91 9 is_stmt 0 view .LVU20
  71 001c B1EE477A 		vneg.f32	s14, s14
  72              	.LVL8:
  92:DSP/Source/BasicMathFunctions/arm_negate_f32.c ****     in4 = -in4;
  73              		.loc 1 92 5 is_stmt 1 view .LVU21
  74              		.loc 1 92 9 is_stmt 0 view .LVU22
  75 0020 F1EE677A 		vneg.f32	s15, s15
  76              	.LVL9:
  93:DSP/Source/BasicMathFunctions/arm_negate_f32.c **** 
  94:DSP/Source/BasicMathFunctions/arm_negate_f32.c ****     /* store the result to destination */
  95:DSP/Source/BasicMathFunctions/arm_negate_f32.c ****     *pDst = in1;
  77              		.loc 1 95 5 is_stmt 1 view .LVU23
ARM GAS  /var/folders/ck/g3dcd5x55xs4107jgdl0snvr0000gn/T//ccJw5eTe.s 			page 4


  78              		.loc 1 95 11 is_stmt 0 view .LVU24
  79 0024 81ED006A 		vstr.32	s12, [r1]
  96:DSP/Source/BasicMathFunctions/arm_negate_f32.c ****     *(pDst + 1) = in2;
  80              		.loc 1 96 5 is_stmt 1 view .LVU25
  81              		.loc 1 96 17 is_stmt 0 view .LVU26
  82 0028 C1ED016A 		vstr.32	s13, [r1, #4]
  97:DSP/Source/BasicMathFunctions/arm_negate_f32.c ****     *(pDst + 2) = in3;
  83              		.loc 1 97 5 is_stmt 1 view .LVU27
  84              		.loc 1 97 17 is_stmt 0 view .LVU28
  85 002c 81ED027A 		vstr.32	s14, [r1, #8]
  98:DSP/Source/BasicMathFunctions/arm_negate_f32.c ****     *(pDst + 3) = in4;
  86              		.loc 1 98 5 is_stmt 1 view .LVU29
  87              		.loc 1 98 17 is_stmt 0 view .LVU30
  88 0030 C1ED037A 		vstr.32	s15, [r1, #12]
  99:DSP/Source/BasicMathFunctions/arm_negate_f32.c **** 
 100:DSP/Source/BasicMathFunctions/arm_negate_f32.c ****     /* update pointers to process next samples */
 101:DSP/Source/BasicMathFunctions/arm_negate_f32.c ****     pSrc += 4U;
  89              		.loc 1 101 5 is_stmt 1 view .LVU31
  90              		.loc 1 101 10 is_stmt 0 view .LVU32
  91 0034 1030     		adds	r0, r0, #16
  92              	.LVL10:
 102:DSP/Source/BasicMathFunctions/arm_negate_f32.c ****     pDst += 4U;
  93              		.loc 1 102 5 is_stmt 1 view .LVU33
  94              		.loc 1 102 10 is_stmt 0 view .LVU34
  95 0036 1031     		adds	r1, r1, #16
  96              	.LVL11:
 103:DSP/Source/BasicMathFunctions/arm_negate_f32.c **** 
 104:DSP/Source/BasicMathFunctions/arm_negate_f32.c ****     /* Decrement the loop counter */
 105:DSP/Source/BasicMathFunctions/arm_negate_f32.c ****     blkCnt--;
  97              		.loc 1 105 5 is_stmt 1 view .LVU35
  98              		.loc 1 105 11 is_stmt 0 view .LVU36
  99 0038 013B     		subs	r3, r3, #1
 100              	.LVL12:
 101              	.L2:
  80:DSP/Source/BasicMathFunctions/arm_negate_f32.c ****   {
 102              		.loc 1 80 17 is_stmt 1 view .LVU37
 103 003a 002B     		cmp	r3, #0
 104 003c E2D1     		bne	.L3
 106:DSP/Source/BasicMathFunctions/arm_negate_f32.c ****   }
 107:DSP/Source/BasicMathFunctions/arm_negate_f32.c **** 
 108:DSP/Source/BasicMathFunctions/arm_negate_f32.c ****   /* If the blockSize is not a multiple of 4, compute any remaining output samples here.
 109:DSP/Source/BasicMathFunctions/arm_negate_f32.c ****    ** No loop unrolling is used. */
 110:DSP/Source/BasicMathFunctions/arm_negate_f32.c ****   blkCnt = blockSize % 0x4U;
 105              		.loc 1 110 3 view .LVU38
 106              		.loc 1 110 10 is_stmt 0 view .LVU39
 107 003e 02F00302 		and	r2, r2, #3
 108              	.LVL13:
 111:DSP/Source/BasicMathFunctions/arm_negate_f32.c **** 
 112:DSP/Source/BasicMathFunctions/arm_negate_f32.c **** #else
 113:DSP/Source/BasicMathFunctions/arm_negate_f32.c **** 
 114:DSP/Source/BasicMathFunctions/arm_negate_f32.c ****   /* Run the below code for Cortex-M0 */
 115:DSP/Source/BasicMathFunctions/arm_negate_f32.c **** 
 116:DSP/Source/BasicMathFunctions/arm_negate_f32.c ****   /* Initialize blkCnt with number of samples */
 117:DSP/Source/BasicMathFunctions/arm_negate_f32.c ****   blkCnt = blockSize;
 118:DSP/Source/BasicMathFunctions/arm_negate_f32.c **** 
 119:DSP/Source/BasicMathFunctions/arm_negate_f32.c **** #endif /* #if defined (ARM_MATH_DSP) */
 120:DSP/Source/BasicMathFunctions/arm_negate_f32.c **** 
ARM GAS  /var/folders/ck/g3dcd5x55xs4107jgdl0snvr0000gn/T//ccJw5eTe.s 			page 5


 121:DSP/Source/BasicMathFunctions/arm_negate_f32.c ****   while (blkCnt > 0U)
 109              		.loc 1 121 3 is_stmt 1 view .LVU40
 110              		.loc 1 121 9 is_stmt 0 view .LVU41
 111 0042 06E0     		b	.L4
 112              	.L5:
 122:DSP/Source/BasicMathFunctions/arm_negate_f32.c ****   {
 123:DSP/Source/BasicMathFunctions/arm_negate_f32.c ****     /* C = -A */
 124:DSP/Source/BasicMathFunctions/arm_negate_f32.c ****     /* Negate and then store the results in the destination buffer. */
 125:DSP/Source/BasicMathFunctions/arm_negate_f32.c ****     *pDst++ = -*pSrc++;
 113              		.loc 1 125 5 is_stmt 1 view .LVU42
 114              	.LVL14:
 115              		.loc 1 125 16 is_stmt 0 view .LVU43
 116 0044 F0EC017A 		vldmia.32	r0!, {s15}
 117              	.LVL15:
 118              		.loc 1 125 15 view .LVU44
 119 0048 F1EE677A 		vneg.f32	s15, s15
 120              		.loc 1 125 13 view .LVU45
 121 004c E1EC017A 		vstmia.32	r1!, {s15}
 122              	.LVL16:
 126:DSP/Source/BasicMathFunctions/arm_negate_f32.c **** 
 127:DSP/Source/BasicMathFunctions/arm_negate_f32.c ****     /* Decrement the loop counter */
 128:DSP/Source/BasicMathFunctions/arm_negate_f32.c ****     blkCnt--;
 123              		.loc 1 128 5 is_stmt 1 view .LVU46
 124              		.loc 1 128 11 is_stmt 0 view .LVU47
 125 0050 013A     		subs	r2, r2, #1
 126              	.LVL17:
 127              	.L4:
 121:DSP/Source/BasicMathFunctions/arm_negate_f32.c ****   {
 128              		.loc 1 121 17 is_stmt 1 view .LVU48
 129 0052 002A     		cmp	r2, #0
 130 0054 F6D1     		bne	.L5
 129:DSP/Source/BasicMathFunctions/arm_negate_f32.c ****   }
 130:DSP/Source/BasicMathFunctions/arm_negate_f32.c **** }
 131              		.loc 1 130 1 is_stmt 0 view .LVU49
 132 0056 7047     		bx	lr
 133              		.cfi_endproc
 134              	.LFE139:
 136              		.text
 137              	.Letext0:
 138              		.file 2 "/Users/luban/.local/xPacks/arm-none-eabi-gcc/xpack-arm-none-eabi-gcc-13.2.1-1.1/arm-none-
 139              		.file 3 "/Users/luban/.local/xPacks/arm-none-eabi-gcc/xpack-arm-none-eabi-gcc-13.2.1-1.1/arm-none-
 140              		.file 4 "DSP/Inc/arm_math.h"
ARM GAS  /var/folders/ck/g3dcd5x55xs4107jgdl0snvr0000gn/T//ccJw5eTe.s 			page 6


DEFINED SYMBOLS
                            *ABS*:00000000 arm_negate_f32.c
/var/folders/ck/g3dcd5x55xs4107jgdl0snvr0000gn/T//ccJw5eTe.s:21     .text.arm_negate_f32:00000000 $t
/var/folders/ck/g3dcd5x55xs4107jgdl0snvr0000gn/T//ccJw5eTe.s:27     .text.arm_negate_f32:00000000 arm_negate_f32

NO UNDEFINED SYMBOLS
