ARM GAS  /var/folders/ck/g3dcd5x55xs4107jgdl0snvr0000gn/T//cco2fBqY.s 			page 1


   1              		.cpu cortex-m4
   2              		.arch armv7e-m
   3              		.fpu fpv4-sp-d16
   4              		.eabi_attribute 27, 1
   5              		.eabi_attribute 28, 1
   6              		.eabi_attribute 20, 1
   7              		.eabi_attribute 21, 1
   8              		.eabi_attribute 23, 3
   9              		.eabi_attribute 24, 1
  10              		.eabi_attribute 25, 1
  11              		.eabi_attribute 26, 1
  12              		.eabi_attribute 30, 1
  13              		.eabi_attribute 34, 1
  14              		.eabi_attribute 18, 4
  15              		.file	"arm_q31_to_q15.c"
  16              		.text
  17              	.Ltext0:
  18              		.cfi_sections	.debug_frame
  19              		.file 1 "DSP/Source/SupportFunctions/arm_q31_to_q15.c"
  20              		.section	.text.arm_q31_to_q15,"ax",%progbits
  21              		.align	1
  22              		.global	arm_q31_to_q15
  23              		.syntax unified
  24              		.thumb
  25              		.thumb_func
  27              	arm_q31_to_q15:
  28              	.LVL0:
  29              	.LFB139:
   1:DSP/Source/SupportFunctions/arm_q31_to_q15.c **** /* ----------------------------------------------------------------------
   2:DSP/Source/SupportFunctions/arm_q31_to_q15.c ****  * Project:      CMSIS DSP Library
   3:DSP/Source/SupportFunctions/arm_q31_to_q15.c ****  * Title:        arm_q31_to_q15.c
   4:DSP/Source/SupportFunctions/arm_q31_to_q15.c ****  * Description:  Converts the elements of the Q31 vector to Q15 vector
   5:DSP/Source/SupportFunctions/arm_q31_to_q15.c ****  *
   6:DSP/Source/SupportFunctions/arm_q31_to_q15.c ****  * $Date:        27. January 2017
   7:DSP/Source/SupportFunctions/arm_q31_to_q15.c ****  * $Revision:    V.1.5.1
   8:DSP/Source/SupportFunctions/arm_q31_to_q15.c ****  *
   9:DSP/Source/SupportFunctions/arm_q31_to_q15.c ****  * Target Processor: Cortex-M cores
  10:DSP/Source/SupportFunctions/arm_q31_to_q15.c ****  * -------------------------------------------------------------------- */
  11:DSP/Source/SupportFunctions/arm_q31_to_q15.c **** /*
  12:DSP/Source/SupportFunctions/arm_q31_to_q15.c ****  * Copyright (C) 2010-2017 ARM Limited or its affiliates. All rights reserved.
  13:DSP/Source/SupportFunctions/arm_q31_to_q15.c ****  *
  14:DSP/Source/SupportFunctions/arm_q31_to_q15.c ****  * SPDX-License-Identifier: Apache-2.0
  15:DSP/Source/SupportFunctions/arm_q31_to_q15.c ****  *
  16:DSP/Source/SupportFunctions/arm_q31_to_q15.c ****  * Licensed under the Apache License, Version 2.0 (the License); you may
  17:DSP/Source/SupportFunctions/arm_q31_to_q15.c ****  * not use this file except in compliance with the License.
  18:DSP/Source/SupportFunctions/arm_q31_to_q15.c ****  * You may obtain a copy of the License at
  19:DSP/Source/SupportFunctions/arm_q31_to_q15.c ****  *
  20:DSP/Source/SupportFunctions/arm_q31_to_q15.c ****  * www.apache.org/licenses/LICENSE-2.0
  21:DSP/Source/SupportFunctions/arm_q31_to_q15.c ****  *
  22:DSP/Source/SupportFunctions/arm_q31_to_q15.c ****  * Unless required by applicable law or agreed to in writing, software
  23:DSP/Source/SupportFunctions/arm_q31_to_q15.c ****  * distributed under the License is distributed on an AS IS BASIS, WITHOUT
  24:DSP/Source/SupportFunctions/arm_q31_to_q15.c ****  * WARRANTIES OR CONDITIONS OF ANY KIND, either express or implied.
  25:DSP/Source/SupportFunctions/arm_q31_to_q15.c ****  * See the License for the specific language governing permissions and
  26:DSP/Source/SupportFunctions/arm_q31_to_q15.c ****  * limitations under the License.
  27:DSP/Source/SupportFunctions/arm_q31_to_q15.c ****  */
  28:DSP/Source/SupportFunctions/arm_q31_to_q15.c **** 
  29:DSP/Source/SupportFunctions/arm_q31_to_q15.c **** #include "arm_math.h"
ARM GAS  /var/folders/ck/g3dcd5x55xs4107jgdl0snvr0000gn/T//cco2fBqY.s 			page 2


  30:DSP/Source/SupportFunctions/arm_q31_to_q15.c **** 
  31:DSP/Source/SupportFunctions/arm_q31_to_q15.c **** /**
  32:DSP/Source/SupportFunctions/arm_q31_to_q15.c ****  * @ingroup groupSupport
  33:DSP/Source/SupportFunctions/arm_q31_to_q15.c ****  */
  34:DSP/Source/SupportFunctions/arm_q31_to_q15.c **** 
  35:DSP/Source/SupportFunctions/arm_q31_to_q15.c **** /**
  36:DSP/Source/SupportFunctions/arm_q31_to_q15.c ****  * @addtogroup q31_to_x
  37:DSP/Source/SupportFunctions/arm_q31_to_q15.c ****  * @{
  38:DSP/Source/SupportFunctions/arm_q31_to_q15.c ****  */
  39:DSP/Source/SupportFunctions/arm_q31_to_q15.c **** 
  40:DSP/Source/SupportFunctions/arm_q31_to_q15.c **** /**
  41:DSP/Source/SupportFunctions/arm_q31_to_q15.c ****  * @brief Converts the elements of the Q31 vector to Q15 vector.
  42:DSP/Source/SupportFunctions/arm_q31_to_q15.c ****  * @param[in]       *pSrc points to the Q31 input vector
  43:DSP/Source/SupportFunctions/arm_q31_to_q15.c ****  * @param[out]      *pDst points to the Q15 output vector
  44:DSP/Source/SupportFunctions/arm_q31_to_q15.c ****  * @param[in]       blockSize length of the input vector
  45:DSP/Source/SupportFunctions/arm_q31_to_q15.c ****  * @return none.
  46:DSP/Source/SupportFunctions/arm_q31_to_q15.c ****  *
  47:DSP/Source/SupportFunctions/arm_q31_to_q15.c ****  * \par Description:
  48:DSP/Source/SupportFunctions/arm_q31_to_q15.c ****  *
  49:DSP/Source/SupportFunctions/arm_q31_to_q15.c ****  * The equation used for the conversion process is:
  50:DSP/Source/SupportFunctions/arm_q31_to_q15.c ****  *
  51:DSP/Source/SupportFunctions/arm_q31_to_q15.c ****  * <pre>
  52:DSP/Source/SupportFunctions/arm_q31_to_q15.c ****  * 	pDst[n] = (q15_t) pSrc[n] >> 16;   0 <= n < blockSize.
  53:DSP/Source/SupportFunctions/arm_q31_to_q15.c ****  * </pre>
  54:DSP/Source/SupportFunctions/arm_q31_to_q15.c ****  *
  55:DSP/Source/SupportFunctions/arm_q31_to_q15.c ****  */
  56:DSP/Source/SupportFunctions/arm_q31_to_q15.c **** 
  57:DSP/Source/SupportFunctions/arm_q31_to_q15.c **** 
  58:DSP/Source/SupportFunctions/arm_q31_to_q15.c **** void arm_q31_to_q15(
  59:DSP/Source/SupportFunctions/arm_q31_to_q15.c ****   q31_t * pSrc,
  60:DSP/Source/SupportFunctions/arm_q31_to_q15.c ****   q15_t * pDst,
  61:DSP/Source/SupportFunctions/arm_q31_to_q15.c ****   uint32_t blockSize)
  62:DSP/Source/SupportFunctions/arm_q31_to_q15.c **** {
  30              		.loc 1 62 1 view -0
  31              		.cfi_startproc
  32              		@ args = 0, pretend = 0, frame = 0
  33              		@ frame_needed = 0, uses_anonymous_args = 0
  34              		@ link register save eliminated.
  35              		.loc 1 62 1 is_stmt 0 view .LVU1
  36 0000 F0B4     		push	{r4, r5, r6, r7}
  37              	.LCFI0:
  38              		.cfi_def_cfa_offset 16
  39              		.cfi_offset 4, -16
  40              		.cfi_offset 5, -12
  41              		.cfi_offset 6, -8
  42              		.cfi_offset 7, -4
  63:DSP/Source/SupportFunctions/arm_q31_to_q15.c ****   q31_t *pIn = pSrc;                             /* Src pointer */
  43              		.loc 1 63 3 is_stmt 1 view .LVU2
  44              	.LVL1:
  64:DSP/Source/SupportFunctions/arm_q31_to_q15.c ****   uint32_t blkCnt;                               /* loop counter */
  45              		.loc 1 64 3 view .LVU3
  65:DSP/Source/SupportFunctions/arm_q31_to_q15.c **** 
  66:DSP/Source/SupportFunctions/arm_q31_to_q15.c **** #if defined (ARM_MATH_DSP)
  67:DSP/Source/SupportFunctions/arm_q31_to_q15.c **** 
  68:DSP/Source/SupportFunctions/arm_q31_to_q15.c ****   /* Run the below code for Cortex-M4 and Cortex-M3 */
  69:DSP/Source/SupportFunctions/arm_q31_to_q15.c ****   q31_t in1, in2, in3, in4;
  46              		.loc 1 69 3 view .LVU4
ARM GAS  /var/folders/ck/g3dcd5x55xs4107jgdl0snvr0000gn/T//cco2fBqY.s 			page 3


  70:DSP/Source/SupportFunctions/arm_q31_to_q15.c ****   q31_t out1, out2;
  47              		.loc 1 70 3 view .LVU5
  71:DSP/Source/SupportFunctions/arm_q31_to_q15.c **** 
  72:DSP/Source/SupportFunctions/arm_q31_to_q15.c ****   /*loop Unrolling */
  73:DSP/Source/SupportFunctions/arm_q31_to_q15.c ****   blkCnt = blockSize >> 2U;
  48              		.loc 1 73 3 view .LVU6
  49              		.loc 1 73 10 is_stmt 0 view .LVU7
  50 0002 9608     		lsrs	r6, r2, #2
  51              	.LVL2:
  74:DSP/Source/SupportFunctions/arm_q31_to_q15.c **** 
  75:DSP/Source/SupportFunctions/arm_q31_to_q15.c ****   /* First part of the processing with loop unrolling.  Compute 4 outputs at a time.
  76:DSP/Source/SupportFunctions/arm_q31_to_q15.c ****    ** a second loop below computes the remaining 1 to 3 samples. */
  77:DSP/Source/SupportFunctions/arm_q31_to_q15.c ****   while (blkCnt > 0U)
  52              		.loc 1 77 3 is_stmt 1 view .LVU8
  53              		.loc 1 77 9 is_stmt 0 view .LVU9
  54 0004 0EE0     		b	.L2
  55              	.LVL3:
  56              	.L3:
  78:DSP/Source/SupportFunctions/arm_q31_to_q15.c ****   {
  79:DSP/Source/SupportFunctions/arm_q31_to_q15.c ****     /* C = (q15_t) A >> 16 */
  80:DSP/Source/SupportFunctions/arm_q31_to_q15.c ****     /* convert from q31 to q15 and then store the results in the destination buffer */
  81:DSP/Source/SupportFunctions/arm_q31_to_q15.c ****     in1 = *pIn++;
  57              		.loc 1 81 5 is_stmt 1 view .LVU10
  58              		.loc 1 81 9 is_stmt 0 view .LVU11
  59 0006 0568     		ldr	r5, [r0]
  60              	.LVL4:
  82:DSP/Source/SupportFunctions/arm_q31_to_q15.c ****     in2 = *pIn++;
  61              		.loc 1 82 5 is_stmt 1 view .LVU12
  83:DSP/Source/SupportFunctions/arm_q31_to_q15.c ****     in3 = *pIn++;
  62              		.loc 1 83 5 view .LVU13
  63              		.loc 1 83 9 is_stmt 0 view .LVU14
  64 0008 8468     		ldr	r4, [r0, #8]
  65              	.LVL5:
  84:DSP/Source/SupportFunctions/arm_q31_to_q15.c ****     in4 = *pIn++;
  66              		.loc 1 84 5 is_stmt 1 view .LVU15
  67              		.loc 1 84 9 is_stmt 0 view .LVU16
  68 000a C368     		ldr	r3, [r0, #12]
  69              	.LVL6:
  85:DSP/Source/SupportFunctions/arm_q31_to_q15.c **** 
  86:DSP/Source/SupportFunctions/arm_q31_to_q15.c ****     /* pack two higher 16-bit values from two 32-bit values */
  87:DSP/Source/SupportFunctions/arm_q31_to_q15.c **** #ifndef ARM_MATH_BIG_ENDIAN
  88:DSP/Source/SupportFunctions/arm_q31_to_q15.c **** 
  89:DSP/Source/SupportFunctions/arm_q31_to_q15.c ****     out1 = __PKHTB(in2, in1, 16);
  70              		.loc 1 89 5 is_stmt 1 view .LVU17
  71              	.LBB2:
  72              		.loc 1 89 12 view .LVU18
  73              		.loc 1 89 12 view .LVU19
  74              		.loc 1 89 12 discriminator 2 view .LVU20
  75 000c 4768     		ldr	r7, [r0, #4]
  76              		.syntax unified
  77              	@ 89 "DSP/Source/SupportFunctions/arm_q31_to_q15.c" 1
  78 000e C7EA2545 		pkhtb r5, r7, r5, asr #16
  79              	@ 0 "" 2
  80              	.LVL7:
  81              		.loc 1 89 12 discriminator 4 view .LVU21
  82              		.loc 1 89 12 is_stmt 0 discriminator 4 view .LVU22
  83              		.thumb
ARM GAS  /var/folders/ck/g3dcd5x55xs4107jgdl0snvr0000gn/T//cco2fBqY.s 			page 4


  84              		.syntax unified
  85              	.LBE2:
  90:DSP/Source/SupportFunctions/arm_q31_to_q15.c ****     out2 = __PKHTB(in4, in3, 16);
  86              		.loc 1 90 5 is_stmt 1 view .LVU23
  87              	.LBB3:
  88              		.loc 1 90 12 view .LVU24
  89              		.loc 1 90 12 view .LVU25
  90              		.loc 1 90 12 discriminator 2 view .LVU26
  91              		.syntax unified
  92              	@ 90 "DSP/Source/SupportFunctions/arm_q31_to_q15.c" 1
  93 0012 C3EA2444 		pkhtb r4, r3, r4, asr #16
  94              	@ 0 "" 2
  95              	.LVL8:
  96              		.loc 1 90 12 discriminator 4 view .LVU27
  97              		.loc 1 90 12 is_stmt 0 discriminator 4 view .LVU28
  98              		.thumb
  99              		.syntax unified
 100              	.LBE3:
  91:DSP/Source/SupportFunctions/arm_q31_to_q15.c **** 
  92:DSP/Source/SupportFunctions/arm_q31_to_q15.c **** #else
  93:DSP/Source/SupportFunctions/arm_q31_to_q15.c **** 
  94:DSP/Source/SupportFunctions/arm_q31_to_q15.c ****     out1 = __PKHTB(in1, in2, 16);
  95:DSP/Source/SupportFunctions/arm_q31_to_q15.c ****     out2 = __PKHTB(in3, in4, 16);
  96:DSP/Source/SupportFunctions/arm_q31_to_q15.c **** 
  97:DSP/Source/SupportFunctions/arm_q31_to_q15.c **** #endif //      #ifdef ARM_MATH_BIG_ENDIAN
  98:DSP/Source/SupportFunctions/arm_q31_to_q15.c **** 
  99:DSP/Source/SupportFunctions/arm_q31_to_q15.c ****     *__SIMD32(pDst)++ = out1;
 101              		.loc 1 99 5 is_stmt 1 view .LVU29
 102              		.loc 1 99 23 is_stmt 0 view .LVU30
 103 0016 0B46     		mov	r3, r1
 104              	.LVL9:
 105              		.loc 1 99 23 view .LVU31
 106 0018 43F8085B 		str	r5, [r3], #8
 107              	.LVL10:
 100:DSP/Source/SupportFunctions/arm_q31_to_q15.c ****     *__SIMD32(pDst)++ = out2;
 108              		.loc 1 100 5 is_stmt 1 view .LVU32
 109              		.loc 1 100 23 is_stmt 0 view .LVU33
 110 001c 4C60     		str	r4, [r1, #4]
 101:DSP/Source/SupportFunctions/arm_q31_to_q15.c **** 
 102:DSP/Source/SupportFunctions/arm_q31_to_q15.c ****     /* Decrement the loop counter */
 103:DSP/Source/SupportFunctions/arm_q31_to_q15.c ****     blkCnt--;
 111              		.loc 1 103 5 is_stmt 1 view .LVU34
 112              		.loc 1 103 11 is_stmt 0 view .LVU35
 113 001e 013E     		subs	r6, r6, #1
 114              	.LVL11:
 100:DSP/Source/SupportFunctions/arm_q31_to_q15.c ****     *__SIMD32(pDst)++ = out2;
 115              		.loc 1 100 20 view .LVU36
 116 0020 1946     		mov	r1, r3
  84:DSP/Source/SupportFunctions/arm_q31_to_q15.c **** 
 117              		.loc 1 84 15 view .LVU37
 118 0022 1030     		adds	r0, r0, #16
 119              	.LVL12:
 120              	.L2:
  77:DSP/Source/SupportFunctions/arm_q31_to_q15.c ****   {
 121              		.loc 1 77 17 is_stmt 1 view .LVU38
 122 0024 002E     		cmp	r6, #0
 123 0026 EED1     		bne	.L3
ARM GAS  /var/folders/ck/g3dcd5x55xs4107jgdl0snvr0000gn/T//cco2fBqY.s 			page 5


 104:DSP/Source/SupportFunctions/arm_q31_to_q15.c ****   }
 105:DSP/Source/SupportFunctions/arm_q31_to_q15.c **** 
 106:DSP/Source/SupportFunctions/arm_q31_to_q15.c ****   /* If the blockSize is not a multiple of 4, compute any remaining output samples here.
 107:DSP/Source/SupportFunctions/arm_q31_to_q15.c ****    ** No loop unrolling is used. */
 108:DSP/Source/SupportFunctions/arm_q31_to_q15.c ****   blkCnt = blockSize % 0x4U;
 124              		.loc 1 108 3 view .LVU39
 125              		.loc 1 108 10 is_stmt 0 view .LVU40
 126 0028 02F00302 		and	r2, r2, #3
 127              	.LVL13:
 109:DSP/Source/SupportFunctions/arm_q31_to_q15.c **** 
 110:DSP/Source/SupportFunctions/arm_q31_to_q15.c **** #else
 111:DSP/Source/SupportFunctions/arm_q31_to_q15.c **** 
 112:DSP/Source/SupportFunctions/arm_q31_to_q15.c ****   /* Run the below code for Cortex-M0 */
 113:DSP/Source/SupportFunctions/arm_q31_to_q15.c **** 
 114:DSP/Source/SupportFunctions/arm_q31_to_q15.c ****   /* Loop over blockSize number of values */
 115:DSP/Source/SupportFunctions/arm_q31_to_q15.c ****   blkCnt = blockSize;
 116:DSP/Source/SupportFunctions/arm_q31_to_q15.c **** 
 117:DSP/Source/SupportFunctions/arm_q31_to_q15.c **** #endif /* #if defined (ARM_MATH_DSP) */
 118:DSP/Source/SupportFunctions/arm_q31_to_q15.c **** 
 119:DSP/Source/SupportFunctions/arm_q31_to_q15.c ****   while (blkCnt > 0U)
 128              		.loc 1 119 3 is_stmt 1 view .LVU41
 129              		.loc 1 119 9 is_stmt 0 view .LVU42
 130 002c 05E0     		b	.L4
 131              	.L5:
 120:DSP/Source/SupportFunctions/arm_q31_to_q15.c ****   {
 121:DSP/Source/SupportFunctions/arm_q31_to_q15.c ****     /* C = (q15_t) A >> 16 */
 122:DSP/Source/SupportFunctions/arm_q31_to_q15.c ****     /* convert from q31 to q15 and then store the results in the destination buffer */
 123:DSP/Source/SupportFunctions/arm_q31_to_q15.c ****     *pDst++ = (q15_t) (*pIn++ >> 16);
 132              		.loc 1 123 5 is_stmt 1 view .LVU43
 133              	.LVL14:
 134              		.loc 1 123 24 is_stmt 0 view .LVU44
 135 002e 50F8043B 		ldr	r3, [r0], #4
 136              	.LVL15:
 137              		.loc 1 123 15 view .LVU45
 138 0032 1B14     		asrs	r3, r3, #16
 139              		.loc 1 123 13 view .LVU46
 140 0034 21F8023B 		strh	r3, [r1], #2	@ movhi
 141              	.LVL16:
 124:DSP/Source/SupportFunctions/arm_q31_to_q15.c **** 
 125:DSP/Source/SupportFunctions/arm_q31_to_q15.c ****     /* Decrement the loop counter */
 126:DSP/Source/SupportFunctions/arm_q31_to_q15.c ****     blkCnt--;
 142              		.loc 1 126 5 is_stmt 1 view .LVU47
 143              		.loc 1 126 11 is_stmt 0 view .LVU48
 144 0038 013A     		subs	r2, r2, #1
 145              	.LVL17:
 146              	.L4:
 119:DSP/Source/SupportFunctions/arm_q31_to_q15.c ****   {
 147              		.loc 1 119 17 is_stmt 1 view .LVU49
 148 003a 002A     		cmp	r2, #0
 149 003c F7D1     		bne	.L5
 127:DSP/Source/SupportFunctions/arm_q31_to_q15.c ****   }
 128:DSP/Source/SupportFunctions/arm_q31_to_q15.c **** 
 129:DSP/Source/SupportFunctions/arm_q31_to_q15.c **** }
 150              		.loc 1 129 1 is_stmt 0 view .LVU50
 151 003e F0BC     		pop	{r4, r5, r6, r7}
 152              	.LCFI1:
 153              		.cfi_restore 7
ARM GAS  /var/folders/ck/g3dcd5x55xs4107jgdl0snvr0000gn/T//cco2fBqY.s 			page 6


 154              		.cfi_restore 6
 155              		.cfi_restore 5
 156              		.cfi_restore 4
 157              		.cfi_def_cfa_offset 0
 158 0040 7047     		bx	lr
 159              		.cfi_endproc
 160              	.LFE139:
 162              		.text
 163              	.Letext0:
 164              		.file 2 "/Users/luban/.local/xPacks/arm-none-eabi-gcc/xpack-arm-none-eabi-gcc-13.2.1-1.1/arm-none-
 165              		.file 3 "/Users/luban/.local/xPacks/arm-none-eabi-gcc/xpack-arm-none-eabi-gcc-13.2.1-1.1/arm-none-
 166              		.file 4 "DSP/Inc/arm_math.h"
ARM GAS  /var/folders/ck/g3dcd5x55xs4107jgdl0snvr0000gn/T//cco2fBqY.s 			page 7

