ARM GAS  /var/folders/ck/g3dcd5x55xs4107jgdl0snvr0000gn/T//cc4og9VU.s 			page 1


   1              		.cpu cortex-m4
   2              		.arch armv7e-m
   3              		.fpu fpv4-sp-d16
   4              		.eabi_attribute 27, 1
   5              		.eabi_attribute 28, 1
   6              		.eabi_attribute 20, 1
   7              		.eabi_attribute 21, 1
   8              		.eabi_attribute 23, 3
   9              		.eabi_attribute 24, 1
  10              		.eabi_attribute 25, 1
  11              		.eabi_attribute 26, 1
  12              		.eabi_attribute 30, 1
  13              		.eabi_attribute 34, 1
  14              		.eabi_attribute 18, 4
  15              		.file	"arm_conv_q7.c"
  16              		.text
  17              	.Ltext0:
  18              		.cfi_sections	.debug_frame
  19              		.file 1 "DSP/Source/FilteringFunctions/arm_conv_q7.c"
  20              		.section	.text.arm_conv_q7,"ax",%progbits
  21              		.align	1
  22              		.global	arm_conv_q7
  23              		.syntax unified
  24              		.thumb
  25              		.thumb_func
  27              	arm_conv_q7:
  28              	.LVL0:
  29              	.LFB139:
   1:DSP/Source/FilteringFunctions/arm_conv_q7.c **** /* ----------------------------------------------------------------------
   2:DSP/Source/FilteringFunctions/arm_conv_q7.c ****  * Project:      CMSIS DSP Library
   3:DSP/Source/FilteringFunctions/arm_conv_q7.c ****  * Title:        arm_conv_q7.c
   4:DSP/Source/FilteringFunctions/arm_conv_q7.c ****  * Description:  Convolution of Q7 sequences
   5:DSP/Source/FilteringFunctions/arm_conv_q7.c ****  *
   6:DSP/Source/FilteringFunctions/arm_conv_q7.c ****  * $Date:        27. January 2017
   7:DSP/Source/FilteringFunctions/arm_conv_q7.c ****  * $Revision:    V.1.5.1
   8:DSP/Source/FilteringFunctions/arm_conv_q7.c ****  *
   9:DSP/Source/FilteringFunctions/arm_conv_q7.c ****  * Target Processor: Cortex-M cores
  10:DSP/Source/FilteringFunctions/arm_conv_q7.c ****  * -------------------------------------------------------------------- */
  11:DSP/Source/FilteringFunctions/arm_conv_q7.c **** /*
  12:DSP/Source/FilteringFunctions/arm_conv_q7.c ****  * Copyright (C) 2010-2017 ARM Limited or its affiliates. All rights reserved.
  13:DSP/Source/FilteringFunctions/arm_conv_q7.c ****  *
  14:DSP/Source/FilteringFunctions/arm_conv_q7.c ****  * SPDX-License-Identifier: Apache-2.0
  15:DSP/Source/FilteringFunctions/arm_conv_q7.c ****  *
  16:DSP/Source/FilteringFunctions/arm_conv_q7.c ****  * Licensed under the Apache License, Version 2.0 (the License); you may
  17:DSP/Source/FilteringFunctions/arm_conv_q7.c ****  * not use this file except in compliance with the License.
  18:DSP/Source/FilteringFunctions/arm_conv_q7.c ****  * You may obtain a copy of the License at
  19:DSP/Source/FilteringFunctions/arm_conv_q7.c ****  *
  20:DSP/Source/FilteringFunctions/arm_conv_q7.c ****  * www.apache.org/licenses/LICENSE-2.0
  21:DSP/Source/FilteringFunctions/arm_conv_q7.c ****  *
  22:DSP/Source/FilteringFunctions/arm_conv_q7.c ****  * Unless required by applicable law or agreed to in writing, software
  23:DSP/Source/FilteringFunctions/arm_conv_q7.c ****  * distributed under the License is distributed on an AS IS BASIS, WITHOUT
  24:DSP/Source/FilteringFunctions/arm_conv_q7.c ****  * WARRANTIES OR CONDITIONS OF ANY KIND, either express or implied.
  25:DSP/Source/FilteringFunctions/arm_conv_q7.c ****  * See the License for the specific language governing permissions and
  26:DSP/Source/FilteringFunctions/arm_conv_q7.c ****  * limitations under the License.
  27:DSP/Source/FilteringFunctions/arm_conv_q7.c ****  */
  28:DSP/Source/FilteringFunctions/arm_conv_q7.c **** 
  29:DSP/Source/FilteringFunctions/arm_conv_q7.c **** #include "arm_math.h"
ARM GAS  /var/folders/ck/g3dcd5x55xs4107jgdl0snvr0000gn/T//cc4og9VU.s 			page 2


  30:DSP/Source/FilteringFunctions/arm_conv_q7.c **** 
  31:DSP/Source/FilteringFunctions/arm_conv_q7.c **** /**
  32:DSP/Source/FilteringFunctions/arm_conv_q7.c ****  * @ingroup groupFilters
  33:DSP/Source/FilteringFunctions/arm_conv_q7.c ****  */
  34:DSP/Source/FilteringFunctions/arm_conv_q7.c **** 
  35:DSP/Source/FilteringFunctions/arm_conv_q7.c **** /**
  36:DSP/Source/FilteringFunctions/arm_conv_q7.c ****  * @addtogroup Conv
  37:DSP/Source/FilteringFunctions/arm_conv_q7.c ****  * @{
  38:DSP/Source/FilteringFunctions/arm_conv_q7.c ****  */
  39:DSP/Source/FilteringFunctions/arm_conv_q7.c **** 
  40:DSP/Source/FilteringFunctions/arm_conv_q7.c **** /**
  41:DSP/Source/FilteringFunctions/arm_conv_q7.c ****  * @brief Convolution of Q7 sequences.
  42:DSP/Source/FilteringFunctions/arm_conv_q7.c ****  * @param[in] *pSrcA points to the first input sequence.
  43:DSP/Source/FilteringFunctions/arm_conv_q7.c ****  * @param[in] srcALen length of the first input sequence.
  44:DSP/Source/FilteringFunctions/arm_conv_q7.c ****  * @param[in] *pSrcB points to the second input sequence.
  45:DSP/Source/FilteringFunctions/arm_conv_q7.c ****  * @param[in] srcBLen length of the second input sequence.
  46:DSP/Source/FilteringFunctions/arm_conv_q7.c ****  * @param[out] *pDst points to the location where the output result is written.  Length srcALen+src
  47:DSP/Source/FilteringFunctions/arm_conv_q7.c ****  * @return none.
  48:DSP/Source/FilteringFunctions/arm_conv_q7.c ****  *
  49:DSP/Source/FilteringFunctions/arm_conv_q7.c ****  * @details
  50:DSP/Source/FilteringFunctions/arm_conv_q7.c ****  * <b>Scaling and Overflow Behavior:</b>
  51:DSP/Source/FilteringFunctions/arm_conv_q7.c ****  *
  52:DSP/Source/FilteringFunctions/arm_conv_q7.c ****  * \par
  53:DSP/Source/FilteringFunctions/arm_conv_q7.c ****  * The function is implemented using a 32-bit internal accumulator.
  54:DSP/Source/FilteringFunctions/arm_conv_q7.c ****  * Both the inputs are represented in 1.7 format and multiplications yield a 2.14 result.
  55:DSP/Source/FilteringFunctions/arm_conv_q7.c ****  * The 2.14 intermediate results are accumulated in a 32-bit accumulator in 18.14 format.
  56:DSP/Source/FilteringFunctions/arm_conv_q7.c ****  * This approach provides 17 guard bits and there is no risk of overflow as long as <code>max(srcAL
  57:DSP/Source/FilteringFunctions/arm_conv_q7.c ****  * The 18.14 result is then truncated to 18.7 format by discarding the low 7 bits and then saturate
  58:DSP/Source/FilteringFunctions/arm_conv_q7.c ****  *
  59:DSP/Source/FilteringFunctions/arm_conv_q7.c ****  * \par
  60:DSP/Source/FilteringFunctions/arm_conv_q7.c ****  * Refer the function <code>arm_conv_opt_q7()</code> for a faster implementation of this function.
  61:DSP/Source/FilteringFunctions/arm_conv_q7.c ****  *
  62:DSP/Source/FilteringFunctions/arm_conv_q7.c ****  */
  63:DSP/Source/FilteringFunctions/arm_conv_q7.c **** 
  64:DSP/Source/FilteringFunctions/arm_conv_q7.c **** void arm_conv_q7(
  65:DSP/Source/FilteringFunctions/arm_conv_q7.c ****   q7_t * pSrcA,
  66:DSP/Source/FilteringFunctions/arm_conv_q7.c ****   uint32_t srcALen,
  67:DSP/Source/FilteringFunctions/arm_conv_q7.c ****   q7_t * pSrcB,
  68:DSP/Source/FilteringFunctions/arm_conv_q7.c ****   uint32_t srcBLen,
  69:DSP/Source/FilteringFunctions/arm_conv_q7.c ****   q7_t * pDst)
  70:DSP/Source/FilteringFunctions/arm_conv_q7.c **** {
  30              		.loc 1 70 1 view -0
  31              		.cfi_startproc
  32              		@ args = 4, pretend = 0, frame = 32
  33              		@ frame_needed = 0, uses_anonymous_args = 0
  34              		.loc 1 70 1 is_stmt 0 view .LVU1
  35 0000 2DE9F04F 		push	{r4, r5, r6, r7, r8, r9, r10, fp, lr}
  36              	.LCFI0:
  37              		.cfi_def_cfa_offset 36
  38              		.cfi_offset 4, -36
  39              		.cfi_offset 5, -32
  40              		.cfi_offset 6, -28
  41              		.cfi_offset 7, -24
  42              		.cfi_offset 8, -20
  43              		.cfi_offset 9, -16
  44              		.cfi_offset 10, -12
  45              		.cfi_offset 11, -8
ARM GAS  /var/folders/ck/g3dcd5x55xs4107jgdl0snvr0000gn/T//cc4og9VU.s 			page 3


  46              		.cfi_offset 14, -4
  47 0004 89B0     		sub	sp, sp, #36
  48              	.LCFI1:
  49              		.cfi_def_cfa_offset 72
  50 0006 8846     		mov	r8, r1
  51 0008 0292     		str	r2, [sp, #8]
  52 000a DDF848B0 		ldr	fp, [sp, #72]
  71:DSP/Source/FilteringFunctions/arm_conv_q7.c **** 
  72:DSP/Source/FilteringFunctions/arm_conv_q7.c **** 
  73:DSP/Source/FilteringFunctions/arm_conv_q7.c **** #if defined (ARM_MATH_DSP)
  74:DSP/Source/FilteringFunctions/arm_conv_q7.c **** 
  75:DSP/Source/FilteringFunctions/arm_conv_q7.c ****   /* Run the below code for Cortex-M4 and Cortex-M3 */
  76:DSP/Source/FilteringFunctions/arm_conv_q7.c **** 
  77:DSP/Source/FilteringFunctions/arm_conv_q7.c ****   q7_t *pIn1;                                    /* inputA pointer */
  53              		.loc 1 77 3 is_stmt 1 view .LVU2
  78:DSP/Source/FilteringFunctions/arm_conv_q7.c ****   q7_t *pIn2;                                    /* inputB pointer */
  54              		.loc 1 78 3 view .LVU3
  79:DSP/Source/FilteringFunctions/arm_conv_q7.c ****   q7_t *pOut = pDst;                             /* output pointer */
  55              		.loc 1 79 3 view .LVU4
  56              	.LVL1:
  80:DSP/Source/FilteringFunctions/arm_conv_q7.c ****   q7_t *px;                                      /* Intermediate inputA pointer */
  57              		.loc 1 80 3 view .LVU5
  81:DSP/Source/FilteringFunctions/arm_conv_q7.c ****   q7_t *py;                                      /* Intermediate inputB pointer */
  58              		.loc 1 81 3 view .LVU6
  82:DSP/Source/FilteringFunctions/arm_conv_q7.c ****   q7_t *pSrc1, *pSrc2;                           /* Intermediate pointers */
  59              		.loc 1 82 3 view .LVU7
  83:DSP/Source/FilteringFunctions/arm_conv_q7.c ****   q7_t x0, x1, x2, x3, c0, c1;                   /* Temporary variables to hold state and coefficie
  60              		.loc 1 83 3 view .LVU8
  84:DSP/Source/FilteringFunctions/arm_conv_q7.c ****   q31_t sum, acc0, acc1, acc2, acc3;             /* Accumulator */
  61              		.loc 1 84 3 view .LVU9
  85:DSP/Source/FilteringFunctions/arm_conv_q7.c ****   q31_t input1, input2;                          /* Temporary input variables */
  62              		.loc 1 85 3 view .LVU10
  86:DSP/Source/FilteringFunctions/arm_conv_q7.c ****   q15_t in1, in2;                                /* Temporary input variables */
  63              		.loc 1 86 3 view .LVU11
  87:DSP/Source/FilteringFunctions/arm_conv_q7.c ****   uint32_t j, k, count, blkCnt, blockSize1, blockSize2, blockSize3;     /* loop counter */
  64              		.loc 1 87 3 view .LVU12
  88:DSP/Source/FilteringFunctions/arm_conv_q7.c **** 
  89:DSP/Source/FilteringFunctions/arm_conv_q7.c ****   /* The algorithm implementation is based on the lengths of the inputs. */
  90:DSP/Source/FilteringFunctions/arm_conv_q7.c ****   /* srcB is always made to slide across srcA. */
  91:DSP/Source/FilteringFunctions/arm_conv_q7.c ****   /* So srcBLen is always considered as shorter or equal to srcALen */
  92:DSP/Source/FilteringFunctions/arm_conv_q7.c ****   if (srcALen >= srcBLen)
  65              		.loc 1 92 3 view .LVU13
  66              		.loc 1 92 6 is_stmt 0 view .LVU14
  67 000e 9942     		cmp	r1, r3
  68 0010 04D3     		bcc	.L2
  93:DSP/Source/FilteringFunctions/arm_conv_q7.c ****   {
  94:DSP/Source/FilteringFunctions/arm_conv_q7.c ****     /* Initialization of inputA pointer */
  95:DSP/Source/FilteringFunctions/arm_conv_q7.c ****     pIn1 = pSrcA;
  69              		.loc 1 95 10 view .LVU15
  70 0012 0290     		str	r0, [sp, #8]
  96:DSP/Source/FilteringFunctions/arm_conv_q7.c **** 
  97:DSP/Source/FilteringFunctions/arm_conv_q7.c ****     /* Initialization of inputB pointer */
  98:DSP/Source/FilteringFunctions/arm_conv_q7.c ****     pIn2 = pSrcB;
  71              		.loc 1 98 10 view .LVU16
  72 0014 1046     		mov	r0, r2
  73              	.LVL2:
  92:DSP/Source/FilteringFunctions/arm_conv_q7.c ****   {
ARM GAS  /var/folders/ck/g3dcd5x55xs4107jgdl0snvr0000gn/T//cc4og9VU.s 			page 4


  74              		.loc 1 92 6 view .LVU17
  75 0016 1A46     		mov	r2, r3
  76              	.LVL3:
  92:DSP/Source/FilteringFunctions/arm_conv_q7.c ****   {
  77              		.loc 1 92 6 view .LVU18
  78 0018 0B46     		mov	r3, r1
  79              	.LVL4:
  92:DSP/Source/FilteringFunctions/arm_conv_q7.c ****   {
  80              		.loc 1 92 6 view .LVU19
  81 001a 9046     		mov	r8, r2
  82              	.LVL5:
  83              	.L2:
  99:DSP/Source/FilteringFunctions/arm_conv_q7.c ****   }
 100:DSP/Source/FilteringFunctions/arm_conv_q7.c ****   else
 101:DSP/Source/FilteringFunctions/arm_conv_q7.c ****   {
 102:DSP/Source/FilteringFunctions/arm_conv_q7.c ****     /* Initialization of inputA pointer */
 103:DSP/Source/FilteringFunctions/arm_conv_q7.c ****     pIn1 = pSrcB;
 104:DSP/Source/FilteringFunctions/arm_conv_q7.c **** 
 105:DSP/Source/FilteringFunctions/arm_conv_q7.c ****     /* Initialization of inputB pointer */
 106:DSP/Source/FilteringFunctions/arm_conv_q7.c ****     pIn2 = pSrcA;
 107:DSP/Source/FilteringFunctions/arm_conv_q7.c **** 
 108:DSP/Source/FilteringFunctions/arm_conv_q7.c ****     /* srcBLen is always considered as shorter or equal to srcALen */
 109:DSP/Source/FilteringFunctions/arm_conv_q7.c ****     j = srcBLen;
 110:DSP/Source/FilteringFunctions/arm_conv_q7.c ****     srcBLen = srcALen;
 111:DSP/Source/FilteringFunctions/arm_conv_q7.c ****     srcALen = j;
 112:DSP/Source/FilteringFunctions/arm_conv_q7.c ****   }
 113:DSP/Source/FilteringFunctions/arm_conv_q7.c **** 
 114:DSP/Source/FilteringFunctions/arm_conv_q7.c ****   /* conv(x,y) at n = x[n] * y[0] + x[n-1] * y[1] + x[n-2] * y[2] + ...+ x[n-N+1] * y[N -1] */
 115:DSP/Source/FilteringFunctions/arm_conv_q7.c ****   /* The function is internally
 116:DSP/Source/FilteringFunctions/arm_conv_q7.c ****    * divided into three stages according to the number of multiplications that has to be
 117:DSP/Source/FilteringFunctions/arm_conv_q7.c ****    * taken place between inputA samples and inputB samples. In the first stage of the
 118:DSP/Source/FilteringFunctions/arm_conv_q7.c ****    * algorithm, the multiplications increase by one for every iteration.
 119:DSP/Source/FilteringFunctions/arm_conv_q7.c ****    * In the second stage of the algorithm, srcBLen number of multiplications are done.
 120:DSP/Source/FilteringFunctions/arm_conv_q7.c ****    * In the third stage of the algorithm, the multiplications decrease by one
 121:DSP/Source/FilteringFunctions/arm_conv_q7.c ****    * for every iteration. */
 122:DSP/Source/FilteringFunctions/arm_conv_q7.c **** 
 123:DSP/Source/FilteringFunctions/arm_conv_q7.c ****   /* The algorithm is implemented in three stages.
 124:DSP/Source/FilteringFunctions/arm_conv_q7.c ****      The loop counters of each stage is initiated here. */
 125:DSP/Source/FilteringFunctions/arm_conv_q7.c ****   blockSize1 = srcBLen - 1U;
  84              		.loc 1 125 3 is_stmt 1 view .LVU20
  85              		.loc 1 125 14 is_stmt 0 view .LVU21
  86 001c 08F1FF37 		add	r7, r8, #-1
  87              	.LVL6:
 126:DSP/Source/FilteringFunctions/arm_conv_q7.c ****   blockSize2 = (srcALen - srcBLen) + 1U;
  88              		.loc 1 126 3 is_stmt 1 view .LVU22
  89              		.loc 1 126 25 is_stmt 0 view .LVU23
  90 0020 A3EB0803 		sub	r3, r3, r8
  91              	.LVL7:
  92              		.loc 1 126 14 view .LVU24
  93 0024 03F1010A 		add	r10, r3, #1
  94              	.LVL8:
 127:DSP/Source/FilteringFunctions/arm_conv_q7.c ****   blockSize3 = blockSize1;
  95              		.loc 1 127 3 is_stmt 1 view .LVU25
 128:DSP/Source/FilteringFunctions/arm_conv_q7.c **** 
 129:DSP/Source/FilteringFunctions/arm_conv_q7.c ****   /* --------------------------
 130:DSP/Source/FilteringFunctions/arm_conv_q7.c ****    * Initializations of stage1
 131:DSP/Source/FilteringFunctions/arm_conv_q7.c ****    * -------------------------*/
ARM GAS  /var/folders/ck/g3dcd5x55xs4107jgdl0snvr0000gn/T//cc4og9VU.s 			page 5


 132:DSP/Source/FilteringFunctions/arm_conv_q7.c **** 
 133:DSP/Source/FilteringFunctions/arm_conv_q7.c ****   /* sum = x[0] * y[0]
 134:DSP/Source/FilteringFunctions/arm_conv_q7.c ****    * sum = x[0] * y[1] + x[1] * y[0]
 135:DSP/Source/FilteringFunctions/arm_conv_q7.c ****    * ....
 136:DSP/Source/FilteringFunctions/arm_conv_q7.c ****    * sum = x[0] * y[srcBlen - 1] + x[1] * y[srcBlen - 2] +...+ x[srcBLen - 1] * y[0]
 137:DSP/Source/FilteringFunctions/arm_conv_q7.c ****    */
 138:DSP/Source/FilteringFunctions/arm_conv_q7.c **** 
 139:DSP/Source/FilteringFunctions/arm_conv_q7.c ****   /* In this stage the MAC operations are increased by 1 for every iteration.
 140:DSP/Source/FilteringFunctions/arm_conv_q7.c ****      The count variable holds the number of MAC operations performed */
 141:DSP/Source/FilteringFunctions/arm_conv_q7.c ****   count = 1U;
  96              		.loc 1 141 3 view .LVU26
 142:DSP/Source/FilteringFunctions/arm_conv_q7.c **** 
 143:DSP/Source/FilteringFunctions/arm_conv_q7.c ****   /* Working pointer of inputA */
 144:DSP/Source/FilteringFunctions/arm_conv_q7.c ****   px = pIn1;
  97              		.loc 1 144 3 view .LVU27
 145:DSP/Source/FilteringFunctions/arm_conv_q7.c **** 
 146:DSP/Source/FilteringFunctions/arm_conv_q7.c ****   /* Working pointer of inputB */
 147:DSP/Source/FilteringFunctions/arm_conv_q7.c ****   py = pIn2;
  98              		.loc 1 147 3 view .LVU28
 148:DSP/Source/FilteringFunctions/arm_conv_q7.c **** 
 149:DSP/Source/FilteringFunctions/arm_conv_q7.c **** 
 150:DSP/Source/FilteringFunctions/arm_conv_q7.c ****   /* ------------------------
 151:DSP/Source/FilteringFunctions/arm_conv_q7.c ****    * Stage1 process
 152:DSP/Source/FilteringFunctions/arm_conv_q7.c ****    * ----------------------*/
 153:DSP/Source/FilteringFunctions/arm_conv_q7.c **** 
 154:DSP/Source/FilteringFunctions/arm_conv_q7.c ****   /* The first stage starts here */
 155:DSP/Source/FilteringFunctions/arm_conv_q7.c ****   while (blockSize1 > 0U)
  99              		.loc 1 155 3 view .LVU29
 125:DSP/Source/FilteringFunctions/arm_conv_q7.c ****   blockSize2 = (srcALen - srcBLen) + 1U;
 100              		.loc 1 125 14 is_stmt 0 view .LVU30
 101 0028 3A46     		mov	r2, r7
 147:DSP/Source/FilteringFunctions/arm_conv_q7.c **** 
 102              		.loc 1 147 6 view .LVU31
 103 002a 0446     		mov	r4, r0
 141:DSP/Source/FilteringFunctions/arm_conv_q7.c **** 
 104              		.loc 1 141 9 view .LVU32
 105 002c 4FF0010E 		mov	lr, #1
 106              		.loc 1 155 9 view .LVU33
 107 0030 3FE0     		b	.L3
 108              	.LVL9:
 109              	.L5:
 156:DSP/Source/FilteringFunctions/arm_conv_q7.c ****   {
 157:DSP/Source/FilteringFunctions/arm_conv_q7.c ****     /* Accumulator is made zero for every iteration */
 158:DSP/Source/FilteringFunctions/arm_conv_q7.c ****     sum = 0;
 159:DSP/Source/FilteringFunctions/arm_conv_q7.c **** 
 160:DSP/Source/FilteringFunctions/arm_conv_q7.c ****     /* Apply loop unrolling and compute 4 MACs simultaneously. */
 161:DSP/Source/FilteringFunctions/arm_conv_q7.c ****     k = count >> 2U;
 162:DSP/Source/FilteringFunctions/arm_conv_q7.c **** 
 163:DSP/Source/FilteringFunctions/arm_conv_q7.c ****     /* First part of the processing with loop unrolling.  Compute 4 MACs at a time.
 164:DSP/Source/FilteringFunctions/arm_conv_q7.c ****      ** a second loop below computes MACs for the remaining 1 to 3 samples. */
 165:DSP/Source/FilteringFunctions/arm_conv_q7.c ****     while (k > 0U)
 166:DSP/Source/FilteringFunctions/arm_conv_q7.c ****     {
 167:DSP/Source/FilteringFunctions/arm_conv_q7.c ****       /* x[0] , x[1] */
 168:DSP/Source/FilteringFunctions/arm_conv_q7.c ****       in1 = (q15_t) * px++;
 110              		.loc 1 168 7 is_stmt 1 view .LVU34
 111              		.loc 1 168 21 is_stmt 0 view .LVU35
 112 0032 93F90050 		ldrsb	r5, [r3]
ARM GAS  /var/folders/ck/g3dcd5x55xs4107jgdl0snvr0000gn/T//cc4og9VU.s 			page 6


 113              	.LVL10:
 169:DSP/Source/FilteringFunctions/arm_conv_q7.c ****       in2 = (q15_t) * px++;
 114              		.loc 1 169 7 is_stmt 1 view .LVU36
 115              		.loc 1 169 21 is_stmt 0 view .LVU37
 116 0036 93F901C0 		ldrsb	ip, [r3, #1]
 117              	.LVL11:
 170:DSP/Source/FilteringFunctions/arm_conv_q7.c ****       input1 = ((q31_t) in1 & 0x0000FFFF) | ((q31_t) in2 << 16U);
 118              		.loc 1 170 7 is_stmt 1 view .LVU38
 119              		.loc 1 170 29 is_stmt 0 view .LVU39
 120 003a ADB2     		uxth	r5, r5
 121              		.loc 1 170 14 view .LVU40
 122 003c 45EA0C45 		orr	r5, r5, ip, lsl #16
 123              	.LVL12:
 171:DSP/Source/FilteringFunctions/arm_conv_q7.c **** 
 172:DSP/Source/FilteringFunctions/arm_conv_q7.c ****       /* y[srcBLen - 1] , y[srcBLen - 2] */
 173:DSP/Source/FilteringFunctions/arm_conv_q7.c ****       in1 = (q15_t) * py--;
 124              		.loc 1 173 7 is_stmt 1 view .LVU41
 125              		.loc 1 173 21 is_stmt 0 view .LVU42
 126 0040 94F900C0 		ldrsb	ip, [r4]
 127              	.LVL13:
 174:DSP/Source/FilteringFunctions/arm_conv_q7.c ****       in2 = (q15_t) * py--;
 128              		.loc 1 174 7 is_stmt 1 view .LVU43
 129              		.loc 1 174 21 is_stmt 0 view .LVU44
 130 0044 14F9019C 		ldrsb	r9, [r4, #-1]
 131              	.LVL14:
 175:DSP/Source/FilteringFunctions/arm_conv_q7.c ****       input2 = ((q31_t) in1 & 0x0000FFFF) | ((q31_t) in2 << 16U);
 132              		.loc 1 175 7 is_stmt 1 view .LVU45
 133              		.loc 1 175 29 is_stmt 0 view .LVU46
 134 0048 1FFA8CFC 		uxth	ip, ip
 135              		.loc 1 175 14 view .LVU47
 136 004c 4CEA094C 		orr	ip, ip, r9, lsl #16
 137              	.LVL15:
 176:DSP/Source/FilteringFunctions/arm_conv_q7.c **** 
 177:DSP/Source/FilteringFunctions/arm_conv_q7.c ****       /* x[0] * y[srcBLen - 1] */
 178:DSP/Source/FilteringFunctions/arm_conv_q7.c ****       /* x[1] * y[srcBLen - 2] */
 179:DSP/Source/FilteringFunctions/arm_conv_q7.c ****       sum = __SMLAD(input1, input2, sum);
 138              		.loc 1 179 7 is_stmt 1 view .LVU48
 139              	.LBB38:
 140              	.LBI38:
 141              		.file 2 "Drivers/CMSIS/Include/cmsis_gcc.h"
   1:Drivers/CMSIS/Include/cmsis_gcc.h **** /**************************************************************************//**
   2:Drivers/CMSIS/Include/cmsis_gcc.h ****  * @file     cmsis_gcc.h
   3:Drivers/CMSIS/Include/cmsis_gcc.h ****  * @brief    CMSIS compiler GCC header file
   4:Drivers/CMSIS/Include/cmsis_gcc.h ****  * @version  V5.4.1
   5:Drivers/CMSIS/Include/cmsis_gcc.h ****  * @date     27. May 2021
   6:Drivers/CMSIS/Include/cmsis_gcc.h ****  ******************************************************************************/
   7:Drivers/CMSIS/Include/cmsis_gcc.h **** /*
   8:Drivers/CMSIS/Include/cmsis_gcc.h ****  * Copyright (c) 2009-2021 Arm Limited. All rights reserved.
   9:Drivers/CMSIS/Include/cmsis_gcc.h ****  *
  10:Drivers/CMSIS/Include/cmsis_gcc.h ****  * SPDX-License-Identifier: Apache-2.0
  11:Drivers/CMSIS/Include/cmsis_gcc.h ****  *
  12:Drivers/CMSIS/Include/cmsis_gcc.h ****  * Licensed under the Apache License, Version 2.0 (the License); you may
  13:Drivers/CMSIS/Include/cmsis_gcc.h ****  * not use this file except in compliance with the License.
  14:Drivers/CMSIS/Include/cmsis_gcc.h ****  * You may obtain a copy of the License at
  15:Drivers/CMSIS/Include/cmsis_gcc.h ****  *
  16:Drivers/CMSIS/Include/cmsis_gcc.h ****  * www.apache.org/licenses/LICENSE-2.0
  17:Drivers/CMSIS/Include/cmsis_gcc.h ****  *
ARM GAS  /var/folders/ck/g3dcd5x55xs4107jgdl0snvr0000gn/T//cc4og9VU.s 			page 7


  18:Drivers/CMSIS/Include/cmsis_gcc.h ****  * Unless required by applicable law or agreed to in writing, software
  19:Drivers/CMSIS/Include/cmsis_gcc.h ****  * distributed under the License is distributed on an AS IS BASIS, WITHOUT
  20:Drivers/CMSIS/Include/cmsis_gcc.h ****  * WARRANTIES OR CONDITIONS OF ANY KIND, either express or implied.
  21:Drivers/CMSIS/Include/cmsis_gcc.h ****  * See the License for the specific language governing permissions and
  22:Drivers/CMSIS/Include/cmsis_gcc.h ****  * limitations under the License.
  23:Drivers/CMSIS/Include/cmsis_gcc.h ****  */
  24:Drivers/CMSIS/Include/cmsis_gcc.h **** 
  25:Drivers/CMSIS/Include/cmsis_gcc.h **** #ifndef __CMSIS_GCC_H
  26:Drivers/CMSIS/Include/cmsis_gcc.h **** #define __CMSIS_GCC_H
  27:Drivers/CMSIS/Include/cmsis_gcc.h **** 
  28:Drivers/CMSIS/Include/cmsis_gcc.h **** /* ignore some GCC warnings */
  29:Drivers/CMSIS/Include/cmsis_gcc.h **** #pragma GCC diagnostic push
  30:Drivers/CMSIS/Include/cmsis_gcc.h **** #pragma GCC diagnostic ignored "-Wsign-conversion"
  31:Drivers/CMSIS/Include/cmsis_gcc.h **** #pragma GCC diagnostic ignored "-Wconversion"
  32:Drivers/CMSIS/Include/cmsis_gcc.h **** #pragma GCC diagnostic ignored "-Wunused-parameter"
  33:Drivers/CMSIS/Include/cmsis_gcc.h **** 
  34:Drivers/CMSIS/Include/cmsis_gcc.h **** /* Fallback for __has_builtin */
  35:Drivers/CMSIS/Include/cmsis_gcc.h **** #ifndef __has_builtin
  36:Drivers/CMSIS/Include/cmsis_gcc.h ****   #define __has_builtin(x) (0)
  37:Drivers/CMSIS/Include/cmsis_gcc.h **** #endif
  38:Drivers/CMSIS/Include/cmsis_gcc.h **** 
  39:Drivers/CMSIS/Include/cmsis_gcc.h **** /* CMSIS compiler specific defines */
  40:Drivers/CMSIS/Include/cmsis_gcc.h **** #ifndef   __ASM
  41:Drivers/CMSIS/Include/cmsis_gcc.h ****   #define __ASM                                  __asm
  42:Drivers/CMSIS/Include/cmsis_gcc.h **** #endif
  43:Drivers/CMSIS/Include/cmsis_gcc.h **** #ifndef   __INLINE
  44:Drivers/CMSIS/Include/cmsis_gcc.h ****   #define __INLINE                               inline
  45:Drivers/CMSIS/Include/cmsis_gcc.h **** #endif
  46:Drivers/CMSIS/Include/cmsis_gcc.h **** #ifndef   __STATIC_INLINE
  47:Drivers/CMSIS/Include/cmsis_gcc.h ****   #define __STATIC_INLINE                        static inline
  48:Drivers/CMSIS/Include/cmsis_gcc.h **** #endif
  49:Drivers/CMSIS/Include/cmsis_gcc.h **** #ifndef   __STATIC_FORCEINLINE
  50:Drivers/CMSIS/Include/cmsis_gcc.h ****   #define __STATIC_FORCEINLINE                   __attribute__((always_inline)) static inline
  51:Drivers/CMSIS/Include/cmsis_gcc.h **** #endif
  52:Drivers/CMSIS/Include/cmsis_gcc.h **** #ifndef   __NO_RETURN
  53:Drivers/CMSIS/Include/cmsis_gcc.h ****   #define __NO_RETURN                            __attribute__((__noreturn__))
  54:Drivers/CMSIS/Include/cmsis_gcc.h **** #endif
  55:Drivers/CMSIS/Include/cmsis_gcc.h **** #ifndef   __USED
  56:Drivers/CMSIS/Include/cmsis_gcc.h ****   #define __USED                                 __attribute__((used))
  57:Drivers/CMSIS/Include/cmsis_gcc.h **** #endif
  58:Drivers/CMSIS/Include/cmsis_gcc.h **** #ifndef   __WEAK
  59:Drivers/CMSIS/Include/cmsis_gcc.h ****   #define __WEAK                                 __attribute__((weak))
  60:Drivers/CMSIS/Include/cmsis_gcc.h **** #endif
  61:Drivers/CMSIS/Include/cmsis_gcc.h **** #ifndef   __PACKED
  62:Drivers/CMSIS/Include/cmsis_gcc.h ****   #define __PACKED                               __attribute__((packed, aligned(1)))
  63:Drivers/CMSIS/Include/cmsis_gcc.h **** #endif
  64:Drivers/CMSIS/Include/cmsis_gcc.h **** #ifndef   __PACKED_STRUCT
  65:Drivers/CMSIS/Include/cmsis_gcc.h ****   #define __PACKED_STRUCT                        struct __attribute__((packed, aligned(1)))
  66:Drivers/CMSIS/Include/cmsis_gcc.h **** #endif
  67:Drivers/CMSIS/Include/cmsis_gcc.h **** #ifndef   __PACKED_UNION
  68:Drivers/CMSIS/Include/cmsis_gcc.h ****   #define __PACKED_UNION                         union __attribute__((packed, aligned(1)))
  69:Drivers/CMSIS/Include/cmsis_gcc.h **** #endif
  70:Drivers/CMSIS/Include/cmsis_gcc.h **** #ifndef   __UNALIGNED_UINT32        /* deprecated */
  71:Drivers/CMSIS/Include/cmsis_gcc.h ****   #pragma GCC diagnostic push
  72:Drivers/CMSIS/Include/cmsis_gcc.h ****   #pragma GCC diagnostic ignored "-Wpacked"
  73:Drivers/CMSIS/Include/cmsis_gcc.h ****   #pragma GCC diagnostic ignored "-Wattributes"
  74:Drivers/CMSIS/Include/cmsis_gcc.h ****   struct __attribute__((packed)) T_UINT32 { uint32_t v; };
ARM GAS  /var/folders/ck/g3dcd5x55xs4107jgdl0snvr0000gn/T//cc4og9VU.s 			page 8


  75:Drivers/CMSIS/Include/cmsis_gcc.h ****   #pragma GCC diagnostic pop
  76:Drivers/CMSIS/Include/cmsis_gcc.h ****   #define __UNALIGNED_UINT32(x)                  (((struct T_UINT32 *)(x))->v)
  77:Drivers/CMSIS/Include/cmsis_gcc.h **** #endif
  78:Drivers/CMSIS/Include/cmsis_gcc.h **** #ifndef   __UNALIGNED_UINT16_WRITE
  79:Drivers/CMSIS/Include/cmsis_gcc.h ****   #pragma GCC diagnostic push
  80:Drivers/CMSIS/Include/cmsis_gcc.h ****   #pragma GCC diagnostic ignored "-Wpacked"
  81:Drivers/CMSIS/Include/cmsis_gcc.h ****   #pragma GCC diagnostic ignored "-Wattributes"
  82:Drivers/CMSIS/Include/cmsis_gcc.h ****   __PACKED_STRUCT T_UINT16_WRITE { uint16_t v; };
  83:Drivers/CMSIS/Include/cmsis_gcc.h ****   #pragma GCC diagnostic pop
  84:Drivers/CMSIS/Include/cmsis_gcc.h ****   #define __UNALIGNED_UINT16_WRITE(addr, val)    (void)((((struct T_UINT16_WRITE *)(void *)(addr))-
  85:Drivers/CMSIS/Include/cmsis_gcc.h **** #endif
  86:Drivers/CMSIS/Include/cmsis_gcc.h **** #ifndef   __UNALIGNED_UINT16_READ
  87:Drivers/CMSIS/Include/cmsis_gcc.h ****   #pragma GCC diagnostic push
  88:Drivers/CMSIS/Include/cmsis_gcc.h ****   #pragma GCC diagnostic ignored "-Wpacked"
  89:Drivers/CMSIS/Include/cmsis_gcc.h ****   #pragma GCC diagnostic ignored "-Wattributes"
  90:Drivers/CMSIS/Include/cmsis_gcc.h ****   __PACKED_STRUCT T_UINT16_READ { uint16_t v; };
  91:Drivers/CMSIS/Include/cmsis_gcc.h ****   #pragma GCC diagnostic pop
  92:Drivers/CMSIS/Include/cmsis_gcc.h ****   #define __UNALIGNED_UINT16_READ(addr)          (((const struct T_UINT16_READ *)(const void *)(add
  93:Drivers/CMSIS/Include/cmsis_gcc.h **** #endif
  94:Drivers/CMSIS/Include/cmsis_gcc.h **** #ifndef   __UNALIGNED_UINT32_WRITE
  95:Drivers/CMSIS/Include/cmsis_gcc.h ****   #pragma GCC diagnostic push
  96:Drivers/CMSIS/Include/cmsis_gcc.h ****   #pragma GCC diagnostic ignored "-Wpacked"
  97:Drivers/CMSIS/Include/cmsis_gcc.h ****   #pragma GCC diagnostic ignored "-Wattributes"
  98:Drivers/CMSIS/Include/cmsis_gcc.h ****   __PACKED_STRUCT T_UINT32_WRITE { uint32_t v; };
  99:Drivers/CMSIS/Include/cmsis_gcc.h ****   #pragma GCC diagnostic pop
 100:Drivers/CMSIS/Include/cmsis_gcc.h ****   #define __UNALIGNED_UINT32_WRITE(addr, val)    (void)((((struct T_UINT32_WRITE *)(void *)(addr))-
 101:Drivers/CMSIS/Include/cmsis_gcc.h **** #endif
 102:Drivers/CMSIS/Include/cmsis_gcc.h **** #ifndef   __UNALIGNED_UINT32_READ
 103:Drivers/CMSIS/Include/cmsis_gcc.h ****   #pragma GCC diagnostic push
 104:Drivers/CMSIS/Include/cmsis_gcc.h ****   #pragma GCC diagnostic ignored "-Wpacked"
 105:Drivers/CMSIS/Include/cmsis_gcc.h ****   #pragma GCC diagnostic ignored "-Wattributes"
 106:Drivers/CMSIS/Include/cmsis_gcc.h ****   __PACKED_STRUCT T_UINT32_READ { uint32_t v; };
 107:Drivers/CMSIS/Include/cmsis_gcc.h ****   #pragma GCC diagnostic pop
 108:Drivers/CMSIS/Include/cmsis_gcc.h ****   #define __UNALIGNED_UINT32_READ(addr)          (((const struct T_UINT32_READ *)(const void *)(add
 109:Drivers/CMSIS/Include/cmsis_gcc.h **** #endif
 110:Drivers/CMSIS/Include/cmsis_gcc.h **** #ifndef   __ALIGNED
 111:Drivers/CMSIS/Include/cmsis_gcc.h ****   #define __ALIGNED(x)                           __attribute__((aligned(x)))
 112:Drivers/CMSIS/Include/cmsis_gcc.h **** #endif
 113:Drivers/CMSIS/Include/cmsis_gcc.h **** #ifndef   __RESTRICT
 114:Drivers/CMSIS/Include/cmsis_gcc.h ****   #define __RESTRICT                             __restrict
 115:Drivers/CMSIS/Include/cmsis_gcc.h **** #endif
 116:Drivers/CMSIS/Include/cmsis_gcc.h **** #ifndef   __COMPILER_BARRIER
 117:Drivers/CMSIS/Include/cmsis_gcc.h ****   #define __COMPILER_BARRIER()                   __ASM volatile("":::"memory")
 118:Drivers/CMSIS/Include/cmsis_gcc.h **** #endif
 119:Drivers/CMSIS/Include/cmsis_gcc.h **** 
 120:Drivers/CMSIS/Include/cmsis_gcc.h **** /* #########################  Startup and Lowlevel Init  ######################## */
 121:Drivers/CMSIS/Include/cmsis_gcc.h **** 
 122:Drivers/CMSIS/Include/cmsis_gcc.h **** #ifndef __PROGRAM_START
 123:Drivers/CMSIS/Include/cmsis_gcc.h **** 
 124:Drivers/CMSIS/Include/cmsis_gcc.h **** /**
 125:Drivers/CMSIS/Include/cmsis_gcc.h ****   \brief   Initializes data and bss sections
 126:Drivers/CMSIS/Include/cmsis_gcc.h ****   \details This default implementations initialized all data and additional bss
 127:Drivers/CMSIS/Include/cmsis_gcc.h ****            sections relying on .copy.table and .zero.table specified properly
 128:Drivers/CMSIS/Include/cmsis_gcc.h ****            in the used linker script.
 129:Drivers/CMSIS/Include/cmsis_gcc.h **** 
 130:Drivers/CMSIS/Include/cmsis_gcc.h ****  */
 131:Drivers/CMSIS/Include/cmsis_gcc.h **** __STATIC_FORCEINLINE __NO_RETURN void __cmsis_start(void)
ARM GAS  /var/folders/ck/g3dcd5x55xs4107jgdl0snvr0000gn/T//cc4og9VU.s 			page 9


 132:Drivers/CMSIS/Include/cmsis_gcc.h **** {
 133:Drivers/CMSIS/Include/cmsis_gcc.h ****   extern void _start(void) __NO_RETURN;
 134:Drivers/CMSIS/Include/cmsis_gcc.h **** 
 135:Drivers/CMSIS/Include/cmsis_gcc.h ****   typedef struct {
 136:Drivers/CMSIS/Include/cmsis_gcc.h ****     uint32_t const* src;
 137:Drivers/CMSIS/Include/cmsis_gcc.h ****     uint32_t* dest;
 138:Drivers/CMSIS/Include/cmsis_gcc.h ****     uint32_t  wlen;
 139:Drivers/CMSIS/Include/cmsis_gcc.h ****   } __copy_table_t;
 140:Drivers/CMSIS/Include/cmsis_gcc.h **** 
 141:Drivers/CMSIS/Include/cmsis_gcc.h ****   typedef struct {
 142:Drivers/CMSIS/Include/cmsis_gcc.h ****     uint32_t* dest;
 143:Drivers/CMSIS/Include/cmsis_gcc.h ****     uint32_t  wlen;
 144:Drivers/CMSIS/Include/cmsis_gcc.h ****   } __zero_table_t;
 145:Drivers/CMSIS/Include/cmsis_gcc.h **** 
 146:Drivers/CMSIS/Include/cmsis_gcc.h ****   extern const __copy_table_t __copy_table_start__;
 147:Drivers/CMSIS/Include/cmsis_gcc.h ****   extern const __copy_table_t __copy_table_end__;
 148:Drivers/CMSIS/Include/cmsis_gcc.h ****   extern const __zero_table_t __zero_table_start__;
 149:Drivers/CMSIS/Include/cmsis_gcc.h ****   extern const __zero_table_t __zero_table_end__;
 150:Drivers/CMSIS/Include/cmsis_gcc.h **** 
 151:Drivers/CMSIS/Include/cmsis_gcc.h ****   for (__copy_table_t const* pTable = &__copy_table_start__; pTable < &__copy_table_end__; ++pTable
 152:Drivers/CMSIS/Include/cmsis_gcc.h ****     for(uint32_t i=0u; i<pTable->wlen; ++i) {
 153:Drivers/CMSIS/Include/cmsis_gcc.h ****       pTable->dest[i] = pTable->src[i];
 154:Drivers/CMSIS/Include/cmsis_gcc.h ****     }
 155:Drivers/CMSIS/Include/cmsis_gcc.h ****   }
 156:Drivers/CMSIS/Include/cmsis_gcc.h **** 
 157:Drivers/CMSIS/Include/cmsis_gcc.h ****   for (__zero_table_t const* pTable = &__zero_table_start__; pTable < &__zero_table_end__; ++pTable
 158:Drivers/CMSIS/Include/cmsis_gcc.h ****     for(uint32_t i=0u; i<pTable->wlen; ++i) {
 159:Drivers/CMSIS/Include/cmsis_gcc.h ****       pTable->dest[i] = 0u;
 160:Drivers/CMSIS/Include/cmsis_gcc.h ****     }
 161:Drivers/CMSIS/Include/cmsis_gcc.h ****   }
 162:Drivers/CMSIS/Include/cmsis_gcc.h **** 
 163:Drivers/CMSIS/Include/cmsis_gcc.h ****   _start();
 164:Drivers/CMSIS/Include/cmsis_gcc.h **** }
 165:Drivers/CMSIS/Include/cmsis_gcc.h **** 
 166:Drivers/CMSIS/Include/cmsis_gcc.h **** #define __PROGRAM_START           __cmsis_start
 167:Drivers/CMSIS/Include/cmsis_gcc.h **** #endif
 168:Drivers/CMSIS/Include/cmsis_gcc.h **** 
 169:Drivers/CMSIS/Include/cmsis_gcc.h **** #ifndef __INITIAL_SP
 170:Drivers/CMSIS/Include/cmsis_gcc.h **** #define __INITIAL_SP              __StackTop
 171:Drivers/CMSIS/Include/cmsis_gcc.h **** #endif
 172:Drivers/CMSIS/Include/cmsis_gcc.h **** 
 173:Drivers/CMSIS/Include/cmsis_gcc.h **** #ifndef __STACK_LIMIT
 174:Drivers/CMSIS/Include/cmsis_gcc.h **** #define __STACK_LIMIT             __StackLimit
 175:Drivers/CMSIS/Include/cmsis_gcc.h **** #endif
 176:Drivers/CMSIS/Include/cmsis_gcc.h **** 
 177:Drivers/CMSIS/Include/cmsis_gcc.h **** #ifndef __VECTOR_TABLE
 178:Drivers/CMSIS/Include/cmsis_gcc.h **** #define __VECTOR_TABLE            __Vectors
 179:Drivers/CMSIS/Include/cmsis_gcc.h **** #endif
 180:Drivers/CMSIS/Include/cmsis_gcc.h **** 
 181:Drivers/CMSIS/Include/cmsis_gcc.h **** #ifndef __VECTOR_TABLE_ATTRIBUTE
 182:Drivers/CMSIS/Include/cmsis_gcc.h **** #define __VECTOR_TABLE_ATTRIBUTE  __attribute__((used, section(".vectors")))
 183:Drivers/CMSIS/Include/cmsis_gcc.h **** #endif
 184:Drivers/CMSIS/Include/cmsis_gcc.h **** 
 185:Drivers/CMSIS/Include/cmsis_gcc.h **** #if defined (__ARM_FEATURE_CMSE) && (__ARM_FEATURE_CMSE == 3U)
 186:Drivers/CMSIS/Include/cmsis_gcc.h **** #ifndef __STACK_SEAL
 187:Drivers/CMSIS/Include/cmsis_gcc.h **** #define __STACK_SEAL              __StackSeal
 188:Drivers/CMSIS/Include/cmsis_gcc.h **** #endif
ARM GAS  /var/folders/ck/g3dcd5x55xs4107jgdl0snvr0000gn/T//cc4og9VU.s 			page 10


 189:Drivers/CMSIS/Include/cmsis_gcc.h **** 
 190:Drivers/CMSIS/Include/cmsis_gcc.h **** #ifndef __TZ_STACK_SEAL_SIZE
 191:Drivers/CMSIS/Include/cmsis_gcc.h **** #define __TZ_STACK_SEAL_SIZE      8U
 192:Drivers/CMSIS/Include/cmsis_gcc.h **** #endif
 193:Drivers/CMSIS/Include/cmsis_gcc.h **** 
 194:Drivers/CMSIS/Include/cmsis_gcc.h **** #ifndef __TZ_STACK_SEAL_VALUE
 195:Drivers/CMSIS/Include/cmsis_gcc.h **** #define __TZ_STACK_SEAL_VALUE     0xFEF5EDA5FEF5EDA5ULL
 196:Drivers/CMSIS/Include/cmsis_gcc.h **** #endif
 197:Drivers/CMSIS/Include/cmsis_gcc.h **** 
 198:Drivers/CMSIS/Include/cmsis_gcc.h **** 
 199:Drivers/CMSIS/Include/cmsis_gcc.h **** __STATIC_FORCEINLINE void __TZ_set_STACKSEAL_S (uint32_t* stackTop) {
 200:Drivers/CMSIS/Include/cmsis_gcc.h ****   *((uint64_t *)stackTop) = __TZ_STACK_SEAL_VALUE;
 201:Drivers/CMSIS/Include/cmsis_gcc.h **** }
 202:Drivers/CMSIS/Include/cmsis_gcc.h **** #endif
 203:Drivers/CMSIS/Include/cmsis_gcc.h **** 
 204:Drivers/CMSIS/Include/cmsis_gcc.h **** 
 205:Drivers/CMSIS/Include/cmsis_gcc.h **** /* ##########################  Core Instruction Access  ######################### */
 206:Drivers/CMSIS/Include/cmsis_gcc.h **** /** \defgroup CMSIS_Core_InstructionInterface CMSIS Core Instruction Interface
 207:Drivers/CMSIS/Include/cmsis_gcc.h ****   Access to dedicated instructions
 208:Drivers/CMSIS/Include/cmsis_gcc.h ****   @{
 209:Drivers/CMSIS/Include/cmsis_gcc.h **** */
 210:Drivers/CMSIS/Include/cmsis_gcc.h **** 
 211:Drivers/CMSIS/Include/cmsis_gcc.h **** /* Define macros for porting to both thumb1 and thumb2.
 212:Drivers/CMSIS/Include/cmsis_gcc.h ****  * For thumb1, use low register (r0-r7), specified by constraint "l"
 213:Drivers/CMSIS/Include/cmsis_gcc.h ****  * Otherwise, use general registers, specified by constraint "r" */
 214:Drivers/CMSIS/Include/cmsis_gcc.h **** #if defined (__thumb__) && !defined (__thumb2__)
 215:Drivers/CMSIS/Include/cmsis_gcc.h **** #define __CMSIS_GCC_OUT_REG(r) "=l" (r)
 216:Drivers/CMSIS/Include/cmsis_gcc.h **** #define __CMSIS_GCC_RW_REG(r) "+l" (r)
 217:Drivers/CMSIS/Include/cmsis_gcc.h **** #define __CMSIS_GCC_USE_REG(r) "l" (r)
 218:Drivers/CMSIS/Include/cmsis_gcc.h **** #else
 219:Drivers/CMSIS/Include/cmsis_gcc.h **** #define __CMSIS_GCC_OUT_REG(r) "=r" (r)
 220:Drivers/CMSIS/Include/cmsis_gcc.h **** #define __CMSIS_GCC_RW_REG(r) "+r" (r)
 221:Drivers/CMSIS/Include/cmsis_gcc.h **** #define __CMSIS_GCC_USE_REG(r) "r" (r)
 222:Drivers/CMSIS/Include/cmsis_gcc.h **** #endif
 223:Drivers/CMSIS/Include/cmsis_gcc.h **** 
 224:Drivers/CMSIS/Include/cmsis_gcc.h **** /**
 225:Drivers/CMSIS/Include/cmsis_gcc.h ****   \brief   No Operation
 226:Drivers/CMSIS/Include/cmsis_gcc.h ****   \details No Operation does nothing. This instruction can be used for code alignment purposes.
 227:Drivers/CMSIS/Include/cmsis_gcc.h ****  */
 228:Drivers/CMSIS/Include/cmsis_gcc.h **** #define __NOP()                             __ASM volatile ("nop")
 229:Drivers/CMSIS/Include/cmsis_gcc.h **** 
 230:Drivers/CMSIS/Include/cmsis_gcc.h **** /**
 231:Drivers/CMSIS/Include/cmsis_gcc.h ****   \brief   Wait For Interrupt
 232:Drivers/CMSIS/Include/cmsis_gcc.h ****   \details Wait For Interrupt is a hint instruction that suspends execution until one of a number o
 233:Drivers/CMSIS/Include/cmsis_gcc.h ****  */
 234:Drivers/CMSIS/Include/cmsis_gcc.h **** #define __WFI()                             __ASM volatile ("wfi":::"memory")
 235:Drivers/CMSIS/Include/cmsis_gcc.h **** 
 236:Drivers/CMSIS/Include/cmsis_gcc.h **** 
 237:Drivers/CMSIS/Include/cmsis_gcc.h **** /**
 238:Drivers/CMSIS/Include/cmsis_gcc.h ****   \brief   Wait For Event
 239:Drivers/CMSIS/Include/cmsis_gcc.h ****   \details Wait For Event is a hint instruction that permits the processor to enter
 240:Drivers/CMSIS/Include/cmsis_gcc.h ****            a low-power state until one of a number of events occurs.
 241:Drivers/CMSIS/Include/cmsis_gcc.h ****  */
 242:Drivers/CMSIS/Include/cmsis_gcc.h **** #define __WFE()                             __ASM volatile ("wfe":::"memory")
 243:Drivers/CMSIS/Include/cmsis_gcc.h **** 
 244:Drivers/CMSIS/Include/cmsis_gcc.h **** 
 245:Drivers/CMSIS/Include/cmsis_gcc.h **** /**
ARM GAS  /var/folders/ck/g3dcd5x55xs4107jgdl0snvr0000gn/T//cc4og9VU.s 			page 11


 246:Drivers/CMSIS/Include/cmsis_gcc.h ****   \brief   Send Event
 247:Drivers/CMSIS/Include/cmsis_gcc.h ****   \details Send Event is a hint instruction. It causes an event to be signaled to the CPU.
 248:Drivers/CMSIS/Include/cmsis_gcc.h ****  */
 249:Drivers/CMSIS/Include/cmsis_gcc.h **** #define __SEV()                             __ASM volatile ("sev")
 250:Drivers/CMSIS/Include/cmsis_gcc.h **** 
 251:Drivers/CMSIS/Include/cmsis_gcc.h **** 
 252:Drivers/CMSIS/Include/cmsis_gcc.h **** /**
 253:Drivers/CMSIS/Include/cmsis_gcc.h ****   \brief   Instruction Synchronization Barrier
 254:Drivers/CMSIS/Include/cmsis_gcc.h ****   \details Instruction Synchronization Barrier flushes the pipeline in the processor,
 255:Drivers/CMSIS/Include/cmsis_gcc.h ****            so that all instructions following the ISB are fetched from cache or memory,
 256:Drivers/CMSIS/Include/cmsis_gcc.h ****            after the instruction has been completed.
 257:Drivers/CMSIS/Include/cmsis_gcc.h ****  */
 258:Drivers/CMSIS/Include/cmsis_gcc.h **** __STATIC_FORCEINLINE void __ISB(void)
 259:Drivers/CMSIS/Include/cmsis_gcc.h **** {
 260:Drivers/CMSIS/Include/cmsis_gcc.h ****   __ASM volatile ("isb 0xF":::"memory");
 261:Drivers/CMSIS/Include/cmsis_gcc.h **** }
 262:Drivers/CMSIS/Include/cmsis_gcc.h **** 
 263:Drivers/CMSIS/Include/cmsis_gcc.h **** 
 264:Drivers/CMSIS/Include/cmsis_gcc.h **** /**
 265:Drivers/CMSIS/Include/cmsis_gcc.h ****   \brief   Data Synchronization Barrier
 266:Drivers/CMSIS/Include/cmsis_gcc.h ****   \details Acts as a special kind of Data Memory Barrier.
 267:Drivers/CMSIS/Include/cmsis_gcc.h ****            It completes when all explicit memory accesses before this instruction complete.
 268:Drivers/CMSIS/Include/cmsis_gcc.h ****  */
 269:Drivers/CMSIS/Include/cmsis_gcc.h **** __STATIC_FORCEINLINE void __DSB(void)
 270:Drivers/CMSIS/Include/cmsis_gcc.h **** {
 271:Drivers/CMSIS/Include/cmsis_gcc.h ****   __ASM volatile ("dsb 0xF":::"memory");
 272:Drivers/CMSIS/Include/cmsis_gcc.h **** }
 273:Drivers/CMSIS/Include/cmsis_gcc.h **** 
 274:Drivers/CMSIS/Include/cmsis_gcc.h **** 
 275:Drivers/CMSIS/Include/cmsis_gcc.h **** /**
 276:Drivers/CMSIS/Include/cmsis_gcc.h ****   \brief   Data Memory Barrier
 277:Drivers/CMSIS/Include/cmsis_gcc.h ****   \details Ensures the apparent order of the explicit memory operations before
 278:Drivers/CMSIS/Include/cmsis_gcc.h ****            and after the instruction, without ensuring their completion.
 279:Drivers/CMSIS/Include/cmsis_gcc.h ****  */
 280:Drivers/CMSIS/Include/cmsis_gcc.h **** __STATIC_FORCEINLINE void __DMB(void)
 281:Drivers/CMSIS/Include/cmsis_gcc.h **** {
 282:Drivers/CMSIS/Include/cmsis_gcc.h ****   __ASM volatile ("dmb 0xF":::"memory");
 283:Drivers/CMSIS/Include/cmsis_gcc.h **** }
 284:Drivers/CMSIS/Include/cmsis_gcc.h **** 
 285:Drivers/CMSIS/Include/cmsis_gcc.h **** 
 286:Drivers/CMSIS/Include/cmsis_gcc.h **** /**
 287:Drivers/CMSIS/Include/cmsis_gcc.h ****   \brief   Reverse byte order (32 bit)
 288:Drivers/CMSIS/Include/cmsis_gcc.h ****   \details Reverses the byte order in unsigned integer value. For example, 0x12345678 becomes 0x785
 289:Drivers/CMSIS/Include/cmsis_gcc.h ****   \param [in]    value  Value to reverse
 290:Drivers/CMSIS/Include/cmsis_gcc.h ****   \return               Reversed value
 291:Drivers/CMSIS/Include/cmsis_gcc.h ****  */
 292:Drivers/CMSIS/Include/cmsis_gcc.h **** __STATIC_FORCEINLINE uint32_t __REV(uint32_t value)
 293:Drivers/CMSIS/Include/cmsis_gcc.h **** {
 294:Drivers/CMSIS/Include/cmsis_gcc.h **** #if (__GNUC__ > 4) || (__GNUC__ == 4 && __GNUC_MINOR__ >= 5)
 295:Drivers/CMSIS/Include/cmsis_gcc.h ****   return __builtin_bswap32(value);
 296:Drivers/CMSIS/Include/cmsis_gcc.h **** #else
 297:Drivers/CMSIS/Include/cmsis_gcc.h ****   uint32_t result;
 298:Drivers/CMSIS/Include/cmsis_gcc.h **** 
 299:Drivers/CMSIS/Include/cmsis_gcc.h ****   __ASM ("rev %0, %1" : __CMSIS_GCC_OUT_REG (result) : __CMSIS_GCC_USE_REG (value) );
 300:Drivers/CMSIS/Include/cmsis_gcc.h ****   return result;
 301:Drivers/CMSIS/Include/cmsis_gcc.h **** #endif
 302:Drivers/CMSIS/Include/cmsis_gcc.h **** }
ARM GAS  /var/folders/ck/g3dcd5x55xs4107jgdl0snvr0000gn/T//cc4og9VU.s 			page 12


 303:Drivers/CMSIS/Include/cmsis_gcc.h **** 
 304:Drivers/CMSIS/Include/cmsis_gcc.h **** 
 305:Drivers/CMSIS/Include/cmsis_gcc.h **** /**
 306:Drivers/CMSIS/Include/cmsis_gcc.h ****   \brief   Reverse byte order (16 bit)
 307:Drivers/CMSIS/Include/cmsis_gcc.h ****   \details Reverses the byte order within each halfword of a word. For example, 0x12345678 becomes 
 308:Drivers/CMSIS/Include/cmsis_gcc.h ****   \param [in]    value  Value to reverse
 309:Drivers/CMSIS/Include/cmsis_gcc.h ****   \return               Reversed value
 310:Drivers/CMSIS/Include/cmsis_gcc.h ****  */
 311:Drivers/CMSIS/Include/cmsis_gcc.h **** __STATIC_FORCEINLINE uint32_t __REV16(uint32_t value)
 312:Drivers/CMSIS/Include/cmsis_gcc.h **** {
 313:Drivers/CMSIS/Include/cmsis_gcc.h ****   uint32_t result;
 314:Drivers/CMSIS/Include/cmsis_gcc.h **** 
 315:Drivers/CMSIS/Include/cmsis_gcc.h ****   __ASM ("rev16 %0, %1" : __CMSIS_GCC_OUT_REG (result) : __CMSIS_GCC_USE_REG (value) );
 316:Drivers/CMSIS/Include/cmsis_gcc.h ****   return result;
 317:Drivers/CMSIS/Include/cmsis_gcc.h **** }
 318:Drivers/CMSIS/Include/cmsis_gcc.h **** 
 319:Drivers/CMSIS/Include/cmsis_gcc.h **** 
 320:Drivers/CMSIS/Include/cmsis_gcc.h **** /**
 321:Drivers/CMSIS/Include/cmsis_gcc.h ****   \brief   Reverse byte order (16 bit)
 322:Drivers/CMSIS/Include/cmsis_gcc.h ****   \details Reverses the byte order in a 16-bit value and returns the signed 16-bit result. For exam
 323:Drivers/CMSIS/Include/cmsis_gcc.h ****   \param [in]    value  Value to reverse
 324:Drivers/CMSIS/Include/cmsis_gcc.h ****   \return               Reversed value
 325:Drivers/CMSIS/Include/cmsis_gcc.h ****  */
 326:Drivers/CMSIS/Include/cmsis_gcc.h **** __STATIC_FORCEINLINE int16_t __REVSH(int16_t value)
 327:Drivers/CMSIS/Include/cmsis_gcc.h **** {
 328:Drivers/CMSIS/Include/cmsis_gcc.h **** #if (__GNUC__ > 4) || (__GNUC__ == 4 && __GNUC_MINOR__ >= 8)
 329:Drivers/CMSIS/Include/cmsis_gcc.h ****   return (int16_t)__builtin_bswap16(value);
 330:Drivers/CMSIS/Include/cmsis_gcc.h **** #else
 331:Drivers/CMSIS/Include/cmsis_gcc.h ****   int16_t result;
 332:Drivers/CMSIS/Include/cmsis_gcc.h **** 
 333:Drivers/CMSIS/Include/cmsis_gcc.h ****   __ASM ("revsh %0, %1" : __CMSIS_GCC_OUT_REG (result) : __CMSIS_GCC_USE_REG (value) );
 334:Drivers/CMSIS/Include/cmsis_gcc.h ****   return result;
 335:Drivers/CMSIS/Include/cmsis_gcc.h **** #endif
 336:Drivers/CMSIS/Include/cmsis_gcc.h **** }
 337:Drivers/CMSIS/Include/cmsis_gcc.h **** 
 338:Drivers/CMSIS/Include/cmsis_gcc.h **** 
 339:Drivers/CMSIS/Include/cmsis_gcc.h **** /**
 340:Drivers/CMSIS/Include/cmsis_gcc.h ****   \brief   Rotate Right in unsigned value (32 bit)
 341:Drivers/CMSIS/Include/cmsis_gcc.h ****   \details Rotate Right (immediate) provides the value of the contents of a register rotated by a v
 342:Drivers/CMSIS/Include/cmsis_gcc.h ****   \param [in]    op1  Value to rotate
 343:Drivers/CMSIS/Include/cmsis_gcc.h ****   \param [in]    op2  Number of Bits to rotate
 344:Drivers/CMSIS/Include/cmsis_gcc.h ****   \return               Rotated value
 345:Drivers/CMSIS/Include/cmsis_gcc.h ****  */
 346:Drivers/CMSIS/Include/cmsis_gcc.h **** __STATIC_FORCEINLINE uint32_t __ROR(uint32_t op1, uint32_t op2)
 347:Drivers/CMSIS/Include/cmsis_gcc.h **** {
 348:Drivers/CMSIS/Include/cmsis_gcc.h ****   op2 %= 32U;
 349:Drivers/CMSIS/Include/cmsis_gcc.h ****   if (op2 == 0U)
 350:Drivers/CMSIS/Include/cmsis_gcc.h ****   {
 351:Drivers/CMSIS/Include/cmsis_gcc.h ****     return op1;
 352:Drivers/CMSIS/Include/cmsis_gcc.h ****   }
 353:Drivers/CMSIS/Include/cmsis_gcc.h ****   return (op1 >> op2) | (op1 << (32U - op2));
 354:Drivers/CMSIS/Include/cmsis_gcc.h **** }
 355:Drivers/CMSIS/Include/cmsis_gcc.h **** 
 356:Drivers/CMSIS/Include/cmsis_gcc.h **** 
 357:Drivers/CMSIS/Include/cmsis_gcc.h **** /**
 358:Drivers/CMSIS/Include/cmsis_gcc.h ****   \brief   Breakpoint
 359:Drivers/CMSIS/Include/cmsis_gcc.h ****   \details Causes the processor to enter Debug state.
ARM GAS  /var/folders/ck/g3dcd5x55xs4107jgdl0snvr0000gn/T//cc4og9VU.s 			page 13


 360:Drivers/CMSIS/Include/cmsis_gcc.h ****            Debug tools can use this to investigate system state when the instruction at a particula
 361:Drivers/CMSIS/Include/cmsis_gcc.h ****   \param [in]    value  is ignored by the processor.
 362:Drivers/CMSIS/Include/cmsis_gcc.h ****                  If required, a debugger can use it to store additional information about the break
 363:Drivers/CMSIS/Include/cmsis_gcc.h ****  */
 364:Drivers/CMSIS/Include/cmsis_gcc.h **** #define __BKPT(value)                       __ASM volatile ("bkpt "#value)
 365:Drivers/CMSIS/Include/cmsis_gcc.h **** 
 366:Drivers/CMSIS/Include/cmsis_gcc.h **** 
 367:Drivers/CMSIS/Include/cmsis_gcc.h **** /**
 368:Drivers/CMSIS/Include/cmsis_gcc.h ****   \brief   Reverse bit order of value
 369:Drivers/CMSIS/Include/cmsis_gcc.h ****   \details Reverses the bit order of the given value.
 370:Drivers/CMSIS/Include/cmsis_gcc.h ****   \param [in]    value  Value to reverse
 371:Drivers/CMSIS/Include/cmsis_gcc.h ****   \return               Reversed value
 372:Drivers/CMSIS/Include/cmsis_gcc.h ****  */
 373:Drivers/CMSIS/Include/cmsis_gcc.h **** __STATIC_FORCEINLINE uint32_t __RBIT(uint32_t value)
 374:Drivers/CMSIS/Include/cmsis_gcc.h **** {
 375:Drivers/CMSIS/Include/cmsis_gcc.h ****   uint32_t result;
 376:Drivers/CMSIS/Include/cmsis_gcc.h **** 
 377:Drivers/CMSIS/Include/cmsis_gcc.h **** #if ((defined (__ARM_ARCH_7M__      ) && (__ARM_ARCH_7M__      == 1)) || \
 378:Drivers/CMSIS/Include/cmsis_gcc.h ****      (defined (__ARM_ARCH_7EM__     ) && (__ARM_ARCH_7EM__     == 1)) || \
 379:Drivers/CMSIS/Include/cmsis_gcc.h ****      (defined (__ARM_ARCH_8M_MAIN__ ) && (__ARM_ARCH_8M_MAIN__ == 1))    )
 380:Drivers/CMSIS/Include/cmsis_gcc.h ****    __ASM ("rbit %0, %1" : "=r" (result) : "r" (value) );
 381:Drivers/CMSIS/Include/cmsis_gcc.h **** #else
 382:Drivers/CMSIS/Include/cmsis_gcc.h ****   uint32_t s = (4U /*sizeof(v)*/ * 8U) - 1U; /* extra shift needed at end */
 383:Drivers/CMSIS/Include/cmsis_gcc.h **** 
 384:Drivers/CMSIS/Include/cmsis_gcc.h ****   result = value;                      /* r will be reversed bits of v; first get LSB of v */
 385:Drivers/CMSIS/Include/cmsis_gcc.h ****   for (value >>= 1U; value != 0U; value >>= 1U)
 386:Drivers/CMSIS/Include/cmsis_gcc.h ****   {
 387:Drivers/CMSIS/Include/cmsis_gcc.h ****     result <<= 1U;
 388:Drivers/CMSIS/Include/cmsis_gcc.h ****     result |= value & 1U;
 389:Drivers/CMSIS/Include/cmsis_gcc.h ****     s--;
 390:Drivers/CMSIS/Include/cmsis_gcc.h ****   }
 391:Drivers/CMSIS/Include/cmsis_gcc.h ****   result <<= s;                        /* shift when v's highest bits are zero */
 392:Drivers/CMSIS/Include/cmsis_gcc.h **** #endif
 393:Drivers/CMSIS/Include/cmsis_gcc.h ****   return result;
 394:Drivers/CMSIS/Include/cmsis_gcc.h **** }
 395:Drivers/CMSIS/Include/cmsis_gcc.h **** 
 396:Drivers/CMSIS/Include/cmsis_gcc.h **** 
 397:Drivers/CMSIS/Include/cmsis_gcc.h **** /**
 398:Drivers/CMSIS/Include/cmsis_gcc.h ****   \brief   Count leading zeros
 399:Drivers/CMSIS/Include/cmsis_gcc.h ****   \details Counts the number of leading zeros of a data value.
 400:Drivers/CMSIS/Include/cmsis_gcc.h ****   \param [in]  value  Value to count the leading zeros
 401:Drivers/CMSIS/Include/cmsis_gcc.h ****   \return             number of leading zeros in value
 402:Drivers/CMSIS/Include/cmsis_gcc.h ****  */
 403:Drivers/CMSIS/Include/cmsis_gcc.h **** __STATIC_FORCEINLINE uint8_t __CLZ(uint32_t value)
 404:Drivers/CMSIS/Include/cmsis_gcc.h **** {
 405:Drivers/CMSIS/Include/cmsis_gcc.h ****   /* Even though __builtin_clz produces a CLZ instruction on ARM, formally
 406:Drivers/CMSIS/Include/cmsis_gcc.h ****      __builtin_clz(0) is undefined behaviour, so handle this case specially.
 407:Drivers/CMSIS/Include/cmsis_gcc.h ****      This guarantees ARM-compatible results if happening to compile on a non-ARM
 408:Drivers/CMSIS/Include/cmsis_gcc.h ****      target, and ensures the compiler doesn't decide to activate any
 409:Drivers/CMSIS/Include/cmsis_gcc.h ****      optimisations using the logic "value was passed to __builtin_clz, so it
 410:Drivers/CMSIS/Include/cmsis_gcc.h ****      is non-zero".
 411:Drivers/CMSIS/Include/cmsis_gcc.h ****      ARM GCC 7.3 and possibly earlier will optimise this test away, leaving a
 412:Drivers/CMSIS/Include/cmsis_gcc.h ****      single CLZ instruction.
 413:Drivers/CMSIS/Include/cmsis_gcc.h ****    */
 414:Drivers/CMSIS/Include/cmsis_gcc.h ****   if (value == 0U)
 415:Drivers/CMSIS/Include/cmsis_gcc.h ****   {
 416:Drivers/CMSIS/Include/cmsis_gcc.h ****     return 32U;
ARM GAS  /var/folders/ck/g3dcd5x55xs4107jgdl0snvr0000gn/T//cc4og9VU.s 			page 14


 417:Drivers/CMSIS/Include/cmsis_gcc.h ****   }
 418:Drivers/CMSIS/Include/cmsis_gcc.h ****   return __builtin_clz(value);
 419:Drivers/CMSIS/Include/cmsis_gcc.h **** }
 420:Drivers/CMSIS/Include/cmsis_gcc.h **** 
 421:Drivers/CMSIS/Include/cmsis_gcc.h **** 
 422:Drivers/CMSIS/Include/cmsis_gcc.h **** #if ((defined (__ARM_ARCH_7M__      ) && (__ARM_ARCH_7M__      == 1)) || \
 423:Drivers/CMSIS/Include/cmsis_gcc.h ****      (defined (__ARM_ARCH_7EM__     ) && (__ARM_ARCH_7EM__     == 1)) || \
 424:Drivers/CMSIS/Include/cmsis_gcc.h ****      (defined (__ARM_ARCH_8M_MAIN__ ) && (__ARM_ARCH_8M_MAIN__ == 1)) || \
 425:Drivers/CMSIS/Include/cmsis_gcc.h ****      (defined (__ARM_ARCH_8M_BASE__ ) && (__ARM_ARCH_8M_BASE__ == 1))    )
 426:Drivers/CMSIS/Include/cmsis_gcc.h **** /**
 427:Drivers/CMSIS/Include/cmsis_gcc.h ****   \brief   LDR Exclusive (8 bit)
 428:Drivers/CMSIS/Include/cmsis_gcc.h ****   \details Executes a exclusive LDR instruction for 8 bit value.
 429:Drivers/CMSIS/Include/cmsis_gcc.h ****   \param [in]    ptr  Pointer to data
 430:Drivers/CMSIS/Include/cmsis_gcc.h ****   \return             value of type uint8_t at (*ptr)
 431:Drivers/CMSIS/Include/cmsis_gcc.h ****  */
 432:Drivers/CMSIS/Include/cmsis_gcc.h **** __STATIC_FORCEINLINE uint8_t __LDREXB(volatile uint8_t *addr)
 433:Drivers/CMSIS/Include/cmsis_gcc.h **** {
 434:Drivers/CMSIS/Include/cmsis_gcc.h ****     uint32_t result;
 435:Drivers/CMSIS/Include/cmsis_gcc.h **** 
 436:Drivers/CMSIS/Include/cmsis_gcc.h **** #if (__GNUC__ > 4) || (__GNUC__ == 4 && __GNUC_MINOR__ >= 8)
 437:Drivers/CMSIS/Include/cmsis_gcc.h ****    __ASM volatile ("ldrexb %0, %1" : "=r" (result) : "Q" (*addr) );
 438:Drivers/CMSIS/Include/cmsis_gcc.h **** #else
 439:Drivers/CMSIS/Include/cmsis_gcc.h ****     /* Prior to GCC 4.8, "Q" will be expanded to [rx, #0] which is not
 440:Drivers/CMSIS/Include/cmsis_gcc.h ****        accepted by assembler. So has to use following less efficient pattern.
 441:Drivers/CMSIS/Include/cmsis_gcc.h ****     */
 442:Drivers/CMSIS/Include/cmsis_gcc.h ****    __ASM volatile ("ldrexb %0, [%1]" : "=r" (result) : "r" (addr) : "memory" );
 443:Drivers/CMSIS/Include/cmsis_gcc.h **** #endif
 444:Drivers/CMSIS/Include/cmsis_gcc.h ****    return ((uint8_t) result);    /* Add explicit type cast here */
 445:Drivers/CMSIS/Include/cmsis_gcc.h **** }
 446:Drivers/CMSIS/Include/cmsis_gcc.h **** 
 447:Drivers/CMSIS/Include/cmsis_gcc.h **** 
 448:Drivers/CMSIS/Include/cmsis_gcc.h **** /**
 449:Drivers/CMSIS/Include/cmsis_gcc.h ****   \brief   LDR Exclusive (16 bit)
 450:Drivers/CMSIS/Include/cmsis_gcc.h ****   \details Executes a exclusive LDR instruction for 16 bit values.
 451:Drivers/CMSIS/Include/cmsis_gcc.h ****   \param [in]    ptr  Pointer to data
 452:Drivers/CMSIS/Include/cmsis_gcc.h ****   \return        value of type uint16_t at (*ptr)
 453:Drivers/CMSIS/Include/cmsis_gcc.h ****  */
 454:Drivers/CMSIS/Include/cmsis_gcc.h **** __STATIC_FORCEINLINE uint16_t __LDREXH(volatile uint16_t *addr)
 455:Drivers/CMSIS/Include/cmsis_gcc.h **** {
 456:Drivers/CMSIS/Include/cmsis_gcc.h ****     uint32_t result;
 457:Drivers/CMSIS/Include/cmsis_gcc.h **** 
 458:Drivers/CMSIS/Include/cmsis_gcc.h **** #if (__GNUC__ > 4) || (__GNUC__ == 4 && __GNUC_MINOR__ >= 8)
 459:Drivers/CMSIS/Include/cmsis_gcc.h ****    __ASM volatile ("ldrexh %0, %1" : "=r" (result) : "Q" (*addr) );
 460:Drivers/CMSIS/Include/cmsis_gcc.h **** #else
 461:Drivers/CMSIS/Include/cmsis_gcc.h ****     /* Prior to GCC 4.8, "Q" will be expanded to [rx, #0] which is not
 462:Drivers/CMSIS/Include/cmsis_gcc.h ****        accepted by assembler. So has to use following less efficient pattern.
 463:Drivers/CMSIS/Include/cmsis_gcc.h ****     */
 464:Drivers/CMSIS/Include/cmsis_gcc.h ****    __ASM volatile ("ldrexh %0, [%1]" : "=r" (result) : "r" (addr) : "memory" );
 465:Drivers/CMSIS/Include/cmsis_gcc.h **** #endif
 466:Drivers/CMSIS/Include/cmsis_gcc.h ****    return ((uint16_t) result);    /* Add explicit type cast here */
 467:Drivers/CMSIS/Include/cmsis_gcc.h **** }
 468:Drivers/CMSIS/Include/cmsis_gcc.h **** 
 469:Drivers/CMSIS/Include/cmsis_gcc.h **** 
 470:Drivers/CMSIS/Include/cmsis_gcc.h **** /**
 471:Drivers/CMSIS/Include/cmsis_gcc.h ****   \brief   LDR Exclusive (32 bit)
 472:Drivers/CMSIS/Include/cmsis_gcc.h ****   \details Executes a exclusive LDR instruction for 32 bit values.
 473:Drivers/CMSIS/Include/cmsis_gcc.h ****   \param [in]    ptr  Pointer to data
ARM GAS  /var/folders/ck/g3dcd5x55xs4107jgdl0snvr0000gn/T//cc4og9VU.s 			page 15


 474:Drivers/CMSIS/Include/cmsis_gcc.h ****   \return        value of type uint32_t at (*ptr)
 475:Drivers/CMSIS/Include/cmsis_gcc.h ****  */
 476:Drivers/CMSIS/Include/cmsis_gcc.h **** __STATIC_FORCEINLINE uint32_t __LDREXW(volatile uint32_t *addr)
 477:Drivers/CMSIS/Include/cmsis_gcc.h **** {
 478:Drivers/CMSIS/Include/cmsis_gcc.h ****     uint32_t result;
 479:Drivers/CMSIS/Include/cmsis_gcc.h **** 
 480:Drivers/CMSIS/Include/cmsis_gcc.h ****    __ASM volatile ("ldrex %0, %1" : "=r" (result) : "Q" (*addr) );
 481:Drivers/CMSIS/Include/cmsis_gcc.h ****    return(result);
 482:Drivers/CMSIS/Include/cmsis_gcc.h **** }
 483:Drivers/CMSIS/Include/cmsis_gcc.h **** 
 484:Drivers/CMSIS/Include/cmsis_gcc.h **** 
 485:Drivers/CMSIS/Include/cmsis_gcc.h **** /**
 486:Drivers/CMSIS/Include/cmsis_gcc.h ****   \brief   STR Exclusive (8 bit)
 487:Drivers/CMSIS/Include/cmsis_gcc.h ****   \details Executes a exclusive STR instruction for 8 bit values.
 488:Drivers/CMSIS/Include/cmsis_gcc.h ****   \param [in]  value  Value to store
 489:Drivers/CMSIS/Include/cmsis_gcc.h ****   \param [in]    ptr  Pointer to location
 490:Drivers/CMSIS/Include/cmsis_gcc.h ****   \return          0  Function succeeded
 491:Drivers/CMSIS/Include/cmsis_gcc.h ****   \return          1  Function failed
 492:Drivers/CMSIS/Include/cmsis_gcc.h ****  */
 493:Drivers/CMSIS/Include/cmsis_gcc.h **** __STATIC_FORCEINLINE uint32_t __STREXB(uint8_t value, volatile uint8_t *addr)
 494:Drivers/CMSIS/Include/cmsis_gcc.h **** {
 495:Drivers/CMSIS/Include/cmsis_gcc.h ****    uint32_t result;
 496:Drivers/CMSIS/Include/cmsis_gcc.h **** 
 497:Drivers/CMSIS/Include/cmsis_gcc.h ****    __ASM volatile ("strexb %0, %2, %1" : "=&r" (result), "=Q" (*addr) : "r" ((uint32_t)value) );
 498:Drivers/CMSIS/Include/cmsis_gcc.h ****    return(result);
 499:Drivers/CMSIS/Include/cmsis_gcc.h **** }
 500:Drivers/CMSIS/Include/cmsis_gcc.h **** 
 501:Drivers/CMSIS/Include/cmsis_gcc.h **** 
 502:Drivers/CMSIS/Include/cmsis_gcc.h **** /**
 503:Drivers/CMSIS/Include/cmsis_gcc.h ****   \brief   STR Exclusive (16 bit)
 504:Drivers/CMSIS/Include/cmsis_gcc.h ****   \details Executes a exclusive STR instruction for 16 bit values.
 505:Drivers/CMSIS/Include/cmsis_gcc.h ****   \param [in]  value  Value to store
 506:Drivers/CMSIS/Include/cmsis_gcc.h ****   \param [in]    ptr  Pointer to location
 507:Drivers/CMSIS/Include/cmsis_gcc.h ****   \return          0  Function succeeded
 508:Drivers/CMSIS/Include/cmsis_gcc.h ****   \return          1  Function failed
 509:Drivers/CMSIS/Include/cmsis_gcc.h ****  */
 510:Drivers/CMSIS/Include/cmsis_gcc.h **** __STATIC_FORCEINLINE uint32_t __STREXH(uint16_t value, volatile uint16_t *addr)
 511:Drivers/CMSIS/Include/cmsis_gcc.h **** {
 512:Drivers/CMSIS/Include/cmsis_gcc.h ****    uint32_t result;
 513:Drivers/CMSIS/Include/cmsis_gcc.h **** 
 514:Drivers/CMSIS/Include/cmsis_gcc.h ****    __ASM volatile ("strexh %0, %2, %1" : "=&r" (result), "=Q" (*addr) : "r" ((uint32_t)value) );
 515:Drivers/CMSIS/Include/cmsis_gcc.h ****    return(result);
 516:Drivers/CMSIS/Include/cmsis_gcc.h **** }
 517:Drivers/CMSIS/Include/cmsis_gcc.h **** 
 518:Drivers/CMSIS/Include/cmsis_gcc.h **** 
 519:Drivers/CMSIS/Include/cmsis_gcc.h **** /**
 520:Drivers/CMSIS/Include/cmsis_gcc.h ****   \brief   STR Exclusive (32 bit)
 521:Drivers/CMSIS/Include/cmsis_gcc.h ****   \details Executes a exclusive STR instruction for 32 bit values.
 522:Drivers/CMSIS/Include/cmsis_gcc.h ****   \param [in]  value  Value to store
 523:Drivers/CMSIS/Include/cmsis_gcc.h ****   \param [in]    ptr  Pointer to location
 524:Drivers/CMSIS/Include/cmsis_gcc.h ****   \return          0  Function succeeded
 525:Drivers/CMSIS/Include/cmsis_gcc.h ****   \return          1  Function failed
 526:Drivers/CMSIS/Include/cmsis_gcc.h ****  */
 527:Drivers/CMSIS/Include/cmsis_gcc.h **** __STATIC_FORCEINLINE uint32_t __STREXW(uint32_t value, volatile uint32_t *addr)
 528:Drivers/CMSIS/Include/cmsis_gcc.h **** {
 529:Drivers/CMSIS/Include/cmsis_gcc.h ****    uint32_t result;
 530:Drivers/CMSIS/Include/cmsis_gcc.h **** 
ARM GAS  /var/folders/ck/g3dcd5x55xs4107jgdl0snvr0000gn/T//cc4og9VU.s 			page 16


 531:Drivers/CMSIS/Include/cmsis_gcc.h ****    __ASM volatile ("strex %0, %2, %1" : "=&r" (result), "=Q" (*addr) : "r" (value) );
 532:Drivers/CMSIS/Include/cmsis_gcc.h ****    return(result);
 533:Drivers/CMSIS/Include/cmsis_gcc.h **** }
 534:Drivers/CMSIS/Include/cmsis_gcc.h **** 
 535:Drivers/CMSIS/Include/cmsis_gcc.h **** 
 536:Drivers/CMSIS/Include/cmsis_gcc.h **** /**
 537:Drivers/CMSIS/Include/cmsis_gcc.h ****   \brief   Remove the exclusive lock
 538:Drivers/CMSIS/Include/cmsis_gcc.h ****   \details Removes the exclusive lock which is created by LDREX.
 539:Drivers/CMSIS/Include/cmsis_gcc.h ****  */
 540:Drivers/CMSIS/Include/cmsis_gcc.h **** __STATIC_FORCEINLINE void __CLREX(void)
 541:Drivers/CMSIS/Include/cmsis_gcc.h **** {
 542:Drivers/CMSIS/Include/cmsis_gcc.h ****   __ASM volatile ("clrex" ::: "memory");
 543:Drivers/CMSIS/Include/cmsis_gcc.h **** }
 544:Drivers/CMSIS/Include/cmsis_gcc.h **** 
 545:Drivers/CMSIS/Include/cmsis_gcc.h **** #endif /* ((defined (__ARM_ARCH_7M__      ) && (__ARM_ARCH_7M__      == 1)) || \
 546:Drivers/CMSIS/Include/cmsis_gcc.h ****            (defined (__ARM_ARCH_7EM__     ) && (__ARM_ARCH_7EM__     == 1)) || \
 547:Drivers/CMSIS/Include/cmsis_gcc.h ****            (defined (__ARM_ARCH_8M_MAIN__ ) && (__ARM_ARCH_8M_MAIN__ == 1)) || \
 548:Drivers/CMSIS/Include/cmsis_gcc.h ****            (defined (__ARM_ARCH_8M_BASE__ ) && (__ARM_ARCH_8M_BASE__ == 1))    ) */
 549:Drivers/CMSIS/Include/cmsis_gcc.h **** 
 550:Drivers/CMSIS/Include/cmsis_gcc.h **** 
 551:Drivers/CMSIS/Include/cmsis_gcc.h **** #if ((defined (__ARM_ARCH_7M__      ) && (__ARM_ARCH_7M__      == 1)) || \
 552:Drivers/CMSIS/Include/cmsis_gcc.h ****      (defined (__ARM_ARCH_7EM__     ) && (__ARM_ARCH_7EM__     == 1)) || \
 553:Drivers/CMSIS/Include/cmsis_gcc.h ****      (defined (__ARM_ARCH_8M_MAIN__ ) && (__ARM_ARCH_8M_MAIN__ == 1))    )
 554:Drivers/CMSIS/Include/cmsis_gcc.h **** /**
 555:Drivers/CMSIS/Include/cmsis_gcc.h ****   \brief   Signed Saturate
 556:Drivers/CMSIS/Include/cmsis_gcc.h ****   \details Saturates a signed value.
 557:Drivers/CMSIS/Include/cmsis_gcc.h ****   \param [in]  ARG1  Value to be saturated
 558:Drivers/CMSIS/Include/cmsis_gcc.h ****   \param [in]  ARG2  Bit position to saturate to (1..32)
 559:Drivers/CMSIS/Include/cmsis_gcc.h ****   \return             Saturated value
 560:Drivers/CMSIS/Include/cmsis_gcc.h ****  */
 561:Drivers/CMSIS/Include/cmsis_gcc.h **** #define __SSAT(ARG1, ARG2) \
 562:Drivers/CMSIS/Include/cmsis_gcc.h **** __extension__ \
 563:Drivers/CMSIS/Include/cmsis_gcc.h **** ({                          \
 564:Drivers/CMSIS/Include/cmsis_gcc.h ****   int32_t __RES, __ARG1 = (ARG1); \
 565:Drivers/CMSIS/Include/cmsis_gcc.h ****   __ASM volatile ("ssat %0, %1, %2" : "=r" (__RES) :  "I" (ARG2), "r" (__ARG1) : "cc" ); \
 566:Drivers/CMSIS/Include/cmsis_gcc.h ****   __RES; \
 567:Drivers/CMSIS/Include/cmsis_gcc.h ****  })
 568:Drivers/CMSIS/Include/cmsis_gcc.h **** 
 569:Drivers/CMSIS/Include/cmsis_gcc.h **** 
 570:Drivers/CMSIS/Include/cmsis_gcc.h **** /**
 571:Drivers/CMSIS/Include/cmsis_gcc.h ****   \brief   Unsigned Saturate
 572:Drivers/CMSIS/Include/cmsis_gcc.h ****   \details Saturates an unsigned value.
 573:Drivers/CMSIS/Include/cmsis_gcc.h ****   \param [in]  ARG1  Value to be saturated
 574:Drivers/CMSIS/Include/cmsis_gcc.h ****   \param [in]  ARG2  Bit position to saturate to (0..31)
 575:Drivers/CMSIS/Include/cmsis_gcc.h ****   \return             Saturated value
 576:Drivers/CMSIS/Include/cmsis_gcc.h ****  */
 577:Drivers/CMSIS/Include/cmsis_gcc.h **** #define __USAT(ARG1, ARG2) \
 578:Drivers/CMSIS/Include/cmsis_gcc.h **** __extension__ \
 579:Drivers/CMSIS/Include/cmsis_gcc.h **** ({                          \
 580:Drivers/CMSIS/Include/cmsis_gcc.h ****   uint32_t __RES, __ARG1 = (ARG1); \
 581:Drivers/CMSIS/Include/cmsis_gcc.h ****   __ASM volatile ("usat %0, %1, %2" : "=r" (__RES) :  "I" (ARG2), "r" (__ARG1) : "cc" ); \
 582:Drivers/CMSIS/Include/cmsis_gcc.h ****   __RES; \
 583:Drivers/CMSIS/Include/cmsis_gcc.h ****  })
 584:Drivers/CMSIS/Include/cmsis_gcc.h **** 
 585:Drivers/CMSIS/Include/cmsis_gcc.h **** 
 586:Drivers/CMSIS/Include/cmsis_gcc.h **** /**
 587:Drivers/CMSIS/Include/cmsis_gcc.h ****   \brief   Rotate Right with Extend (32 bit)
ARM GAS  /var/folders/ck/g3dcd5x55xs4107jgdl0snvr0000gn/T//cc4og9VU.s 			page 17


 588:Drivers/CMSIS/Include/cmsis_gcc.h ****   \details Moves each bit of a bitstring right by one bit.
 589:Drivers/CMSIS/Include/cmsis_gcc.h ****            The carry input is shifted in at the left end of the bitstring.
 590:Drivers/CMSIS/Include/cmsis_gcc.h ****   \param [in]    value  Value to rotate
 591:Drivers/CMSIS/Include/cmsis_gcc.h ****   \return               Rotated value
 592:Drivers/CMSIS/Include/cmsis_gcc.h ****  */
 593:Drivers/CMSIS/Include/cmsis_gcc.h **** __STATIC_FORCEINLINE uint32_t __RRX(uint32_t value)
 594:Drivers/CMSIS/Include/cmsis_gcc.h **** {
 595:Drivers/CMSIS/Include/cmsis_gcc.h ****   uint32_t result;
 596:Drivers/CMSIS/Include/cmsis_gcc.h **** 
 597:Drivers/CMSIS/Include/cmsis_gcc.h ****   __ASM volatile ("rrx %0, %1" : __CMSIS_GCC_OUT_REG (result) : __CMSIS_GCC_USE_REG (value) );
 598:Drivers/CMSIS/Include/cmsis_gcc.h ****   return(result);
 599:Drivers/CMSIS/Include/cmsis_gcc.h **** }
 600:Drivers/CMSIS/Include/cmsis_gcc.h **** 
 601:Drivers/CMSIS/Include/cmsis_gcc.h **** 
 602:Drivers/CMSIS/Include/cmsis_gcc.h **** /**
 603:Drivers/CMSIS/Include/cmsis_gcc.h ****   \brief   LDRT Unprivileged (8 bit)
 604:Drivers/CMSIS/Include/cmsis_gcc.h ****   \details Executes a Unprivileged LDRT instruction for 8 bit value.
 605:Drivers/CMSIS/Include/cmsis_gcc.h ****   \param [in]    ptr  Pointer to data
 606:Drivers/CMSIS/Include/cmsis_gcc.h ****   \return             value of type uint8_t at (*ptr)
 607:Drivers/CMSIS/Include/cmsis_gcc.h ****  */
 608:Drivers/CMSIS/Include/cmsis_gcc.h **** __STATIC_FORCEINLINE uint8_t __LDRBT(volatile uint8_t *ptr)
 609:Drivers/CMSIS/Include/cmsis_gcc.h **** {
 610:Drivers/CMSIS/Include/cmsis_gcc.h ****     uint32_t result;
 611:Drivers/CMSIS/Include/cmsis_gcc.h **** 
 612:Drivers/CMSIS/Include/cmsis_gcc.h **** #if (__GNUC__ > 4) || (__GNUC__ == 4 && __GNUC_MINOR__ >= 8)
 613:Drivers/CMSIS/Include/cmsis_gcc.h ****    __ASM volatile ("ldrbt %0, %1" : "=r" (result) : "Q" (*ptr) );
 614:Drivers/CMSIS/Include/cmsis_gcc.h **** #else
 615:Drivers/CMSIS/Include/cmsis_gcc.h ****     /* Prior to GCC 4.8, "Q" will be expanded to [rx, #0] which is not
 616:Drivers/CMSIS/Include/cmsis_gcc.h ****        accepted by assembler. So has to use following less efficient pattern.
 617:Drivers/CMSIS/Include/cmsis_gcc.h ****     */
 618:Drivers/CMSIS/Include/cmsis_gcc.h ****    __ASM volatile ("ldrbt %0, [%1]" : "=r" (result) : "r" (ptr) : "memory" );
 619:Drivers/CMSIS/Include/cmsis_gcc.h **** #endif
 620:Drivers/CMSIS/Include/cmsis_gcc.h ****    return ((uint8_t) result);    /* Add explicit type cast here */
 621:Drivers/CMSIS/Include/cmsis_gcc.h **** }
 622:Drivers/CMSIS/Include/cmsis_gcc.h **** 
 623:Drivers/CMSIS/Include/cmsis_gcc.h **** 
 624:Drivers/CMSIS/Include/cmsis_gcc.h **** /**
 625:Drivers/CMSIS/Include/cmsis_gcc.h ****   \brief   LDRT Unprivileged (16 bit)
 626:Drivers/CMSIS/Include/cmsis_gcc.h ****   \details Executes a Unprivileged LDRT instruction for 16 bit values.
 627:Drivers/CMSIS/Include/cmsis_gcc.h ****   \param [in]    ptr  Pointer to data
 628:Drivers/CMSIS/Include/cmsis_gcc.h ****   \return        value of type uint16_t at (*ptr)
 629:Drivers/CMSIS/Include/cmsis_gcc.h ****  */
 630:Drivers/CMSIS/Include/cmsis_gcc.h **** __STATIC_FORCEINLINE uint16_t __LDRHT(volatile uint16_t *ptr)
 631:Drivers/CMSIS/Include/cmsis_gcc.h **** {
 632:Drivers/CMSIS/Include/cmsis_gcc.h ****     uint32_t result;
 633:Drivers/CMSIS/Include/cmsis_gcc.h **** 
 634:Drivers/CMSIS/Include/cmsis_gcc.h **** #if (__GNUC__ > 4) || (__GNUC__ == 4 && __GNUC_MINOR__ >= 8)
 635:Drivers/CMSIS/Include/cmsis_gcc.h ****    __ASM volatile ("ldrht %0, %1" : "=r" (result) : "Q" (*ptr) );
 636:Drivers/CMSIS/Include/cmsis_gcc.h **** #else
 637:Drivers/CMSIS/Include/cmsis_gcc.h ****     /* Prior to GCC 4.8, "Q" will be expanded to [rx, #0] which is not
 638:Drivers/CMSIS/Include/cmsis_gcc.h ****        accepted by assembler. So has to use following less efficient pattern.
 639:Drivers/CMSIS/Include/cmsis_gcc.h ****     */
 640:Drivers/CMSIS/Include/cmsis_gcc.h ****    __ASM volatile ("ldrht %0, [%1]" : "=r" (result) : "r" (ptr) : "memory" );
 641:Drivers/CMSIS/Include/cmsis_gcc.h **** #endif
 642:Drivers/CMSIS/Include/cmsis_gcc.h ****    return ((uint16_t) result);    /* Add explicit type cast here */
 643:Drivers/CMSIS/Include/cmsis_gcc.h **** }
 644:Drivers/CMSIS/Include/cmsis_gcc.h **** 
ARM GAS  /var/folders/ck/g3dcd5x55xs4107jgdl0snvr0000gn/T//cc4og9VU.s 			page 18


 645:Drivers/CMSIS/Include/cmsis_gcc.h **** 
 646:Drivers/CMSIS/Include/cmsis_gcc.h **** /**
 647:Drivers/CMSIS/Include/cmsis_gcc.h ****   \brief   LDRT Unprivileged (32 bit)
 648:Drivers/CMSIS/Include/cmsis_gcc.h ****   \details Executes a Unprivileged LDRT instruction for 32 bit values.
 649:Drivers/CMSIS/Include/cmsis_gcc.h ****   \param [in]    ptr  Pointer to data
 650:Drivers/CMSIS/Include/cmsis_gcc.h ****   \return        value of type uint32_t at (*ptr)
 651:Drivers/CMSIS/Include/cmsis_gcc.h ****  */
 652:Drivers/CMSIS/Include/cmsis_gcc.h **** __STATIC_FORCEINLINE uint32_t __LDRT(volatile uint32_t *ptr)
 653:Drivers/CMSIS/Include/cmsis_gcc.h **** {
 654:Drivers/CMSIS/Include/cmsis_gcc.h ****     uint32_t result;
 655:Drivers/CMSIS/Include/cmsis_gcc.h **** 
 656:Drivers/CMSIS/Include/cmsis_gcc.h ****    __ASM volatile ("ldrt %0, %1" : "=r" (result) : "Q" (*ptr) );
 657:Drivers/CMSIS/Include/cmsis_gcc.h ****    return(result);
 658:Drivers/CMSIS/Include/cmsis_gcc.h **** }
 659:Drivers/CMSIS/Include/cmsis_gcc.h **** 
 660:Drivers/CMSIS/Include/cmsis_gcc.h **** 
 661:Drivers/CMSIS/Include/cmsis_gcc.h **** /**
 662:Drivers/CMSIS/Include/cmsis_gcc.h ****   \brief   STRT Unprivileged (8 bit)
 663:Drivers/CMSIS/Include/cmsis_gcc.h ****   \details Executes a Unprivileged STRT instruction for 8 bit values.
 664:Drivers/CMSIS/Include/cmsis_gcc.h ****   \param [in]  value  Value to store
 665:Drivers/CMSIS/Include/cmsis_gcc.h ****   \param [in]    ptr  Pointer to location
 666:Drivers/CMSIS/Include/cmsis_gcc.h ****  */
 667:Drivers/CMSIS/Include/cmsis_gcc.h **** __STATIC_FORCEINLINE void __STRBT(uint8_t value, volatile uint8_t *ptr)
 668:Drivers/CMSIS/Include/cmsis_gcc.h **** {
 669:Drivers/CMSIS/Include/cmsis_gcc.h ****    __ASM volatile ("strbt %1, %0" : "=Q" (*ptr) : "r" ((uint32_t)value) );
 670:Drivers/CMSIS/Include/cmsis_gcc.h **** }
 671:Drivers/CMSIS/Include/cmsis_gcc.h **** 
 672:Drivers/CMSIS/Include/cmsis_gcc.h **** 
 673:Drivers/CMSIS/Include/cmsis_gcc.h **** /**
 674:Drivers/CMSIS/Include/cmsis_gcc.h ****   \brief   STRT Unprivileged (16 bit)
 675:Drivers/CMSIS/Include/cmsis_gcc.h ****   \details Executes a Unprivileged STRT instruction for 16 bit values.
 676:Drivers/CMSIS/Include/cmsis_gcc.h ****   \param [in]  value  Value to store
 677:Drivers/CMSIS/Include/cmsis_gcc.h ****   \param [in]    ptr  Pointer to location
 678:Drivers/CMSIS/Include/cmsis_gcc.h ****  */
 679:Drivers/CMSIS/Include/cmsis_gcc.h **** __STATIC_FORCEINLINE void __STRHT(uint16_t value, volatile uint16_t *ptr)
 680:Drivers/CMSIS/Include/cmsis_gcc.h **** {
 681:Drivers/CMSIS/Include/cmsis_gcc.h ****    __ASM volatile ("strht %1, %0" : "=Q" (*ptr) : "r" ((uint32_t)value) );
 682:Drivers/CMSIS/Include/cmsis_gcc.h **** }
 683:Drivers/CMSIS/Include/cmsis_gcc.h **** 
 684:Drivers/CMSIS/Include/cmsis_gcc.h **** 
 685:Drivers/CMSIS/Include/cmsis_gcc.h **** /**
 686:Drivers/CMSIS/Include/cmsis_gcc.h ****   \brief   STRT Unprivileged (32 bit)
 687:Drivers/CMSIS/Include/cmsis_gcc.h ****   \details Executes a Unprivileged STRT instruction for 32 bit values.
 688:Drivers/CMSIS/Include/cmsis_gcc.h ****   \param [in]  value  Value to store
 689:Drivers/CMSIS/Include/cmsis_gcc.h ****   \param [in]    ptr  Pointer to location
 690:Drivers/CMSIS/Include/cmsis_gcc.h ****  */
 691:Drivers/CMSIS/Include/cmsis_gcc.h **** __STATIC_FORCEINLINE void __STRT(uint32_t value, volatile uint32_t *ptr)
 692:Drivers/CMSIS/Include/cmsis_gcc.h **** {
 693:Drivers/CMSIS/Include/cmsis_gcc.h ****    __ASM volatile ("strt %1, %0" : "=Q" (*ptr) : "r" (value) );
 694:Drivers/CMSIS/Include/cmsis_gcc.h **** }
 695:Drivers/CMSIS/Include/cmsis_gcc.h **** 
 696:Drivers/CMSIS/Include/cmsis_gcc.h **** #else  /* ((defined (__ARM_ARCH_7M__      ) && (__ARM_ARCH_7M__      == 1)) || \
 697:Drivers/CMSIS/Include/cmsis_gcc.h ****            (defined (__ARM_ARCH_7EM__     ) && (__ARM_ARCH_7EM__     == 1)) || \
 698:Drivers/CMSIS/Include/cmsis_gcc.h ****            (defined (__ARM_ARCH_8M_MAIN__ ) && (__ARM_ARCH_8M_MAIN__ == 1))    ) */
 699:Drivers/CMSIS/Include/cmsis_gcc.h **** 
 700:Drivers/CMSIS/Include/cmsis_gcc.h **** /**
 701:Drivers/CMSIS/Include/cmsis_gcc.h ****   \brief   Signed Saturate
ARM GAS  /var/folders/ck/g3dcd5x55xs4107jgdl0snvr0000gn/T//cc4og9VU.s 			page 19


 702:Drivers/CMSIS/Include/cmsis_gcc.h ****   \details Saturates a signed value.
 703:Drivers/CMSIS/Include/cmsis_gcc.h ****   \param [in]  value  Value to be saturated
 704:Drivers/CMSIS/Include/cmsis_gcc.h ****   \param [in]    sat  Bit position to saturate to (1..32)
 705:Drivers/CMSIS/Include/cmsis_gcc.h ****   \return             Saturated value
 706:Drivers/CMSIS/Include/cmsis_gcc.h ****  */
 707:Drivers/CMSIS/Include/cmsis_gcc.h **** __STATIC_FORCEINLINE int32_t __SSAT(int32_t val, uint32_t sat)
 708:Drivers/CMSIS/Include/cmsis_gcc.h **** {
 709:Drivers/CMSIS/Include/cmsis_gcc.h ****   if ((sat >= 1U) && (sat <= 32U))
 710:Drivers/CMSIS/Include/cmsis_gcc.h ****   {
 711:Drivers/CMSIS/Include/cmsis_gcc.h ****     const int32_t max = (int32_t)((1U << (sat - 1U)) - 1U);
 712:Drivers/CMSIS/Include/cmsis_gcc.h ****     const int32_t min = -1 - max ;
 713:Drivers/CMSIS/Include/cmsis_gcc.h ****     if (val > max)
 714:Drivers/CMSIS/Include/cmsis_gcc.h ****     {
 715:Drivers/CMSIS/Include/cmsis_gcc.h ****       return max;
 716:Drivers/CMSIS/Include/cmsis_gcc.h ****     }
 717:Drivers/CMSIS/Include/cmsis_gcc.h ****     else if (val < min)
 718:Drivers/CMSIS/Include/cmsis_gcc.h ****     {
 719:Drivers/CMSIS/Include/cmsis_gcc.h ****       return min;
 720:Drivers/CMSIS/Include/cmsis_gcc.h ****     }
 721:Drivers/CMSIS/Include/cmsis_gcc.h ****   }
 722:Drivers/CMSIS/Include/cmsis_gcc.h ****   return val;
 723:Drivers/CMSIS/Include/cmsis_gcc.h **** }
 724:Drivers/CMSIS/Include/cmsis_gcc.h **** 
 725:Drivers/CMSIS/Include/cmsis_gcc.h **** /**
 726:Drivers/CMSIS/Include/cmsis_gcc.h ****   \brief   Unsigned Saturate
 727:Drivers/CMSIS/Include/cmsis_gcc.h ****   \details Saturates an unsigned value.
 728:Drivers/CMSIS/Include/cmsis_gcc.h ****   \param [in]  value  Value to be saturated
 729:Drivers/CMSIS/Include/cmsis_gcc.h ****   \param [in]    sat  Bit position to saturate to (0..31)
 730:Drivers/CMSIS/Include/cmsis_gcc.h ****   \return             Saturated value
 731:Drivers/CMSIS/Include/cmsis_gcc.h ****  */
 732:Drivers/CMSIS/Include/cmsis_gcc.h **** __STATIC_FORCEINLINE uint32_t __USAT(int32_t val, uint32_t sat)
 733:Drivers/CMSIS/Include/cmsis_gcc.h **** {
 734:Drivers/CMSIS/Include/cmsis_gcc.h ****   if (sat <= 31U)
 735:Drivers/CMSIS/Include/cmsis_gcc.h ****   {
 736:Drivers/CMSIS/Include/cmsis_gcc.h ****     const uint32_t max = ((1U << sat) - 1U);
 737:Drivers/CMSIS/Include/cmsis_gcc.h ****     if (val > (int32_t)max)
 738:Drivers/CMSIS/Include/cmsis_gcc.h ****     {
 739:Drivers/CMSIS/Include/cmsis_gcc.h ****       return max;
 740:Drivers/CMSIS/Include/cmsis_gcc.h ****     }
 741:Drivers/CMSIS/Include/cmsis_gcc.h ****     else if (val < 0)
 742:Drivers/CMSIS/Include/cmsis_gcc.h ****     {
 743:Drivers/CMSIS/Include/cmsis_gcc.h ****       return 0U;
 744:Drivers/CMSIS/Include/cmsis_gcc.h ****     }
 745:Drivers/CMSIS/Include/cmsis_gcc.h ****   }
 746:Drivers/CMSIS/Include/cmsis_gcc.h ****   return (uint32_t)val;
 747:Drivers/CMSIS/Include/cmsis_gcc.h **** }
 748:Drivers/CMSIS/Include/cmsis_gcc.h **** 
 749:Drivers/CMSIS/Include/cmsis_gcc.h **** #endif /* ((defined (__ARM_ARCH_7M__      ) && (__ARM_ARCH_7M__      == 1)) || \
 750:Drivers/CMSIS/Include/cmsis_gcc.h ****            (defined (__ARM_ARCH_7EM__     ) && (__ARM_ARCH_7EM__     == 1)) || \
 751:Drivers/CMSIS/Include/cmsis_gcc.h ****            (defined (__ARM_ARCH_8M_MAIN__ ) && (__ARM_ARCH_8M_MAIN__ == 1))    ) */
 752:Drivers/CMSIS/Include/cmsis_gcc.h **** 
 753:Drivers/CMSIS/Include/cmsis_gcc.h **** 
 754:Drivers/CMSIS/Include/cmsis_gcc.h **** #if ((defined (__ARM_ARCH_8M_MAIN__ ) && (__ARM_ARCH_8M_MAIN__ == 1)) || \
 755:Drivers/CMSIS/Include/cmsis_gcc.h ****      (defined (__ARM_ARCH_8M_BASE__ ) && (__ARM_ARCH_8M_BASE__ == 1))    )
 756:Drivers/CMSIS/Include/cmsis_gcc.h **** /**
 757:Drivers/CMSIS/Include/cmsis_gcc.h ****   \brief   Load-Acquire (8 bit)
 758:Drivers/CMSIS/Include/cmsis_gcc.h ****   \details Executes a LDAB instruction for 8 bit value.
ARM GAS  /var/folders/ck/g3dcd5x55xs4107jgdl0snvr0000gn/T//cc4og9VU.s 			page 20


 759:Drivers/CMSIS/Include/cmsis_gcc.h ****   \param [in]    ptr  Pointer to data
 760:Drivers/CMSIS/Include/cmsis_gcc.h ****   \return             value of type uint8_t at (*ptr)
 761:Drivers/CMSIS/Include/cmsis_gcc.h ****  */
 762:Drivers/CMSIS/Include/cmsis_gcc.h **** __STATIC_FORCEINLINE uint8_t __LDAB(volatile uint8_t *ptr)
 763:Drivers/CMSIS/Include/cmsis_gcc.h **** {
 764:Drivers/CMSIS/Include/cmsis_gcc.h ****     uint32_t result;
 765:Drivers/CMSIS/Include/cmsis_gcc.h **** 
 766:Drivers/CMSIS/Include/cmsis_gcc.h ****    __ASM volatile ("ldab %0, %1" : "=r" (result) : "Q" (*ptr) : "memory" );
 767:Drivers/CMSIS/Include/cmsis_gcc.h ****    return ((uint8_t) result);
 768:Drivers/CMSIS/Include/cmsis_gcc.h **** }
 769:Drivers/CMSIS/Include/cmsis_gcc.h **** 
 770:Drivers/CMSIS/Include/cmsis_gcc.h **** 
 771:Drivers/CMSIS/Include/cmsis_gcc.h **** /**
 772:Drivers/CMSIS/Include/cmsis_gcc.h ****   \brief   Load-Acquire (16 bit)
 773:Drivers/CMSIS/Include/cmsis_gcc.h ****   \details Executes a LDAH instruction for 16 bit values.
 774:Drivers/CMSIS/Include/cmsis_gcc.h ****   \param [in]    ptr  Pointer to data
 775:Drivers/CMSIS/Include/cmsis_gcc.h ****   \return        value of type uint16_t at (*ptr)
 776:Drivers/CMSIS/Include/cmsis_gcc.h ****  */
 777:Drivers/CMSIS/Include/cmsis_gcc.h **** __STATIC_FORCEINLINE uint16_t __LDAH(volatile uint16_t *ptr)
 778:Drivers/CMSIS/Include/cmsis_gcc.h **** {
 779:Drivers/CMSIS/Include/cmsis_gcc.h ****     uint32_t result;
 780:Drivers/CMSIS/Include/cmsis_gcc.h **** 
 781:Drivers/CMSIS/Include/cmsis_gcc.h ****    __ASM volatile ("ldah %0, %1" : "=r" (result) : "Q" (*ptr) : "memory" );
 782:Drivers/CMSIS/Include/cmsis_gcc.h ****    return ((uint16_t) result);
 783:Drivers/CMSIS/Include/cmsis_gcc.h **** }
 784:Drivers/CMSIS/Include/cmsis_gcc.h **** 
 785:Drivers/CMSIS/Include/cmsis_gcc.h **** 
 786:Drivers/CMSIS/Include/cmsis_gcc.h **** /**
 787:Drivers/CMSIS/Include/cmsis_gcc.h ****   \brief   Load-Acquire (32 bit)
 788:Drivers/CMSIS/Include/cmsis_gcc.h ****   \details Executes a LDA instruction for 32 bit values.
 789:Drivers/CMSIS/Include/cmsis_gcc.h ****   \param [in]    ptr  Pointer to data
 790:Drivers/CMSIS/Include/cmsis_gcc.h ****   \return        value of type uint32_t at (*ptr)
 791:Drivers/CMSIS/Include/cmsis_gcc.h ****  */
 792:Drivers/CMSIS/Include/cmsis_gcc.h **** __STATIC_FORCEINLINE uint32_t __LDA(volatile uint32_t *ptr)
 793:Drivers/CMSIS/Include/cmsis_gcc.h **** {
 794:Drivers/CMSIS/Include/cmsis_gcc.h ****     uint32_t result;
 795:Drivers/CMSIS/Include/cmsis_gcc.h **** 
 796:Drivers/CMSIS/Include/cmsis_gcc.h ****    __ASM volatile ("lda %0, %1" : "=r" (result) : "Q" (*ptr) : "memory" );
 797:Drivers/CMSIS/Include/cmsis_gcc.h ****    return(result);
 798:Drivers/CMSIS/Include/cmsis_gcc.h **** }
 799:Drivers/CMSIS/Include/cmsis_gcc.h **** 
 800:Drivers/CMSIS/Include/cmsis_gcc.h **** 
 801:Drivers/CMSIS/Include/cmsis_gcc.h **** /**
 802:Drivers/CMSIS/Include/cmsis_gcc.h ****   \brief   Store-Release (8 bit)
 803:Drivers/CMSIS/Include/cmsis_gcc.h ****   \details Executes a STLB instruction for 8 bit values.
 804:Drivers/CMSIS/Include/cmsis_gcc.h ****   \param [in]  value  Value to store
 805:Drivers/CMSIS/Include/cmsis_gcc.h ****   \param [in]    ptr  Pointer to location
 806:Drivers/CMSIS/Include/cmsis_gcc.h ****  */
 807:Drivers/CMSIS/Include/cmsis_gcc.h **** __STATIC_FORCEINLINE void __STLB(uint8_t value, volatile uint8_t *ptr)
 808:Drivers/CMSIS/Include/cmsis_gcc.h **** {
 809:Drivers/CMSIS/Include/cmsis_gcc.h ****    __ASM volatile ("stlb %1, %0" : "=Q" (*ptr) : "r" ((uint32_t)value) : "memory" );
 810:Drivers/CMSIS/Include/cmsis_gcc.h **** }
 811:Drivers/CMSIS/Include/cmsis_gcc.h **** 
 812:Drivers/CMSIS/Include/cmsis_gcc.h **** 
 813:Drivers/CMSIS/Include/cmsis_gcc.h **** /**
 814:Drivers/CMSIS/Include/cmsis_gcc.h ****   \brief   Store-Release (16 bit)
 815:Drivers/CMSIS/Include/cmsis_gcc.h ****   \details Executes a STLH instruction for 16 bit values.
ARM GAS  /var/folders/ck/g3dcd5x55xs4107jgdl0snvr0000gn/T//cc4og9VU.s 			page 21


 816:Drivers/CMSIS/Include/cmsis_gcc.h ****   \param [in]  value  Value to store
 817:Drivers/CMSIS/Include/cmsis_gcc.h ****   \param [in]    ptr  Pointer to location
 818:Drivers/CMSIS/Include/cmsis_gcc.h ****  */
 819:Drivers/CMSIS/Include/cmsis_gcc.h **** __STATIC_FORCEINLINE void __STLH(uint16_t value, volatile uint16_t *ptr)
 820:Drivers/CMSIS/Include/cmsis_gcc.h **** {
 821:Drivers/CMSIS/Include/cmsis_gcc.h ****    __ASM volatile ("stlh %1, %0" : "=Q" (*ptr) : "r" ((uint32_t)value) : "memory" );
 822:Drivers/CMSIS/Include/cmsis_gcc.h **** }
 823:Drivers/CMSIS/Include/cmsis_gcc.h **** 
 824:Drivers/CMSIS/Include/cmsis_gcc.h **** 
 825:Drivers/CMSIS/Include/cmsis_gcc.h **** /**
 826:Drivers/CMSIS/Include/cmsis_gcc.h ****   \brief   Store-Release (32 bit)
 827:Drivers/CMSIS/Include/cmsis_gcc.h ****   \details Executes a STL instruction for 32 bit values.
 828:Drivers/CMSIS/Include/cmsis_gcc.h ****   \param [in]  value  Value to store
 829:Drivers/CMSIS/Include/cmsis_gcc.h ****   \param [in]    ptr  Pointer to location
 830:Drivers/CMSIS/Include/cmsis_gcc.h ****  */
 831:Drivers/CMSIS/Include/cmsis_gcc.h **** __STATIC_FORCEINLINE void __STL(uint32_t value, volatile uint32_t *ptr)
 832:Drivers/CMSIS/Include/cmsis_gcc.h **** {
 833:Drivers/CMSIS/Include/cmsis_gcc.h ****    __ASM volatile ("stl %1, %0" : "=Q" (*ptr) : "r" ((uint32_t)value) : "memory" );
 834:Drivers/CMSIS/Include/cmsis_gcc.h **** }
 835:Drivers/CMSIS/Include/cmsis_gcc.h **** 
 836:Drivers/CMSIS/Include/cmsis_gcc.h **** 
 837:Drivers/CMSIS/Include/cmsis_gcc.h **** /**
 838:Drivers/CMSIS/Include/cmsis_gcc.h ****   \brief   Load-Acquire Exclusive (8 bit)
 839:Drivers/CMSIS/Include/cmsis_gcc.h ****   \details Executes a LDAB exclusive instruction for 8 bit value.
 840:Drivers/CMSIS/Include/cmsis_gcc.h ****   \param [in]    ptr  Pointer to data
 841:Drivers/CMSIS/Include/cmsis_gcc.h ****   \return             value of type uint8_t at (*ptr)
 842:Drivers/CMSIS/Include/cmsis_gcc.h ****  */
 843:Drivers/CMSIS/Include/cmsis_gcc.h **** __STATIC_FORCEINLINE uint8_t __LDAEXB(volatile uint8_t *ptr)
 844:Drivers/CMSIS/Include/cmsis_gcc.h **** {
 845:Drivers/CMSIS/Include/cmsis_gcc.h ****     uint32_t result;
 846:Drivers/CMSIS/Include/cmsis_gcc.h **** 
 847:Drivers/CMSIS/Include/cmsis_gcc.h ****    __ASM volatile ("ldaexb %0, %1" : "=r" (result) : "Q" (*ptr) : "memory" );
 848:Drivers/CMSIS/Include/cmsis_gcc.h ****    return ((uint8_t) result);
 849:Drivers/CMSIS/Include/cmsis_gcc.h **** }
 850:Drivers/CMSIS/Include/cmsis_gcc.h **** 
 851:Drivers/CMSIS/Include/cmsis_gcc.h **** 
 852:Drivers/CMSIS/Include/cmsis_gcc.h **** /**
 853:Drivers/CMSIS/Include/cmsis_gcc.h ****   \brief   Load-Acquire Exclusive (16 bit)
 854:Drivers/CMSIS/Include/cmsis_gcc.h ****   \details Executes a LDAH exclusive instruction for 16 bit values.
 855:Drivers/CMSIS/Include/cmsis_gcc.h ****   \param [in]    ptr  Pointer to data
 856:Drivers/CMSIS/Include/cmsis_gcc.h ****   \return        value of type uint16_t at (*ptr)
 857:Drivers/CMSIS/Include/cmsis_gcc.h ****  */
 858:Drivers/CMSIS/Include/cmsis_gcc.h **** __STATIC_FORCEINLINE uint16_t __LDAEXH(volatile uint16_t *ptr)
 859:Drivers/CMSIS/Include/cmsis_gcc.h **** {
 860:Drivers/CMSIS/Include/cmsis_gcc.h ****     uint32_t result;
 861:Drivers/CMSIS/Include/cmsis_gcc.h **** 
 862:Drivers/CMSIS/Include/cmsis_gcc.h ****    __ASM volatile ("ldaexh %0, %1" : "=r" (result) : "Q" (*ptr) : "memory" );
 863:Drivers/CMSIS/Include/cmsis_gcc.h ****    return ((uint16_t) result);
 864:Drivers/CMSIS/Include/cmsis_gcc.h **** }
 865:Drivers/CMSIS/Include/cmsis_gcc.h **** 
 866:Drivers/CMSIS/Include/cmsis_gcc.h **** 
 867:Drivers/CMSIS/Include/cmsis_gcc.h **** /**
 868:Drivers/CMSIS/Include/cmsis_gcc.h ****   \brief   Load-Acquire Exclusive (32 bit)
 869:Drivers/CMSIS/Include/cmsis_gcc.h ****   \details Executes a LDA exclusive instruction for 32 bit values.
 870:Drivers/CMSIS/Include/cmsis_gcc.h ****   \param [in]    ptr  Pointer to data
 871:Drivers/CMSIS/Include/cmsis_gcc.h ****   \return        value of type uint32_t at (*ptr)
 872:Drivers/CMSIS/Include/cmsis_gcc.h ****  */
ARM GAS  /var/folders/ck/g3dcd5x55xs4107jgdl0snvr0000gn/T//cc4og9VU.s 			page 22


 873:Drivers/CMSIS/Include/cmsis_gcc.h **** __STATIC_FORCEINLINE uint32_t __LDAEX(volatile uint32_t *ptr)
 874:Drivers/CMSIS/Include/cmsis_gcc.h **** {
 875:Drivers/CMSIS/Include/cmsis_gcc.h ****     uint32_t result;
 876:Drivers/CMSIS/Include/cmsis_gcc.h **** 
 877:Drivers/CMSIS/Include/cmsis_gcc.h ****    __ASM volatile ("ldaex %0, %1" : "=r" (result) : "Q" (*ptr) : "memory" );
 878:Drivers/CMSIS/Include/cmsis_gcc.h ****    return(result);
 879:Drivers/CMSIS/Include/cmsis_gcc.h **** }
 880:Drivers/CMSIS/Include/cmsis_gcc.h **** 
 881:Drivers/CMSIS/Include/cmsis_gcc.h **** 
 882:Drivers/CMSIS/Include/cmsis_gcc.h **** /**
 883:Drivers/CMSIS/Include/cmsis_gcc.h ****   \brief   Store-Release Exclusive (8 bit)
 884:Drivers/CMSIS/Include/cmsis_gcc.h ****   \details Executes a STLB exclusive instruction for 8 bit values.
 885:Drivers/CMSIS/Include/cmsis_gcc.h ****   \param [in]  value  Value to store
 886:Drivers/CMSIS/Include/cmsis_gcc.h ****   \param [in]    ptr  Pointer to location
 887:Drivers/CMSIS/Include/cmsis_gcc.h ****   \return          0  Function succeeded
 888:Drivers/CMSIS/Include/cmsis_gcc.h ****   \return          1  Function failed
 889:Drivers/CMSIS/Include/cmsis_gcc.h ****  */
 890:Drivers/CMSIS/Include/cmsis_gcc.h **** __STATIC_FORCEINLINE uint32_t __STLEXB(uint8_t value, volatile uint8_t *ptr)
 891:Drivers/CMSIS/Include/cmsis_gcc.h **** {
 892:Drivers/CMSIS/Include/cmsis_gcc.h ****    uint32_t result;
 893:Drivers/CMSIS/Include/cmsis_gcc.h **** 
 894:Drivers/CMSIS/Include/cmsis_gcc.h ****    __ASM volatile ("stlexb %0, %2, %1" : "=&r" (result), "=Q" (*ptr) : "r" ((uint32_t)value) : "mem
 895:Drivers/CMSIS/Include/cmsis_gcc.h ****    return(result);
 896:Drivers/CMSIS/Include/cmsis_gcc.h **** }
 897:Drivers/CMSIS/Include/cmsis_gcc.h **** 
 898:Drivers/CMSIS/Include/cmsis_gcc.h **** 
 899:Drivers/CMSIS/Include/cmsis_gcc.h **** /**
 900:Drivers/CMSIS/Include/cmsis_gcc.h ****   \brief   Store-Release Exclusive (16 bit)
 901:Drivers/CMSIS/Include/cmsis_gcc.h ****   \details Executes a STLH exclusive instruction for 16 bit values.
 902:Drivers/CMSIS/Include/cmsis_gcc.h ****   \param [in]  value  Value to store
 903:Drivers/CMSIS/Include/cmsis_gcc.h ****   \param [in]    ptr  Pointer to location
 904:Drivers/CMSIS/Include/cmsis_gcc.h ****   \return          0  Function succeeded
 905:Drivers/CMSIS/Include/cmsis_gcc.h ****   \return          1  Function failed
 906:Drivers/CMSIS/Include/cmsis_gcc.h ****  */
 907:Drivers/CMSIS/Include/cmsis_gcc.h **** __STATIC_FORCEINLINE uint32_t __STLEXH(uint16_t value, volatile uint16_t *ptr)
 908:Drivers/CMSIS/Include/cmsis_gcc.h **** {
 909:Drivers/CMSIS/Include/cmsis_gcc.h ****    uint32_t result;
 910:Drivers/CMSIS/Include/cmsis_gcc.h **** 
 911:Drivers/CMSIS/Include/cmsis_gcc.h ****    __ASM volatile ("stlexh %0, %2, %1" : "=&r" (result), "=Q" (*ptr) : "r" ((uint32_t)value) : "mem
 912:Drivers/CMSIS/Include/cmsis_gcc.h ****    return(result);
 913:Drivers/CMSIS/Include/cmsis_gcc.h **** }
 914:Drivers/CMSIS/Include/cmsis_gcc.h **** 
 915:Drivers/CMSIS/Include/cmsis_gcc.h **** 
 916:Drivers/CMSIS/Include/cmsis_gcc.h **** /**
 917:Drivers/CMSIS/Include/cmsis_gcc.h ****   \brief   Store-Release Exclusive (32 bit)
 918:Drivers/CMSIS/Include/cmsis_gcc.h ****   \details Executes a STL exclusive instruction for 32 bit values.
 919:Drivers/CMSIS/Include/cmsis_gcc.h ****   \param [in]  value  Value to store
 920:Drivers/CMSIS/Include/cmsis_gcc.h ****   \param [in]    ptr  Pointer to location
 921:Drivers/CMSIS/Include/cmsis_gcc.h ****   \return          0  Function succeeded
 922:Drivers/CMSIS/Include/cmsis_gcc.h ****   \return          1  Function failed
 923:Drivers/CMSIS/Include/cmsis_gcc.h ****  */
 924:Drivers/CMSIS/Include/cmsis_gcc.h **** __STATIC_FORCEINLINE uint32_t __STLEX(uint32_t value, volatile uint32_t *ptr)
 925:Drivers/CMSIS/Include/cmsis_gcc.h **** {
 926:Drivers/CMSIS/Include/cmsis_gcc.h ****    uint32_t result;
 927:Drivers/CMSIS/Include/cmsis_gcc.h **** 
 928:Drivers/CMSIS/Include/cmsis_gcc.h ****    __ASM volatile ("stlex %0, %2, %1" : "=&r" (result), "=Q" (*ptr) : "r" ((uint32_t)value) : "memo
 929:Drivers/CMSIS/Include/cmsis_gcc.h ****    return(result);
ARM GAS  /var/folders/ck/g3dcd5x55xs4107jgdl0snvr0000gn/T//cc4og9VU.s 			page 23


 930:Drivers/CMSIS/Include/cmsis_gcc.h **** }
 931:Drivers/CMSIS/Include/cmsis_gcc.h **** 
 932:Drivers/CMSIS/Include/cmsis_gcc.h **** #endif /* ((defined (__ARM_ARCH_8M_MAIN__ ) && (__ARM_ARCH_8M_MAIN__ == 1)) || \
 933:Drivers/CMSIS/Include/cmsis_gcc.h ****            (defined (__ARM_ARCH_8M_BASE__ ) && (__ARM_ARCH_8M_BASE__ == 1))    ) */
 934:Drivers/CMSIS/Include/cmsis_gcc.h **** 
 935:Drivers/CMSIS/Include/cmsis_gcc.h **** /*@}*/ /* end of group CMSIS_Core_InstructionInterface */
 936:Drivers/CMSIS/Include/cmsis_gcc.h **** 
 937:Drivers/CMSIS/Include/cmsis_gcc.h **** 
 938:Drivers/CMSIS/Include/cmsis_gcc.h **** /* ###########################  Core Function Access  ########################### */
 939:Drivers/CMSIS/Include/cmsis_gcc.h **** /** \ingroup  CMSIS_Core_FunctionInterface
 940:Drivers/CMSIS/Include/cmsis_gcc.h ****     \defgroup CMSIS_Core_RegAccFunctions CMSIS Core Register Access Functions
 941:Drivers/CMSIS/Include/cmsis_gcc.h ****   @{
 942:Drivers/CMSIS/Include/cmsis_gcc.h ****  */
 943:Drivers/CMSIS/Include/cmsis_gcc.h **** 
 944:Drivers/CMSIS/Include/cmsis_gcc.h **** /**
 945:Drivers/CMSIS/Include/cmsis_gcc.h ****   \brief   Enable IRQ Interrupts
 946:Drivers/CMSIS/Include/cmsis_gcc.h ****   \details Enables IRQ interrupts by clearing special-purpose register PRIMASK.
 947:Drivers/CMSIS/Include/cmsis_gcc.h ****            Can only be executed in Privileged modes.
 948:Drivers/CMSIS/Include/cmsis_gcc.h ****  */
 949:Drivers/CMSIS/Include/cmsis_gcc.h **** __STATIC_FORCEINLINE void __enable_irq(void)
 950:Drivers/CMSIS/Include/cmsis_gcc.h **** {
 951:Drivers/CMSIS/Include/cmsis_gcc.h ****   __ASM volatile ("cpsie i" : : : "memory");
 952:Drivers/CMSIS/Include/cmsis_gcc.h **** }
 953:Drivers/CMSIS/Include/cmsis_gcc.h **** 
 954:Drivers/CMSIS/Include/cmsis_gcc.h **** 
 955:Drivers/CMSIS/Include/cmsis_gcc.h **** /**
 956:Drivers/CMSIS/Include/cmsis_gcc.h ****   \brief   Disable IRQ Interrupts
 957:Drivers/CMSIS/Include/cmsis_gcc.h ****   \details Disables IRQ interrupts by setting special-purpose register PRIMASK.
 958:Drivers/CMSIS/Include/cmsis_gcc.h ****            Can only be executed in Privileged modes.
 959:Drivers/CMSIS/Include/cmsis_gcc.h ****  */
 960:Drivers/CMSIS/Include/cmsis_gcc.h **** __STATIC_FORCEINLINE void __disable_irq(void)
 961:Drivers/CMSIS/Include/cmsis_gcc.h **** {
 962:Drivers/CMSIS/Include/cmsis_gcc.h ****   __ASM volatile ("cpsid i" : : : "memory");
 963:Drivers/CMSIS/Include/cmsis_gcc.h **** }
 964:Drivers/CMSIS/Include/cmsis_gcc.h **** 
 965:Drivers/CMSIS/Include/cmsis_gcc.h **** 
 966:Drivers/CMSIS/Include/cmsis_gcc.h **** /**
 967:Drivers/CMSIS/Include/cmsis_gcc.h ****   \brief   Get Control Register
 968:Drivers/CMSIS/Include/cmsis_gcc.h ****   \details Returns the content of the Control Register.
 969:Drivers/CMSIS/Include/cmsis_gcc.h ****   \return               Control Register value
 970:Drivers/CMSIS/Include/cmsis_gcc.h ****  */
 971:Drivers/CMSIS/Include/cmsis_gcc.h **** __STATIC_FORCEINLINE uint32_t __get_CONTROL(void)
 972:Drivers/CMSIS/Include/cmsis_gcc.h **** {
 973:Drivers/CMSIS/Include/cmsis_gcc.h ****   uint32_t result;
 974:Drivers/CMSIS/Include/cmsis_gcc.h **** 
 975:Drivers/CMSIS/Include/cmsis_gcc.h ****   __ASM volatile ("MRS %0, control" : "=r" (result) );
 976:Drivers/CMSIS/Include/cmsis_gcc.h ****   return(result);
 977:Drivers/CMSIS/Include/cmsis_gcc.h **** }
 978:Drivers/CMSIS/Include/cmsis_gcc.h **** 
 979:Drivers/CMSIS/Include/cmsis_gcc.h **** 
 980:Drivers/CMSIS/Include/cmsis_gcc.h **** #if (defined (__ARM_FEATURE_CMSE ) && (__ARM_FEATURE_CMSE == 3))
 981:Drivers/CMSIS/Include/cmsis_gcc.h **** /**
 982:Drivers/CMSIS/Include/cmsis_gcc.h ****   \brief   Get Control Register (non-secure)
 983:Drivers/CMSIS/Include/cmsis_gcc.h ****   \details Returns the content of the non-secure Control Register when in secure mode.
 984:Drivers/CMSIS/Include/cmsis_gcc.h ****   \return               non-secure Control Register value
 985:Drivers/CMSIS/Include/cmsis_gcc.h ****  */
 986:Drivers/CMSIS/Include/cmsis_gcc.h **** __STATIC_FORCEINLINE uint32_t __TZ_get_CONTROL_NS(void)
ARM GAS  /var/folders/ck/g3dcd5x55xs4107jgdl0snvr0000gn/T//cc4og9VU.s 			page 24


 987:Drivers/CMSIS/Include/cmsis_gcc.h **** {
 988:Drivers/CMSIS/Include/cmsis_gcc.h ****   uint32_t result;
 989:Drivers/CMSIS/Include/cmsis_gcc.h **** 
 990:Drivers/CMSIS/Include/cmsis_gcc.h ****   __ASM volatile ("MRS %0, control_ns" : "=r" (result) );
 991:Drivers/CMSIS/Include/cmsis_gcc.h ****   return(result);
 992:Drivers/CMSIS/Include/cmsis_gcc.h **** }
 993:Drivers/CMSIS/Include/cmsis_gcc.h **** #endif
 994:Drivers/CMSIS/Include/cmsis_gcc.h **** 
 995:Drivers/CMSIS/Include/cmsis_gcc.h **** 
 996:Drivers/CMSIS/Include/cmsis_gcc.h **** /**
 997:Drivers/CMSIS/Include/cmsis_gcc.h ****   \brief   Set Control Register
 998:Drivers/CMSIS/Include/cmsis_gcc.h ****   \details Writes the given value to the Control Register.
 999:Drivers/CMSIS/Include/cmsis_gcc.h ****   \param [in]    control  Control Register value to set
1000:Drivers/CMSIS/Include/cmsis_gcc.h ****  */
1001:Drivers/CMSIS/Include/cmsis_gcc.h **** __STATIC_FORCEINLINE void __set_CONTROL(uint32_t control)
1002:Drivers/CMSIS/Include/cmsis_gcc.h **** {
1003:Drivers/CMSIS/Include/cmsis_gcc.h ****   __ASM volatile ("MSR control, %0" : : "r" (control) : "memory");
1004:Drivers/CMSIS/Include/cmsis_gcc.h ****   __ISB();
1005:Drivers/CMSIS/Include/cmsis_gcc.h **** }
1006:Drivers/CMSIS/Include/cmsis_gcc.h **** 
1007:Drivers/CMSIS/Include/cmsis_gcc.h **** 
1008:Drivers/CMSIS/Include/cmsis_gcc.h **** #if (defined (__ARM_FEATURE_CMSE ) && (__ARM_FEATURE_CMSE == 3))
1009:Drivers/CMSIS/Include/cmsis_gcc.h **** /**
1010:Drivers/CMSIS/Include/cmsis_gcc.h ****   \brief   Set Control Register (non-secure)
1011:Drivers/CMSIS/Include/cmsis_gcc.h ****   \details Writes the given value to the non-secure Control Register when in secure state.
1012:Drivers/CMSIS/Include/cmsis_gcc.h ****   \param [in]    control  Control Register value to set
1013:Drivers/CMSIS/Include/cmsis_gcc.h ****  */
1014:Drivers/CMSIS/Include/cmsis_gcc.h **** __STATIC_FORCEINLINE void __TZ_set_CONTROL_NS(uint32_t control)
1015:Drivers/CMSIS/Include/cmsis_gcc.h **** {
1016:Drivers/CMSIS/Include/cmsis_gcc.h ****   __ASM volatile ("MSR control_ns, %0" : : "r" (control) : "memory");
1017:Drivers/CMSIS/Include/cmsis_gcc.h ****   __ISB();
1018:Drivers/CMSIS/Include/cmsis_gcc.h **** }
1019:Drivers/CMSIS/Include/cmsis_gcc.h **** #endif
1020:Drivers/CMSIS/Include/cmsis_gcc.h **** 
1021:Drivers/CMSIS/Include/cmsis_gcc.h **** 
1022:Drivers/CMSIS/Include/cmsis_gcc.h **** /**
1023:Drivers/CMSIS/Include/cmsis_gcc.h ****   \brief   Get IPSR Register
1024:Drivers/CMSIS/Include/cmsis_gcc.h ****   \details Returns the content of the IPSR Register.
1025:Drivers/CMSIS/Include/cmsis_gcc.h ****   \return               IPSR Register value
1026:Drivers/CMSIS/Include/cmsis_gcc.h ****  */
1027:Drivers/CMSIS/Include/cmsis_gcc.h **** __STATIC_FORCEINLINE uint32_t __get_IPSR(void)
1028:Drivers/CMSIS/Include/cmsis_gcc.h **** {
1029:Drivers/CMSIS/Include/cmsis_gcc.h ****   uint32_t result;
1030:Drivers/CMSIS/Include/cmsis_gcc.h **** 
1031:Drivers/CMSIS/Include/cmsis_gcc.h ****   __ASM volatile ("MRS %0, ipsr" : "=r" (result) );
1032:Drivers/CMSIS/Include/cmsis_gcc.h ****   return(result);
1033:Drivers/CMSIS/Include/cmsis_gcc.h **** }
1034:Drivers/CMSIS/Include/cmsis_gcc.h **** 
1035:Drivers/CMSIS/Include/cmsis_gcc.h **** 
1036:Drivers/CMSIS/Include/cmsis_gcc.h **** /**
1037:Drivers/CMSIS/Include/cmsis_gcc.h ****   \brief   Get APSR Register
1038:Drivers/CMSIS/Include/cmsis_gcc.h ****   \details Returns the content of the APSR Register.
1039:Drivers/CMSIS/Include/cmsis_gcc.h ****   \return               APSR Register value
1040:Drivers/CMSIS/Include/cmsis_gcc.h ****  */
1041:Drivers/CMSIS/Include/cmsis_gcc.h **** __STATIC_FORCEINLINE uint32_t __get_APSR(void)
1042:Drivers/CMSIS/Include/cmsis_gcc.h **** {
1043:Drivers/CMSIS/Include/cmsis_gcc.h ****   uint32_t result;
ARM GAS  /var/folders/ck/g3dcd5x55xs4107jgdl0snvr0000gn/T//cc4og9VU.s 			page 25


1044:Drivers/CMSIS/Include/cmsis_gcc.h **** 
1045:Drivers/CMSIS/Include/cmsis_gcc.h ****   __ASM volatile ("MRS %0, apsr" : "=r" (result) );
1046:Drivers/CMSIS/Include/cmsis_gcc.h ****   return(result);
1047:Drivers/CMSIS/Include/cmsis_gcc.h **** }
1048:Drivers/CMSIS/Include/cmsis_gcc.h **** 
1049:Drivers/CMSIS/Include/cmsis_gcc.h **** 
1050:Drivers/CMSIS/Include/cmsis_gcc.h **** /**
1051:Drivers/CMSIS/Include/cmsis_gcc.h ****   \brief   Get xPSR Register
1052:Drivers/CMSIS/Include/cmsis_gcc.h ****   \details Returns the content of the xPSR Register.
1053:Drivers/CMSIS/Include/cmsis_gcc.h ****   \return               xPSR Register value
1054:Drivers/CMSIS/Include/cmsis_gcc.h ****  */
1055:Drivers/CMSIS/Include/cmsis_gcc.h **** __STATIC_FORCEINLINE uint32_t __get_xPSR(void)
1056:Drivers/CMSIS/Include/cmsis_gcc.h **** {
1057:Drivers/CMSIS/Include/cmsis_gcc.h ****   uint32_t result;
1058:Drivers/CMSIS/Include/cmsis_gcc.h **** 
1059:Drivers/CMSIS/Include/cmsis_gcc.h ****   __ASM volatile ("MRS %0, xpsr" : "=r" (result) );
1060:Drivers/CMSIS/Include/cmsis_gcc.h ****   return(result);
1061:Drivers/CMSIS/Include/cmsis_gcc.h **** }
1062:Drivers/CMSIS/Include/cmsis_gcc.h **** 
1063:Drivers/CMSIS/Include/cmsis_gcc.h **** 
1064:Drivers/CMSIS/Include/cmsis_gcc.h **** /**
1065:Drivers/CMSIS/Include/cmsis_gcc.h ****   \brief   Get Process Stack Pointer
1066:Drivers/CMSIS/Include/cmsis_gcc.h ****   \details Returns the current value of the Process Stack Pointer (PSP).
1067:Drivers/CMSIS/Include/cmsis_gcc.h ****   \return               PSP Register value
1068:Drivers/CMSIS/Include/cmsis_gcc.h ****  */
1069:Drivers/CMSIS/Include/cmsis_gcc.h **** __STATIC_FORCEINLINE uint32_t __get_PSP(void)
1070:Drivers/CMSIS/Include/cmsis_gcc.h **** {
1071:Drivers/CMSIS/Include/cmsis_gcc.h ****   uint32_t result;
1072:Drivers/CMSIS/Include/cmsis_gcc.h **** 
1073:Drivers/CMSIS/Include/cmsis_gcc.h ****   __ASM volatile ("MRS %0, psp"  : "=r" (result) );
1074:Drivers/CMSIS/Include/cmsis_gcc.h ****   return(result);
1075:Drivers/CMSIS/Include/cmsis_gcc.h **** }
1076:Drivers/CMSIS/Include/cmsis_gcc.h **** 
1077:Drivers/CMSIS/Include/cmsis_gcc.h **** 
1078:Drivers/CMSIS/Include/cmsis_gcc.h **** #if (defined (__ARM_FEATURE_CMSE ) && (__ARM_FEATURE_CMSE == 3))
1079:Drivers/CMSIS/Include/cmsis_gcc.h **** /**
1080:Drivers/CMSIS/Include/cmsis_gcc.h ****   \brief   Get Process Stack Pointer (non-secure)
1081:Drivers/CMSIS/Include/cmsis_gcc.h ****   \details Returns the current value of the non-secure Process Stack Pointer (PSP) when in secure s
1082:Drivers/CMSIS/Include/cmsis_gcc.h ****   \return               PSP Register value
1083:Drivers/CMSIS/Include/cmsis_gcc.h ****  */
1084:Drivers/CMSIS/Include/cmsis_gcc.h **** __STATIC_FORCEINLINE uint32_t __TZ_get_PSP_NS(void)
1085:Drivers/CMSIS/Include/cmsis_gcc.h **** {
1086:Drivers/CMSIS/Include/cmsis_gcc.h ****   uint32_t result;
1087:Drivers/CMSIS/Include/cmsis_gcc.h **** 
1088:Drivers/CMSIS/Include/cmsis_gcc.h ****   __ASM volatile ("MRS %0, psp_ns"  : "=r" (result) );
1089:Drivers/CMSIS/Include/cmsis_gcc.h ****   return(result);
1090:Drivers/CMSIS/Include/cmsis_gcc.h **** }
1091:Drivers/CMSIS/Include/cmsis_gcc.h **** #endif
1092:Drivers/CMSIS/Include/cmsis_gcc.h **** 
1093:Drivers/CMSIS/Include/cmsis_gcc.h **** 
1094:Drivers/CMSIS/Include/cmsis_gcc.h **** /**
1095:Drivers/CMSIS/Include/cmsis_gcc.h ****   \brief   Set Process Stack Pointer
1096:Drivers/CMSIS/Include/cmsis_gcc.h ****   \details Assigns the given value to the Process Stack Pointer (PSP).
1097:Drivers/CMSIS/Include/cmsis_gcc.h ****   \param [in]    topOfProcStack  Process Stack Pointer value to set
1098:Drivers/CMSIS/Include/cmsis_gcc.h ****  */
1099:Drivers/CMSIS/Include/cmsis_gcc.h **** __STATIC_FORCEINLINE void __set_PSP(uint32_t topOfProcStack)
1100:Drivers/CMSIS/Include/cmsis_gcc.h **** {
ARM GAS  /var/folders/ck/g3dcd5x55xs4107jgdl0snvr0000gn/T//cc4og9VU.s 			page 26


1101:Drivers/CMSIS/Include/cmsis_gcc.h ****   __ASM volatile ("MSR psp, %0" : : "r" (topOfProcStack) : );
1102:Drivers/CMSIS/Include/cmsis_gcc.h **** }
1103:Drivers/CMSIS/Include/cmsis_gcc.h **** 
1104:Drivers/CMSIS/Include/cmsis_gcc.h **** 
1105:Drivers/CMSIS/Include/cmsis_gcc.h **** #if (defined (__ARM_FEATURE_CMSE ) && (__ARM_FEATURE_CMSE == 3))
1106:Drivers/CMSIS/Include/cmsis_gcc.h **** /**
1107:Drivers/CMSIS/Include/cmsis_gcc.h ****   \brief   Set Process Stack Pointer (non-secure)
1108:Drivers/CMSIS/Include/cmsis_gcc.h ****   \details Assigns the given value to the non-secure Process Stack Pointer (PSP) when in secure sta
1109:Drivers/CMSIS/Include/cmsis_gcc.h ****   \param [in]    topOfProcStack  Process Stack Pointer value to set
1110:Drivers/CMSIS/Include/cmsis_gcc.h ****  */
1111:Drivers/CMSIS/Include/cmsis_gcc.h **** __STATIC_FORCEINLINE void __TZ_set_PSP_NS(uint32_t topOfProcStack)
1112:Drivers/CMSIS/Include/cmsis_gcc.h **** {
1113:Drivers/CMSIS/Include/cmsis_gcc.h ****   __ASM volatile ("MSR psp_ns, %0" : : "r" (topOfProcStack) : );
1114:Drivers/CMSIS/Include/cmsis_gcc.h **** }
1115:Drivers/CMSIS/Include/cmsis_gcc.h **** #endif
1116:Drivers/CMSIS/Include/cmsis_gcc.h **** 
1117:Drivers/CMSIS/Include/cmsis_gcc.h **** 
1118:Drivers/CMSIS/Include/cmsis_gcc.h **** /**
1119:Drivers/CMSIS/Include/cmsis_gcc.h ****   \brief   Get Main Stack Pointer
1120:Drivers/CMSIS/Include/cmsis_gcc.h ****   \details Returns the current value of the Main Stack Pointer (MSP).
1121:Drivers/CMSIS/Include/cmsis_gcc.h ****   \return               MSP Register value
1122:Drivers/CMSIS/Include/cmsis_gcc.h ****  */
1123:Drivers/CMSIS/Include/cmsis_gcc.h **** __STATIC_FORCEINLINE uint32_t __get_MSP(void)
1124:Drivers/CMSIS/Include/cmsis_gcc.h **** {
1125:Drivers/CMSIS/Include/cmsis_gcc.h ****   uint32_t result;
1126:Drivers/CMSIS/Include/cmsis_gcc.h **** 
1127:Drivers/CMSIS/Include/cmsis_gcc.h ****   __ASM volatile ("MRS %0, msp" : "=r" (result) );
1128:Drivers/CMSIS/Include/cmsis_gcc.h ****   return(result);
1129:Drivers/CMSIS/Include/cmsis_gcc.h **** }
1130:Drivers/CMSIS/Include/cmsis_gcc.h **** 
1131:Drivers/CMSIS/Include/cmsis_gcc.h **** 
1132:Drivers/CMSIS/Include/cmsis_gcc.h **** #if (defined (__ARM_FEATURE_CMSE ) && (__ARM_FEATURE_CMSE == 3))
1133:Drivers/CMSIS/Include/cmsis_gcc.h **** /**
1134:Drivers/CMSIS/Include/cmsis_gcc.h ****   \brief   Get Main Stack Pointer (non-secure)
1135:Drivers/CMSIS/Include/cmsis_gcc.h ****   \details Returns the current value of the non-secure Main Stack Pointer (MSP) when in secure stat
1136:Drivers/CMSIS/Include/cmsis_gcc.h ****   \return               MSP Register value
1137:Drivers/CMSIS/Include/cmsis_gcc.h ****  */
1138:Drivers/CMSIS/Include/cmsis_gcc.h **** __STATIC_FORCEINLINE uint32_t __TZ_get_MSP_NS(void)
1139:Drivers/CMSIS/Include/cmsis_gcc.h **** {
1140:Drivers/CMSIS/Include/cmsis_gcc.h ****   uint32_t result;
1141:Drivers/CMSIS/Include/cmsis_gcc.h **** 
1142:Drivers/CMSIS/Include/cmsis_gcc.h ****   __ASM volatile ("MRS %0, msp_ns" : "=r" (result) );
1143:Drivers/CMSIS/Include/cmsis_gcc.h ****   return(result);
1144:Drivers/CMSIS/Include/cmsis_gcc.h **** }
1145:Drivers/CMSIS/Include/cmsis_gcc.h **** #endif
1146:Drivers/CMSIS/Include/cmsis_gcc.h **** 
1147:Drivers/CMSIS/Include/cmsis_gcc.h **** 
1148:Drivers/CMSIS/Include/cmsis_gcc.h **** /**
1149:Drivers/CMSIS/Include/cmsis_gcc.h ****   \brief   Set Main Stack Pointer
1150:Drivers/CMSIS/Include/cmsis_gcc.h ****   \details Assigns the given value to the Main Stack Pointer (MSP).
1151:Drivers/CMSIS/Include/cmsis_gcc.h ****   \param [in]    topOfMainStack  Main Stack Pointer value to set
1152:Drivers/CMSIS/Include/cmsis_gcc.h ****  */
1153:Drivers/CMSIS/Include/cmsis_gcc.h **** __STATIC_FORCEINLINE void __set_MSP(uint32_t topOfMainStack)
1154:Drivers/CMSIS/Include/cmsis_gcc.h **** {
1155:Drivers/CMSIS/Include/cmsis_gcc.h ****   __ASM volatile ("MSR msp, %0" : : "r" (topOfMainStack) : );
1156:Drivers/CMSIS/Include/cmsis_gcc.h **** }
1157:Drivers/CMSIS/Include/cmsis_gcc.h **** 
ARM GAS  /var/folders/ck/g3dcd5x55xs4107jgdl0snvr0000gn/T//cc4og9VU.s 			page 27


1158:Drivers/CMSIS/Include/cmsis_gcc.h **** 
1159:Drivers/CMSIS/Include/cmsis_gcc.h **** #if (defined (__ARM_FEATURE_CMSE ) && (__ARM_FEATURE_CMSE == 3))
1160:Drivers/CMSIS/Include/cmsis_gcc.h **** /**
1161:Drivers/CMSIS/Include/cmsis_gcc.h ****   \brief   Set Main Stack Pointer (non-secure)
1162:Drivers/CMSIS/Include/cmsis_gcc.h ****   \details Assigns the given value to the non-secure Main Stack Pointer (MSP) when in secure state.
1163:Drivers/CMSIS/Include/cmsis_gcc.h ****   \param [in]    topOfMainStack  Main Stack Pointer value to set
1164:Drivers/CMSIS/Include/cmsis_gcc.h ****  */
1165:Drivers/CMSIS/Include/cmsis_gcc.h **** __STATIC_FORCEINLINE void __TZ_set_MSP_NS(uint32_t topOfMainStack)
1166:Drivers/CMSIS/Include/cmsis_gcc.h **** {
1167:Drivers/CMSIS/Include/cmsis_gcc.h ****   __ASM volatile ("MSR msp_ns, %0" : : "r" (topOfMainStack) : );
1168:Drivers/CMSIS/Include/cmsis_gcc.h **** }
1169:Drivers/CMSIS/Include/cmsis_gcc.h **** #endif
1170:Drivers/CMSIS/Include/cmsis_gcc.h **** 
1171:Drivers/CMSIS/Include/cmsis_gcc.h **** 
1172:Drivers/CMSIS/Include/cmsis_gcc.h **** #if (defined (__ARM_FEATURE_CMSE ) && (__ARM_FEATURE_CMSE == 3))
1173:Drivers/CMSIS/Include/cmsis_gcc.h **** /**
1174:Drivers/CMSIS/Include/cmsis_gcc.h ****   \brief   Get Stack Pointer (non-secure)
1175:Drivers/CMSIS/Include/cmsis_gcc.h ****   \details Returns the current value of the non-secure Stack Pointer (SP) when in secure state.
1176:Drivers/CMSIS/Include/cmsis_gcc.h ****   \return               SP Register value
1177:Drivers/CMSIS/Include/cmsis_gcc.h ****  */
1178:Drivers/CMSIS/Include/cmsis_gcc.h **** __STATIC_FORCEINLINE uint32_t __TZ_get_SP_NS(void)
1179:Drivers/CMSIS/Include/cmsis_gcc.h **** {
1180:Drivers/CMSIS/Include/cmsis_gcc.h ****   uint32_t result;
1181:Drivers/CMSIS/Include/cmsis_gcc.h **** 
1182:Drivers/CMSIS/Include/cmsis_gcc.h ****   __ASM volatile ("MRS %0, sp_ns" : "=r" (result) );
1183:Drivers/CMSIS/Include/cmsis_gcc.h ****   return(result);
1184:Drivers/CMSIS/Include/cmsis_gcc.h **** }
1185:Drivers/CMSIS/Include/cmsis_gcc.h **** 
1186:Drivers/CMSIS/Include/cmsis_gcc.h **** 
1187:Drivers/CMSIS/Include/cmsis_gcc.h **** /**
1188:Drivers/CMSIS/Include/cmsis_gcc.h ****   \brief   Set Stack Pointer (non-secure)
1189:Drivers/CMSIS/Include/cmsis_gcc.h ****   \details Assigns the given value to the non-secure Stack Pointer (SP) when in secure state.
1190:Drivers/CMSIS/Include/cmsis_gcc.h ****   \param [in]    topOfStack  Stack Pointer value to set
1191:Drivers/CMSIS/Include/cmsis_gcc.h ****  */
1192:Drivers/CMSIS/Include/cmsis_gcc.h **** __STATIC_FORCEINLINE void __TZ_set_SP_NS(uint32_t topOfStack)
1193:Drivers/CMSIS/Include/cmsis_gcc.h **** {
1194:Drivers/CMSIS/Include/cmsis_gcc.h ****   __ASM volatile ("MSR sp_ns, %0" : : "r" (topOfStack) : );
1195:Drivers/CMSIS/Include/cmsis_gcc.h **** }
1196:Drivers/CMSIS/Include/cmsis_gcc.h **** #endif
1197:Drivers/CMSIS/Include/cmsis_gcc.h **** 
1198:Drivers/CMSIS/Include/cmsis_gcc.h **** 
1199:Drivers/CMSIS/Include/cmsis_gcc.h **** /**
1200:Drivers/CMSIS/Include/cmsis_gcc.h ****   \brief   Get Priority Mask
1201:Drivers/CMSIS/Include/cmsis_gcc.h ****   \details Returns the current state of the priority mask bit from the Priority Mask Register.
1202:Drivers/CMSIS/Include/cmsis_gcc.h ****   \return               Priority Mask value
1203:Drivers/CMSIS/Include/cmsis_gcc.h ****  */
1204:Drivers/CMSIS/Include/cmsis_gcc.h **** __STATIC_FORCEINLINE uint32_t __get_PRIMASK(void)
1205:Drivers/CMSIS/Include/cmsis_gcc.h **** {
1206:Drivers/CMSIS/Include/cmsis_gcc.h ****   uint32_t result;
1207:Drivers/CMSIS/Include/cmsis_gcc.h **** 
1208:Drivers/CMSIS/Include/cmsis_gcc.h ****   __ASM volatile ("MRS %0, primask" : "=r" (result) );
1209:Drivers/CMSIS/Include/cmsis_gcc.h ****   return(result);
1210:Drivers/CMSIS/Include/cmsis_gcc.h **** }
1211:Drivers/CMSIS/Include/cmsis_gcc.h **** 
1212:Drivers/CMSIS/Include/cmsis_gcc.h **** 
1213:Drivers/CMSIS/Include/cmsis_gcc.h **** #if (defined (__ARM_FEATURE_CMSE ) && (__ARM_FEATURE_CMSE == 3))
1214:Drivers/CMSIS/Include/cmsis_gcc.h **** /**
ARM GAS  /var/folders/ck/g3dcd5x55xs4107jgdl0snvr0000gn/T//cc4og9VU.s 			page 28


1215:Drivers/CMSIS/Include/cmsis_gcc.h ****   \brief   Get Priority Mask (non-secure)
1216:Drivers/CMSIS/Include/cmsis_gcc.h ****   \details Returns the current state of the non-secure priority mask bit from the Priority Mask Reg
1217:Drivers/CMSIS/Include/cmsis_gcc.h ****   \return               Priority Mask value
1218:Drivers/CMSIS/Include/cmsis_gcc.h ****  */
1219:Drivers/CMSIS/Include/cmsis_gcc.h **** __STATIC_FORCEINLINE uint32_t __TZ_get_PRIMASK_NS(void)
1220:Drivers/CMSIS/Include/cmsis_gcc.h **** {
1221:Drivers/CMSIS/Include/cmsis_gcc.h ****   uint32_t result;
1222:Drivers/CMSIS/Include/cmsis_gcc.h **** 
1223:Drivers/CMSIS/Include/cmsis_gcc.h ****   __ASM volatile ("MRS %0, primask_ns" : "=r" (result) );
1224:Drivers/CMSIS/Include/cmsis_gcc.h ****   return(result);
1225:Drivers/CMSIS/Include/cmsis_gcc.h **** }
1226:Drivers/CMSIS/Include/cmsis_gcc.h **** #endif
1227:Drivers/CMSIS/Include/cmsis_gcc.h **** 
1228:Drivers/CMSIS/Include/cmsis_gcc.h **** 
1229:Drivers/CMSIS/Include/cmsis_gcc.h **** /**
1230:Drivers/CMSIS/Include/cmsis_gcc.h ****   \brief   Set Priority Mask
1231:Drivers/CMSIS/Include/cmsis_gcc.h ****   \details Assigns the given value to the Priority Mask Register.
1232:Drivers/CMSIS/Include/cmsis_gcc.h ****   \param [in]    priMask  Priority Mask
1233:Drivers/CMSIS/Include/cmsis_gcc.h ****  */
1234:Drivers/CMSIS/Include/cmsis_gcc.h **** __STATIC_FORCEINLINE void __set_PRIMASK(uint32_t priMask)
1235:Drivers/CMSIS/Include/cmsis_gcc.h **** {
1236:Drivers/CMSIS/Include/cmsis_gcc.h ****   __ASM volatile ("MSR primask, %0" : : "r" (priMask) : "memory");
1237:Drivers/CMSIS/Include/cmsis_gcc.h **** }
1238:Drivers/CMSIS/Include/cmsis_gcc.h **** 
1239:Drivers/CMSIS/Include/cmsis_gcc.h **** 
1240:Drivers/CMSIS/Include/cmsis_gcc.h **** #if (defined (__ARM_FEATURE_CMSE ) && (__ARM_FEATURE_CMSE == 3))
1241:Drivers/CMSIS/Include/cmsis_gcc.h **** /**
1242:Drivers/CMSIS/Include/cmsis_gcc.h ****   \brief   Set Priority Mask (non-secure)
1243:Drivers/CMSIS/Include/cmsis_gcc.h ****   \details Assigns the given value to the non-secure Priority Mask Register when in secure state.
1244:Drivers/CMSIS/Include/cmsis_gcc.h ****   \param [in]    priMask  Priority Mask
1245:Drivers/CMSIS/Include/cmsis_gcc.h ****  */
1246:Drivers/CMSIS/Include/cmsis_gcc.h **** __STATIC_FORCEINLINE void __TZ_set_PRIMASK_NS(uint32_t priMask)
1247:Drivers/CMSIS/Include/cmsis_gcc.h **** {
1248:Drivers/CMSIS/Include/cmsis_gcc.h ****   __ASM volatile ("MSR primask_ns, %0" : : "r" (priMask) : "memory");
1249:Drivers/CMSIS/Include/cmsis_gcc.h **** }
1250:Drivers/CMSIS/Include/cmsis_gcc.h **** #endif
1251:Drivers/CMSIS/Include/cmsis_gcc.h **** 
1252:Drivers/CMSIS/Include/cmsis_gcc.h **** 
1253:Drivers/CMSIS/Include/cmsis_gcc.h **** #if ((defined (__ARM_ARCH_7M__      ) && (__ARM_ARCH_7M__      == 1)) || \
1254:Drivers/CMSIS/Include/cmsis_gcc.h ****      (defined (__ARM_ARCH_7EM__     ) && (__ARM_ARCH_7EM__     == 1)) || \
1255:Drivers/CMSIS/Include/cmsis_gcc.h ****      (defined (__ARM_ARCH_8M_MAIN__ ) && (__ARM_ARCH_8M_MAIN__ == 1))    )
1256:Drivers/CMSIS/Include/cmsis_gcc.h **** /**
1257:Drivers/CMSIS/Include/cmsis_gcc.h ****   \brief   Enable FIQ
1258:Drivers/CMSIS/Include/cmsis_gcc.h ****   \details Enables FIQ interrupts by clearing special-purpose register FAULTMASK.
1259:Drivers/CMSIS/Include/cmsis_gcc.h ****            Can only be executed in Privileged modes.
1260:Drivers/CMSIS/Include/cmsis_gcc.h ****  */
1261:Drivers/CMSIS/Include/cmsis_gcc.h **** __STATIC_FORCEINLINE void __enable_fault_irq(void)
1262:Drivers/CMSIS/Include/cmsis_gcc.h **** {
1263:Drivers/CMSIS/Include/cmsis_gcc.h ****   __ASM volatile ("cpsie f" : : : "memory");
1264:Drivers/CMSIS/Include/cmsis_gcc.h **** }
1265:Drivers/CMSIS/Include/cmsis_gcc.h **** 
1266:Drivers/CMSIS/Include/cmsis_gcc.h **** 
1267:Drivers/CMSIS/Include/cmsis_gcc.h **** /**
1268:Drivers/CMSIS/Include/cmsis_gcc.h ****   \brief   Disable FIQ
1269:Drivers/CMSIS/Include/cmsis_gcc.h ****   \details Disables FIQ interrupts by setting special-purpose register FAULTMASK.
1270:Drivers/CMSIS/Include/cmsis_gcc.h ****            Can only be executed in Privileged modes.
1271:Drivers/CMSIS/Include/cmsis_gcc.h ****  */
ARM GAS  /var/folders/ck/g3dcd5x55xs4107jgdl0snvr0000gn/T//cc4og9VU.s 			page 29


1272:Drivers/CMSIS/Include/cmsis_gcc.h **** __STATIC_FORCEINLINE void __disable_fault_irq(void)
1273:Drivers/CMSIS/Include/cmsis_gcc.h **** {
1274:Drivers/CMSIS/Include/cmsis_gcc.h ****   __ASM volatile ("cpsid f" : : : "memory");
1275:Drivers/CMSIS/Include/cmsis_gcc.h **** }
1276:Drivers/CMSIS/Include/cmsis_gcc.h **** 
1277:Drivers/CMSIS/Include/cmsis_gcc.h **** 
1278:Drivers/CMSIS/Include/cmsis_gcc.h **** /**
1279:Drivers/CMSIS/Include/cmsis_gcc.h ****   \brief   Get Base Priority
1280:Drivers/CMSIS/Include/cmsis_gcc.h ****   \details Returns the current value of the Base Priority register.
1281:Drivers/CMSIS/Include/cmsis_gcc.h ****   \return               Base Priority register value
1282:Drivers/CMSIS/Include/cmsis_gcc.h ****  */
1283:Drivers/CMSIS/Include/cmsis_gcc.h **** __STATIC_FORCEINLINE uint32_t __get_BASEPRI(void)
1284:Drivers/CMSIS/Include/cmsis_gcc.h **** {
1285:Drivers/CMSIS/Include/cmsis_gcc.h ****   uint32_t result;
1286:Drivers/CMSIS/Include/cmsis_gcc.h **** 
1287:Drivers/CMSIS/Include/cmsis_gcc.h ****   __ASM volatile ("MRS %0, basepri" : "=r" (result) );
1288:Drivers/CMSIS/Include/cmsis_gcc.h ****   return(result);
1289:Drivers/CMSIS/Include/cmsis_gcc.h **** }
1290:Drivers/CMSIS/Include/cmsis_gcc.h **** 
1291:Drivers/CMSIS/Include/cmsis_gcc.h **** 
1292:Drivers/CMSIS/Include/cmsis_gcc.h **** #if (defined (__ARM_FEATURE_CMSE ) && (__ARM_FEATURE_CMSE == 3))
1293:Drivers/CMSIS/Include/cmsis_gcc.h **** /**
1294:Drivers/CMSIS/Include/cmsis_gcc.h ****   \brief   Get Base Priority (non-secure)
1295:Drivers/CMSIS/Include/cmsis_gcc.h ****   \details Returns the current value of the non-secure Base Priority register when in secure state.
1296:Drivers/CMSIS/Include/cmsis_gcc.h ****   \return               Base Priority register value
1297:Drivers/CMSIS/Include/cmsis_gcc.h ****  */
1298:Drivers/CMSIS/Include/cmsis_gcc.h **** __STATIC_FORCEINLINE uint32_t __TZ_get_BASEPRI_NS(void)
1299:Drivers/CMSIS/Include/cmsis_gcc.h **** {
1300:Drivers/CMSIS/Include/cmsis_gcc.h ****   uint32_t result;
1301:Drivers/CMSIS/Include/cmsis_gcc.h **** 
1302:Drivers/CMSIS/Include/cmsis_gcc.h ****   __ASM volatile ("MRS %0, basepri_ns" : "=r" (result) );
1303:Drivers/CMSIS/Include/cmsis_gcc.h ****   return(result);
1304:Drivers/CMSIS/Include/cmsis_gcc.h **** }
1305:Drivers/CMSIS/Include/cmsis_gcc.h **** #endif
1306:Drivers/CMSIS/Include/cmsis_gcc.h **** 
1307:Drivers/CMSIS/Include/cmsis_gcc.h **** 
1308:Drivers/CMSIS/Include/cmsis_gcc.h **** /**
1309:Drivers/CMSIS/Include/cmsis_gcc.h ****   \brief   Set Base Priority
1310:Drivers/CMSIS/Include/cmsis_gcc.h ****   \details Assigns the given value to the Base Priority register.
1311:Drivers/CMSIS/Include/cmsis_gcc.h ****   \param [in]    basePri  Base Priority value to set
1312:Drivers/CMSIS/Include/cmsis_gcc.h ****  */
1313:Drivers/CMSIS/Include/cmsis_gcc.h **** __STATIC_FORCEINLINE void __set_BASEPRI(uint32_t basePri)
1314:Drivers/CMSIS/Include/cmsis_gcc.h **** {
1315:Drivers/CMSIS/Include/cmsis_gcc.h ****   __ASM volatile ("MSR basepri, %0" : : "r" (basePri) : "memory");
1316:Drivers/CMSIS/Include/cmsis_gcc.h **** }
1317:Drivers/CMSIS/Include/cmsis_gcc.h **** 
1318:Drivers/CMSIS/Include/cmsis_gcc.h **** 
1319:Drivers/CMSIS/Include/cmsis_gcc.h **** #if (defined (__ARM_FEATURE_CMSE ) && (__ARM_FEATURE_CMSE == 3))
1320:Drivers/CMSIS/Include/cmsis_gcc.h **** /**
1321:Drivers/CMSIS/Include/cmsis_gcc.h ****   \brief   Set Base Priority (non-secure)
1322:Drivers/CMSIS/Include/cmsis_gcc.h ****   \details Assigns the given value to the non-secure Base Priority register when in secure state.
1323:Drivers/CMSIS/Include/cmsis_gcc.h ****   \param [in]    basePri  Base Priority value to set
1324:Drivers/CMSIS/Include/cmsis_gcc.h ****  */
1325:Drivers/CMSIS/Include/cmsis_gcc.h **** __STATIC_FORCEINLINE void __TZ_set_BASEPRI_NS(uint32_t basePri)
1326:Drivers/CMSIS/Include/cmsis_gcc.h **** {
1327:Drivers/CMSIS/Include/cmsis_gcc.h ****   __ASM volatile ("MSR basepri_ns, %0" : : "r" (basePri) : "memory");
1328:Drivers/CMSIS/Include/cmsis_gcc.h **** }
ARM GAS  /var/folders/ck/g3dcd5x55xs4107jgdl0snvr0000gn/T//cc4og9VU.s 			page 30


1329:Drivers/CMSIS/Include/cmsis_gcc.h **** #endif
1330:Drivers/CMSIS/Include/cmsis_gcc.h **** 
1331:Drivers/CMSIS/Include/cmsis_gcc.h **** 
1332:Drivers/CMSIS/Include/cmsis_gcc.h **** /**
1333:Drivers/CMSIS/Include/cmsis_gcc.h ****   \brief   Set Base Priority with condition
1334:Drivers/CMSIS/Include/cmsis_gcc.h ****   \details Assigns the given value to the Base Priority register only if BASEPRI masking is disable
1335:Drivers/CMSIS/Include/cmsis_gcc.h ****            or the new value increases the BASEPRI priority level.
1336:Drivers/CMSIS/Include/cmsis_gcc.h ****   \param [in]    basePri  Base Priority value to set
1337:Drivers/CMSIS/Include/cmsis_gcc.h ****  */
1338:Drivers/CMSIS/Include/cmsis_gcc.h **** __STATIC_FORCEINLINE void __set_BASEPRI_MAX(uint32_t basePri)
1339:Drivers/CMSIS/Include/cmsis_gcc.h **** {
1340:Drivers/CMSIS/Include/cmsis_gcc.h ****   __ASM volatile ("MSR basepri_max, %0" : : "r" (basePri) : "memory");
1341:Drivers/CMSIS/Include/cmsis_gcc.h **** }
1342:Drivers/CMSIS/Include/cmsis_gcc.h **** 
1343:Drivers/CMSIS/Include/cmsis_gcc.h **** 
1344:Drivers/CMSIS/Include/cmsis_gcc.h **** /**
1345:Drivers/CMSIS/Include/cmsis_gcc.h ****   \brief   Get Fault Mask
1346:Drivers/CMSIS/Include/cmsis_gcc.h ****   \details Returns the current value of the Fault Mask register.
1347:Drivers/CMSIS/Include/cmsis_gcc.h ****   \return               Fault Mask register value
1348:Drivers/CMSIS/Include/cmsis_gcc.h ****  */
1349:Drivers/CMSIS/Include/cmsis_gcc.h **** __STATIC_FORCEINLINE uint32_t __get_FAULTMASK(void)
1350:Drivers/CMSIS/Include/cmsis_gcc.h **** {
1351:Drivers/CMSIS/Include/cmsis_gcc.h ****   uint32_t result;
1352:Drivers/CMSIS/Include/cmsis_gcc.h **** 
1353:Drivers/CMSIS/Include/cmsis_gcc.h ****   __ASM volatile ("MRS %0, faultmask" : "=r" (result) );
1354:Drivers/CMSIS/Include/cmsis_gcc.h ****   return(result);
1355:Drivers/CMSIS/Include/cmsis_gcc.h **** }
1356:Drivers/CMSIS/Include/cmsis_gcc.h **** 
1357:Drivers/CMSIS/Include/cmsis_gcc.h **** 
1358:Drivers/CMSIS/Include/cmsis_gcc.h **** #if (defined (__ARM_FEATURE_CMSE ) && (__ARM_FEATURE_CMSE == 3))
1359:Drivers/CMSIS/Include/cmsis_gcc.h **** /**
1360:Drivers/CMSIS/Include/cmsis_gcc.h ****   \brief   Get Fault Mask (non-secure)
1361:Drivers/CMSIS/Include/cmsis_gcc.h ****   \details Returns the current value of the non-secure Fault Mask register when in secure state.
1362:Drivers/CMSIS/Include/cmsis_gcc.h ****   \return               Fault Mask register value
1363:Drivers/CMSIS/Include/cmsis_gcc.h ****  */
1364:Drivers/CMSIS/Include/cmsis_gcc.h **** __STATIC_FORCEINLINE uint32_t __TZ_get_FAULTMASK_NS(void)
1365:Drivers/CMSIS/Include/cmsis_gcc.h **** {
1366:Drivers/CMSIS/Include/cmsis_gcc.h ****   uint32_t result;
1367:Drivers/CMSIS/Include/cmsis_gcc.h **** 
1368:Drivers/CMSIS/Include/cmsis_gcc.h ****   __ASM volatile ("MRS %0, faultmask_ns" : "=r" (result) );
1369:Drivers/CMSIS/Include/cmsis_gcc.h ****   return(result);
1370:Drivers/CMSIS/Include/cmsis_gcc.h **** }
1371:Drivers/CMSIS/Include/cmsis_gcc.h **** #endif
1372:Drivers/CMSIS/Include/cmsis_gcc.h **** 
1373:Drivers/CMSIS/Include/cmsis_gcc.h **** 
1374:Drivers/CMSIS/Include/cmsis_gcc.h **** /**
1375:Drivers/CMSIS/Include/cmsis_gcc.h ****   \brief   Set Fault Mask
1376:Drivers/CMSIS/Include/cmsis_gcc.h ****   \details Assigns the given value to the Fault Mask register.
1377:Drivers/CMSIS/Include/cmsis_gcc.h ****   \param [in]    faultMask  Fault Mask value to set
1378:Drivers/CMSIS/Include/cmsis_gcc.h ****  */
1379:Drivers/CMSIS/Include/cmsis_gcc.h **** __STATIC_FORCEINLINE void __set_FAULTMASK(uint32_t faultMask)
1380:Drivers/CMSIS/Include/cmsis_gcc.h **** {
1381:Drivers/CMSIS/Include/cmsis_gcc.h ****   __ASM volatile ("MSR faultmask, %0" : : "r" (faultMask) : "memory");
1382:Drivers/CMSIS/Include/cmsis_gcc.h **** }
1383:Drivers/CMSIS/Include/cmsis_gcc.h **** 
1384:Drivers/CMSIS/Include/cmsis_gcc.h **** 
1385:Drivers/CMSIS/Include/cmsis_gcc.h **** #if (defined (__ARM_FEATURE_CMSE ) && (__ARM_FEATURE_CMSE == 3))
ARM GAS  /var/folders/ck/g3dcd5x55xs4107jgdl0snvr0000gn/T//cc4og9VU.s 			page 31


1386:Drivers/CMSIS/Include/cmsis_gcc.h **** /**
1387:Drivers/CMSIS/Include/cmsis_gcc.h ****   \brief   Set Fault Mask (non-secure)
1388:Drivers/CMSIS/Include/cmsis_gcc.h ****   \details Assigns the given value to the non-secure Fault Mask register when in secure state.
1389:Drivers/CMSIS/Include/cmsis_gcc.h ****   \param [in]    faultMask  Fault Mask value to set
1390:Drivers/CMSIS/Include/cmsis_gcc.h ****  */
1391:Drivers/CMSIS/Include/cmsis_gcc.h **** __STATIC_FORCEINLINE void __TZ_set_FAULTMASK_NS(uint32_t faultMask)
1392:Drivers/CMSIS/Include/cmsis_gcc.h **** {
1393:Drivers/CMSIS/Include/cmsis_gcc.h ****   __ASM volatile ("MSR faultmask_ns, %0" : : "r" (faultMask) : "memory");
1394:Drivers/CMSIS/Include/cmsis_gcc.h **** }
1395:Drivers/CMSIS/Include/cmsis_gcc.h **** #endif
1396:Drivers/CMSIS/Include/cmsis_gcc.h **** 
1397:Drivers/CMSIS/Include/cmsis_gcc.h **** #endif /* ((defined (__ARM_ARCH_7M__      ) && (__ARM_ARCH_7M__      == 1)) || \
1398:Drivers/CMSIS/Include/cmsis_gcc.h ****            (defined (__ARM_ARCH_7EM__     ) && (__ARM_ARCH_7EM__     == 1)) || \
1399:Drivers/CMSIS/Include/cmsis_gcc.h ****            (defined (__ARM_ARCH_8M_MAIN__ ) && (__ARM_ARCH_8M_MAIN__ == 1))    ) */
1400:Drivers/CMSIS/Include/cmsis_gcc.h **** 
1401:Drivers/CMSIS/Include/cmsis_gcc.h **** 
1402:Drivers/CMSIS/Include/cmsis_gcc.h **** #if ((defined (__ARM_ARCH_8M_MAIN__ ) && (__ARM_ARCH_8M_MAIN__ == 1)) || \
1403:Drivers/CMSIS/Include/cmsis_gcc.h ****      (defined (__ARM_ARCH_8M_BASE__ ) && (__ARM_ARCH_8M_BASE__ == 1))    )
1404:Drivers/CMSIS/Include/cmsis_gcc.h **** 
1405:Drivers/CMSIS/Include/cmsis_gcc.h **** /**
1406:Drivers/CMSIS/Include/cmsis_gcc.h ****   \brief   Get Process Stack Pointer Limit
1407:Drivers/CMSIS/Include/cmsis_gcc.h ****   Devices without ARMv8-M Main Extensions (i.e. Cortex-M23) lack the non-secure
1408:Drivers/CMSIS/Include/cmsis_gcc.h ****   Stack Pointer Limit register hence zero is returned always in non-secure
1409:Drivers/CMSIS/Include/cmsis_gcc.h ****   mode.
1410:Drivers/CMSIS/Include/cmsis_gcc.h **** 
1411:Drivers/CMSIS/Include/cmsis_gcc.h ****   \details Returns the current value of the Process Stack Pointer Limit (PSPLIM).
1412:Drivers/CMSIS/Include/cmsis_gcc.h ****   \return               PSPLIM Register value
1413:Drivers/CMSIS/Include/cmsis_gcc.h ****  */
1414:Drivers/CMSIS/Include/cmsis_gcc.h **** __STATIC_FORCEINLINE uint32_t __get_PSPLIM(void)
1415:Drivers/CMSIS/Include/cmsis_gcc.h **** {
1416:Drivers/CMSIS/Include/cmsis_gcc.h **** #if (!(defined (__ARM_ARCH_8M_MAIN__ ) && (__ARM_ARCH_8M_MAIN__ == 1)) && \
1417:Drivers/CMSIS/Include/cmsis_gcc.h ****     (!defined (__ARM_FEATURE_CMSE) || (__ARM_FEATURE_CMSE < 3)))
1418:Drivers/CMSIS/Include/cmsis_gcc.h ****     // without main extensions, the non-secure PSPLIM is RAZ/WI
1419:Drivers/CMSIS/Include/cmsis_gcc.h ****   return 0U;
1420:Drivers/CMSIS/Include/cmsis_gcc.h **** #else
1421:Drivers/CMSIS/Include/cmsis_gcc.h ****   uint32_t result;
1422:Drivers/CMSIS/Include/cmsis_gcc.h ****   __ASM volatile ("MRS %0, psplim"  : "=r" (result) );
1423:Drivers/CMSIS/Include/cmsis_gcc.h ****   return result;
1424:Drivers/CMSIS/Include/cmsis_gcc.h **** #endif
1425:Drivers/CMSIS/Include/cmsis_gcc.h **** }
1426:Drivers/CMSIS/Include/cmsis_gcc.h **** 
1427:Drivers/CMSIS/Include/cmsis_gcc.h **** #if (defined (__ARM_FEATURE_CMSE) && (__ARM_FEATURE_CMSE == 3))
1428:Drivers/CMSIS/Include/cmsis_gcc.h **** /**
1429:Drivers/CMSIS/Include/cmsis_gcc.h ****   \brief   Get Process Stack Pointer Limit (non-secure)
1430:Drivers/CMSIS/Include/cmsis_gcc.h ****   Devices without ARMv8-M Main Extensions (i.e. Cortex-M23) lack the non-secure
1431:Drivers/CMSIS/Include/cmsis_gcc.h ****   Stack Pointer Limit register hence zero is returned always.
1432:Drivers/CMSIS/Include/cmsis_gcc.h **** 
1433:Drivers/CMSIS/Include/cmsis_gcc.h ****   \details Returns the current value of the non-secure Process Stack Pointer Limit (PSPLIM) when in
1434:Drivers/CMSIS/Include/cmsis_gcc.h ****   \return               PSPLIM Register value
1435:Drivers/CMSIS/Include/cmsis_gcc.h ****  */
1436:Drivers/CMSIS/Include/cmsis_gcc.h **** __STATIC_FORCEINLINE uint32_t __TZ_get_PSPLIM_NS(void)
1437:Drivers/CMSIS/Include/cmsis_gcc.h **** {
1438:Drivers/CMSIS/Include/cmsis_gcc.h **** #if (!(defined (__ARM_ARCH_8M_MAIN__ ) && (__ARM_ARCH_8M_MAIN__ == 1)))
1439:Drivers/CMSIS/Include/cmsis_gcc.h ****   // without main extensions, the non-secure PSPLIM is RAZ/WI
1440:Drivers/CMSIS/Include/cmsis_gcc.h ****   return 0U;
1441:Drivers/CMSIS/Include/cmsis_gcc.h **** #else
1442:Drivers/CMSIS/Include/cmsis_gcc.h ****   uint32_t result;
ARM GAS  /var/folders/ck/g3dcd5x55xs4107jgdl0snvr0000gn/T//cc4og9VU.s 			page 32


1443:Drivers/CMSIS/Include/cmsis_gcc.h ****   __ASM volatile ("MRS %0, psplim_ns"  : "=r" (result) );
1444:Drivers/CMSIS/Include/cmsis_gcc.h ****   return result;
1445:Drivers/CMSIS/Include/cmsis_gcc.h **** #endif
1446:Drivers/CMSIS/Include/cmsis_gcc.h **** }
1447:Drivers/CMSIS/Include/cmsis_gcc.h **** #endif
1448:Drivers/CMSIS/Include/cmsis_gcc.h **** 
1449:Drivers/CMSIS/Include/cmsis_gcc.h **** 
1450:Drivers/CMSIS/Include/cmsis_gcc.h **** /**
1451:Drivers/CMSIS/Include/cmsis_gcc.h ****   \brief   Set Process Stack Pointer Limit
1452:Drivers/CMSIS/Include/cmsis_gcc.h ****   Devices without ARMv8-M Main Extensions (i.e. Cortex-M23) lack the non-secure
1453:Drivers/CMSIS/Include/cmsis_gcc.h ****   Stack Pointer Limit register hence the write is silently ignored in non-secure
1454:Drivers/CMSIS/Include/cmsis_gcc.h ****   mode.
1455:Drivers/CMSIS/Include/cmsis_gcc.h **** 
1456:Drivers/CMSIS/Include/cmsis_gcc.h ****   \details Assigns the given value to the Process Stack Pointer Limit (PSPLIM).
1457:Drivers/CMSIS/Include/cmsis_gcc.h ****   \param [in]    ProcStackPtrLimit  Process Stack Pointer Limit value to set
1458:Drivers/CMSIS/Include/cmsis_gcc.h ****  */
1459:Drivers/CMSIS/Include/cmsis_gcc.h **** __STATIC_FORCEINLINE void __set_PSPLIM(uint32_t ProcStackPtrLimit)
1460:Drivers/CMSIS/Include/cmsis_gcc.h **** {
1461:Drivers/CMSIS/Include/cmsis_gcc.h **** #if (!(defined (__ARM_ARCH_8M_MAIN__ ) && (__ARM_ARCH_8M_MAIN__ == 1)) && \
1462:Drivers/CMSIS/Include/cmsis_gcc.h ****     (!defined (__ARM_FEATURE_CMSE) || (__ARM_FEATURE_CMSE < 3)))
1463:Drivers/CMSIS/Include/cmsis_gcc.h ****   // without main extensions, the non-secure PSPLIM is RAZ/WI
1464:Drivers/CMSIS/Include/cmsis_gcc.h ****   (void)ProcStackPtrLimit;
1465:Drivers/CMSIS/Include/cmsis_gcc.h **** #else
1466:Drivers/CMSIS/Include/cmsis_gcc.h ****   __ASM volatile ("MSR psplim, %0" : : "r" (ProcStackPtrLimit));
1467:Drivers/CMSIS/Include/cmsis_gcc.h **** #endif
1468:Drivers/CMSIS/Include/cmsis_gcc.h **** }
1469:Drivers/CMSIS/Include/cmsis_gcc.h **** 
1470:Drivers/CMSIS/Include/cmsis_gcc.h **** 
1471:Drivers/CMSIS/Include/cmsis_gcc.h **** #if (defined (__ARM_FEATURE_CMSE  ) && (__ARM_FEATURE_CMSE   == 3))
1472:Drivers/CMSIS/Include/cmsis_gcc.h **** /**
1473:Drivers/CMSIS/Include/cmsis_gcc.h ****   \brief   Set Process Stack Pointer (non-secure)
1474:Drivers/CMSIS/Include/cmsis_gcc.h ****   Devices without ARMv8-M Main Extensions (i.e. Cortex-M23) lack the non-secure
1475:Drivers/CMSIS/Include/cmsis_gcc.h ****   Stack Pointer Limit register hence the write is silently ignored.
1476:Drivers/CMSIS/Include/cmsis_gcc.h **** 
1477:Drivers/CMSIS/Include/cmsis_gcc.h ****   \details Assigns the given value to the non-secure Process Stack Pointer Limit (PSPLIM) when in s
1478:Drivers/CMSIS/Include/cmsis_gcc.h ****   \param [in]    ProcStackPtrLimit  Process Stack Pointer Limit value to set
1479:Drivers/CMSIS/Include/cmsis_gcc.h ****  */
1480:Drivers/CMSIS/Include/cmsis_gcc.h **** __STATIC_FORCEINLINE void __TZ_set_PSPLIM_NS(uint32_t ProcStackPtrLimit)
1481:Drivers/CMSIS/Include/cmsis_gcc.h **** {
1482:Drivers/CMSIS/Include/cmsis_gcc.h **** #if (!(defined (__ARM_ARCH_8M_MAIN__ ) && (__ARM_ARCH_8M_MAIN__ == 1)))
1483:Drivers/CMSIS/Include/cmsis_gcc.h ****   // without main extensions, the non-secure PSPLIM is RAZ/WI
1484:Drivers/CMSIS/Include/cmsis_gcc.h ****   (void)ProcStackPtrLimit;
1485:Drivers/CMSIS/Include/cmsis_gcc.h **** #else
1486:Drivers/CMSIS/Include/cmsis_gcc.h ****   __ASM volatile ("MSR psplim_ns, %0\n" : : "r" (ProcStackPtrLimit));
1487:Drivers/CMSIS/Include/cmsis_gcc.h **** #endif
1488:Drivers/CMSIS/Include/cmsis_gcc.h **** }
1489:Drivers/CMSIS/Include/cmsis_gcc.h **** #endif
1490:Drivers/CMSIS/Include/cmsis_gcc.h **** 
1491:Drivers/CMSIS/Include/cmsis_gcc.h **** 
1492:Drivers/CMSIS/Include/cmsis_gcc.h **** /**
1493:Drivers/CMSIS/Include/cmsis_gcc.h ****   \brief   Get Main Stack Pointer Limit
1494:Drivers/CMSIS/Include/cmsis_gcc.h ****   Devices without ARMv8-M Main Extensions (i.e. Cortex-M23) lack the non-secure
1495:Drivers/CMSIS/Include/cmsis_gcc.h ****   Stack Pointer Limit register hence zero is returned always in non-secure
1496:Drivers/CMSIS/Include/cmsis_gcc.h ****   mode.
1497:Drivers/CMSIS/Include/cmsis_gcc.h **** 
1498:Drivers/CMSIS/Include/cmsis_gcc.h ****   \details Returns the current value of the Main Stack Pointer Limit (MSPLIM).
1499:Drivers/CMSIS/Include/cmsis_gcc.h ****   \return               MSPLIM Register value
ARM GAS  /var/folders/ck/g3dcd5x55xs4107jgdl0snvr0000gn/T//cc4og9VU.s 			page 33


1500:Drivers/CMSIS/Include/cmsis_gcc.h ****  */
1501:Drivers/CMSIS/Include/cmsis_gcc.h **** __STATIC_FORCEINLINE uint32_t __get_MSPLIM(void)
1502:Drivers/CMSIS/Include/cmsis_gcc.h **** {
1503:Drivers/CMSIS/Include/cmsis_gcc.h **** #if (!(defined (__ARM_ARCH_8M_MAIN__ ) && (__ARM_ARCH_8M_MAIN__ == 1)) && \
1504:Drivers/CMSIS/Include/cmsis_gcc.h ****     (!defined (__ARM_FEATURE_CMSE) || (__ARM_FEATURE_CMSE < 3)))
1505:Drivers/CMSIS/Include/cmsis_gcc.h ****   // without main extensions, the non-secure MSPLIM is RAZ/WI
1506:Drivers/CMSIS/Include/cmsis_gcc.h ****   return 0U;
1507:Drivers/CMSIS/Include/cmsis_gcc.h **** #else
1508:Drivers/CMSIS/Include/cmsis_gcc.h ****   uint32_t result;
1509:Drivers/CMSIS/Include/cmsis_gcc.h ****   __ASM volatile ("MRS %0, msplim" : "=r" (result) );
1510:Drivers/CMSIS/Include/cmsis_gcc.h ****   return result;
1511:Drivers/CMSIS/Include/cmsis_gcc.h **** #endif
1512:Drivers/CMSIS/Include/cmsis_gcc.h **** }
1513:Drivers/CMSIS/Include/cmsis_gcc.h **** 
1514:Drivers/CMSIS/Include/cmsis_gcc.h **** 
1515:Drivers/CMSIS/Include/cmsis_gcc.h **** #if (defined (__ARM_FEATURE_CMSE  ) && (__ARM_FEATURE_CMSE   == 3))
1516:Drivers/CMSIS/Include/cmsis_gcc.h **** /**
1517:Drivers/CMSIS/Include/cmsis_gcc.h ****   \brief   Get Main Stack Pointer Limit (non-secure)
1518:Drivers/CMSIS/Include/cmsis_gcc.h ****   Devices without ARMv8-M Main Extensions (i.e. Cortex-M23) lack the non-secure
1519:Drivers/CMSIS/Include/cmsis_gcc.h ****   Stack Pointer Limit register hence zero is returned always.
1520:Drivers/CMSIS/Include/cmsis_gcc.h **** 
1521:Drivers/CMSIS/Include/cmsis_gcc.h ****   \details Returns the current value of the non-secure Main Stack Pointer Limit(MSPLIM) when in sec
1522:Drivers/CMSIS/Include/cmsis_gcc.h ****   \return               MSPLIM Register value
1523:Drivers/CMSIS/Include/cmsis_gcc.h ****  */
1524:Drivers/CMSIS/Include/cmsis_gcc.h **** __STATIC_FORCEINLINE uint32_t __TZ_get_MSPLIM_NS(void)
1525:Drivers/CMSIS/Include/cmsis_gcc.h **** {
1526:Drivers/CMSIS/Include/cmsis_gcc.h **** #if (!(defined (__ARM_ARCH_8M_MAIN__ ) && (__ARM_ARCH_8M_MAIN__ == 1)))
1527:Drivers/CMSIS/Include/cmsis_gcc.h ****   // without main extensions, the non-secure MSPLIM is RAZ/WI
1528:Drivers/CMSIS/Include/cmsis_gcc.h ****   return 0U;
1529:Drivers/CMSIS/Include/cmsis_gcc.h **** #else
1530:Drivers/CMSIS/Include/cmsis_gcc.h ****   uint32_t result;
1531:Drivers/CMSIS/Include/cmsis_gcc.h ****   __ASM volatile ("MRS %0, msplim_ns" : "=r" (result) );
1532:Drivers/CMSIS/Include/cmsis_gcc.h ****   return result;
1533:Drivers/CMSIS/Include/cmsis_gcc.h **** #endif
1534:Drivers/CMSIS/Include/cmsis_gcc.h **** }
1535:Drivers/CMSIS/Include/cmsis_gcc.h **** #endif
1536:Drivers/CMSIS/Include/cmsis_gcc.h **** 
1537:Drivers/CMSIS/Include/cmsis_gcc.h **** 
1538:Drivers/CMSIS/Include/cmsis_gcc.h **** /**
1539:Drivers/CMSIS/Include/cmsis_gcc.h ****   \brief   Set Main Stack Pointer Limit
1540:Drivers/CMSIS/Include/cmsis_gcc.h ****   Devices without ARMv8-M Main Extensions (i.e. Cortex-M23) lack the non-secure
1541:Drivers/CMSIS/Include/cmsis_gcc.h ****   Stack Pointer Limit register hence the write is silently ignored in non-secure
1542:Drivers/CMSIS/Include/cmsis_gcc.h ****   mode.
1543:Drivers/CMSIS/Include/cmsis_gcc.h **** 
1544:Drivers/CMSIS/Include/cmsis_gcc.h ****   \details Assigns the given value to the Main Stack Pointer Limit (MSPLIM).
1545:Drivers/CMSIS/Include/cmsis_gcc.h ****   \param [in]    MainStackPtrLimit  Main Stack Pointer Limit value to set
1546:Drivers/CMSIS/Include/cmsis_gcc.h ****  */
1547:Drivers/CMSIS/Include/cmsis_gcc.h **** __STATIC_FORCEINLINE void __set_MSPLIM(uint32_t MainStackPtrLimit)
1548:Drivers/CMSIS/Include/cmsis_gcc.h **** {
1549:Drivers/CMSIS/Include/cmsis_gcc.h **** #if (!(defined (__ARM_ARCH_8M_MAIN__ ) && (__ARM_ARCH_8M_MAIN__ == 1)) && \
1550:Drivers/CMSIS/Include/cmsis_gcc.h ****     (!defined (__ARM_FEATURE_CMSE) || (__ARM_FEATURE_CMSE < 3)))
1551:Drivers/CMSIS/Include/cmsis_gcc.h ****   // without main extensions, the non-secure MSPLIM is RAZ/WI
1552:Drivers/CMSIS/Include/cmsis_gcc.h ****   (void)MainStackPtrLimit;
1553:Drivers/CMSIS/Include/cmsis_gcc.h **** #else
1554:Drivers/CMSIS/Include/cmsis_gcc.h ****   __ASM volatile ("MSR msplim, %0" : : "r" (MainStackPtrLimit));
1555:Drivers/CMSIS/Include/cmsis_gcc.h **** #endif
1556:Drivers/CMSIS/Include/cmsis_gcc.h **** }
ARM GAS  /var/folders/ck/g3dcd5x55xs4107jgdl0snvr0000gn/T//cc4og9VU.s 			page 34


1557:Drivers/CMSIS/Include/cmsis_gcc.h **** 
1558:Drivers/CMSIS/Include/cmsis_gcc.h **** 
1559:Drivers/CMSIS/Include/cmsis_gcc.h **** #if (defined (__ARM_FEATURE_CMSE  ) && (__ARM_FEATURE_CMSE   == 3))
1560:Drivers/CMSIS/Include/cmsis_gcc.h **** /**
1561:Drivers/CMSIS/Include/cmsis_gcc.h ****   \brief   Set Main Stack Pointer Limit (non-secure)
1562:Drivers/CMSIS/Include/cmsis_gcc.h ****   Devices without ARMv8-M Main Extensions (i.e. Cortex-M23) lack the non-secure
1563:Drivers/CMSIS/Include/cmsis_gcc.h ****   Stack Pointer Limit register hence the write is silently ignored.
1564:Drivers/CMSIS/Include/cmsis_gcc.h **** 
1565:Drivers/CMSIS/Include/cmsis_gcc.h ****   \details Assigns the given value to the non-secure Main Stack Pointer Limit (MSPLIM) when in secu
1566:Drivers/CMSIS/Include/cmsis_gcc.h ****   \param [in]    MainStackPtrLimit  Main Stack Pointer value to set
1567:Drivers/CMSIS/Include/cmsis_gcc.h ****  */
1568:Drivers/CMSIS/Include/cmsis_gcc.h **** __STATIC_FORCEINLINE void __TZ_set_MSPLIM_NS(uint32_t MainStackPtrLimit)
1569:Drivers/CMSIS/Include/cmsis_gcc.h **** {
1570:Drivers/CMSIS/Include/cmsis_gcc.h **** #if (!(defined (__ARM_ARCH_8M_MAIN__ ) && (__ARM_ARCH_8M_MAIN__ == 1)))
1571:Drivers/CMSIS/Include/cmsis_gcc.h ****   // without main extensions, the non-secure MSPLIM is RAZ/WI
1572:Drivers/CMSIS/Include/cmsis_gcc.h ****   (void)MainStackPtrLimit;
1573:Drivers/CMSIS/Include/cmsis_gcc.h **** #else
1574:Drivers/CMSIS/Include/cmsis_gcc.h ****   __ASM volatile ("MSR msplim_ns, %0" : : "r" (MainStackPtrLimit));
1575:Drivers/CMSIS/Include/cmsis_gcc.h **** #endif
1576:Drivers/CMSIS/Include/cmsis_gcc.h **** }
1577:Drivers/CMSIS/Include/cmsis_gcc.h **** #endif
1578:Drivers/CMSIS/Include/cmsis_gcc.h **** 
1579:Drivers/CMSIS/Include/cmsis_gcc.h **** #endif /* ((defined (__ARM_ARCH_8M_MAIN__ ) && (__ARM_ARCH_8M_MAIN__ == 1)) || \
1580:Drivers/CMSIS/Include/cmsis_gcc.h ****            (defined (__ARM_ARCH_8M_BASE__ ) && (__ARM_ARCH_8M_BASE__ == 1))    ) */
1581:Drivers/CMSIS/Include/cmsis_gcc.h **** 
1582:Drivers/CMSIS/Include/cmsis_gcc.h **** 
1583:Drivers/CMSIS/Include/cmsis_gcc.h **** /**
1584:Drivers/CMSIS/Include/cmsis_gcc.h ****   \brief   Get FPSCR
1585:Drivers/CMSIS/Include/cmsis_gcc.h ****   \details Returns the current value of the Floating Point Status/Control register.
1586:Drivers/CMSIS/Include/cmsis_gcc.h ****   \return               Floating Point Status/Control register value
1587:Drivers/CMSIS/Include/cmsis_gcc.h ****  */
1588:Drivers/CMSIS/Include/cmsis_gcc.h **** __STATIC_FORCEINLINE uint32_t __get_FPSCR(void)
1589:Drivers/CMSIS/Include/cmsis_gcc.h **** {
1590:Drivers/CMSIS/Include/cmsis_gcc.h **** #if ((defined (__FPU_PRESENT) && (__FPU_PRESENT == 1U)) && \
1591:Drivers/CMSIS/Include/cmsis_gcc.h ****      (defined (__FPU_USED   ) && (__FPU_USED    == 1U))     )
1592:Drivers/CMSIS/Include/cmsis_gcc.h **** #if __has_builtin(__builtin_arm_get_fpscr)
1593:Drivers/CMSIS/Include/cmsis_gcc.h **** // Re-enable using built-in when GCC has been fixed
1594:Drivers/CMSIS/Include/cmsis_gcc.h **** // || (__GNUC__ > 7) || (__GNUC__ == 7 && __GNUC_MINOR__ >= 2)
1595:Drivers/CMSIS/Include/cmsis_gcc.h ****   /* see https://gcc.gnu.org/ml/gcc-patches/2017-04/msg00443.html */
1596:Drivers/CMSIS/Include/cmsis_gcc.h ****   return __builtin_arm_get_fpscr();
1597:Drivers/CMSIS/Include/cmsis_gcc.h **** #else
1598:Drivers/CMSIS/Include/cmsis_gcc.h ****   uint32_t result;
1599:Drivers/CMSIS/Include/cmsis_gcc.h **** 
1600:Drivers/CMSIS/Include/cmsis_gcc.h ****   __ASM volatile ("VMRS %0, fpscr" : "=r" (result) );
1601:Drivers/CMSIS/Include/cmsis_gcc.h ****   return(result);
1602:Drivers/CMSIS/Include/cmsis_gcc.h **** #endif
1603:Drivers/CMSIS/Include/cmsis_gcc.h **** #else
1604:Drivers/CMSIS/Include/cmsis_gcc.h ****   return(0U);
1605:Drivers/CMSIS/Include/cmsis_gcc.h **** #endif
1606:Drivers/CMSIS/Include/cmsis_gcc.h **** }
1607:Drivers/CMSIS/Include/cmsis_gcc.h **** 
1608:Drivers/CMSIS/Include/cmsis_gcc.h **** 
1609:Drivers/CMSIS/Include/cmsis_gcc.h **** /**
1610:Drivers/CMSIS/Include/cmsis_gcc.h ****   \brief   Set FPSCR
1611:Drivers/CMSIS/Include/cmsis_gcc.h ****   \details Assigns the given value to the Floating Point Status/Control register.
1612:Drivers/CMSIS/Include/cmsis_gcc.h ****   \param [in]    fpscr  Floating Point Status/Control value to set
1613:Drivers/CMSIS/Include/cmsis_gcc.h ****  */
ARM GAS  /var/folders/ck/g3dcd5x55xs4107jgdl0snvr0000gn/T//cc4og9VU.s 			page 35


1614:Drivers/CMSIS/Include/cmsis_gcc.h **** __STATIC_FORCEINLINE void __set_FPSCR(uint32_t fpscr)
1615:Drivers/CMSIS/Include/cmsis_gcc.h **** {
1616:Drivers/CMSIS/Include/cmsis_gcc.h **** #if ((defined (__FPU_PRESENT) && (__FPU_PRESENT == 1U)) && \
1617:Drivers/CMSIS/Include/cmsis_gcc.h ****      (defined (__FPU_USED   ) && (__FPU_USED    == 1U))     )
1618:Drivers/CMSIS/Include/cmsis_gcc.h **** #if __has_builtin(__builtin_arm_set_fpscr)
1619:Drivers/CMSIS/Include/cmsis_gcc.h **** // Re-enable using built-in when GCC has been fixed
1620:Drivers/CMSIS/Include/cmsis_gcc.h **** // || (__GNUC__ > 7) || (__GNUC__ == 7 && __GNUC_MINOR__ >= 2)
1621:Drivers/CMSIS/Include/cmsis_gcc.h ****   /* see https://gcc.gnu.org/ml/gcc-patches/2017-04/msg00443.html */
1622:Drivers/CMSIS/Include/cmsis_gcc.h ****   __builtin_arm_set_fpscr(fpscr);
1623:Drivers/CMSIS/Include/cmsis_gcc.h **** #else
1624:Drivers/CMSIS/Include/cmsis_gcc.h ****   __ASM volatile ("VMSR fpscr, %0" : : "r" (fpscr) : "vfpcc", "memory");
1625:Drivers/CMSIS/Include/cmsis_gcc.h **** #endif
1626:Drivers/CMSIS/Include/cmsis_gcc.h **** #else
1627:Drivers/CMSIS/Include/cmsis_gcc.h ****   (void)fpscr;
1628:Drivers/CMSIS/Include/cmsis_gcc.h **** #endif
1629:Drivers/CMSIS/Include/cmsis_gcc.h **** }
1630:Drivers/CMSIS/Include/cmsis_gcc.h **** 
1631:Drivers/CMSIS/Include/cmsis_gcc.h **** 
1632:Drivers/CMSIS/Include/cmsis_gcc.h **** /*@} end of CMSIS_Core_RegAccFunctions */
1633:Drivers/CMSIS/Include/cmsis_gcc.h **** 
1634:Drivers/CMSIS/Include/cmsis_gcc.h **** 
1635:Drivers/CMSIS/Include/cmsis_gcc.h **** /* ###################  Compiler specific Intrinsics  ########################### */
1636:Drivers/CMSIS/Include/cmsis_gcc.h **** /** \defgroup CMSIS_SIMD_intrinsics CMSIS SIMD Intrinsics
1637:Drivers/CMSIS/Include/cmsis_gcc.h ****   Access to dedicated SIMD instructions
1638:Drivers/CMSIS/Include/cmsis_gcc.h ****   @{
1639:Drivers/CMSIS/Include/cmsis_gcc.h **** */
1640:Drivers/CMSIS/Include/cmsis_gcc.h **** 
1641:Drivers/CMSIS/Include/cmsis_gcc.h **** #if (defined (__ARM_FEATURE_DSP) && (__ARM_FEATURE_DSP == 1))
1642:Drivers/CMSIS/Include/cmsis_gcc.h **** 
1643:Drivers/CMSIS/Include/cmsis_gcc.h **** __STATIC_FORCEINLINE uint32_t __SADD8(uint32_t op1, uint32_t op2)
1644:Drivers/CMSIS/Include/cmsis_gcc.h **** {
1645:Drivers/CMSIS/Include/cmsis_gcc.h ****   uint32_t result;
1646:Drivers/CMSIS/Include/cmsis_gcc.h **** 
1647:Drivers/CMSIS/Include/cmsis_gcc.h ****   __ASM volatile ("sadd8 %0, %1, %2" : "=r" (result) : "r" (op1), "r" (op2) );
1648:Drivers/CMSIS/Include/cmsis_gcc.h ****   return(result);
1649:Drivers/CMSIS/Include/cmsis_gcc.h **** }
1650:Drivers/CMSIS/Include/cmsis_gcc.h **** 
1651:Drivers/CMSIS/Include/cmsis_gcc.h **** __STATIC_FORCEINLINE uint32_t __QADD8(uint32_t op1, uint32_t op2)
1652:Drivers/CMSIS/Include/cmsis_gcc.h **** {
1653:Drivers/CMSIS/Include/cmsis_gcc.h ****   uint32_t result;
1654:Drivers/CMSIS/Include/cmsis_gcc.h **** 
1655:Drivers/CMSIS/Include/cmsis_gcc.h ****   __ASM ("qadd8 %0, %1, %2" : "=r" (result) : "r" (op1), "r" (op2) );
1656:Drivers/CMSIS/Include/cmsis_gcc.h ****   return(result);
1657:Drivers/CMSIS/Include/cmsis_gcc.h **** }
1658:Drivers/CMSIS/Include/cmsis_gcc.h **** 
1659:Drivers/CMSIS/Include/cmsis_gcc.h **** __STATIC_FORCEINLINE uint32_t __SHADD8(uint32_t op1, uint32_t op2)
1660:Drivers/CMSIS/Include/cmsis_gcc.h **** {
1661:Drivers/CMSIS/Include/cmsis_gcc.h ****   uint32_t result;
1662:Drivers/CMSIS/Include/cmsis_gcc.h **** 
1663:Drivers/CMSIS/Include/cmsis_gcc.h ****   __ASM ("shadd8 %0, %1, %2" : "=r" (result) : "r" (op1), "r" (op2) );
1664:Drivers/CMSIS/Include/cmsis_gcc.h ****   return(result);
1665:Drivers/CMSIS/Include/cmsis_gcc.h **** }
1666:Drivers/CMSIS/Include/cmsis_gcc.h **** 
1667:Drivers/CMSIS/Include/cmsis_gcc.h **** __STATIC_FORCEINLINE uint32_t __UADD8(uint32_t op1, uint32_t op2)
1668:Drivers/CMSIS/Include/cmsis_gcc.h **** {
1669:Drivers/CMSIS/Include/cmsis_gcc.h ****   uint32_t result;
1670:Drivers/CMSIS/Include/cmsis_gcc.h **** 
ARM GAS  /var/folders/ck/g3dcd5x55xs4107jgdl0snvr0000gn/T//cc4og9VU.s 			page 36


1671:Drivers/CMSIS/Include/cmsis_gcc.h ****   __ASM volatile ("uadd8 %0, %1, %2" : "=r" (result) : "r" (op1), "r" (op2) );
1672:Drivers/CMSIS/Include/cmsis_gcc.h ****   return(result);
1673:Drivers/CMSIS/Include/cmsis_gcc.h **** }
1674:Drivers/CMSIS/Include/cmsis_gcc.h **** 
1675:Drivers/CMSIS/Include/cmsis_gcc.h **** __STATIC_FORCEINLINE uint32_t __UQADD8(uint32_t op1, uint32_t op2)
1676:Drivers/CMSIS/Include/cmsis_gcc.h **** {
1677:Drivers/CMSIS/Include/cmsis_gcc.h ****   uint32_t result;
1678:Drivers/CMSIS/Include/cmsis_gcc.h **** 
1679:Drivers/CMSIS/Include/cmsis_gcc.h ****   __ASM ("uqadd8 %0, %1, %2" : "=r" (result) : "r" (op1), "r" (op2) );
1680:Drivers/CMSIS/Include/cmsis_gcc.h ****   return(result);
1681:Drivers/CMSIS/Include/cmsis_gcc.h **** }
1682:Drivers/CMSIS/Include/cmsis_gcc.h **** 
1683:Drivers/CMSIS/Include/cmsis_gcc.h **** __STATIC_FORCEINLINE uint32_t __UHADD8(uint32_t op1, uint32_t op2)
1684:Drivers/CMSIS/Include/cmsis_gcc.h **** {
1685:Drivers/CMSIS/Include/cmsis_gcc.h ****   uint32_t result;
1686:Drivers/CMSIS/Include/cmsis_gcc.h **** 
1687:Drivers/CMSIS/Include/cmsis_gcc.h ****   __ASM ("uhadd8 %0, %1, %2" : "=r" (result) : "r" (op1), "r" (op2) );
1688:Drivers/CMSIS/Include/cmsis_gcc.h ****   return(result);
1689:Drivers/CMSIS/Include/cmsis_gcc.h **** }
1690:Drivers/CMSIS/Include/cmsis_gcc.h **** 
1691:Drivers/CMSIS/Include/cmsis_gcc.h **** 
1692:Drivers/CMSIS/Include/cmsis_gcc.h **** __STATIC_FORCEINLINE uint32_t __SSUB8(uint32_t op1, uint32_t op2)
1693:Drivers/CMSIS/Include/cmsis_gcc.h **** {
1694:Drivers/CMSIS/Include/cmsis_gcc.h ****   uint32_t result;
1695:Drivers/CMSIS/Include/cmsis_gcc.h **** 
1696:Drivers/CMSIS/Include/cmsis_gcc.h ****   __ASM volatile ("ssub8 %0, %1, %2" : "=r" (result) : "r" (op1), "r" (op2) );
1697:Drivers/CMSIS/Include/cmsis_gcc.h ****   return(result);
1698:Drivers/CMSIS/Include/cmsis_gcc.h **** }
1699:Drivers/CMSIS/Include/cmsis_gcc.h **** 
1700:Drivers/CMSIS/Include/cmsis_gcc.h **** __STATIC_FORCEINLINE uint32_t __QSUB8(uint32_t op1, uint32_t op2)
1701:Drivers/CMSIS/Include/cmsis_gcc.h **** {
1702:Drivers/CMSIS/Include/cmsis_gcc.h ****   uint32_t result;
1703:Drivers/CMSIS/Include/cmsis_gcc.h **** 
1704:Drivers/CMSIS/Include/cmsis_gcc.h ****   __ASM ("qsub8 %0, %1, %2" : "=r" (result) : "r" (op1), "r" (op2) );
1705:Drivers/CMSIS/Include/cmsis_gcc.h ****   return(result);
1706:Drivers/CMSIS/Include/cmsis_gcc.h **** }
1707:Drivers/CMSIS/Include/cmsis_gcc.h **** 
1708:Drivers/CMSIS/Include/cmsis_gcc.h **** __STATIC_FORCEINLINE uint32_t __SHSUB8(uint32_t op1, uint32_t op2)
1709:Drivers/CMSIS/Include/cmsis_gcc.h **** {
1710:Drivers/CMSIS/Include/cmsis_gcc.h ****   uint32_t result;
1711:Drivers/CMSIS/Include/cmsis_gcc.h **** 
1712:Drivers/CMSIS/Include/cmsis_gcc.h ****   __ASM ("shsub8 %0, %1, %2" : "=r" (result) : "r" (op1), "r" (op2) );
1713:Drivers/CMSIS/Include/cmsis_gcc.h ****   return(result);
1714:Drivers/CMSIS/Include/cmsis_gcc.h **** }
1715:Drivers/CMSIS/Include/cmsis_gcc.h **** 
1716:Drivers/CMSIS/Include/cmsis_gcc.h **** __STATIC_FORCEINLINE uint32_t __USUB8(uint32_t op1, uint32_t op2)
1717:Drivers/CMSIS/Include/cmsis_gcc.h **** {
1718:Drivers/CMSIS/Include/cmsis_gcc.h ****   uint32_t result;
1719:Drivers/CMSIS/Include/cmsis_gcc.h **** 
1720:Drivers/CMSIS/Include/cmsis_gcc.h ****   __ASM volatile ("usub8 %0, %1, %2" : "=r" (result) : "r" (op1), "r" (op2) );
1721:Drivers/CMSIS/Include/cmsis_gcc.h ****   return(result);
1722:Drivers/CMSIS/Include/cmsis_gcc.h **** }
1723:Drivers/CMSIS/Include/cmsis_gcc.h **** 
1724:Drivers/CMSIS/Include/cmsis_gcc.h **** __STATIC_FORCEINLINE uint32_t __UQSUB8(uint32_t op1, uint32_t op2)
1725:Drivers/CMSIS/Include/cmsis_gcc.h **** {
1726:Drivers/CMSIS/Include/cmsis_gcc.h ****   uint32_t result;
1727:Drivers/CMSIS/Include/cmsis_gcc.h **** 
ARM GAS  /var/folders/ck/g3dcd5x55xs4107jgdl0snvr0000gn/T//cc4og9VU.s 			page 37


1728:Drivers/CMSIS/Include/cmsis_gcc.h ****   __ASM ("uqsub8 %0, %1, %2" : "=r" (result) : "r" (op1), "r" (op2) );
1729:Drivers/CMSIS/Include/cmsis_gcc.h ****   return(result);
1730:Drivers/CMSIS/Include/cmsis_gcc.h **** }
1731:Drivers/CMSIS/Include/cmsis_gcc.h **** 
1732:Drivers/CMSIS/Include/cmsis_gcc.h **** __STATIC_FORCEINLINE uint32_t __UHSUB8(uint32_t op1, uint32_t op2)
1733:Drivers/CMSIS/Include/cmsis_gcc.h **** {
1734:Drivers/CMSIS/Include/cmsis_gcc.h ****   uint32_t result;
1735:Drivers/CMSIS/Include/cmsis_gcc.h **** 
1736:Drivers/CMSIS/Include/cmsis_gcc.h ****   __ASM ("uhsub8 %0, %1, %2" : "=r" (result) : "r" (op1), "r" (op2) );
1737:Drivers/CMSIS/Include/cmsis_gcc.h ****   return(result);
1738:Drivers/CMSIS/Include/cmsis_gcc.h **** }
1739:Drivers/CMSIS/Include/cmsis_gcc.h **** 
1740:Drivers/CMSIS/Include/cmsis_gcc.h **** 
1741:Drivers/CMSIS/Include/cmsis_gcc.h **** __STATIC_FORCEINLINE uint32_t __SADD16(uint32_t op1, uint32_t op2)
1742:Drivers/CMSIS/Include/cmsis_gcc.h **** {
1743:Drivers/CMSIS/Include/cmsis_gcc.h ****   uint32_t result;
1744:Drivers/CMSIS/Include/cmsis_gcc.h **** 
1745:Drivers/CMSIS/Include/cmsis_gcc.h ****   __ASM volatile ("sadd16 %0, %1, %2" : "=r" (result) : "r" (op1), "r" (op2) );
1746:Drivers/CMSIS/Include/cmsis_gcc.h ****   return(result);
1747:Drivers/CMSIS/Include/cmsis_gcc.h **** }
1748:Drivers/CMSIS/Include/cmsis_gcc.h **** 
1749:Drivers/CMSIS/Include/cmsis_gcc.h **** __STATIC_FORCEINLINE uint32_t __QADD16(uint32_t op1, uint32_t op2)
1750:Drivers/CMSIS/Include/cmsis_gcc.h **** {
1751:Drivers/CMSIS/Include/cmsis_gcc.h ****   uint32_t result;
1752:Drivers/CMSIS/Include/cmsis_gcc.h **** 
1753:Drivers/CMSIS/Include/cmsis_gcc.h ****   __ASM ("qadd16 %0, %1, %2" : "=r" (result) : "r" (op1), "r" (op2) );
1754:Drivers/CMSIS/Include/cmsis_gcc.h ****   return(result);
1755:Drivers/CMSIS/Include/cmsis_gcc.h **** }
1756:Drivers/CMSIS/Include/cmsis_gcc.h **** 
1757:Drivers/CMSIS/Include/cmsis_gcc.h **** __STATIC_FORCEINLINE uint32_t __SHADD16(uint32_t op1, uint32_t op2)
1758:Drivers/CMSIS/Include/cmsis_gcc.h **** {
1759:Drivers/CMSIS/Include/cmsis_gcc.h ****   uint32_t result;
1760:Drivers/CMSIS/Include/cmsis_gcc.h **** 
1761:Drivers/CMSIS/Include/cmsis_gcc.h ****   __ASM ("shadd16 %0, %1, %2" : "=r" (result) : "r" (op1), "r" (op2) );
1762:Drivers/CMSIS/Include/cmsis_gcc.h ****   return(result);
1763:Drivers/CMSIS/Include/cmsis_gcc.h **** }
1764:Drivers/CMSIS/Include/cmsis_gcc.h **** 
1765:Drivers/CMSIS/Include/cmsis_gcc.h **** __STATIC_FORCEINLINE uint32_t __UADD16(uint32_t op1, uint32_t op2)
1766:Drivers/CMSIS/Include/cmsis_gcc.h **** {
1767:Drivers/CMSIS/Include/cmsis_gcc.h ****   uint32_t result;
1768:Drivers/CMSIS/Include/cmsis_gcc.h **** 
1769:Drivers/CMSIS/Include/cmsis_gcc.h ****   __ASM volatile ("uadd16 %0, %1, %2" : "=r" (result) : "r" (op1), "r" (op2) );
1770:Drivers/CMSIS/Include/cmsis_gcc.h ****   return(result);
1771:Drivers/CMSIS/Include/cmsis_gcc.h **** }
1772:Drivers/CMSIS/Include/cmsis_gcc.h **** 
1773:Drivers/CMSIS/Include/cmsis_gcc.h **** __STATIC_FORCEINLINE uint32_t __UQADD16(uint32_t op1, uint32_t op2)
1774:Drivers/CMSIS/Include/cmsis_gcc.h **** {
1775:Drivers/CMSIS/Include/cmsis_gcc.h ****   uint32_t result;
1776:Drivers/CMSIS/Include/cmsis_gcc.h **** 
1777:Drivers/CMSIS/Include/cmsis_gcc.h ****   __ASM ("uqadd16 %0, %1, %2" : "=r" (result) : "r" (op1), "r" (op2) );
1778:Drivers/CMSIS/Include/cmsis_gcc.h ****   return(result);
1779:Drivers/CMSIS/Include/cmsis_gcc.h **** }
1780:Drivers/CMSIS/Include/cmsis_gcc.h **** 
1781:Drivers/CMSIS/Include/cmsis_gcc.h **** __STATIC_FORCEINLINE uint32_t __UHADD16(uint32_t op1, uint32_t op2)
1782:Drivers/CMSIS/Include/cmsis_gcc.h **** {
1783:Drivers/CMSIS/Include/cmsis_gcc.h ****   uint32_t result;
1784:Drivers/CMSIS/Include/cmsis_gcc.h **** 
ARM GAS  /var/folders/ck/g3dcd5x55xs4107jgdl0snvr0000gn/T//cc4og9VU.s 			page 38


1785:Drivers/CMSIS/Include/cmsis_gcc.h ****   __ASM ("uhadd16 %0, %1, %2" : "=r" (result) : "r" (op1), "r" (op2) );
1786:Drivers/CMSIS/Include/cmsis_gcc.h ****   return(result);
1787:Drivers/CMSIS/Include/cmsis_gcc.h **** }
1788:Drivers/CMSIS/Include/cmsis_gcc.h **** 
1789:Drivers/CMSIS/Include/cmsis_gcc.h **** __STATIC_FORCEINLINE uint32_t __SSUB16(uint32_t op1, uint32_t op2)
1790:Drivers/CMSIS/Include/cmsis_gcc.h **** {
1791:Drivers/CMSIS/Include/cmsis_gcc.h ****   uint32_t result;
1792:Drivers/CMSIS/Include/cmsis_gcc.h **** 
1793:Drivers/CMSIS/Include/cmsis_gcc.h ****   __ASM volatile ("ssub16 %0, %1, %2" : "=r" (result) : "r" (op1), "r" (op2) );
1794:Drivers/CMSIS/Include/cmsis_gcc.h ****   return(result);
1795:Drivers/CMSIS/Include/cmsis_gcc.h **** }
1796:Drivers/CMSIS/Include/cmsis_gcc.h **** 
1797:Drivers/CMSIS/Include/cmsis_gcc.h **** __STATIC_FORCEINLINE uint32_t __QSUB16(uint32_t op1, uint32_t op2)
1798:Drivers/CMSIS/Include/cmsis_gcc.h **** {
1799:Drivers/CMSIS/Include/cmsis_gcc.h ****   uint32_t result;
1800:Drivers/CMSIS/Include/cmsis_gcc.h **** 
1801:Drivers/CMSIS/Include/cmsis_gcc.h ****   __ASM ("qsub16 %0, %1, %2" : "=r" (result) : "r" (op1), "r" (op2) );
1802:Drivers/CMSIS/Include/cmsis_gcc.h ****   return(result);
1803:Drivers/CMSIS/Include/cmsis_gcc.h **** }
1804:Drivers/CMSIS/Include/cmsis_gcc.h **** 
1805:Drivers/CMSIS/Include/cmsis_gcc.h **** __STATIC_FORCEINLINE uint32_t __SHSUB16(uint32_t op1, uint32_t op2)
1806:Drivers/CMSIS/Include/cmsis_gcc.h **** {
1807:Drivers/CMSIS/Include/cmsis_gcc.h ****   uint32_t result;
1808:Drivers/CMSIS/Include/cmsis_gcc.h **** 
1809:Drivers/CMSIS/Include/cmsis_gcc.h ****   __ASM ("shsub16 %0, %1, %2" : "=r" (result) : "r" (op1), "r" (op2) );
1810:Drivers/CMSIS/Include/cmsis_gcc.h ****   return(result);
1811:Drivers/CMSIS/Include/cmsis_gcc.h **** }
1812:Drivers/CMSIS/Include/cmsis_gcc.h **** 
1813:Drivers/CMSIS/Include/cmsis_gcc.h **** __STATIC_FORCEINLINE uint32_t __USUB16(uint32_t op1, uint32_t op2)
1814:Drivers/CMSIS/Include/cmsis_gcc.h **** {
1815:Drivers/CMSIS/Include/cmsis_gcc.h ****   uint32_t result;
1816:Drivers/CMSIS/Include/cmsis_gcc.h **** 
1817:Drivers/CMSIS/Include/cmsis_gcc.h ****   __ASM volatile ("usub16 %0, %1, %2" : "=r" (result) : "r" (op1), "r" (op2) );
1818:Drivers/CMSIS/Include/cmsis_gcc.h ****   return(result);
1819:Drivers/CMSIS/Include/cmsis_gcc.h **** }
1820:Drivers/CMSIS/Include/cmsis_gcc.h **** 
1821:Drivers/CMSIS/Include/cmsis_gcc.h **** __STATIC_FORCEINLINE uint32_t __UQSUB16(uint32_t op1, uint32_t op2)
1822:Drivers/CMSIS/Include/cmsis_gcc.h **** {
1823:Drivers/CMSIS/Include/cmsis_gcc.h ****   uint32_t result;
1824:Drivers/CMSIS/Include/cmsis_gcc.h **** 
1825:Drivers/CMSIS/Include/cmsis_gcc.h ****   __ASM ("uqsub16 %0, %1, %2" : "=r" (result) : "r" (op1), "r" (op2) );
1826:Drivers/CMSIS/Include/cmsis_gcc.h ****   return(result);
1827:Drivers/CMSIS/Include/cmsis_gcc.h **** }
1828:Drivers/CMSIS/Include/cmsis_gcc.h **** 
1829:Drivers/CMSIS/Include/cmsis_gcc.h **** __STATIC_FORCEINLINE uint32_t __UHSUB16(uint32_t op1, uint32_t op2)
1830:Drivers/CMSIS/Include/cmsis_gcc.h **** {
1831:Drivers/CMSIS/Include/cmsis_gcc.h ****   uint32_t result;
1832:Drivers/CMSIS/Include/cmsis_gcc.h **** 
1833:Drivers/CMSIS/Include/cmsis_gcc.h ****   __ASM ("uhsub16 %0, %1, %2" : "=r" (result) : "r" (op1), "r" (op2) );
1834:Drivers/CMSIS/Include/cmsis_gcc.h ****   return(result);
1835:Drivers/CMSIS/Include/cmsis_gcc.h **** }
1836:Drivers/CMSIS/Include/cmsis_gcc.h **** 
1837:Drivers/CMSIS/Include/cmsis_gcc.h **** __STATIC_FORCEINLINE uint32_t __SASX(uint32_t op1, uint32_t op2)
1838:Drivers/CMSIS/Include/cmsis_gcc.h **** {
1839:Drivers/CMSIS/Include/cmsis_gcc.h ****   uint32_t result;
1840:Drivers/CMSIS/Include/cmsis_gcc.h **** 
1841:Drivers/CMSIS/Include/cmsis_gcc.h ****   __ASM volatile ("sasx %0, %1, %2" : "=r" (result) : "r" (op1), "r" (op2) );
ARM GAS  /var/folders/ck/g3dcd5x55xs4107jgdl0snvr0000gn/T//cc4og9VU.s 			page 39


1842:Drivers/CMSIS/Include/cmsis_gcc.h ****   return(result);
1843:Drivers/CMSIS/Include/cmsis_gcc.h **** }
1844:Drivers/CMSIS/Include/cmsis_gcc.h **** 
1845:Drivers/CMSIS/Include/cmsis_gcc.h **** __STATIC_FORCEINLINE uint32_t __QASX(uint32_t op1, uint32_t op2)
1846:Drivers/CMSIS/Include/cmsis_gcc.h **** {
1847:Drivers/CMSIS/Include/cmsis_gcc.h ****   uint32_t result;
1848:Drivers/CMSIS/Include/cmsis_gcc.h **** 
1849:Drivers/CMSIS/Include/cmsis_gcc.h ****   __ASM ("qasx %0, %1, %2" : "=r" (result) : "r" (op1), "r" (op2) );
1850:Drivers/CMSIS/Include/cmsis_gcc.h ****   return(result);
1851:Drivers/CMSIS/Include/cmsis_gcc.h **** }
1852:Drivers/CMSIS/Include/cmsis_gcc.h **** 
1853:Drivers/CMSIS/Include/cmsis_gcc.h **** __STATIC_FORCEINLINE uint32_t __SHASX(uint32_t op1, uint32_t op2)
1854:Drivers/CMSIS/Include/cmsis_gcc.h **** {
1855:Drivers/CMSIS/Include/cmsis_gcc.h ****   uint32_t result;
1856:Drivers/CMSIS/Include/cmsis_gcc.h **** 
1857:Drivers/CMSIS/Include/cmsis_gcc.h ****   __ASM ("shasx %0, %1, %2" : "=r" (result) : "r" (op1), "r" (op2) );
1858:Drivers/CMSIS/Include/cmsis_gcc.h ****   return(result);
1859:Drivers/CMSIS/Include/cmsis_gcc.h **** }
1860:Drivers/CMSIS/Include/cmsis_gcc.h **** 
1861:Drivers/CMSIS/Include/cmsis_gcc.h **** __STATIC_FORCEINLINE uint32_t __UASX(uint32_t op1, uint32_t op2)
1862:Drivers/CMSIS/Include/cmsis_gcc.h **** {
1863:Drivers/CMSIS/Include/cmsis_gcc.h ****   uint32_t result;
1864:Drivers/CMSIS/Include/cmsis_gcc.h **** 
1865:Drivers/CMSIS/Include/cmsis_gcc.h ****   __ASM volatile ("uasx %0, %1, %2" : "=r" (result) : "r" (op1), "r" (op2) );
1866:Drivers/CMSIS/Include/cmsis_gcc.h ****   return(result);
1867:Drivers/CMSIS/Include/cmsis_gcc.h **** }
1868:Drivers/CMSIS/Include/cmsis_gcc.h **** 
1869:Drivers/CMSIS/Include/cmsis_gcc.h **** __STATIC_FORCEINLINE uint32_t __UQASX(uint32_t op1, uint32_t op2)
1870:Drivers/CMSIS/Include/cmsis_gcc.h **** {
1871:Drivers/CMSIS/Include/cmsis_gcc.h ****   uint32_t result;
1872:Drivers/CMSIS/Include/cmsis_gcc.h **** 
1873:Drivers/CMSIS/Include/cmsis_gcc.h ****   __ASM ("uqasx %0, %1, %2" : "=r" (result) : "r" (op1), "r" (op2) );
1874:Drivers/CMSIS/Include/cmsis_gcc.h ****   return(result);
1875:Drivers/CMSIS/Include/cmsis_gcc.h **** }
1876:Drivers/CMSIS/Include/cmsis_gcc.h **** 
1877:Drivers/CMSIS/Include/cmsis_gcc.h **** __STATIC_FORCEINLINE uint32_t __UHASX(uint32_t op1, uint32_t op2)
1878:Drivers/CMSIS/Include/cmsis_gcc.h **** {
1879:Drivers/CMSIS/Include/cmsis_gcc.h ****   uint32_t result;
1880:Drivers/CMSIS/Include/cmsis_gcc.h **** 
1881:Drivers/CMSIS/Include/cmsis_gcc.h ****   __ASM ("uhasx %0, %1, %2" : "=r" (result) : "r" (op1), "r" (op2) );
1882:Drivers/CMSIS/Include/cmsis_gcc.h ****   return(result);
1883:Drivers/CMSIS/Include/cmsis_gcc.h **** }
1884:Drivers/CMSIS/Include/cmsis_gcc.h **** 
1885:Drivers/CMSIS/Include/cmsis_gcc.h **** __STATIC_FORCEINLINE uint32_t __SSAX(uint32_t op1, uint32_t op2)
1886:Drivers/CMSIS/Include/cmsis_gcc.h **** {
1887:Drivers/CMSIS/Include/cmsis_gcc.h ****   uint32_t result;
1888:Drivers/CMSIS/Include/cmsis_gcc.h **** 
1889:Drivers/CMSIS/Include/cmsis_gcc.h ****   __ASM volatile ("ssax %0, %1, %2" : "=r" (result) : "r" (op1), "r" (op2) );
1890:Drivers/CMSIS/Include/cmsis_gcc.h ****   return(result);
1891:Drivers/CMSIS/Include/cmsis_gcc.h **** }
1892:Drivers/CMSIS/Include/cmsis_gcc.h **** 
1893:Drivers/CMSIS/Include/cmsis_gcc.h **** __STATIC_FORCEINLINE uint32_t __QSAX(uint32_t op1, uint32_t op2)
1894:Drivers/CMSIS/Include/cmsis_gcc.h **** {
1895:Drivers/CMSIS/Include/cmsis_gcc.h ****   uint32_t result;
1896:Drivers/CMSIS/Include/cmsis_gcc.h **** 
1897:Drivers/CMSIS/Include/cmsis_gcc.h ****   __ASM ("qsax %0, %1, %2" : "=r" (result) : "r" (op1), "r" (op2) );
1898:Drivers/CMSIS/Include/cmsis_gcc.h ****   return(result);
ARM GAS  /var/folders/ck/g3dcd5x55xs4107jgdl0snvr0000gn/T//cc4og9VU.s 			page 40


1899:Drivers/CMSIS/Include/cmsis_gcc.h **** }
1900:Drivers/CMSIS/Include/cmsis_gcc.h **** 
1901:Drivers/CMSIS/Include/cmsis_gcc.h **** __STATIC_FORCEINLINE uint32_t __SHSAX(uint32_t op1, uint32_t op2)
1902:Drivers/CMSIS/Include/cmsis_gcc.h **** {
1903:Drivers/CMSIS/Include/cmsis_gcc.h ****   uint32_t result;
1904:Drivers/CMSIS/Include/cmsis_gcc.h **** 
1905:Drivers/CMSIS/Include/cmsis_gcc.h ****   __ASM ("shsax %0, %1, %2" : "=r" (result) : "r" (op1), "r" (op2) );
1906:Drivers/CMSIS/Include/cmsis_gcc.h ****   return(result);
1907:Drivers/CMSIS/Include/cmsis_gcc.h **** }
1908:Drivers/CMSIS/Include/cmsis_gcc.h **** 
1909:Drivers/CMSIS/Include/cmsis_gcc.h **** __STATIC_FORCEINLINE uint32_t __USAX(uint32_t op1, uint32_t op2)
1910:Drivers/CMSIS/Include/cmsis_gcc.h **** {
1911:Drivers/CMSIS/Include/cmsis_gcc.h ****   uint32_t result;
1912:Drivers/CMSIS/Include/cmsis_gcc.h **** 
1913:Drivers/CMSIS/Include/cmsis_gcc.h ****   __ASM volatile ("usax %0, %1, %2" : "=r" (result) : "r" (op1), "r" (op2) );
1914:Drivers/CMSIS/Include/cmsis_gcc.h ****   return(result);
1915:Drivers/CMSIS/Include/cmsis_gcc.h **** }
1916:Drivers/CMSIS/Include/cmsis_gcc.h **** 
1917:Drivers/CMSIS/Include/cmsis_gcc.h **** __STATIC_FORCEINLINE uint32_t __UQSAX(uint32_t op1, uint32_t op2)
1918:Drivers/CMSIS/Include/cmsis_gcc.h **** {
1919:Drivers/CMSIS/Include/cmsis_gcc.h ****   uint32_t result;
1920:Drivers/CMSIS/Include/cmsis_gcc.h **** 
1921:Drivers/CMSIS/Include/cmsis_gcc.h ****   __ASM ("uqsax %0, %1, %2" : "=r" (result) : "r" (op1), "r" (op2) );
1922:Drivers/CMSIS/Include/cmsis_gcc.h ****   return(result);
1923:Drivers/CMSIS/Include/cmsis_gcc.h **** }
1924:Drivers/CMSIS/Include/cmsis_gcc.h **** 
1925:Drivers/CMSIS/Include/cmsis_gcc.h **** __STATIC_FORCEINLINE uint32_t __UHSAX(uint32_t op1, uint32_t op2)
1926:Drivers/CMSIS/Include/cmsis_gcc.h **** {
1927:Drivers/CMSIS/Include/cmsis_gcc.h ****   uint32_t result;
1928:Drivers/CMSIS/Include/cmsis_gcc.h **** 
1929:Drivers/CMSIS/Include/cmsis_gcc.h ****   __ASM ("uhsax %0, %1, %2" : "=r" (result) : "r" (op1), "r" (op2) );
1930:Drivers/CMSIS/Include/cmsis_gcc.h ****   return(result);
1931:Drivers/CMSIS/Include/cmsis_gcc.h **** }
1932:Drivers/CMSIS/Include/cmsis_gcc.h **** 
1933:Drivers/CMSIS/Include/cmsis_gcc.h **** __STATIC_FORCEINLINE uint32_t __USAD8(uint32_t op1, uint32_t op2)
1934:Drivers/CMSIS/Include/cmsis_gcc.h **** {
1935:Drivers/CMSIS/Include/cmsis_gcc.h ****   uint32_t result;
1936:Drivers/CMSIS/Include/cmsis_gcc.h **** 
1937:Drivers/CMSIS/Include/cmsis_gcc.h ****   __ASM ("usad8 %0, %1, %2" : "=r" (result) : "r" (op1), "r" (op2) );
1938:Drivers/CMSIS/Include/cmsis_gcc.h ****   return(result);
1939:Drivers/CMSIS/Include/cmsis_gcc.h **** }
1940:Drivers/CMSIS/Include/cmsis_gcc.h **** 
1941:Drivers/CMSIS/Include/cmsis_gcc.h **** __STATIC_FORCEINLINE uint32_t __USADA8(uint32_t op1, uint32_t op2, uint32_t op3)
1942:Drivers/CMSIS/Include/cmsis_gcc.h **** {
1943:Drivers/CMSIS/Include/cmsis_gcc.h ****   uint32_t result;
1944:Drivers/CMSIS/Include/cmsis_gcc.h **** 
1945:Drivers/CMSIS/Include/cmsis_gcc.h ****   __ASM ("usada8 %0, %1, %2, %3" : "=r" (result) : "r" (op1), "r" (op2), "r" (op3) );
1946:Drivers/CMSIS/Include/cmsis_gcc.h ****   return(result);
1947:Drivers/CMSIS/Include/cmsis_gcc.h **** }
1948:Drivers/CMSIS/Include/cmsis_gcc.h **** 
1949:Drivers/CMSIS/Include/cmsis_gcc.h **** #define __SSAT16(ARG1, ARG2) \
1950:Drivers/CMSIS/Include/cmsis_gcc.h **** __extension__ \
1951:Drivers/CMSIS/Include/cmsis_gcc.h **** ({                          \
1952:Drivers/CMSIS/Include/cmsis_gcc.h ****   int32_t __RES, __ARG1 = (ARG1); \
1953:Drivers/CMSIS/Include/cmsis_gcc.h ****   __ASM volatile ("ssat16 %0, %1, %2" : "=r" (__RES) :  "I" (ARG2), "r" (__ARG1) : "cc" ); \
1954:Drivers/CMSIS/Include/cmsis_gcc.h ****   __RES; \
1955:Drivers/CMSIS/Include/cmsis_gcc.h ****  })
ARM GAS  /var/folders/ck/g3dcd5x55xs4107jgdl0snvr0000gn/T//cc4og9VU.s 			page 41


1956:Drivers/CMSIS/Include/cmsis_gcc.h **** 
1957:Drivers/CMSIS/Include/cmsis_gcc.h **** #define __USAT16(ARG1, ARG2) \
1958:Drivers/CMSIS/Include/cmsis_gcc.h **** __extension__ \
1959:Drivers/CMSIS/Include/cmsis_gcc.h **** ({                          \
1960:Drivers/CMSIS/Include/cmsis_gcc.h ****   uint32_t __RES, __ARG1 = (ARG1); \
1961:Drivers/CMSIS/Include/cmsis_gcc.h ****   __ASM volatile ("usat16 %0, %1, %2" : "=r" (__RES) :  "I" (ARG2), "r" (__ARG1) : "cc" ); \
1962:Drivers/CMSIS/Include/cmsis_gcc.h ****   __RES; \
1963:Drivers/CMSIS/Include/cmsis_gcc.h ****  })
1964:Drivers/CMSIS/Include/cmsis_gcc.h **** 
1965:Drivers/CMSIS/Include/cmsis_gcc.h **** __STATIC_FORCEINLINE uint32_t __UXTB16(uint32_t op1)
1966:Drivers/CMSIS/Include/cmsis_gcc.h **** {
1967:Drivers/CMSIS/Include/cmsis_gcc.h ****   uint32_t result;
1968:Drivers/CMSIS/Include/cmsis_gcc.h **** 
1969:Drivers/CMSIS/Include/cmsis_gcc.h ****   __ASM ("uxtb16 %0, %1" : "=r" (result) : "r" (op1));
1970:Drivers/CMSIS/Include/cmsis_gcc.h ****   return(result);
1971:Drivers/CMSIS/Include/cmsis_gcc.h **** }
1972:Drivers/CMSIS/Include/cmsis_gcc.h **** 
1973:Drivers/CMSIS/Include/cmsis_gcc.h **** __STATIC_FORCEINLINE uint32_t __UXTAB16(uint32_t op1, uint32_t op2)
1974:Drivers/CMSIS/Include/cmsis_gcc.h **** {
1975:Drivers/CMSIS/Include/cmsis_gcc.h ****   uint32_t result;
1976:Drivers/CMSIS/Include/cmsis_gcc.h **** 
1977:Drivers/CMSIS/Include/cmsis_gcc.h ****   __ASM ("uxtab16 %0, %1, %2" : "=r" (result) : "r" (op1), "r" (op2) );
1978:Drivers/CMSIS/Include/cmsis_gcc.h ****   return(result);
1979:Drivers/CMSIS/Include/cmsis_gcc.h **** }
1980:Drivers/CMSIS/Include/cmsis_gcc.h **** 
1981:Drivers/CMSIS/Include/cmsis_gcc.h **** __STATIC_FORCEINLINE uint32_t __SXTB16(uint32_t op1)
1982:Drivers/CMSIS/Include/cmsis_gcc.h **** {
1983:Drivers/CMSIS/Include/cmsis_gcc.h ****   uint32_t result;
1984:Drivers/CMSIS/Include/cmsis_gcc.h **** 
1985:Drivers/CMSIS/Include/cmsis_gcc.h ****   __ASM ("sxtb16 %0, %1" : "=r" (result) : "r" (op1));
1986:Drivers/CMSIS/Include/cmsis_gcc.h ****   return(result);
1987:Drivers/CMSIS/Include/cmsis_gcc.h **** }
1988:Drivers/CMSIS/Include/cmsis_gcc.h **** 
1989:Drivers/CMSIS/Include/cmsis_gcc.h **** __STATIC_FORCEINLINE uint32_t __SXTB16_RORn(uint32_t op1, uint32_t rotate)
1990:Drivers/CMSIS/Include/cmsis_gcc.h **** {
1991:Drivers/CMSIS/Include/cmsis_gcc.h ****   uint32_t result;
1992:Drivers/CMSIS/Include/cmsis_gcc.h ****   if (__builtin_constant_p(rotate) && ((rotate == 8U) || (rotate == 16U) || (rotate == 24U))) {
1993:Drivers/CMSIS/Include/cmsis_gcc.h ****     __ASM volatile ("sxtb16 %0, %1, ROR %2" : "=r" (result) : "r" (op1), "i" (rotate) );
1994:Drivers/CMSIS/Include/cmsis_gcc.h ****   } else {
1995:Drivers/CMSIS/Include/cmsis_gcc.h ****     result = __SXTB16(__ROR(op1, rotate)) ;
1996:Drivers/CMSIS/Include/cmsis_gcc.h ****   }
1997:Drivers/CMSIS/Include/cmsis_gcc.h ****   return result;
1998:Drivers/CMSIS/Include/cmsis_gcc.h **** }
1999:Drivers/CMSIS/Include/cmsis_gcc.h **** 
2000:Drivers/CMSIS/Include/cmsis_gcc.h **** __STATIC_FORCEINLINE uint32_t __SXTAB16(uint32_t op1, uint32_t op2)
2001:Drivers/CMSIS/Include/cmsis_gcc.h **** {
2002:Drivers/CMSIS/Include/cmsis_gcc.h ****   uint32_t result;
2003:Drivers/CMSIS/Include/cmsis_gcc.h **** 
2004:Drivers/CMSIS/Include/cmsis_gcc.h ****   __ASM ("sxtab16 %0, %1, %2" : "=r" (result) : "r" (op1), "r" (op2) );
2005:Drivers/CMSIS/Include/cmsis_gcc.h ****   return(result);
2006:Drivers/CMSIS/Include/cmsis_gcc.h **** }
2007:Drivers/CMSIS/Include/cmsis_gcc.h **** 
2008:Drivers/CMSIS/Include/cmsis_gcc.h **** __STATIC_FORCEINLINE uint32_t __SXTAB16_RORn(uint32_t op1, uint32_t op2, uint32_t rotate)
2009:Drivers/CMSIS/Include/cmsis_gcc.h **** {
2010:Drivers/CMSIS/Include/cmsis_gcc.h ****   uint32_t result;
2011:Drivers/CMSIS/Include/cmsis_gcc.h ****   if (__builtin_constant_p(rotate) && ((rotate == 8U) || (rotate == 16U) || (rotate == 24U))) {
2012:Drivers/CMSIS/Include/cmsis_gcc.h ****     __ASM volatile ("sxtab16 %0, %1, %2, ROR %3" : "=r" (result) : "r" (op1) , "r" (op2) , "i" (rot
ARM GAS  /var/folders/ck/g3dcd5x55xs4107jgdl0snvr0000gn/T//cc4og9VU.s 			page 42


2013:Drivers/CMSIS/Include/cmsis_gcc.h ****   } else {
2014:Drivers/CMSIS/Include/cmsis_gcc.h ****     result = __SXTAB16(op1, __ROR(op2, rotate));
2015:Drivers/CMSIS/Include/cmsis_gcc.h ****   }
2016:Drivers/CMSIS/Include/cmsis_gcc.h ****   return result;
2017:Drivers/CMSIS/Include/cmsis_gcc.h **** }
2018:Drivers/CMSIS/Include/cmsis_gcc.h **** 
2019:Drivers/CMSIS/Include/cmsis_gcc.h **** 
2020:Drivers/CMSIS/Include/cmsis_gcc.h **** __STATIC_FORCEINLINE uint32_t __SMUAD  (uint32_t op1, uint32_t op2)
2021:Drivers/CMSIS/Include/cmsis_gcc.h **** {
2022:Drivers/CMSIS/Include/cmsis_gcc.h ****   uint32_t result;
2023:Drivers/CMSIS/Include/cmsis_gcc.h **** 
2024:Drivers/CMSIS/Include/cmsis_gcc.h ****   __ASM volatile ("smuad %0, %1, %2" : "=r" (result) : "r" (op1), "r" (op2) );
2025:Drivers/CMSIS/Include/cmsis_gcc.h ****   return(result);
2026:Drivers/CMSIS/Include/cmsis_gcc.h **** }
2027:Drivers/CMSIS/Include/cmsis_gcc.h **** 
2028:Drivers/CMSIS/Include/cmsis_gcc.h **** __STATIC_FORCEINLINE uint32_t __SMUADX (uint32_t op1, uint32_t op2)
2029:Drivers/CMSIS/Include/cmsis_gcc.h **** {
2030:Drivers/CMSIS/Include/cmsis_gcc.h ****   uint32_t result;
2031:Drivers/CMSIS/Include/cmsis_gcc.h **** 
2032:Drivers/CMSIS/Include/cmsis_gcc.h ****   __ASM volatile ("smuadx %0, %1, %2" : "=r" (result) : "r" (op1), "r" (op2) );
2033:Drivers/CMSIS/Include/cmsis_gcc.h ****   return(result);
2034:Drivers/CMSIS/Include/cmsis_gcc.h **** }
2035:Drivers/CMSIS/Include/cmsis_gcc.h **** 
2036:Drivers/CMSIS/Include/cmsis_gcc.h **** __STATIC_FORCEINLINE uint32_t __SMLAD (uint32_t op1, uint32_t op2, uint32_t op3)
 142              		.loc 2 2036 31 view .LVU49
 143              	.LBB39:
2037:Drivers/CMSIS/Include/cmsis_gcc.h **** {
2038:Drivers/CMSIS/Include/cmsis_gcc.h ****   uint32_t result;
 144              		.loc 2 2038 3 view .LVU50
2039:Drivers/CMSIS/Include/cmsis_gcc.h **** 
2040:Drivers/CMSIS/Include/cmsis_gcc.h ****   __ASM volatile ("smlad %0, %1, %2, %3" : "=r" (result) : "r" (op1), "r" (op2), "r" (op3) );
 145              		.loc 2 2040 3 view .LVU51
 146              		.syntax unified
 147              	@ 2040 "Drivers/CMSIS/Include/cmsis_gcc.h" 1
 148 0050 25FB0C15 		smlad r5, r5, ip, r1
 149              	@ 0 "" 2
 150              	.LVL16:
2041:Drivers/CMSIS/Include/cmsis_gcc.h ****   return(result);
 151              		.loc 2 2041 3 view .LVU52
 152              		.loc 2 2041 3 is_stmt 0 view .LVU53
 153              		.thumb
 154              		.syntax unified
 155              	.LBE39:
 156              	.LBE38:
 180:DSP/Source/FilteringFunctions/arm_conv_q7.c **** 
 181:DSP/Source/FilteringFunctions/arm_conv_q7.c ****       /* x[2] , x[3] */
 182:DSP/Source/FilteringFunctions/arm_conv_q7.c ****       in1 = (q15_t) * px++;
 157              		.loc 1 182 7 is_stmt 1 view .LVU54
 158              		.loc 1 182 21 is_stmt 0 view .LVU55
 159 0054 93F90210 		ldrsb	r1, [r3, #2]
 160              	.LVL17:
 183:DSP/Source/FilteringFunctions/arm_conv_q7.c ****       in2 = (q15_t) * px++;
 161              		.loc 1 183 7 is_stmt 1 view .LVU56
 162              		.loc 1 183 25 is_stmt 0 view .LVU57
 163 0058 03F1040C 		add	ip, r3, #4
 164              	.LVL18:
 165              		.loc 1 183 21 view .LVU58
ARM GAS  /var/folders/ck/g3dcd5x55xs4107jgdl0snvr0000gn/T//cc4og9VU.s 			page 43


 166 005c 93F90330 		ldrsb	r3, [r3, #3]
 167              	.LVL19:
 184:DSP/Source/FilteringFunctions/arm_conv_q7.c ****       input1 = ((q31_t) in1 & 0x0000FFFF) | ((q31_t) in2 << 16U);
 168              		.loc 1 184 7 is_stmt 1 view .LVU59
 169              		.loc 1 184 29 is_stmt 0 view .LVU60
 170 0060 89B2     		uxth	r1, r1
 171              		.loc 1 184 14 view .LVU61
 172 0062 41EA0341 		orr	r1, r1, r3, lsl #16
 173              	.LVL20:
 185:DSP/Source/FilteringFunctions/arm_conv_q7.c **** 
 186:DSP/Source/FilteringFunctions/arm_conv_q7.c ****       /* y[srcBLen - 3] , y[srcBLen - 4] */
 187:DSP/Source/FilteringFunctions/arm_conv_q7.c ****       in1 = (q15_t) * py--;
 174              		.loc 1 187 7 is_stmt 1 view .LVU62
 175              		.loc 1 187 21 is_stmt 0 view .LVU63
 176 0066 14F9029C 		ldrsb	r9, [r4, #-2]
 177              	.LVL21:
 188:DSP/Source/FilteringFunctions/arm_conv_q7.c ****       in2 = (q15_t) * py--;
 178              		.loc 1 188 7 is_stmt 1 view .LVU64
 179              		.loc 1 188 25 is_stmt 0 view .LVU65
 180 006a 231F     		subs	r3, r4, #4
 181              	.LVL22:
 182              		.loc 1 188 21 view .LVU66
 183 006c 14F9034C 		ldrsb	r4, [r4, #-3]
 184              	.LVL23:
 189:DSP/Source/FilteringFunctions/arm_conv_q7.c ****       input2 = ((q31_t) in1 & 0x0000FFFF) | ((q31_t) in2 << 16U);
 185              		.loc 1 189 7 is_stmt 1 view .LVU67
 186              		.loc 1 189 29 is_stmt 0 view .LVU68
 187 0070 1FFA89F9 		uxth	r9, r9
 188              		.loc 1 189 14 view .LVU69
 189 0074 49EA0444 		orr	r4, r9, r4, lsl #16
 190              	.LVL24:
 190:DSP/Source/FilteringFunctions/arm_conv_q7.c **** 
 191:DSP/Source/FilteringFunctions/arm_conv_q7.c ****       /* x[2] * y[srcBLen - 3] */
 192:DSP/Source/FilteringFunctions/arm_conv_q7.c ****       /* x[3] * y[srcBLen - 4] */
 193:DSP/Source/FilteringFunctions/arm_conv_q7.c ****       sum = __SMLAD(input1, input2, sum);
 191              		.loc 1 193 7 is_stmt 1 view .LVU70
 192              	.LBB40:
 193              	.LBI40:
2036:Drivers/CMSIS/Include/cmsis_gcc.h **** {
 194              		.loc 2 2036 31 view .LVU71
 195              	.LBB41:
2038:Drivers/CMSIS/Include/cmsis_gcc.h **** 
 196              		.loc 2 2038 3 view .LVU72
2040:Drivers/CMSIS/Include/cmsis_gcc.h ****   return(result);
 197              		.loc 2 2040 3 view .LVU73
 198              		.syntax unified
 199              	@ 2040 "Drivers/CMSIS/Include/cmsis_gcc.h" 1
 200 0078 21FB0451 		smlad r1, r1, r4, r5
 201              	@ 0 "" 2
 202              	.LVL25:
 203              		.loc 2 2041 3 view .LVU74
 204              		.loc 2 2041 3 is_stmt 0 view .LVU75
 205              		.thumb
 206              		.syntax unified
 207              	.LBE41:
 208              	.LBE40:
 194:DSP/Source/FilteringFunctions/arm_conv_q7.c **** 
ARM GAS  /var/folders/ck/g3dcd5x55xs4107jgdl0snvr0000gn/T//cc4og9VU.s 			page 44


 195:DSP/Source/FilteringFunctions/arm_conv_q7.c ****       /* Decrement the loop counter */
 196:DSP/Source/FilteringFunctions/arm_conv_q7.c ****       k--;
 209              		.loc 1 196 7 is_stmt 1 view .LVU76
 210              		.loc 1 196 8 is_stmt 0 view .LVU77
 211 007c 013E     		subs	r6, r6, #1
 212              	.LVL26:
 188:DSP/Source/FilteringFunctions/arm_conv_q7.c ****       input2 = ((q31_t) in1 & 0x0000FFFF) | ((q31_t) in2 << 16U);
 213              		.loc 1 188 25 view .LVU78
 214 007e 1C46     		mov	r4, r3
 215              	.LVL27:
 183:DSP/Source/FilteringFunctions/arm_conv_q7.c ****       input1 = ((q31_t) in1 & 0x0000FFFF) | ((q31_t) in2 << 16U);
 216              		.loc 1 183 25 view .LVU79
 217 0080 6346     		mov	r3, ip
 218              	.LVL28:
 219              	.L4:
 165:DSP/Source/FilteringFunctions/arm_conv_q7.c ****     {
 220              		.loc 1 165 14 is_stmt 1 view .LVU80
 221 0082 002E     		cmp	r6, #0
 222 0084 D5D1     		bne	.L5
 197:DSP/Source/FilteringFunctions/arm_conv_q7.c ****     }
 198:DSP/Source/FilteringFunctions/arm_conv_q7.c **** 
 199:DSP/Source/FilteringFunctions/arm_conv_q7.c ****     /* If the count is not a multiple of 4, compute any remaining MACs here.
 200:DSP/Source/FilteringFunctions/arm_conv_q7.c ****      ** No loop unrolling is used. */
 201:DSP/Source/FilteringFunctions/arm_conv_q7.c ****     k = count % 0x4U;
 223              		.loc 1 201 5 view .LVU81
 224              		.loc 1 201 7 is_stmt 0 view .LVU82
 225 0086 0EF00305 		and	r5, lr, #3
 226              	.LVL29:
 202:DSP/Source/FilteringFunctions/arm_conv_q7.c **** 
 203:DSP/Source/FilteringFunctions/arm_conv_q7.c ****     while (k > 0U)
 227              		.loc 1 203 5 is_stmt 1 view .LVU83
 228              		.loc 1 203 11 is_stmt 0 view .LVU84
 229 008a 06E0     		b	.L6
 230              	.L7:
 204:DSP/Source/FilteringFunctions/arm_conv_q7.c ****     {
 205:DSP/Source/FilteringFunctions/arm_conv_q7.c ****       /* Perform the multiply-accumulates */
 206:DSP/Source/FilteringFunctions/arm_conv_q7.c ****       sum += ((q15_t) * px++ * *py--);
 231              		.loc 1 206 7 is_stmt 1 view .LVU85
 232              	.LVL30:
 233              		.loc 1 206 23 is_stmt 0 view .LVU86
 234 008c 13F9016B 		ldrsb	r6, [r3], #1
 235              	.LVL31:
 236              		.loc 1 206 32 view .LVU87
 237 0090 14F901C9 		ldrsb	ip, [r4], #-1
 238              	.LVL32:
 239              		.loc 1 206 11 view .LVU88
 240 0094 0CFB0611 		mla	r1, ip, r6, r1
 241              	.LVL33:
 207:DSP/Source/FilteringFunctions/arm_conv_q7.c **** 
 208:DSP/Source/FilteringFunctions/arm_conv_q7.c ****       /* Decrement the loop counter */
 209:DSP/Source/FilteringFunctions/arm_conv_q7.c ****       k--;
 242              		.loc 1 209 7 is_stmt 1 view .LVU89
 243              		.loc 1 209 8 is_stmt 0 view .LVU90
 244 0098 013D     		subs	r5, r5, #1
 245              	.LVL34:
 246              	.L6:
 203:DSP/Source/FilteringFunctions/arm_conv_q7.c ****     {
ARM GAS  /var/folders/ck/g3dcd5x55xs4107jgdl0snvr0000gn/T//cc4og9VU.s 			page 45


 247              		.loc 1 203 14 is_stmt 1 view .LVU91
 248 009a 002D     		cmp	r5, #0
 249 009c F6D1     		bne	.L7
 210:DSP/Source/FilteringFunctions/arm_conv_q7.c ****     }
 211:DSP/Source/FilteringFunctions/arm_conv_q7.c **** 
 212:DSP/Source/FilteringFunctions/arm_conv_q7.c ****     /* Store the result in the accumulator in the destination buffer. */
 213:DSP/Source/FilteringFunctions/arm_conv_q7.c ****     *pOut++ = (q7_t) (__SSAT(sum >> 7U, 8));
 250              		.loc 1 213 5 view .LVU92
 251              	.LBB42:
 252              		.loc 1 213 23 view .LVU93
 253 009e C911     		asrs	r1, r1, #7
 254              	.LVL35:
 255              		.loc 1 213 23 view .LVU94
 256              		.syntax unified
 257              	@ 213 "DSP/Source/FilteringFunctions/arm_conv_q7.c" 1
 258 00a0 01F30701 		ssat r1, #8, r1
 259              	@ 0 "" 2
 260              	.LVL36:
 261              		.loc 1 213 23 view .LVU95
 262              		.loc 1 213 23 is_stmt 0 view .LVU96
 263              		.thumb
 264              		.syntax unified
 265              	.LBE42:
 266              		.loc 1 213 13 view .LVU97
 267 00a4 0BF8011B 		strb	r1, [fp], #1
 268              	.LVL37:
 214:DSP/Source/FilteringFunctions/arm_conv_q7.c **** 
 215:DSP/Source/FilteringFunctions/arm_conv_q7.c ****     /* Update the inputA and inputB pointers for next MAC calculation */
 216:DSP/Source/FilteringFunctions/arm_conv_q7.c ****     py = pIn2 + count;
 269              		.loc 1 216 5 is_stmt 1 view .LVU98
 270              		.loc 1 216 8 is_stmt 0 view .LVU99
 271 00a8 00EB0E04 		add	r4, r0, lr
 272              	.LVL38:
 217:DSP/Source/FilteringFunctions/arm_conv_q7.c ****     px = pIn1;
 273              		.loc 1 217 5 is_stmt 1 view .LVU100
 218:DSP/Source/FilteringFunctions/arm_conv_q7.c **** 
 219:DSP/Source/FilteringFunctions/arm_conv_q7.c ****     /* Increment the MAC count */
 220:DSP/Source/FilteringFunctions/arm_conv_q7.c ****     count++;
 274              		.loc 1 220 5 view .LVU101
 275              		.loc 1 220 10 is_stmt 0 view .LVU102
 276 00ac 0EF1010E 		add	lr, lr, #1
 277              	.LVL39:
 221:DSP/Source/FilteringFunctions/arm_conv_q7.c **** 
 222:DSP/Source/FilteringFunctions/arm_conv_q7.c ****     /* Decrement the loop counter */
 223:DSP/Source/FilteringFunctions/arm_conv_q7.c ****     blockSize1--;
 278              		.loc 1 223 5 is_stmt 1 view .LVU103
 279              		.loc 1 223 15 is_stmt 0 view .LVU104
 280 00b0 013A     		subs	r2, r2, #1
 281              	.LVL40:
 282              	.L3:
 155:DSP/Source/FilteringFunctions/arm_conv_q7.c ****   {
 283              		.loc 1 155 21 is_stmt 1 view .LVU105
 284 00b2 22B1     		cbz	r2, .L33
 158:DSP/Source/FilteringFunctions/arm_conv_q7.c **** 
 285              		.loc 1 158 5 view .LVU106
 286              	.LVL41:
 161:DSP/Source/FilteringFunctions/arm_conv_q7.c **** 
ARM GAS  /var/folders/ck/g3dcd5x55xs4107jgdl0snvr0000gn/T//cc4og9VU.s 			page 46


 287              		.loc 1 161 5 view .LVU107
 161:DSP/Source/FilteringFunctions/arm_conv_q7.c **** 
 288              		.loc 1 161 7 is_stmt 0 view .LVU108
 289 00b4 4FEA9E06 		lsr	r6, lr, #2
 290              	.LVL42:
 165:DSP/Source/FilteringFunctions/arm_conv_q7.c ****     {
 291              		.loc 1 165 5 is_stmt 1 view .LVU109
 165:DSP/Source/FilteringFunctions/arm_conv_q7.c ****     {
 292              		.loc 1 165 11 is_stmt 0 view .LVU110
 293 00b8 029B     		ldr	r3, [sp, #8]
 158:DSP/Source/FilteringFunctions/arm_conv_q7.c **** 
 294              		.loc 1 158 9 view .LVU111
 295 00ba 0021     		movs	r1, #0
 165:DSP/Source/FilteringFunctions/arm_conv_q7.c ****     {
 296              		.loc 1 165 11 view .LVU112
 297 00bc E1E7     		b	.L4
 298              	.LVL43:
 299              	.L33:
 224:DSP/Source/FilteringFunctions/arm_conv_q7.c ****   }
 225:DSP/Source/FilteringFunctions/arm_conv_q7.c **** 
 226:DSP/Source/FilteringFunctions/arm_conv_q7.c ****   /* --------------------------
 227:DSP/Source/FilteringFunctions/arm_conv_q7.c ****    * Initializations of stage2
 228:DSP/Source/FilteringFunctions/arm_conv_q7.c ****    * ------------------------*/
 229:DSP/Source/FilteringFunctions/arm_conv_q7.c **** 
 230:DSP/Source/FilteringFunctions/arm_conv_q7.c ****   /* sum = x[0] * y[srcBLen-1] + x[1] * y[srcBLen-2] +...+ x[srcBLen-1] * y[0]
 231:DSP/Source/FilteringFunctions/arm_conv_q7.c ****    * sum = x[1] * y[srcBLen-1] + x[2] * y[srcBLen-2] +...+ x[srcBLen] * y[0]
 232:DSP/Source/FilteringFunctions/arm_conv_q7.c ****    * ....
 233:DSP/Source/FilteringFunctions/arm_conv_q7.c ****    * sum = x[srcALen-srcBLen-2] * y[srcBLen-1] + x[srcALen] * y[srcBLen-2] +...+ x[srcALen-1] * y[0
 234:DSP/Source/FilteringFunctions/arm_conv_q7.c ****    */
 235:DSP/Source/FilteringFunctions/arm_conv_q7.c **** 
 236:DSP/Source/FilteringFunctions/arm_conv_q7.c ****   /* Working pointer of inputA */
 237:DSP/Source/FilteringFunctions/arm_conv_q7.c ****   px = pIn1;
 300              		.loc 1 237 3 is_stmt 1 view .LVU113
 238:DSP/Source/FilteringFunctions/arm_conv_q7.c **** 
 239:DSP/Source/FilteringFunctions/arm_conv_q7.c ****   /* Working pointer of inputB */
 240:DSP/Source/FilteringFunctions/arm_conv_q7.c ****   pSrc2 = pIn2 + (srcBLen - 1U);
 301              		.loc 1 240 3 view .LVU114
 302              		.loc 1 240 9 is_stmt 0 view .LVU115
 303 00be C319     		adds	r3, r0, r7
 304 00c0 0193     		str	r3, [sp, #4]
 305              	.LVL44:
 241:DSP/Source/FilteringFunctions/arm_conv_q7.c ****   py = pSrc2;
 306              		.loc 1 241 3 is_stmt 1 view .LVU116
 242:DSP/Source/FilteringFunctions/arm_conv_q7.c **** 
 243:DSP/Source/FilteringFunctions/arm_conv_q7.c ****   /* count is index by which the pointer pIn1 to be incremented */
 244:DSP/Source/FilteringFunctions/arm_conv_q7.c ****   count = 0U;
 307              		.loc 1 244 3 view .LVU117
 245:DSP/Source/FilteringFunctions/arm_conv_q7.c **** 
 246:DSP/Source/FilteringFunctions/arm_conv_q7.c ****   /* -------------------
 247:DSP/Source/FilteringFunctions/arm_conv_q7.c ****    * Stage2 process
 248:DSP/Source/FilteringFunctions/arm_conv_q7.c ****    * ------------------*/
 249:DSP/Source/FilteringFunctions/arm_conv_q7.c **** 
 250:DSP/Source/FilteringFunctions/arm_conv_q7.c ****   /* Stage2 depends on srcBLen as in this stage srcBLen number of MACS are performed.
 251:DSP/Source/FilteringFunctions/arm_conv_q7.c ****    * So, to loop unroll over blockSize2,
 252:DSP/Source/FilteringFunctions/arm_conv_q7.c ****    * srcBLen should be greater than or equal to 4 */
 253:DSP/Source/FilteringFunctions/arm_conv_q7.c ****   if (srcBLen >= 4U)
 308              		.loc 1 253 3 view .LVU118
ARM GAS  /var/folders/ck/g3dcd5x55xs4107jgdl0snvr0000gn/T//cc4og9VU.s 			page 47


 309              		.loc 1 253 6 is_stmt 0 view .LVU119
 310 00c2 B8F1030F 		cmp	r8, #3
 311 00c6 40F20481 		bls	.L30
 254:DSP/Source/FilteringFunctions/arm_conv_q7.c ****   {
 255:DSP/Source/FilteringFunctions/arm_conv_q7.c ****     /* Loop unroll over blockSize2, by 4 */
 256:DSP/Source/FilteringFunctions/arm_conv_q7.c ****     blkCnt = blockSize2 >> 2U;
 312              		.loc 1 256 5 is_stmt 1 view .LVU120
 313              		.loc 1 256 12 is_stmt 0 view .LVU121
 314 00ca 4FEA9A03 		lsr	r3, r10, #2
 315              	.LVL45:
 316              		.loc 1 256 12 view .LVU122
 317 00ce 0393     		str	r3, [sp, #12]
 318              	.LVL46:
 257:DSP/Source/FilteringFunctions/arm_conv_q7.c **** 
 258:DSP/Source/FilteringFunctions/arm_conv_q7.c ****     while (blkCnt > 0U)
 319              		.loc 1 258 5 is_stmt 1 view .LVU123
 237:DSP/Source/FilteringFunctions/arm_conv_q7.c **** 
 320              		.loc 1 237 6 is_stmt 0 view .LVU124
 321 00d0 029B     		ldr	r3, [sp, #8]
 322              	.LVL47:
 237:DSP/Source/FilteringFunctions/arm_conv_q7.c **** 
 323              		.loc 1 237 6 view .LVU125
 324 00d2 0492     		str	r2, [sp, #16]
 325 00d4 0697     		str	r7, [sp, #24]
 326 00d6 CDF81CA0 		str	r10, [sp, #28]
 327 00da C146     		mov	r9, r8
 328              		.loc 1 258 11 view .LVU126
 329 00dc 1FE0     		b	.L10
 330              	.LVL48:
 331              	.L35:
 259:DSP/Source/FilteringFunctions/arm_conv_q7.c ****     {
 260:DSP/Source/FilteringFunctions/arm_conv_q7.c ****       /* Set all accumulators to zero */
 261:DSP/Source/FilteringFunctions/arm_conv_q7.c ****       acc0 = 0;
 262:DSP/Source/FilteringFunctions/arm_conv_q7.c ****       acc1 = 0;
 263:DSP/Source/FilteringFunctions/arm_conv_q7.c ****       acc2 = 0;
 264:DSP/Source/FilteringFunctions/arm_conv_q7.c ****       acc3 = 0;
 265:DSP/Source/FilteringFunctions/arm_conv_q7.c **** 
 266:DSP/Source/FilteringFunctions/arm_conv_q7.c ****       /* read x[0], x[1], x[2] samples */
 267:DSP/Source/FilteringFunctions/arm_conv_q7.c ****       x0 = *(px++);
 268:DSP/Source/FilteringFunctions/arm_conv_q7.c ****       x1 = *(px++);
 269:DSP/Source/FilteringFunctions/arm_conv_q7.c ****       x2 = *(px++);
 270:DSP/Source/FilteringFunctions/arm_conv_q7.c **** 
 271:DSP/Source/FilteringFunctions/arm_conv_q7.c ****       /* Apply loop unrolling and compute 4 MACs simultaneously. */
 272:DSP/Source/FilteringFunctions/arm_conv_q7.c ****       k = srcBLen >> 2U;
 273:DSP/Source/FilteringFunctions/arm_conv_q7.c **** 
 274:DSP/Source/FilteringFunctions/arm_conv_q7.c ****       /* First part of the processing with loop unrolling.  Compute 4 MACs at a time.
 275:DSP/Source/FilteringFunctions/arm_conv_q7.c ****        ** a second loop below computes MACs for the remaining 1 to 3 samples. */
 276:DSP/Source/FilteringFunctions/arm_conv_q7.c ****       do
 277:DSP/Source/FilteringFunctions/arm_conv_q7.c ****       {
 278:DSP/Source/FilteringFunctions/arm_conv_q7.c ****         /* Read y[srcBLen - 1] sample */
 279:DSP/Source/FilteringFunctions/arm_conv_q7.c ****         c0 = *(py--);
 280:DSP/Source/FilteringFunctions/arm_conv_q7.c ****         /* Read y[srcBLen - 2] sample */
 281:DSP/Source/FilteringFunctions/arm_conv_q7.c ****         c1 = *(py--);
 282:DSP/Source/FilteringFunctions/arm_conv_q7.c **** 
 283:DSP/Source/FilteringFunctions/arm_conv_q7.c ****         /* Read x[3] sample */
 284:DSP/Source/FilteringFunctions/arm_conv_q7.c ****         x3 = *(px++);
 285:DSP/Source/FilteringFunctions/arm_conv_q7.c **** 
ARM GAS  /var/folders/ck/g3dcd5x55xs4107jgdl0snvr0000gn/T//cc4og9VU.s 			page 48


 286:DSP/Source/FilteringFunctions/arm_conv_q7.c ****         /* x[0] and x[1] are packed */
 287:DSP/Source/FilteringFunctions/arm_conv_q7.c ****         in1 = (q15_t) x0;
 288:DSP/Source/FilteringFunctions/arm_conv_q7.c ****         in2 = (q15_t) x1;
 289:DSP/Source/FilteringFunctions/arm_conv_q7.c **** 
 290:DSP/Source/FilteringFunctions/arm_conv_q7.c ****         input1 = ((q31_t) in1 & 0x0000FFFF) | ((q31_t) in2 << 16U);
 291:DSP/Source/FilteringFunctions/arm_conv_q7.c **** 
 292:DSP/Source/FilteringFunctions/arm_conv_q7.c ****         /* y[srcBLen - 1]   and y[srcBLen - 2] are packed */
 293:DSP/Source/FilteringFunctions/arm_conv_q7.c ****         in1 = (q15_t) c0;
 294:DSP/Source/FilteringFunctions/arm_conv_q7.c ****         in2 = (q15_t) c1;
 295:DSP/Source/FilteringFunctions/arm_conv_q7.c **** 
 296:DSP/Source/FilteringFunctions/arm_conv_q7.c ****         input2 = ((q31_t) in1 & 0x0000FFFF) | ((q31_t) in2 << 16U);
 297:DSP/Source/FilteringFunctions/arm_conv_q7.c **** 
 298:DSP/Source/FilteringFunctions/arm_conv_q7.c ****         /* acc0 += x[0] * y[srcBLen - 1] + x[1] * y[srcBLen - 2]  */
 299:DSP/Source/FilteringFunctions/arm_conv_q7.c ****         acc0 = __SMLAD(input1, input2, acc0);
 300:DSP/Source/FilteringFunctions/arm_conv_q7.c **** 
 301:DSP/Source/FilteringFunctions/arm_conv_q7.c ****         /* x[1] and x[2] are packed */
 302:DSP/Source/FilteringFunctions/arm_conv_q7.c ****         in1 = (q15_t) x1;
 303:DSP/Source/FilteringFunctions/arm_conv_q7.c ****         in2 = (q15_t) x2;
 304:DSP/Source/FilteringFunctions/arm_conv_q7.c **** 
 305:DSP/Source/FilteringFunctions/arm_conv_q7.c ****         input1 = ((q31_t) in1 & 0x0000FFFF) | ((q31_t) in2 << 16U);
 306:DSP/Source/FilteringFunctions/arm_conv_q7.c **** 
 307:DSP/Source/FilteringFunctions/arm_conv_q7.c ****         /* acc1 += x[1] * y[srcBLen - 1] + x[2] * y[srcBLen - 2]  */
 308:DSP/Source/FilteringFunctions/arm_conv_q7.c ****         acc1 = __SMLAD(input1, input2, acc1);
 309:DSP/Source/FilteringFunctions/arm_conv_q7.c **** 
 310:DSP/Source/FilteringFunctions/arm_conv_q7.c ****         /* x[2] and x[3] are packed */
 311:DSP/Source/FilteringFunctions/arm_conv_q7.c ****         in1 = (q15_t) x2;
 312:DSP/Source/FilteringFunctions/arm_conv_q7.c ****         in2 = (q15_t) x3;
 313:DSP/Source/FilteringFunctions/arm_conv_q7.c **** 
 314:DSP/Source/FilteringFunctions/arm_conv_q7.c ****         input1 = ((q31_t) in1 & 0x0000FFFF) | ((q31_t) in2 << 16U);
 315:DSP/Source/FilteringFunctions/arm_conv_q7.c **** 
 316:DSP/Source/FilteringFunctions/arm_conv_q7.c ****         /* acc2 += x[2] * y[srcBLen - 1] + x[3] * y[srcBLen - 2]  */
 317:DSP/Source/FilteringFunctions/arm_conv_q7.c ****         acc2 = __SMLAD(input1, input2, acc2);
 318:DSP/Source/FilteringFunctions/arm_conv_q7.c **** 
 319:DSP/Source/FilteringFunctions/arm_conv_q7.c ****         /* Read x[4] sample */
 320:DSP/Source/FilteringFunctions/arm_conv_q7.c ****         x0 = *(px++);
 321:DSP/Source/FilteringFunctions/arm_conv_q7.c **** 
 322:DSP/Source/FilteringFunctions/arm_conv_q7.c ****         /* x[3] and x[4] are packed */
 323:DSP/Source/FilteringFunctions/arm_conv_q7.c ****         in1 = (q15_t) x3;
 324:DSP/Source/FilteringFunctions/arm_conv_q7.c ****         in2 = (q15_t) x0;
 325:DSP/Source/FilteringFunctions/arm_conv_q7.c **** 
 326:DSP/Source/FilteringFunctions/arm_conv_q7.c ****         input1 = ((q31_t) in1 & 0x0000FFFF) | ((q31_t) in2 << 16U);
 327:DSP/Source/FilteringFunctions/arm_conv_q7.c **** 
 328:DSP/Source/FilteringFunctions/arm_conv_q7.c ****         /* acc3 += x[3] * y[srcBLen - 1] + x[4] * y[srcBLen - 2]  */
 329:DSP/Source/FilteringFunctions/arm_conv_q7.c ****         acc3 = __SMLAD(input1, input2, acc3);
 330:DSP/Source/FilteringFunctions/arm_conv_q7.c **** 
 331:DSP/Source/FilteringFunctions/arm_conv_q7.c ****         /* Read y[srcBLen - 3] sample */
 332:DSP/Source/FilteringFunctions/arm_conv_q7.c ****         c0 = *(py--);
 333:DSP/Source/FilteringFunctions/arm_conv_q7.c ****         /* Read y[srcBLen - 4] sample */
 334:DSP/Source/FilteringFunctions/arm_conv_q7.c ****         c1 = *(py--);
 335:DSP/Source/FilteringFunctions/arm_conv_q7.c **** 
 336:DSP/Source/FilteringFunctions/arm_conv_q7.c ****         /* Read x[5] sample */
 337:DSP/Source/FilteringFunctions/arm_conv_q7.c ****         x1 = *(px++);
 338:DSP/Source/FilteringFunctions/arm_conv_q7.c **** 
 339:DSP/Source/FilteringFunctions/arm_conv_q7.c ****         /* x[2] and x[3] are packed */
 340:DSP/Source/FilteringFunctions/arm_conv_q7.c ****         in1 = (q15_t) x2;
 341:DSP/Source/FilteringFunctions/arm_conv_q7.c ****         in2 = (q15_t) x3;
 342:DSP/Source/FilteringFunctions/arm_conv_q7.c **** 
ARM GAS  /var/folders/ck/g3dcd5x55xs4107jgdl0snvr0000gn/T//cc4og9VU.s 			page 49


 343:DSP/Source/FilteringFunctions/arm_conv_q7.c ****         input1 = ((q31_t) in1 & 0x0000FFFF) | ((q31_t) in2 << 16U);
 344:DSP/Source/FilteringFunctions/arm_conv_q7.c **** 
 345:DSP/Source/FilteringFunctions/arm_conv_q7.c ****         /* y[srcBLen - 3] and y[srcBLen - 4] are packed */
 346:DSP/Source/FilteringFunctions/arm_conv_q7.c ****         in1 = (q15_t) c0;
 347:DSP/Source/FilteringFunctions/arm_conv_q7.c ****         in2 = (q15_t) c1;
 348:DSP/Source/FilteringFunctions/arm_conv_q7.c **** 
 349:DSP/Source/FilteringFunctions/arm_conv_q7.c ****         input2 = ((q31_t) in1 & 0x0000FFFF) | ((q31_t) in2 << 16U);
 350:DSP/Source/FilteringFunctions/arm_conv_q7.c **** 
 351:DSP/Source/FilteringFunctions/arm_conv_q7.c ****         /* acc0 += x[2] * y[srcBLen - 3] + x[3] * y[srcBLen - 4]  */
 352:DSP/Source/FilteringFunctions/arm_conv_q7.c ****         acc0 = __SMLAD(input1, input2, acc0);
 353:DSP/Source/FilteringFunctions/arm_conv_q7.c **** 
 354:DSP/Source/FilteringFunctions/arm_conv_q7.c ****         /* x[3] and x[4] are packed */
 355:DSP/Source/FilteringFunctions/arm_conv_q7.c ****         in1 = (q15_t) x3;
 356:DSP/Source/FilteringFunctions/arm_conv_q7.c ****         in2 = (q15_t) x0;
 357:DSP/Source/FilteringFunctions/arm_conv_q7.c **** 
 358:DSP/Source/FilteringFunctions/arm_conv_q7.c ****         input1 = ((q31_t) in1 & 0x0000FFFF) | ((q31_t) in2 << 16U);
 359:DSP/Source/FilteringFunctions/arm_conv_q7.c **** 
 360:DSP/Source/FilteringFunctions/arm_conv_q7.c ****         /* acc1 += x[3] * y[srcBLen - 3] + x[4] * y[srcBLen - 4]  */
 361:DSP/Source/FilteringFunctions/arm_conv_q7.c ****         acc1 = __SMLAD(input1, input2, acc1);
 362:DSP/Source/FilteringFunctions/arm_conv_q7.c **** 
 363:DSP/Source/FilteringFunctions/arm_conv_q7.c ****         /* x[4] and x[5] are packed */
 364:DSP/Source/FilteringFunctions/arm_conv_q7.c ****         in1 = (q15_t) x0;
 365:DSP/Source/FilteringFunctions/arm_conv_q7.c ****         in2 = (q15_t) x1;
 366:DSP/Source/FilteringFunctions/arm_conv_q7.c **** 
 367:DSP/Source/FilteringFunctions/arm_conv_q7.c ****         input1 = ((q31_t) in1 & 0x0000FFFF) | ((q31_t) in2 << 16U);
 368:DSP/Source/FilteringFunctions/arm_conv_q7.c **** 
 369:DSP/Source/FilteringFunctions/arm_conv_q7.c ****         /* acc2 += x[4] * y[srcBLen - 3] + x[5] * y[srcBLen - 4]  */
 370:DSP/Source/FilteringFunctions/arm_conv_q7.c ****         acc2 = __SMLAD(input1, input2, acc2);
 371:DSP/Source/FilteringFunctions/arm_conv_q7.c **** 
 372:DSP/Source/FilteringFunctions/arm_conv_q7.c ****         /* Read x[6] sample */
 373:DSP/Source/FilteringFunctions/arm_conv_q7.c ****         x2 = *(px++);
 374:DSP/Source/FilteringFunctions/arm_conv_q7.c **** 
 375:DSP/Source/FilteringFunctions/arm_conv_q7.c ****         /* x[5] and x[6] are packed */
 376:DSP/Source/FilteringFunctions/arm_conv_q7.c ****         in1 = (q15_t) x1;
 377:DSP/Source/FilteringFunctions/arm_conv_q7.c ****         in2 = (q15_t) x2;
 378:DSP/Source/FilteringFunctions/arm_conv_q7.c **** 
 379:DSP/Source/FilteringFunctions/arm_conv_q7.c ****         input1 = ((q31_t) in1 & 0x0000FFFF) | ((q31_t) in2 << 16U);
 380:DSP/Source/FilteringFunctions/arm_conv_q7.c **** 
 381:DSP/Source/FilteringFunctions/arm_conv_q7.c ****         /* acc3 += x[5] * y[srcBLen - 3] + x[6] * y[srcBLen - 4]  */
 382:DSP/Source/FilteringFunctions/arm_conv_q7.c ****         acc3 = __SMLAD(input1, input2, acc3);
 383:DSP/Source/FilteringFunctions/arm_conv_q7.c **** 
 384:DSP/Source/FilteringFunctions/arm_conv_q7.c ****       } while (--k);
 385:DSP/Source/FilteringFunctions/arm_conv_q7.c **** 
 386:DSP/Source/FilteringFunctions/arm_conv_q7.c ****       /* If the srcBLen is not a multiple of 4, compute any remaining MACs here.
 387:DSP/Source/FilteringFunctions/arm_conv_q7.c ****        ** No loop unrolling is used. */
 388:DSP/Source/FilteringFunctions/arm_conv_q7.c ****       k = srcBLen % 0x4U;
 389:DSP/Source/FilteringFunctions/arm_conv_q7.c **** 
 390:DSP/Source/FilteringFunctions/arm_conv_q7.c ****       while (k > 0U)
 391:DSP/Source/FilteringFunctions/arm_conv_q7.c ****       {
 392:DSP/Source/FilteringFunctions/arm_conv_q7.c ****         /* Read y[srcBLen - 5] sample */
 393:DSP/Source/FilteringFunctions/arm_conv_q7.c ****         c0 = *(py--);
 394:DSP/Source/FilteringFunctions/arm_conv_q7.c **** 
 395:DSP/Source/FilteringFunctions/arm_conv_q7.c ****         /* Read x[7] sample */
 396:DSP/Source/FilteringFunctions/arm_conv_q7.c ****         x3 = *(px++);
 397:DSP/Source/FilteringFunctions/arm_conv_q7.c **** 
 398:DSP/Source/FilteringFunctions/arm_conv_q7.c ****         /* Perform the multiply-accumulates */
 399:DSP/Source/FilteringFunctions/arm_conv_q7.c ****         /* acc0 +=  x[4] * y[srcBLen - 5] */
ARM GAS  /var/folders/ck/g3dcd5x55xs4107jgdl0snvr0000gn/T//cc4og9VU.s 			page 50


 400:DSP/Source/FilteringFunctions/arm_conv_q7.c ****         acc0 += ((q15_t) x0 * c0);
 401:DSP/Source/FilteringFunctions/arm_conv_q7.c ****         /* acc1 +=  x[5] * y[srcBLen - 5] */
 402:DSP/Source/FilteringFunctions/arm_conv_q7.c ****         acc1 += ((q15_t) x1 * c0);
 403:DSP/Source/FilteringFunctions/arm_conv_q7.c ****         /* acc2 +=  x[6] * y[srcBLen - 5] */
 404:DSP/Source/FilteringFunctions/arm_conv_q7.c ****         acc2 += ((q15_t) x2 * c0);
 405:DSP/Source/FilteringFunctions/arm_conv_q7.c ****         /* acc3 +=  x[7] * y[srcBLen - 5] */
 406:DSP/Source/FilteringFunctions/arm_conv_q7.c ****         acc3 += ((q15_t) x3 * c0);
 407:DSP/Source/FilteringFunctions/arm_conv_q7.c **** 
 408:DSP/Source/FilteringFunctions/arm_conv_q7.c ****         /* Reuse the present samples for the next MAC */
 409:DSP/Source/FilteringFunctions/arm_conv_q7.c ****         x0 = x1;
 410:DSP/Source/FilteringFunctions/arm_conv_q7.c ****         x1 = x2;
 411:DSP/Source/FilteringFunctions/arm_conv_q7.c ****         x2 = x3;
 412:DSP/Source/FilteringFunctions/arm_conv_q7.c **** 
 413:DSP/Source/FilteringFunctions/arm_conv_q7.c ****         /* Decrement the loop counter */
 414:DSP/Source/FilteringFunctions/arm_conv_q7.c ****         k--;
 415:DSP/Source/FilteringFunctions/arm_conv_q7.c ****       }
 416:DSP/Source/FilteringFunctions/arm_conv_q7.c **** 
 417:DSP/Source/FilteringFunctions/arm_conv_q7.c **** 
 418:DSP/Source/FilteringFunctions/arm_conv_q7.c ****       /* Store the result in the accumulator in the destination buffer. */
 419:DSP/Source/FilteringFunctions/arm_conv_q7.c ****       *pOut++ = (q7_t) (__SSAT(acc0 >> 7U, 8));
 332              		.loc 1 419 7 is_stmt 1 view .LVU127
 333              	.LBB43:
 334              		.loc 1 419 25 view .LVU128
 335 00de F611     		asrs	r6, r6, #7
 336              	.LVL49:
 337              		.loc 1 419 25 view .LVU129
 338              		.syntax unified
 339              	@ 419 "DSP/Source/FilteringFunctions/arm_conv_q7.c" 1
 340 00e0 06F30706 		ssat r6, #8, r6
 341              	@ 0 "" 2
 342              	.LVL50:
 343              		.loc 1 419 25 view .LVU130
 344              		.loc 1 419 25 is_stmt 0 view .LVU131
 345              		.thumb
 346              		.syntax unified
 347              	.LBE43:
 348              		.loc 1 419 15 view .LVU132
 349 00e4 8BF80060 		strb	r6, [fp]
 420:DSP/Source/FilteringFunctions/arm_conv_q7.c ****       *pOut++ = (q7_t) (__SSAT(acc1 >> 7U, 8));
 350              		.loc 1 420 7 is_stmt 1 view .LVU133
 351              	.LBB44:
 352              		.loc 1 420 25 view .LVU134
 353 00e8 DB11     		asrs	r3, r3, #7
 354              	.LVL51:
 355              		.loc 1 420 25 view .LVU135
 356              		.syntax unified
 357              	@ 420 "DSP/Source/FilteringFunctions/arm_conv_q7.c" 1
 358 00ea 03F30703 		ssat r3, #8, r3
 359              	@ 0 "" 2
 360              	.LVL52:
 361              		.loc 1 420 25 view .LVU136
 362              		.loc 1 420 25 is_stmt 0 view .LVU137
 363              		.thumb
 364              		.syntax unified
 365              	.LBE44:
 366              		.loc 1 420 15 view .LVU138
 367 00ee 8BF80130 		strb	r3, [fp, #1]
ARM GAS  /var/folders/ck/g3dcd5x55xs4107jgdl0snvr0000gn/T//cc4og9VU.s 			page 51


 421:DSP/Source/FilteringFunctions/arm_conv_q7.c ****       *pOut++ = (q7_t) (__SSAT(acc2 >> 7U, 8));
 368              		.loc 1 421 7 is_stmt 1 view .LVU139
 369              	.LBB45:
 370              		.loc 1 421 25 view .LVU140
 371 00f2 4FEAEE1E 		asr	lr, lr, #7
 372              	.LVL53:
 373              		.loc 1 421 25 view .LVU141
 374              		.syntax unified
 375              	@ 421 "DSP/Source/FilteringFunctions/arm_conv_q7.c" 1
 376 00f6 0EF3070E 		ssat lr, #8, lr
 377              	@ 0 "" 2
 378              	.LVL54:
 379              		.loc 1 421 25 view .LVU142
 380              		.loc 1 421 25 is_stmt 0 view .LVU143
 381              		.thumb
 382              		.syntax unified
 383              	.LBE45:
 384              		.loc 1 421 15 view .LVU144
 385 00fa 8BF802E0 		strb	lr, [fp, #2]
 422:DSP/Source/FilteringFunctions/arm_conv_q7.c ****       *pOut++ = (q7_t) (__SSAT(acc3 >> 7U, 8));
 386              		.loc 1 422 7 is_stmt 1 view .LVU145
 387              	.LBB46:
 388              		.loc 1 422 25 view .LVU146
 389 00fe 4FEAEC1C 		asr	ip, ip, #7
 390              	.LVL55:
 391              		.loc 1 422 25 view .LVU147
 392              		.syntax unified
 393              	@ 422 "DSP/Source/FilteringFunctions/arm_conv_q7.c" 1
 394 0102 0CF3070C 		ssat ip, #8, ip
 395              	@ 0 "" 2
 396              	.LVL56:
 397              		.loc 1 422 25 view .LVU148
 398              		.loc 1 422 25 is_stmt 0 view .LVU149
 399              		.thumb
 400              		.syntax unified
 401              	.LBE46:
 402              		.loc 1 422 15 view .LVU150
 403 0106 8BF803C0 		strb	ip, [fp, #3]
 423:DSP/Source/FilteringFunctions/arm_conv_q7.c **** 
 424:DSP/Source/FilteringFunctions/arm_conv_q7.c ****       /* Increment the pointer pIn1 index, count by 4 */
 425:DSP/Source/FilteringFunctions/arm_conv_q7.c ****       count += 4U;
 404              		.loc 1 425 7 is_stmt 1 view .LVU151
 405              		.loc 1 425 13 is_stmt 0 view .LVU152
 406 010a 049B     		ldr	r3, [sp, #16]
 407              	.LVL57:
 408              		.loc 1 425 13 view .LVU153
 409 010c 0433     		adds	r3, r3, #4
 410 010e 0493     		str	r3, [sp, #16]
 411              	.LVL58:
 426:DSP/Source/FilteringFunctions/arm_conv_q7.c **** 
 427:DSP/Source/FilteringFunctions/arm_conv_q7.c ****       /* Update the inputA and inputB pointers for next MAC calculation */
 428:DSP/Source/FilteringFunctions/arm_conv_q7.c ****       px = pIn1 + count;
 412              		.loc 1 428 7 is_stmt 1 view .LVU154
 413              		.loc 1 428 10 is_stmt 0 view .LVU155
 414 0110 029A     		ldr	r2, [sp, #8]
 415 0112 D318     		adds	r3, r2, r3
 416              	.LVL59:
ARM GAS  /var/folders/ck/g3dcd5x55xs4107jgdl0snvr0000gn/T//cc4og9VU.s 			page 52


 429:DSP/Source/FilteringFunctions/arm_conv_q7.c ****       py = pSrc2;
 417              		.loc 1 429 7 is_stmt 1 view .LVU156
 430:DSP/Source/FilteringFunctions/arm_conv_q7.c **** 
 431:DSP/Source/FilteringFunctions/arm_conv_q7.c ****       /* Decrement the loop counter */
 432:DSP/Source/FilteringFunctions/arm_conv_q7.c ****       blkCnt--;
 418              		.loc 1 432 7 view .LVU157
 419              		.loc 1 432 13 is_stmt 0 view .LVU158
 420 0114 039A     		ldr	r2, [sp, #12]
 421 0116 013A     		subs	r2, r2, #1
 422 0118 0392     		str	r2, [sp, #12]
 423              	.LVL60:
 422:DSP/Source/FilteringFunctions/arm_conv_q7.c **** 
 424              		.loc 1 422 12 view .LVU159
 425 011a 0BF1040B 		add	fp, fp, #4
 426              	.LVL61:
 427              	.L10:
 258:DSP/Source/FilteringFunctions/arm_conv_q7.c ****     {
 428              		.loc 1 258 19 is_stmt 1 view .LVU160
 429 011e 039A     		ldr	r2, [sp, #12]
 430 0120 002A     		cmp	r2, #0
 431 0122 6FD0     		beq	.L34
 261:DSP/Source/FilteringFunctions/arm_conv_q7.c ****       acc1 = 0;
 432              		.loc 1 261 7 view .LVU161
 433              	.LVL62:
 262:DSP/Source/FilteringFunctions/arm_conv_q7.c ****       acc2 = 0;
 434              		.loc 1 262 7 view .LVU162
 263:DSP/Source/FilteringFunctions/arm_conv_q7.c ****       acc3 = 0;
 435              		.loc 1 263 7 view .LVU163
 264:DSP/Source/FilteringFunctions/arm_conv_q7.c **** 
 436              		.loc 1 264 7 view .LVU164
 267:DSP/Source/FilteringFunctions/arm_conv_q7.c ****       x1 = *(px++);
 437              		.loc 1 267 7 view .LVU165
 267:DSP/Source/FilteringFunctions/arm_conv_q7.c ****       x1 = *(px++);
 438              		.loc 1 267 10 is_stmt 0 view .LVU166
 439 0124 93F90000 		ldrsb	r0, [r3]
 440              	.LVL63:
 268:DSP/Source/FilteringFunctions/arm_conv_q7.c ****       x2 = *(px++);
 441              		.loc 1 268 7 is_stmt 1 view .LVU167
 268:DSP/Source/FilteringFunctions/arm_conv_q7.c ****       x2 = *(px++);
 442              		.loc 1 268 10 is_stmt 0 view .LVU168
 443 0128 93F90110 		ldrsb	r1, [r3, #1]
 444              	.LVL64:
 269:DSP/Source/FilteringFunctions/arm_conv_q7.c **** 
 445              		.loc 1 269 7 is_stmt 1 view .LVU169
 269:DSP/Source/FilteringFunctions/arm_conv_q7.c **** 
 446              		.loc 1 269 16 is_stmt 0 view .LVU170
 447 012c DC1C     		adds	r4, r3, #3
 448              	.LVL65:
 269:DSP/Source/FilteringFunctions/arm_conv_q7.c **** 
 449              		.loc 1 269 10 view .LVU171
 450 012e 93F90280 		ldrsb	r8, [r3, #2]
 451              	.LVL66:
 272:DSP/Source/FilteringFunctions/arm_conv_q7.c **** 
 452              		.loc 1 272 7 is_stmt 1 view .LVU172
 272:DSP/Source/FilteringFunctions/arm_conv_q7.c **** 
 453              		.loc 1 272 9 is_stmt 0 view .LVU173
 454 0132 4FEA9902 		lsr	r2, r9, #2
ARM GAS  /var/folders/ck/g3dcd5x55xs4107jgdl0snvr0000gn/T//cc4og9VU.s 			page 53


 455              	.LVL67:
 272:DSP/Source/FilteringFunctions/arm_conv_q7.c **** 
 456              		.loc 1 272 9 view .LVU174
 457 0136 019D     		ldr	r5, [sp, #4]
 264:DSP/Source/FilteringFunctions/arm_conv_q7.c **** 
 458              		.loc 1 264 12 view .LVU175
 459 0138 4FF0000C 		mov	ip, #0
 263:DSP/Source/FilteringFunctions/arm_conv_q7.c ****       acc3 = 0;
 460              		.loc 1 263 12 view .LVU176
 461 013c E646     		mov	lr, ip
 262:DSP/Source/FilteringFunctions/arm_conv_q7.c ****       acc2 = 0;
 462              		.loc 1 262 12 view .LVU177
 463 013e 6346     		mov	r3, ip
 261:DSP/Source/FilteringFunctions/arm_conv_q7.c ****       acc1 = 0;
 464              		.loc 1 261 12 view .LVU178
 465 0140 6646     		mov	r6, ip
 466 0142 CDF81490 		str	r9, [sp, #20]
 467 0146 CDF848B0 		str	fp, [sp, #72]
 468 014a 9346     		mov	fp, r2
 469              	.LVL68:
 470              	.L11:
 276:DSP/Source/FilteringFunctions/arm_conv_q7.c ****       {
 471              		.loc 1 276 7 is_stmt 1 view .LVU179
 279:DSP/Source/FilteringFunctions/arm_conv_q7.c ****         /* Read y[srcBLen - 2] sample */
 472              		.loc 1 279 9 view .LVU180
 279:DSP/Source/FilteringFunctions/arm_conv_q7.c ****         /* Read y[srcBLen - 2] sample */
 473              		.loc 1 279 12 is_stmt 0 view .LVU181
 474 014c 95F90020 		ldrsb	r2, [r5]
 475              	.LVL69:
 281:DSP/Source/FilteringFunctions/arm_conv_q7.c **** 
 476              		.loc 1 281 9 is_stmt 1 view .LVU182
 281:DSP/Source/FilteringFunctions/arm_conv_q7.c **** 
 477              		.loc 1 281 12 is_stmt 0 view .LVU183
 478 0150 15F9019C 		ldrsb	r9, [r5, #-1]
 479              	.LVL70:
 284:DSP/Source/FilteringFunctions/arm_conv_q7.c **** 
 480              		.loc 1 284 9 is_stmt 1 view .LVU184
 284:DSP/Source/FilteringFunctions/arm_conv_q7.c **** 
 481              		.loc 1 284 12 is_stmt 0 view .LVU185
 482 0154 94F90070 		ldrsb	r7, [r4]
 483              	.LVL71:
 287:DSP/Source/FilteringFunctions/arm_conv_q7.c ****         in2 = (q15_t) x1;
 484              		.loc 1 287 9 is_stmt 1 view .LVU186
 288:DSP/Source/FilteringFunctions/arm_conv_q7.c **** 
 485              		.loc 1 288 9 view .LVU187
 290:DSP/Source/FilteringFunctions/arm_conv_q7.c **** 
 486              		.loc 1 290 9 view .LVU188
 290:DSP/Source/FilteringFunctions/arm_conv_q7.c **** 
 487              		.loc 1 290 31 is_stmt 0 view .LVU189
 488 0158 80B2     		uxth	r0, r0
 290:DSP/Source/FilteringFunctions/arm_conv_q7.c **** 
 489              		.loc 1 290 16 view .LVU190
 490 015a 40EA0140 		orr	r0, r0, r1, lsl #16
 491              	.LVL72:
 293:DSP/Source/FilteringFunctions/arm_conv_q7.c ****         in2 = (q15_t) c1;
 492              		.loc 1 293 9 is_stmt 1 view .LVU191
 294:DSP/Source/FilteringFunctions/arm_conv_q7.c **** 
ARM GAS  /var/folders/ck/g3dcd5x55xs4107jgdl0snvr0000gn/T//cc4og9VU.s 			page 54


 493              		.loc 1 294 9 view .LVU192
 296:DSP/Source/FilteringFunctions/arm_conv_q7.c **** 
 494              		.loc 1 296 9 view .LVU193
 296:DSP/Source/FilteringFunctions/arm_conv_q7.c **** 
 495              		.loc 1 296 31 is_stmt 0 view .LVU194
 496 015e 92B2     		uxth	r2, r2
 296:DSP/Source/FilteringFunctions/arm_conv_q7.c **** 
 497              		.loc 1 296 16 view .LVU195
 498 0160 42EA0942 		orr	r2, r2, r9, lsl #16
 499              	.LVL73:
 299:DSP/Source/FilteringFunctions/arm_conv_q7.c **** 
 500              		.loc 1 299 9 is_stmt 1 view .LVU196
 501              	.LBB47:
 502              	.LBI47:
2036:Drivers/CMSIS/Include/cmsis_gcc.h **** {
 503              		.loc 2 2036 31 view .LVU197
 504              	.LBB48:
2038:Drivers/CMSIS/Include/cmsis_gcc.h **** 
 505              		.loc 2 2038 3 view .LVU198
2040:Drivers/CMSIS/Include/cmsis_gcc.h ****   return(result);
 506              		.loc 2 2040 3 view .LVU199
 507              		.syntax unified
 508              	@ 2040 "Drivers/CMSIS/Include/cmsis_gcc.h" 1
 509 0164 20FB0266 		smlad r6, r0, r2, r6
 510              	@ 0 "" 2
 511              	.LVL74:
 512              		.loc 2 2041 3 view .LVU200
 513              		.loc 2 2041 3 is_stmt 0 view .LVU201
 514              		.thumb
 515              		.syntax unified
 516              	.LBE48:
 517              	.LBE47:
 302:DSP/Source/FilteringFunctions/arm_conv_q7.c ****         in2 = (q15_t) x2;
 518              		.loc 1 302 9 is_stmt 1 view .LVU202
 303:DSP/Source/FilteringFunctions/arm_conv_q7.c **** 
 519              		.loc 1 303 9 view .LVU203
 305:DSP/Source/FilteringFunctions/arm_conv_q7.c **** 
 520              		.loc 1 305 9 view .LVU204
 305:DSP/Source/FilteringFunctions/arm_conv_q7.c **** 
 521              		.loc 1 305 31 is_stmt 0 view .LVU205
 522 0168 89B2     		uxth	r1, r1
 523              	.LVL75:
 305:DSP/Source/FilteringFunctions/arm_conv_q7.c **** 
 524              		.loc 1 305 16 view .LVU206
 525 016a 41EA0841 		orr	r1, r1, r8, lsl #16
 526              	.LVL76:
 308:DSP/Source/FilteringFunctions/arm_conv_q7.c **** 
 527              		.loc 1 308 9 is_stmt 1 view .LVU207
 528              	.LBB49:
 529              	.LBI49:
2036:Drivers/CMSIS/Include/cmsis_gcc.h **** {
 530              		.loc 2 2036 31 view .LVU208
 531              	.LBB50:
2038:Drivers/CMSIS/Include/cmsis_gcc.h **** 
 532              		.loc 2 2038 3 view .LVU209
2040:Drivers/CMSIS/Include/cmsis_gcc.h ****   return(result);
 533              		.loc 2 2040 3 view .LVU210
ARM GAS  /var/folders/ck/g3dcd5x55xs4107jgdl0snvr0000gn/T//cc4og9VU.s 			page 55


 534              		.syntax unified
 535              	@ 2040 "Drivers/CMSIS/Include/cmsis_gcc.h" 1
 536 016e 21FB0233 		smlad r3, r1, r2, r3
 537              	@ 0 "" 2
 538              	.LVL77:
 539              		.loc 2 2041 3 view .LVU211
 540              		.loc 2 2041 3 is_stmt 0 view .LVU212
 541              		.thumb
 542              		.syntax unified
 543              	.LBE50:
 544              	.LBE49:
 311:DSP/Source/FilteringFunctions/arm_conv_q7.c ****         in2 = (q15_t) x3;
 545              		.loc 1 311 9 is_stmt 1 view .LVU213
 312:DSP/Source/FilteringFunctions/arm_conv_q7.c **** 
 546              		.loc 1 312 9 view .LVU214
 314:DSP/Source/FilteringFunctions/arm_conv_q7.c **** 
 547              		.loc 1 314 9 view .LVU215
 314:DSP/Source/FilteringFunctions/arm_conv_q7.c **** 
 548              		.loc 1 314 31 is_stmt 0 view .LVU216
 549 0172 1FFA88F8 		uxth	r8, r8
 314:DSP/Source/FilteringFunctions/arm_conv_q7.c **** 
 550              		.loc 1 314 16 view .LVU217
 551 0176 48EA0748 		orr	r8, r8, r7, lsl #16
 552              	.LVL78:
 317:DSP/Source/FilteringFunctions/arm_conv_q7.c **** 
 553              		.loc 1 317 9 is_stmt 1 view .LVU218
 554              	.LBB51:
 555              	.LBI51:
2036:Drivers/CMSIS/Include/cmsis_gcc.h **** {
 556              		.loc 2 2036 31 view .LVU219
 557              	.LBB52:
2038:Drivers/CMSIS/Include/cmsis_gcc.h **** 
 558              		.loc 2 2038 3 view .LVU220
2040:Drivers/CMSIS/Include/cmsis_gcc.h ****   return(result);
 559              		.loc 2 2040 3 view .LVU221
 560              		.syntax unified
 561              	@ 2040 "Drivers/CMSIS/Include/cmsis_gcc.h" 1
 562 017a 28FB02E9 		smlad r9, r8, r2, lr
 563              	@ 0 "" 2
 564              	.LVL79:
 565              		.loc 2 2041 3 view .LVU222
 566              		.loc 2 2041 3 is_stmt 0 view .LVU223
 567              		.thumb
 568              		.syntax unified
 569              	.LBE52:
 570              	.LBE51:
 320:DSP/Source/FilteringFunctions/arm_conv_q7.c **** 
 571              		.loc 1 320 9 is_stmt 1 view .LVU224
 320:DSP/Source/FilteringFunctions/arm_conv_q7.c **** 
 572              		.loc 1 320 12 is_stmt 0 view .LVU225
 573 017e 94F90100 		ldrsb	r0, [r4, #1]
 574              	.LVL80:
 323:DSP/Source/FilteringFunctions/arm_conv_q7.c ****         in2 = (q15_t) x0;
 575              		.loc 1 323 9 is_stmt 1 view .LVU226
 324:DSP/Source/FilteringFunctions/arm_conv_q7.c **** 
 576              		.loc 1 324 9 view .LVU227
 326:DSP/Source/FilteringFunctions/arm_conv_q7.c **** 
ARM GAS  /var/folders/ck/g3dcd5x55xs4107jgdl0snvr0000gn/T//cc4og9VU.s 			page 56


 577              		.loc 1 326 9 view .LVU228
 326:DSP/Source/FilteringFunctions/arm_conv_q7.c **** 
 578              		.loc 1 326 31 is_stmt 0 view .LVU229
 579 0182 BFB2     		uxth	r7, r7
 580              	.LVL81:
 326:DSP/Source/FilteringFunctions/arm_conv_q7.c **** 
 581              		.loc 1 326 16 view .LVU230
 582 0184 47EA0047 		orr	r7, r7, r0, lsl #16
 583              	.LVL82:
 329:DSP/Source/FilteringFunctions/arm_conv_q7.c **** 
 584              		.loc 1 329 9 is_stmt 1 view .LVU231
 585              	.LBB53:
 586              	.LBI53:
2036:Drivers/CMSIS/Include/cmsis_gcc.h **** {
 587              		.loc 2 2036 31 view .LVU232
 588              	.LBB54:
2038:Drivers/CMSIS/Include/cmsis_gcc.h **** 
 589              		.loc 2 2038 3 view .LVU233
2040:Drivers/CMSIS/Include/cmsis_gcc.h ****   return(result);
 590              		.loc 2 2040 3 view .LVU234
 591              		.syntax unified
 592              	@ 2040 "Drivers/CMSIS/Include/cmsis_gcc.h" 1
 593 0188 27FB02CA 		smlad r10, r7, r2, ip
 594              	@ 0 "" 2
 595              	.LVL83:
 596              		.loc 2 2041 3 view .LVU235
 597              		.loc 2 2041 3 is_stmt 0 view .LVU236
 598              		.thumb
 599              		.syntax unified
 600              	.LBE54:
 601              	.LBE53:
 332:DSP/Source/FilteringFunctions/arm_conv_q7.c ****         /* Read y[srcBLen - 4] sample */
 602              		.loc 1 332 9 is_stmt 1 view .LVU237
 332:DSP/Source/FilteringFunctions/arm_conv_q7.c ****         /* Read y[srcBLen - 4] sample */
 603              		.loc 1 332 12 is_stmt 0 view .LVU238
 604 018c 15F9022C 		ldrsb	r2, [r5, #-2]
 605              	.LVL84:
 334:DSP/Source/FilteringFunctions/arm_conv_q7.c **** 
 606              		.loc 1 334 9 is_stmt 1 view .LVU239
 334:DSP/Source/FilteringFunctions/arm_conv_q7.c **** 
 607              		.loc 1 334 12 is_stmt 0 view .LVU240
 608 0190 15F903CC 		ldrsb	ip, [r5, #-3]
 609 0194 043D     		subs	r5, r5, #4
 610              	.LVL85:
 337:DSP/Source/FilteringFunctions/arm_conv_q7.c **** 
 611              		.loc 1 337 9 is_stmt 1 view .LVU241
 337:DSP/Source/FilteringFunctions/arm_conv_q7.c **** 
 612              		.loc 1 337 12 is_stmt 0 view .LVU242
 613 0196 94F90210 		ldrsb	r1, [r4, #2]
 614              	.LVL86:
 340:DSP/Source/FilteringFunctions/arm_conv_q7.c ****         in2 = (q15_t) x3;
 615              		.loc 1 340 9 is_stmt 1 view .LVU243
 341:DSP/Source/FilteringFunctions/arm_conv_q7.c **** 
 616              		.loc 1 341 9 view .LVU244
 343:DSP/Source/FilteringFunctions/arm_conv_q7.c **** 
 617              		.loc 1 343 9 view .LVU245
 346:DSP/Source/FilteringFunctions/arm_conv_q7.c ****         in2 = (q15_t) c1;
ARM GAS  /var/folders/ck/g3dcd5x55xs4107jgdl0snvr0000gn/T//cc4og9VU.s 			page 57


 618              		.loc 1 346 9 view .LVU246
 347:DSP/Source/FilteringFunctions/arm_conv_q7.c **** 
 619              		.loc 1 347 9 view .LVU247
 349:DSP/Source/FilteringFunctions/arm_conv_q7.c **** 
 620              		.loc 1 349 9 view .LVU248
 349:DSP/Source/FilteringFunctions/arm_conv_q7.c **** 
 621              		.loc 1 349 31 is_stmt 0 view .LVU249
 622 019a 92B2     		uxth	r2, r2
 349:DSP/Source/FilteringFunctions/arm_conv_q7.c **** 
 623              		.loc 1 349 16 view .LVU250
 624 019c 42EA0C42 		orr	r2, r2, ip, lsl #16
 625              	.LVL87:
 352:DSP/Source/FilteringFunctions/arm_conv_q7.c **** 
 626              		.loc 1 352 9 is_stmt 1 view .LVU251
 627              	.LBB55:
 628              	.LBI55:
2036:Drivers/CMSIS/Include/cmsis_gcc.h **** {
 629              		.loc 2 2036 31 view .LVU252
 630              	.LBB56:
2038:Drivers/CMSIS/Include/cmsis_gcc.h **** 
 631              		.loc 2 2038 3 view .LVU253
2040:Drivers/CMSIS/Include/cmsis_gcc.h ****   return(result);
 632              		.loc 2 2040 3 view .LVU254
 633              		.syntax unified
 634              	@ 2040 "Drivers/CMSIS/Include/cmsis_gcc.h" 1
 635 01a0 28FB0268 		smlad r8, r8, r2, r6
 636              	@ 0 "" 2
 637              	.LVL88:
 638              		.loc 2 2041 3 view .LVU255
 639              		.loc 2 2041 3 is_stmt 0 view .LVU256
 640              		.thumb
 641              		.syntax unified
 642              	.LBE56:
 643              	.LBE55:
 352:DSP/Source/FilteringFunctions/arm_conv_q7.c **** 
 644              		.loc 1 352 14 discriminator 1 view .LVU257
 645 01a4 4646     		mov	r6, r8
 646              	.LVL89:
 355:DSP/Source/FilteringFunctions/arm_conv_q7.c ****         in2 = (q15_t) x0;
 647              		.loc 1 355 9 is_stmt 1 view .LVU258
 356:DSP/Source/FilteringFunctions/arm_conv_q7.c **** 
 648              		.loc 1 356 9 view .LVU259
 358:DSP/Source/FilteringFunctions/arm_conv_q7.c **** 
 649              		.loc 1 358 9 view .LVU260
 361:DSP/Source/FilteringFunctions/arm_conv_q7.c **** 
 650              		.loc 1 361 9 view .LVU261
 651              	.LBB57:
 652              	.LBI57:
2036:Drivers/CMSIS/Include/cmsis_gcc.h **** {
 653              		.loc 2 2036 31 view .LVU262
 654              	.LBB58:
2038:Drivers/CMSIS/Include/cmsis_gcc.h **** 
 655              		.loc 2 2038 3 view .LVU263
2040:Drivers/CMSIS/Include/cmsis_gcc.h ****   return(result);
 656              		.loc 2 2040 3 view .LVU264
 657              		.syntax unified
 658              	@ 2040 "Drivers/CMSIS/Include/cmsis_gcc.h" 1
ARM GAS  /var/folders/ck/g3dcd5x55xs4107jgdl0snvr0000gn/T//cc4og9VU.s 			page 58


 659 01a6 27FB0237 		smlad r7, r7, r2, r3
 660              	@ 0 "" 2
 661              	.LVL90:
 662              		.loc 2 2041 3 view .LVU265
 663              		.loc 2 2041 3 is_stmt 0 view .LVU266
 664              		.thumb
 665              		.syntax unified
 666              	.LBE58:
 667              	.LBE57:
 361:DSP/Source/FilteringFunctions/arm_conv_q7.c **** 
 668              		.loc 1 361 14 discriminator 1 view .LVU267
 669 01aa 3B46     		mov	r3, r7
 670              	.LVL91:
 364:DSP/Source/FilteringFunctions/arm_conv_q7.c ****         in2 = (q15_t) x1;
 671              		.loc 1 364 9 is_stmt 1 view .LVU268
 365:DSP/Source/FilteringFunctions/arm_conv_q7.c **** 
 672              		.loc 1 365 9 view .LVU269
 367:DSP/Source/FilteringFunctions/arm_conv_q7.c **** 
 673              		.loc 1 367 9 view .LVU270
 367:DSP/Source/FilteringFunctions/arm_conv_q7.c **** 
 674              		.loc 1 367 31 is_stmt 0 view .LVU271
 675 01ac 1FFA80FE 		uxth	lr, r0
 367:DSP/Source/FilteringFunctions/arm_conv_q7.c **** 
 676              		.loc 1 367 16 view .LVU272
 677 01b0 4EEA014E 		orr	lr, lr, r1, lsl #16
 678              	.LVL92:
 370:DSP/Source/FilteringFunctions/arm_conv_q7.c **** 
 679              		.loc 1 370 9 is_stmt 1 view .LVU273
 680              	.LBB59:
 681              	.LBI59:
2036:Drivers/CMSIS/Include/cmsis_gcc.h **** {
 682              		.loc 2 2036 31 view .LVU274
 683              	.LBB60:
2038:Drivers/CMSIS/Include/cmsis_gcc.h **** 
 684              		.loc 2 2038 3 view .LVU275
2040:Drivers/CMSIS/Include/cmsis_gcc.h ****   return(result);
 685              		.loc 2 2040 3 view .LVU276
 686              		.syntax unified
 687              	@ 2040 "Drivers/CMSIS/Include/cmsis_gcc.h" 1
 688 01b4 2EFB029E 		smlad lr, lr, r2, r9
 689              	@ 0 "" 2
 690              	.LVL93:
 691              		.loc 2 2041 3 view .LVU277
 692              		.loc 2 2041 3 is_stmt 0 view .LVU278
 693              		.thumb
 694              		.syntax unified
 695              	.LBE60:
 696              	.LBE59:
 373:DSP/Source/FilteringFunctions/arm_conv_q7.c **** 
 697              		.loc 1 373 9 is_stmt 1 view .LVU279
 373:DSP/Source/FilteringFunctions/arm_conv_q7.c **** 
 698              		.loc 1 373 12 is_stmt 0 view .LVU280
 699 01b8 94F90380 		ldrsb	r8, [r4, #3]
 700              	.LVL94:
 373:DSP/Source/FilteringFunctions/arm_conv_q7.c **** 
 701              		.loc 1 373 12 view .LVU281
 702 01bc 0434     		adds	r4, r4, #4
ARM GAS  /var/folders/ck/g3dcd5x55xs4107jgdl0snvr0000gn/T//cc4og9VU.s 			page 59


 703              	.LVL95:
 376:DSP/Source/FilteringFunctions/arm_conv_q7.c ****         in2 = (q15_t) x2;
 704              		.loc 1 376 9 is_stmt 1 view .LVU282
 377:DSP/Source/FilteringFunctions/arm_conv_q7.c **** 
 705              		.loc 1 377 9 view .LVU283
 379:DSP/Source/FilteringFunctions/arm_conv_q7.c **** 
 706              		.loc 1 379 9 view .LVU284
 379:DSP/Source/FilteringFunctions/arm_conv_q7.c **** 
 707              		.loc 1 379 31 is_stmt 0 view .LVU285
 708 01be 1FFA81FC 		uxth	ip, r1
 709              	.LVL96:
 379:DSP/Source/FilteringFunctions/arm_conv_q7.c **** 
 710              		.loc 1 379 16 view .LVU286
 711 01c2 4CEA084C 		orr	ip, ip, r8, lsl #16
 712              	.LVL97:
 382:DSP/Source/FilteringFunctions/arm_conv_q7.c **** 
 713              		.loc 1 382 9 is_stmt 1 view .LVU287
 714              	.LBB61:
 715              	.LBI61:
2036:Drivers/CMSIS/Include/cmsis_gcc.h **** {
 716              		.loc 2 2036 31 view .LVU288
 717              	.LBB62:
2038:Drivers/CMSIS/Include/cmsis_gcc.h **** 
 718              		.loc 2 2038 3 view .LVU289
2040:Drivers/CMSIS/Include/cmsis_gcc.h ****   return(result);
 719              		.loc 2 2040 3 view .LVU290
 720              		.syntax unified
 721              	@ 2040 "Drivers/CMSIS/Include/cmsis_gcc.h" 1
 722 01c6 2CFB02AC 		smlad ip, ip, r2, r10
 723              	@ 0 "" 2
 724              	.LVL98:
 725              		.loc 2 2041 3 view .LVU291
 726              		.loc 2 2041 3 is_stmt 0 view .LVU292
 727              		.thumb
 728              		.syntax unified
 729              	.LBE62:
 730              	.LBE61:
 384:DSP/Source/FilteringFunctions/arm_conv_q7.c **** 
 731              		.loc 1 384 16 is_stmt 1 discriminator 1 view .LVU293
 384:DSP/Source/FilteringFunctions/arm_conv_q7.c **** 
 732              		.loc 1 384 16 is_stmt 0 discriminator 1 view .LVU294
 733 01ca BBF1010B 		subs	fp, fp, #1
 734              	.LVL99:
 384:DSP/Source/FilteringFunctions/arm_conv_q7.c **** 
 735              		.loc 1 384 16 discriminator 1 view .LVU295
 736 01ce BDD1     		bne	.L11
 388:DSP/Source/FilteringFunctions/arm_conv_q7.c **** 
 737              		.loc 1 388 9 view .LVU296
 738 01d0 DDF81490 		ldr	r9, [sp, #20]
 739 01d4 DDF848B0 		ldr	fp, [sp, #72]
 740              	.LVL100:
 388:DSP/Source/FilteringFunctions/arm_conv_q7.c **** 
 741              		.loc 1 388 7 is_stmt 1 view .LVU297
 388:DSP/Source/FilteringFunctions/arm_conv_q7.c **** 
 742              		.loc 1 388 9 is_stmt 0 view .LVU298
 743 01d8 09F00307 		and	r7, r9, #3
 744              	.LVL101:
ARM GAS  /var/folders/ck/g3dcd5x55xs4107jgdl0snvr0000gn/T//cc4og9VU.s 			page 60


 390:DSP/Source/FilteringFunctions/arm_conv_q7.c ****       {
 745              		.loc 1 390 7 is_stmt 1 view .LVU299
 746              	.L12:
 390:DSP/Source/FilteringFunctions/arm_conv_q7.c ****       {
 747              		.loc 1 390 16 view .LVU300
 748 01dc 002F     		cmp	r7, #0
 749 01de 3FF47EAF 		beq	.L35
 393:DSP/Source/FilteringFunctions/arm_conv_q7.c **** 
 750              		.loc 1 393 9 view .LVU301
 751              	.LVL102:
 393:DSP/Source/FilteringFunctions/arm_conv_q7.c **** 
 752              		.loc 1 393 12 is_stmt 0 view .LVU302
 753 01e2 15F90129 		ldrsb	r2, [r5], #-1
 754              	.LVL103:
 396:DSP/Source/FilteringFunctions/arm_conv_q7.c **** 
 755              		.loc 1 396 9 is_stmt 1 view .LVU303
 396:DSP/Source/FilteringFunctions/arm_conv_q7.c **** 
 756              		.loc 1 396 12 is_stmt 0 view .LVU304
 757 01e6 14F901AB 		ldrsb	r10, [r4], #1
 758              	.LVL104:
 400:DSP/Source/FilteringFunctions/arm_conv_q7.c ****         /* acc1 +=  x[5] * y[srcBLen - 5] */
 759              		.loc 1 400 9 is_stmt 1 view .LVU305
 400:DSP/Source/FilteringFunctions/arm_conv_q7.c ****         /* acc1 +=  x[5] * y[srcBLen - 5] */
 760              		.loc 1 400 14 is_stmt 0 view .LVU306
 761 01ea 02FB0066 		mla	r6, r2, r0, r6
 762              	.LVL105:
 402:DSP/Source/FilteringFunctions/arm_conv_q7.c ****         /* acc2 +=  x[6] * y[srcBLen - 5] */
 763              		.loc 1 402 9 is_stmt 1 view .LVU307
 402:DSP/Source/FilteringFunctions/arm_conv_q7.c ****         /* acc2 +=  x[6] * y[srcBLen - 5] */
 764              		.loc 1 402 14 is_stmt 0 view .LVU308
 765 01ee 01FB0233 		mla	r3, r1, r2, r3
 766              	.LVL106:
 404:DSP/Source/FilteringFunctions/arm_conv_q7.c ****         /* acc3 +=  x[7] * y[srcBLen - 5] */
 767              		.loc 1 404 9 is_stmt 1 view .LVU309
 404:DSP/Source/FilteringFunctions/arm_conv_q7.c ****         /* acc3 +=  x[7] * y[srcBLen - 5] */
 768              		.loc 1 404 14 is_stmt 0 view .LVU310
 769 01f2 08FB02EE 		mla	lr, r8, r2, lr
 770              	.LVL107:
 406:DSP/Source/FilteringFunctions/arm_conv_q7.c **** 
 771              		.loc 1 406 9 is_stmt 1 view .LVU311
 406:DSP/Source/FilteringFunctions/arm_conv_q7.c **** 
 772              		.loc 1 406 14 is_stmt 0 view .LVU312
 773 01f6 0AFB02CC 		mla	ip, r10, r2, ip
 774              	.LVL108:
 409:DSP/Source/FilteringFunctions/arm_conv_q7.c ****         x1 = x2;
 775              		.loc 1 409 9 is_stmt 1 view .LVU313
 410:DSP/Source/FilteringFunctions/arm_conv_q7.c ****         x2 = x3;
 776              		.loc 1 410 9 view .LVU314
 411:DSP/Source/FilteringFunctions/arm_conv_q7.c **** 
 777              		.loc 1 411 9 view .LVU315
 414:DSP/Source/FilteringFunctions/arm_conv_q7.c ****       }
 778              		.loc 1 414 9 view .LVU316
 414:DSP/Source/FilteringFunctions/arm_conv_q7.c ****       }
 779              		.loc 1 414 10 is_stmt 0 view .LVU317
 780 01fa 013F     		subs	r7, r7, #1
 781              	.LVL109:
 409:DSP/Source/FilteringFunctions/arm_conv_q7.c ****         x1 = x2;
ARM GAS  /var/folders/ck/g3dcd5x55xs4107jgdl0snvr0000gn/T//cc4og9VU.s 			page 61


 782              		.loc 1 409 12 view .LVU318
 783 01fc 0846     		mov	r0, r1
 410:DSP/Source/FilteringFunctions/arm_conv_q7.c ****         x2 = x3;
 784              		.loc 1 410 12 view .LVU319
 785 01fe 4146     		mov	r1, r8
 786              	.LVL110:
 411:DSP/Source/FilteringFunctions/arm_conv_q7.c **** 
 787              		.loc 1 411 12 view .LVU320
 788 0200 D046     		mov	r8, r10
 789 0202 EBE7     		b	.L12
 790              	.LVL111:
 791              	.L34:
 433:DSP/Source/FilteringFunctions/arm_conv_q7.c ****     }
 434:DSP/Source/FilteringFunctions/arm_conv_q7.c **** 
 435:DSP/Source/FilteringFunctions/arm_conv_q7.c ****     /* If the blockSize2 is not a multiple of 4, compute any remaining output samples here.
 436:DSP/Source/FilteringFunctions/arm_conv_q7.c ****      ** No loop unrolling is used. */
 437:DSP/Source/FilteringFunctions/arm_conv_q7.c ****     blkCnt = blockSize2 % 0x4U;
 792              		.loc 1 437 12 view .LVU321
 793 0204 049A     		ldr	r2, [sp, #16]
 794              	.LVL112:
 795              		.loc 1 437 12 view .LVU322
 796 0206 069F     		ldr	r7, [sp, #24]
 797 0208 DDF81CA0 		ldr	r10, [sp, #28]
 798 020c C846     		mov	r8, r9
 799              		.loc 1 437 5 is_stmt 1 view .LVU323
 800              		.loc 1 437 12 is_stmt 0 view .LVU324
 801 020e 0AF0030C 		and	ip, r10, #3
 802              	.LVL113:
 438:DSP/Source/FilteringFunctions/arm_conv_q7.c **** 
 439:DSP/Source/FilteringFunctions/arm_conv_q7.c ****     while (blkCnt > 0U)
 803              		.loc 1 439 5 is_stmt 1 view .LVU325
 804 0212 6146     		mov	r1, ip
 805 0214 9446     		mov	ip, r2
 806              	.LVL114:
 807              		.loc 1 439 5 is_stmt 0 view .LVU326
 808 0216 DDF808E0 		ldr	lr, [sp, #8]
 809 021a 0A46     		mov	r2, r1
 810              		.loc 1 439 11 view .LVU327
 811 021c 14E0     		b	.L15
 812              	.LVL115:
 813              	.L37:
 440:DSP/Source/FilteringFunctions/arm_conv_q7.c ****     {
 441:DSP/Source/FilteringFunctions/arm_conv_q7.c ****       /* Accumulator is made zero for every iteration */
 442:DSP/Source/FilteringFunctions/arm_conv_q7.c ****       sum = 0;
 443:DSP/Source/FilteringFunctions/arm_conv_q7.c **** 
 444:DSP/Source/FilteringFunctions/arm_conv_q7.c ****       /* Apply loop unrolling and compute 4 MACs simultaneously. */
 445:DSP/Source/FilteringFunctions/arm_conv_q7.c ****       k = srcBLen >> 2U;
 446:DSP/Source/FilteringFunctions/arm_conv_q7.c **** 
 447:DSP/Source/FilteringFunctions/arm_conv_q7.c ****       /* First part of the processing with loop unrolling.  Compute 4 MACs at a time.
 448:DSP/Source/FilteringFunctions/arm_conv_q7.c ****        ** a second loop below computes MACs for the remaining 1 to 3 samples. */
 449:DSP/Source/FilteringFunctions/arm_conv_q7.c ****       while (k > 0U)
 450:DSP/Source/FilteringFunctions/arm_conv_q7.c ****       {
 451:DSP/Source/FilteringFunctions/arm_conv_q7.c **** 
 452:DSP/Source/FilteringFunctions/arm_conv_q7.c ****         /* Reading two inputs of SrcA buffer and packing */
 453:DSP/Source/FilteringFunctions/arm_conv_q7.c ****         in1 = (q15_t) * px++;
 454:DSP/Source/FilteringFunctions/arm_conv_q7.c ****         in2 = (q15_t) * px++;
 455:DSP/Source/FilteringFunctions/arm_conv_q7.c ****         input1 = ((q31_t) in1 & 0x0000FFFF) | ((q31_t) in2 << 16U);
ARM GAS  /var/folders/ck/g3dcd5x55xs4107jgdl0snvr0000gn/T//cc4og9VU.s 			page 62


 456:DSP/Source/FilteringFunctions/arm_conv_q7.c **** 
 457:DSP/Source/FilteringFunctions/arm_conv_q7.c ****         /* Reading two inputs of SrcB buffer and packing */
 458:DSP/Source/FilteringFunctions/arm_conv_q7.c ****         in1 = (q15_t) * py--;
 459:DSP/Source/FilteringFunctions/arm_conv_q7.c ****         in2 = (q15_t) * py--;
 460:DSP/Source/FilteringFunctions/arm_conv_q7.c ****         input2 = ((q31_t) in1 & 0x0000FFFF) | ((q31_t) in2 << 16U);
 461:DSP/Source/FilteringFunctions/arm_conv_q7.c **** 
 462:DSP/Source/FilteringFunctions/arm_conv_q7.c ****         /* Perform the multiply-accumulates */
 463:DSP/Source/FilteringFunctions/arm_conv_q7.c ****         sum = __SMLAD(input1, input2, sum);
 464:DSP/Source/FilteringFunctions/arm_conv_q7.c **** 
 465:DSP/Source/FilteringFunctions/arm_conv_q7.c ****         /* Reading two inputs of SrcA buffer and packing */
 466:DSP/Source/FilteringFunctions/arm_conv_q7.c ****         in1 = (q15_t) * px++;
 467:DSP/Source/FilteringFunctions/arm_conv_q7.c ****         in2 = (q15_t) * px++;
 468:DSP/Source/FilteringFunctions/arm_conv_q7.c ****         input1 = ((q31_t) in1 & 0x0000FFFF) | ((q31_t) in2 << 16U);
 469:DSP/Source/FilteringFunctions/arm_conv_q7.c **** 
 470:DSP/Source/FilteringFunctions/arm_conv_q7.c ****         /* Reading two inputs of SrcB buffer and packing */
 471:DSP/Source/FilteringFunctions/arm_conv_q7.c ****         in1 = (q15_t) * py--;
 472:DSP/Source/FilteringFunctions/arm_conv_q7.c ****         in2 = (q15_t) * py--;
 473:DSP/Source/FilteringFunctions/arm_conv_q7.c ****         input2 = ((q31_t) in1 & 0x0000FFFF) | ((q31_t) in2 << 16U);
 474:DSP/Source/FilteringFunctions/arm_conv_q7.c **** 
 475:DSP/Source/FilteringFunctions/arm_conv_q7.c ****         /* Perform the multiply-accumulates */
 476:DSP/Source/FilteringFunctions/arm_conv_q7.c ****         sum = __SMLAD(input1, input2, sum);
 477:DSP/Source/FilteringFunctions/arm_conv_q7.c **** 
 478:DSP/Source/FilteringFunctions/arm_conv_q7.c ****         /* Decrement the loop counter */
 479:DSP/Source/FilteringFunctions/arm_conv_q7.c ****         k--;
 480:DSP/Source/FilteringFunctions/arm_conv_q7.c ****       }
 481:DSP/Source/FilteringFunctions/arm_conv_q7.c **** 
 482:DSP/Source/FilteringFunctions/arm_conv_q7.c ****       /* If the srcBLen is not a multiple of 4, compute any remaining MACs here.
 483:DSP/Source/FilteringFunctions/arm_conv_q7.c ****        ** No loop unrolling is used. */
 484:DSP/Source/FilteringFunctions/arm_conv_q7.c ****       k = srcBLen % 0x4U;
 814              		.loc 1 484 7 is_stmt 1 view .LVU328
 815              		.loc 1 484 9 is_stmt 0 view .LVU329
 816 021e 08F00304 		and	r4, r8, #3
 817              	.LVL116:
 485:DSP/Source/FilteringFunctions/arm_conv_q7.c **** 
 486:DSP/Source/FilteringFunctions/arm_conv_q7.c ****       while (k > 0U)
 818              		.loc 1 486 7 is_stmt 1 view .LVU330
 819              	.L18:
 820              		.loc 1 486 16 view .LVU331
 821 0222 3CB1     		cbz	r4, .L36
 487:DSP/Source/FilteringFunctions/arm_conv_q7.c ****       {
 488:DSP/Source/FilteringFunctions/arm_conv_q7.c ****         /* Perform the multiply-accumulates */
 489:DSP/Source/FilteringFunctions/arm_conv_q7.c ****         sum += ((q15_t) * px++ * *py--);
 822              		.loc 1 489 9 view .LVU332
 823              	.LVL117:
 824              		.loc 1 489 25 is_stmt 0 view .LVU333
 825 0224 13F9015B 		ldrsb	r5, [r3], #1
 826              	.LVL118:
 827              		.loc 1 489 34 view .LVU334
 828 0228 10F90169 		ldrsb	r6, [r0], #-1
 829              	.LVL119:
 830              		.loc 1 489 13 view .LVU335
 831 022c 06FB0511 		mla	r1, r6, r5, r1
 832              	.LVL120:
 490:DSP/Source/FilteringFunctions/arm_conv_q7.c **** 
 491:DSP/Source/FilteringFunctions/arm_conv_q7.c ****         /* Decrement the loop counter */
 492:DSP/Source/FilteringFunctions/arm_conv_q7.c ****         k--;
 833              		.loc 1 492 9 is_stmt 1 view .LVU336
ARM GAS  /var/folders/ck/g3dcd5x55xs4107jgdl0snvr0000gn/T//cc4og9VU.s 			page 63


 834              		.loc 1 492 10 is_stmt 0 view .LVU337
 835 0230 013C     		subs	r4, r4, #1
 836              	.LVL121:
 837              		.loc 1 492 10 view .LVU338
 838 0232 F6E7     		b	.L18
 839              	.L36:
 493:DSP/Source/FilteringFunctions/arm_conv_q7.c ****       }
 494:DSP/Source/FilteringFunctions/arm_conv_q7.c **** 
 495:DSP/Source/FilteringFunctions/arm_conv_q7.c ****       /* Store the result in the accumulator in the destination buffer. */
 496:DSP/Source/FilteringFunctions/arm_conv_q7.c ****       *pOut++ = (q7_t) (__SSAT(sum >> 7U, 8));
 840              		.loc 1 496 7 is_stmt 1 view .LVU339
 841              	.LBB63:
 842              		.loc 1 496 25 view .LVU340
 843 0234 C911     		asrs	r1, r1, #7
 844              	.LVL122:
 845              		.loc 1 496 25 view .LVU341
 846              		.syntax unified
 847              	@ 496 "DSP/Source/FilteringFunctions/arm_conv_q7.c" 1
 848 0236 01F30701 		ssat r1, #8, r1
 849              	@ 0 "" 2
 850              	.LVL123:
 851              		.loc 1 496 25 view .LVU342
 852              		.loc 1 496 25 is_stmt 0 view .LVU343
 853              		.thumb
 854              		.syntax unified
 855              	.LBE63:
 856              		.loc 1 496 15 view .LVU344
 857 023a 0BF8011B 		strb	r1, [fp], #1
 858              	.LVL124:
 497:DSP/Source/FilteringFunctions/arm_conv_q7.c **** 
 498:DSP/Source/FilteringFunctions/arm_conv_q7.c ****       /* Increment the pointer pIn1 index, count by 1 */
 499:DSP/Source/FilteringFunctions/arm_conv_q7.c ****       count++;
 859              		.loc 1 499 7 is_stmt 1 view .LVU345
 860              		.loc 1 499 12 is_stmt 0 view .LVU346
 861 023e 0CF1010C 		add	ip, ip, #1
 862              	.LVL125:
 500:DSP/Source/FilteringFunctions/arm_conv_q7.c **** 
 501:DSP/Source/FilteringFunctions/arm_conv_q7.c ****       /* Update the inputA and inputB pointers for next MAC calculation */
 502:DSP/Source/FilteringFunctions/arm_conv_q7.c ****       px = pIn1 + count;
 863              		.loc 1 502 7 is_stmt 1 view .LVU347
 864              		.loc 1 502 10 is_stmt 0 view .LVU348
 865 0242 0EEB0C03 		add	r3, lr, ip
 866              	.LVL126:
 503:DSP/Source/FilteringFunctions/arm_conv_q7.c ****       py = pSrc2;
 867              		.loc 1 503 7 is_stmt 1 view .LVU349
 504:DSP/Source/FilteringFunctions/arm_conv_q7.c **** 
 505:DSP/Source/FilteringFunctions/arm_conv_q7.c ****       /* Decrement the loop counter */
 506:DSP/Source/FilteringFunctions/arm_conv_q7.c ****       blkCnt--;
 868              		.loc 1 506 7 view .LVU350
 869              		.loc 1 506 13 is_stmt 0 view .LVU351
 870 0246 013A     		subs	r2, r2, #1
 871              	.LVL127:
 872              	.L15:
 439:DSP/Source/FilteringFunctions/arm_conv_q7.c ****     {
 873              		.loc 1 439 19 is_stmt 1 view .LVU352
 874 0248 002A     		cmp	r2, #0
 875 024a 46D0     		beq	.L21
ARM GAS  /var/folders/ck/g3dcd5x55xs4107jgdl0snvr0000gn/T//cc4og9VU.s 			page 64


 442:DSP/Source/FilteringFunctions/arm_conv_q7.c **** 
 876              		.loc 1 442 7 view .LVU353
 877              	.LVL128:
 445:DSP/Source/FilteringFunctions/arm_conv_q7.c **** 
 878              		.loc 1 445 7 view .LVU354
 445:DSP/Source/FilteringFunctions/arm_conv_q7.c **** 
 879              		.loc 1 445 9 is_stmt 0 view .LVU355
 880 024c 4FEA9805 		lsr	r5, r8, #2
 881              	.LVL129:
 449:DSP/Source/FilteringFunctions/arm_conv_q7.c ****       {
 882              		.loc 1 449 7 is_stmt 1 view .LVU356
 449:DSP/Source/FilteringFunctions/arm_conv_q7.c ****       {
 883              		.loc 1 449 13 is_stmt 0 view .LVU357
 884 0250 0198     		ldr	r0, [sp, #4]
 442:DSP/Source/FilteringFunctions/arm_conv_q7.c **** 
 885              		.loc 1 442 11 view .LVU358
 886 0252 0021     		movs	r1, #0
 887              	.LVL130:
 888              	.L16:
 449:DSP/Source/FilteringFunctions/arm_conv_q7.c ****       {
 889              		.loc 1 449 16 is_stmt 1 view .LVU359
 890 0254 002D     		cmp	r5, #0
 891 0256 E2D0     		beq	.L37
 453:DSP/Source/FilteringFunctions/arm_conv_q7.c ****         in2 = (q15_t) * px++;
 892              		.loc 1 453 9 view .LVU360
 893              	.LVL131:
 453:DSP/Source/FilteringFunctions/arm_conv_q7.c ****         in2 = (q15_t) * px++;
 894              		.loc 1 453 23 is_stmt 0 view .LVU361
 895 0258 93F90040 		ldrsb	r4, [r3]
 896              	.LVL132:
 454:DSP/Source/FilteringFunctions/arm_conv_q7.c ****         input1 = ((q31_t) in1 & 0x0000FFFF) | ((q31_t) in2 << 16U);
 897              		.loc 1 454 9 is_stmt 1 view .LVU362
 454:DSP/Source/FilteringFunctions/arm_conv_q7.c ****         input1 = ((q31_t) in1 & 0x0000FFFF) | ((q31_t) in2 << 16U);
 898              		.loc 1 454 23 is_stmt 0 view .LVU363
 899 025c 93F90160 		ldrsb	r6, [r3, #1]
 900              	.LVL133:
 455:DSP/Source/FilteringFunctions/arm_conv_q7.c **** 
 901              		.loc 1 455 9 is_stmt 1 view .LVU364
 455:DSP/Source/FilteringFunctions/arm_conv_q7.c **** 
 902              		.loc 1 455 31 is_stmt 0 view .LVU365
 903 0260 A4B2     		uxth	r4, r4
 455:DSP/Source/FilteringFunctions/arm_conv_q7.c **** 
 904              		.loc 1 455 16 view .LVU366
 905 0262 44EA0644 		orr	r4, r4, r6, lsl #16
 906              	.LVL134:
 458:DSP/Source/FilteringFunctions/arm_conv_q7.c ****         in2 = (q15_t) * py--;
 907              		.loc 1 458 9 is_stmt 1 view .LVU367
 458:DSP/Source/FilteringFunctions/arm_conv_q7.c ****         in2 = (q15_t) * py--;
 908              		.loc 1 458 23 is_stmt 0 view .LVU368
 909 0266 90F90060 		ldrsb	r6, [r0]
 910              	.LVL135:
 459:DSP/Source/FilteringFunctions/arm_conv_q7.c ****         input2 = ((q31_t) in1 & 0x0000FFFF) | ((q31_t) in2 << 16U);
 911              		.loc 1 459 9 is_stmt 1 view .LVU369
 459:DSP/Source/FilteringFunctions/arm_conv_q7.c ****         input2 = ((q31_t) in1 & 0x0000FFFF) | ((q31_t) in2 << 16U);
 912              		.loc 1 459 23 is_stmt 0 view .LVU370
 913 026a 10F9019C 		ldrsb	r9, [r0, #-1]
 914              	.LVL136:
ARM GAS  /var/folders/ck/g3dcd5x55xs4107jgdl0snvr0000gn/T//cc4og9VU.s 			page 65


 460:DSP/Source/FilteringFunctions/arm_conv_q7.c **** 
 915              		.loc 1 460 9 is_stmt 1 view .LVU371
 460:DSP/Source/FilteringFunctions/arm_conv_q7.c **** 
 916              		.loc 1 460 31 is_stmt 0 view .LVU372
 917 026e B6B2     		uxth	r6, r6
 460:DSP/Source/FilteringFunctions/arm_conv_q7.c **** 
 918              		.loc 1 460 16 view .LVU373
 919 0270 46EA0946 		orr	r6, r6, r9, lsl #16
 920              	.LVL137:
 463:DSP/Source/FilteringFunctions/arm_conv_q7.c **** 
 921              		.loc 1 463 9 is_stmt 1 view .LVU374
 922              	.LBB64:
 923              	.LBI64:
2036:Drivers/CMSIS/Include/cmsis_gcc.h **** {
 924              		.loc 2 2036 31 view .LVU375
 925              	.LBB65:
2038:Drivers/CMSIS/Include/cmsis_gcc.h **** 
 926              		.loc 2 2038 3 view .LVU376
2040:Drivers/CMSIS/Include/cmsis_gcc.h ****   return(result);
 927              		.loc 2 2040 3 view .LVU377
 928              		.syntax unified
 929              	@ 2040 "Drivers/CMSIS/Include/cmsis_gcc.h" 1
 930 0274 24FB0614 		smlad r4, r4, r6, r1
 931              	@ 0 "" 2
 932              	.LVL138:
 933              		.loc 2 2041 3 view .LVU378
 934              		.loc 2 2041 3 is_stmt 0 view .LVU379
 935              		.thumb
 936              		.syntax unified
 937              	.LBE65:
 938              	.LBE64:
 466:DSP/Source/FilteringFunctions/arm_conv_q7.c ****         in2 = (q15_t) * px++;
 939              		.loc 1 466 9 is_stmt 1 view .LVU380
 466:DSP/Source/FilteringFunctions/arm_conv_q7.c ****         in2 = (q15_t) * px++;
 940              		.loc 1 466 23 is_stmt 0 view .LVU381
 941 0278 93F90210 		ldrsb	r1, [r3, #2]
 942              	.LVL139:
 467:DSP/Source/FilteringFunctions/arm_conv_q7.c ****         input1 = ((q31_t) in1 & 0x0000FFFF) | ((q31_t) in2 << 16U);
 943              		.loc 1 467 9 is_stmt 1 view .LVU382
 467:DSP/Source/FilteringFunctions/arm_conv_q7.c ****         input1 = ((q31_t) in1 & 0x0000FFFF) | ((q31_t) in2 << 16U);
 944              		.loc 1 467 27 is_stmt 0 view .LVU383
 945 027c 1E1D     		adds	r6, r3, #4
 946              	.LVL140:
 467:DSP/Source/FilteringFunctions/arm_conv_q7.c ****         input1 = ((q31_t) in1 & 0x0000FFFF) | ((q31_t) in2 << 16U);
 947              		.loc 1 467 23 view .LVU384
 948 027e 93F90330 		ldrsb	r3, [r3, #3]
 949              	.LVL141:
 468:DSP/Source/FilteringFunctions/arm_conv_q7.c **** 
 950              		.loc 1 468 9 is_stmt 1 view .LVU385
 468:DSP/Source/FilteringFunctions/arm_conv_q7.c **** 
 951              		.loc 1 468 31 is_stmt 0 view .LVU386
 952 0282 89B2     		uxth	r1, r1
 468:DSP/Source/FilteringFunctions/arm_conv_q7.c **** 
 953              		.loc 1 468 16 view .LVU387
 954 0284 41EA0341 		orr	r1, r1, r3, lsl #16
 955              	.LVL142:
 471:DSP/Source/FilteringFunctions/arm_conv_q7.c ****         in2 = (q15_t) * py--;
ARM GAS  /var/folders/ck/g3dcd5x55xs4107jgdl0snvr0000gn/T//cc4og9VU.s 			page 66


 956              		.loc 1 471 9 is_stmt 1 view .LVU388
 471:DSP/Source/FilteringFunctions/arm_conv_q7.c ****         in2 = (q15_t) * py--;
 957              		.loc 1 471 23 is_stmt 0 view .LVU389
 958 0288 10F9029C 		ldrsb	r9, [r0, #-2]
 959              	.LVL143:
 472:DSP/Source/FilteringFunctions/arm_conv_q7.c ****         input2 = ((q31_t) in1 & 0x0000FFFF) | ((q31_t) in2 << 16U);
 960              		.loc 1 472 9 is_stmt 1 view .LVU390
 472:DSP/Source/FilteringFunctions/arm_conv_q7.c ****         input2 = ((q31_t) in1 & 0x0000FFFF) | ((q31_t) in2 << 16U);
 961              		.loc 1 472 27 is_stmt 0 view .LVU391
 962 028c 031F     		subs	r3, r0, #4
 963              	.LVL144:
 472:DSP/Source/FilteringFunctions/arm_conv_q7.c ****         input2 = ((q31_t) in1 & 0x0000FFFF) | ((q31_t) in2 << 16U);
 964              		.loc 1 472 23 view .LVU392
 965 028e 10F9030C 		ldrsb	r0, [r0, #-3]
 966              	.LVL145:
 473:DSP/Source/FilteringFunctions/arm_conv_q7.c **** 
 967              		.loc 1 473 9 is_stmt 1 view .LVU393
 473:DSP/Source/FilteringFunctions/arm_conv_q7.c **** 
 968              		.loc 1 473 31 is_stmt 0 view .LVU394
 969 0292 1FFA89F9 		uxth	r9, r9
 473:DSP/Source/FilteringFunctions/arm_conv_q7.c **** 
 970              		.loc 1 473 16 view .LVU395
 971 0296 49EA0040 		orr	r0, r9, r0, lsl #16
 972              	.LVL146:
 476:DSP/Source/FilteringFunctions/arm_conv_q7.c **** 
 973              		.loc 1 476 9 is_stmt 1 view .LVU396
 974              	.LBB66:
 975              	.LBI66:
2036:Drivers/CMSIS/Include/cmsis_gcc.h **** {
 976              		.loc 2 2036 31 view .LVU397
 977              	.LBB67:
2038:Drivers/CMSIS/Include/cmsis_gcc.h **** 
 978              		.loc 2 2038 3 view .LVU398
2040:Drivers/CMSIS/Include/cmsis_gcc.h ****   return(result);
