ARM GAS  /var/folders/ck/g3dcd5x55xs4107jgdl0snvr0000gn/T//ccKj6PSW.s 			page 1


   1              		.cpu cortex-m4
   2              		.arch armv7e-m
   3              		.fpu fpv4-sp-d16
   4              		.eabi_attribute 27, 1
   5              		.eabi_attribute 28, 1
   6              		.eabi_attribute 20, 1
   7              		.eabi_attribute 21, 1
   8              		.eabi_attribute 23, 3
   9              		.eabi_attribute 24, 1
  10              		.eabi_attribute 25, 1
  11              		.eabi_attribute 26, 1
  12              		.eabi_attribute 30, 1
  13              		.eabi_attribute 34, 1
  14              		.eabi_attribute 18, 4
  15              		.file	"arm_cmplx_mult_real_q31.c"
  16              		.text
  17              	.Ltext0:
  18              		.cfi_sections	.debug_frame
  19              		.file 1 "DSP/Source/ComplexMathFunctions/arm_cmplx_mult_real_q31.c"
  20              		.section	.text.arm_cmplx_mult_real_q31,"ax",%progbits
  21              		.align	1
  22              		.global	arm_cmplx_mult_real_q31
  23              		.syntax unified
  24              		.thumb
  25              		.thumb_func
  27              	arm_cmplx_mult_real_q31:
  28              	.LVL0:
  29              	.LFB139:
   1:DSP/Source/ComplexMathFunctions/arm_cmplx_mult_real_q31.c **** /* ----------------------------------------------------------------------
   2:DSP/Source/ComplexMathFunctions/arm_cmplx_mult_real_q31.c ****  * Project:      CMSIS DSP Library
   3:DSP/Source/ComplexMathFunctions/arm_cmplx_mult_real_q31.c ****  * Title:        arm_cmplx_mult_real_q31.c
   4:DSP/Source/ComplexMathFunctions/arm_cmplx_mult_real_q31.c ****  * Description:  Q31 complex by real multiplication
   5:DSP/Source/ComplexMathFunctions/arm_cmplx_mult_real_q31.c ****  *
   6:DSP/Source/ComplexMathFunctions/arm_cmplx_mult_real_q31.c ****  * $Date:        27. January 2017
   7:DSP/Source/ComplexMathFunctions/arm_cmplx_mult_real_q31.c ****  * $Revision:    V.1.5.1
   8:DSP/Source/ComplexMathFunctions/arm_cmplx_mult_real_q31.c ****  *
   9:DSP/Source/ComplexMathFunctions/arm_cmplx_mult_real_q31.c ****  * Target Processor: Cortex-M cores
  10:DSP/Source/ComplexMathFunctions/arm_cmplx_mult_real_q31.c ****  * -------------------------------------------------------------------- */
  11:DSP/Source/ComplexMathFunctions/arm_cmplx_mult_real_q31.c **** /*
  12:DSP/Source/ComplexMathFunctions/arm_cmplx_mult_real_q31.c ****  * Copyright (C) 2010-2017 ARM Limited or its affiliates. All rights reserved.
  13:DSP/Source/ComplexMathFunctions/arm_cmplx_mult_real_q31.c ****  *
  14:DSP/Source/ComplexMathFunctions/arm_cmplx_mult_real_q31.c ****  * SPDX-License-Identifier: Apache-2.0
  15:DSP/Source/ComplexMathFunctions/arm_cmplx_mult_real_q31.c ****  *
  16:DSP/Source/ComplexMathFunctions/arm_cmplx_mult_real_q31.c ****  * Licensed under the Apache License, Version 2.0 (the License); you may
  17:DSP/Source/ComplexMathFunctions/arm_cmplx_mult_real_q31.c ****  * not use this file except in compliance with the License.
  18:DSP/Source/ComplexMathFunctions/arm_cmplx_mult_real_q31.c ****  * You may obtain a copy of the License at
  19:DSP/Source/ComplexMathFunctions/arm_cmplx_mult_real_q31.c ****  *
  20:DSP/Source/ComplexMathFunctions/arm_cmplx_mult_real_q31.c ****  * www.apache.org/licenses/LICENSE-2.0
  21:DSP/Source/ComplexMathFunctions/arm_cmplx_mult_real_q31.c ****  *
  22:DSP/Source/ComplexMathFunctions/arm_cmplx_mult_real_q31.c ****  * Unless required by applicable law or agreed to in writing, software
  23:DSP/Source/ComplexMathFunctions/arm_cmplx_mult_real_q31.c ****  * distributed under the License is distributed on an AS IS BASIS, WITHOUT
  24:DSP/Source/ComplexMathFunctions/arm_cmplx_mult_real_q31.c ****  * WARRANTIES OR CONDITIONS OF ANY KIND, either express or implied.
  25:DSP/Source/ComplexMathFunctions/arm_cmplx_mult_real_q31.c ****  * See the License for the specific language governing permissions and
  26:DSP/Source/ComplexMathFunctions/arm_cmplx_mult_real_q31.c ****  * limitations under the License.
  27:DSP/Source/ComplexMathFunctions/arm_cmplx_mult_real_q31.c ****  */
  28:DSP/Source/ComplexMathFunctions/arm_cmplx_mult_real_q31.c **** 
  29:DSP/Source/ComplexMathFunctions/arm_cmplx_mult_real_q31.c **** #include "arm_math.h"
ARM GAS  /var/folders/ck/g3dcd5x55xs4107jgdl0snvr0000gn/T//ccKj6PSW.s 			page 2


  30:DSP/Source/ComplexMathFunctions/arm_cmplx_mult_real_q31.c **** 
  31:DSP/Source/ComplexMathFunctions/arm_cmplx_mult_real_q31.c **** /**
  32:DSP/Source/ComplexMathFunctions/arm_cmplx_mult_real_q31.c ****  * @ingroup groupCmplxMath
  33:DSP/Source/ComplexMathFunctions/arm_cmplx_mult_real_q31.c ****  */
  34:DSP/Source/ComplexMathFunctions/arm_cmplx_mult_real_q31.c **** 
  35:DSP/Source/ComplexMathFunctions/arm_cmplx_mult_real_q31.c **** /**
  36:DSP/Source/ComplexMathFunctions/arm_cmplx_mult_real_q31.c ****  * @addtogroup CmplxByRealMult
  37:DSP/Source/ComplexMathFunctions/arm_cmplx_mult_real_q31.c ****  * @{
  38:DSP/Source/ComplexMathFunctions/arm_cmplx_mult_real_q31.c ****  */
  39:DSP/Source/ComplexMathFunctions/arm_cmplx_mult_real_q31.c **** 
  40:DSP/Source/ComplexMathFunctions/arm_cmplx_mult_real_q31.c **** 
  41:DSP/Source/ComplexMathFunctions/arm_cmplx_mult_real_q31.c **** /**
  42:DSP/Source/ComplexMathFunctions/arm_cmplx_mult_real_q31.c ****  * @brief  Q31 complex-by-real multiplication
  43:DSP/Source/ComplexMathFunctions/arm_cmplx_mult_real_q31.c ****  * @param[in]  *pSrcCmplx points to the complex input vector
  44:DSP/Source/ComplexMathFunctions/arm_cmplx_mult_real_q31.c ****  * @param[in]  *pSrcReal points to the real input vector
  45:DSP/Source/ComplexMathFunctions/arm_cmplx_mult_real_q31.c ****  * @param[out]  *pCmplxDst points to the complex output vector
  46:DSP/Source/ComplexMathFunctions/arm_cmplx_mult_real_q31.c ****  * @param[in]  numSamples number of samples in each vector
  47:DSP/Source/ComplexMathFunctions/arm_cmplx_mult_real_q31.c ****  * @return none.
  48:DSP/Source/ComplexMathFunctions/arm_cmplx_mult_real_q31.c ****  *
  49:DSP/Source/ComplexMathFunctions/arm_cmplx_mult_real_q31.c ****  * <b>Scaling and Overflow Behavior:</b>
  50:DSP/Source/ComplexMathFunctions/arm_cmplx_mult_real_q31.c ****  * \par
  51:DSP/Source/ComplexMathFunctions/arm_cmplx_mult_real_q31.c ****  * The function uses saturating arithmetic.
  52:DSP/Source/ComplexMathFunctions/arm_cmplx_mult_real_q31.c ****  * Results outside of the allowable Q31 range[0x80000000 0x7FFFFFFF] will be saturated.
  53:DSP/Source/ComplexMathFunctions/arm_cmplx_mult_real_q31.c ****  */
  54:DSP/Source/ComplexMathFunctions/arm_cmplx_mult_real_q31.c **** 
  55:DSP/Source/ComplexMathFunctions/arm_cmplx_mult_real_q31.c **** void arm_cmplx_mult_real_q31(
  56:DSP/Source/ComplexMathFunctions/arm_cmplx_mult_real_q31.c ****   q31_t * pSrcCmplx,
  57:DSP/Source/ComplexMathFunctions/arm_cmplx_mult_real_q31.c ****   q31_t * pSrcReal,
  58:DSP/Source/ComplexMathFunctions/arm_cmplx_mult_real_q31.c ****   q31_t * pCmplxDst,
  59:DSP/Source/ComplexMathFunctions/arm_cmplx_mult_real_q31.c ****   uint32_t numSamples)
  60:DSP/Source/ComplexMathFunctions/arm_cmplx_mult_real_q31.c **** {
  30              		.loc 1 60 1 view -0
  31              		.cfi_startproc
  32              		@ args = 0, pretend = 0, frame = 0
  33              		@ frame_needed = 0, uses_anonymous_args = 0
  34              		.loc 1 60 1 is_stmt 0 view .LVU1
  35 0000 2DE9F04F 		push	{r4, r5, r6, r7, r8, r9, r10, fp, lr}
  36              	.LCFI0:
  37              		.cfi_def_cfa_offset 36
  38              		.cfi_offset 4, -36
  39              		.cfi_offset 5, -32
  40              		.cfi_offset 6, -28
  41              		.cfi_offset 7, -24
  42              		.cfi_offset 8, -20
  43              		.cfi_offset 9, -16
  44              		.cfi_offset 10, -12
  45              		.cfi_offset 11, -8
  46              		.cfi_offset 14, -4
  61:DSP/Source/ComplexMathFunctions/arm_cmplx_mult_real_q31.c ****   q31_t inA1;                                    /* Temporary variable to store input value */
  47              		.loc 1 61 3 is_stmt 1 view .LVU2
  62:DSP/Source/ComplexMathFunctions/arm_cmplx_mult_real_q31.c **** 
  63:DSP/Source/ComplexMathFunctions/arm_cmplx_mult_real_q31.c **** #if defined (ARM_MATH_DSP)
  64:DSP/Source/ComplexMathFunctions/arm_cmplx_mult_real_q31.c **** 
  65:DSP/Source/ComplexMathFunctions/arm_cmplx_mult_real_q31.c ****   /* Run the below code for Cortex-M4 and Cortex-M3 */
  66:DSP/Source/ComplexMathFunctions/arm_cmplx_mult_real_q31.c ****   uint32_t blkCnt;                               /* loop counters */
  48              		.loc 1 66 3 view .LVU3
  67:DSP/Source/ComplexMathFunctions/arm_cmplx_mult_real_q31.c ****   q31_t inA2, inA3, inA4;                        /* Temporary variables to hold input data */
ARM GAS  /var/folders/ck/g3dcd5x55xs4107jgdl0snvr0000gn/T//ccKj6PSW.s 			page 3


  49              		.loc 1 67 3 view .LVU4
  68:DSP/Source/ComplexMathFunctions/arm_cmplx_mult_real_q31.c ****   q31_t inB1, inB2;                              /* Temporary variabels to hold input data */
  50              		.loc 1 68 3 view .LVU5
  69:DSP/Source/ComplexMathFunctions/arm_cmplx_mult_real_q31.c ****   q31_t out1, out2, out3, out4;                  /* Temporary variables to hold output data */
  51              		.loc 1 69 3 view .LVU6
  70:DSP/Source/ComplexMathFunctions/arm_cmplx_mult_real_q31.c **** 
  71:DSP/Source/ComplexMathFunctions/arm_cmplx_mult_real_q31.c ****   /* loop Unrolling */
  72:DSP/Source/ComplexMathFunctions/arm_cmplx_mult_real_q31.c ****   blkCnt = numSamples >> 2U;
  52              		.loc 1 72 3 view .LVU7
  53              		.loc 1 72 10 is_stmt 0 view .LVU8
  54 0004 9D08     		lsrs	r5, r3, #2
  55              	.LVL1:
  73:DSP/Source/ComplexMathFunctions/arm_cmplx_mult_real_q31.c **** 
  74:DSP/Source/ComplexMathFunctions/arm_cmplx_mult_real_q31.c ****   /* First part of the processing with loop unrolling.  Compute 4 outputs at a time.
  75:DSP/Source/ComplexMathFunctions/arm_cmplx_mult_real_q31.c ****    ** a second loop below computes the remaining 1 to 3 samples. */
  76:DSP/Source/ComplexMathFunctions/arm_cmplx_mult_real_q31.c ****   while (blkCnt > 0U)
  56              		.loc 1 76 3 is_stmt 1 view .LVU9
  57              		.loc 1 76 9 is_stmt 0 view .LVU10
  58 0006 8CE0     		b	.L2
  59              	.L3:
  77:DSP/Source/ComplexMathFunctions/arm_cmplx_mult_real_q31.c ****   {
  78:DSP/Source/ComplexMathFunctions/arm_cmplx_mult_real_q31.c ****     /* C[2 * i] = A[2 * i] * B[i].            */
  79:DSP/Source/ComplexMathFunctions/arm_cmplx_mult_real_q31.c ****     /* C[2 * i + 1] = A[2 * i + 1] * B[i].        */
  80:DSP/Source/ComplexMathFunctions/arm_cmplx_mult_real_q31.c ****     /* read real input from complex input buffer */
  81:DSP/Source/ComplexMathFunctions/arm_cmplx_mult_real_q31.c ****     inA1 = *pSrcCmplx++;
  60              		.loc 1 81 5 is_stmt 1 view .LVU11
  61              	.LVL2:
  62              		.loc 1 81 10 is_stmt 0 view .LVU12
  63 0008 D0F800C0 		ldr	ip, [r0]
  64              	.LVL3:
  82:DSP/Source/ComplexMathFunctions/arm_cmplx_mult_real_q31.c ****     inA2 = *pSrcCmplx++;
  65              		.loc 1 82 5 is_stmt 1 view .LVU13
  66              		.loc 1 82 10 is_stmt 0 view .LVU14
  67 000c 4668     		ldr	r6, [r0, #4]
  68              	.LVL4:
  83:DSP/Source/ComplexMathFunctions/arm_cmplx_mult_real_q31.c ****     /* read input from real input bufer */
  84:DSP/Source/ComplexMathFunctions/arm_cmplx_mult_real_q31.c ****     inB1 = *pSrcReal++;
  69              		.loc 1 84 5 is_stmt 1 view .LVU15
  70              		.loc 1 84 10 is_stmt 0 view .LVU16
  71 000e 0C68     		ldr	r4, [r1]
  72              	.LVL5:
  85:DSP/Source/ComplexMathFunctions/arm_cmplx_mult_real_q31.c ****     inB2 = *pSrcReal++;
  73              		.loc 1 85 5 is_stmt 1 view .LVU17
  74              		.loc 1 85 10 is_stmt 0 view .LVU18
  75 0010 4F68     		ldr	r7, [r1, #4]
  76              	.LVL6:
  86:DSP/Source/ComplexMathFunctions/arm_cmplx_mult_real_q31.c ****     /* read imaginary input from complex input buffer */
  87:DSP/Source/ComplexMathFunctions/arm_cmplx_mult_real_q31.c ****     inA3 = *pSrcCmplx++;
  77              		.loc 1 87 5 is_stmt 1 view .LVU19
  78              		.loc 1 87 10 is_stmt 0 view .LVU20
  79 0012 D0F80890 		ldr	r9, [r0, #8]
  80              	.LVL7:
  88:DSP/Source/ComplexMathFunctions/arm_cmplx_mult_real_q31.c ****     inA4 = *pSrcCmplx++;
  81              		.loc 1 88 5 is_stmt 1 view .LVU21
  82              		.loc 1 88 10 is_stmt 0 view .LVU22
  83 0016 D0F80C80 		ldr	r8, [r0, #12]
  84              	.LVL8:
ARM GAS  /var/folders/ck/g3dcd5x55xs4107jgdl0snvr0000gn/T//ccKj6PSW.s 			page 4


  89:DSP/Source/ComplexMathFunctions/arm_cmplx_mult_real_q31.c **** 
  90:DSP/Source/ComplexMathFunctions/arm_cmplx_mult_real_q31.c ****     /* multiply complex input with real input */
  91:DSP/Source/ComplexMathFunctions/arm_cmplx_mult_real_q31.c ****     out1 = ((q63_t) inA1 * inB1) >> 32;
  85              		.loc 1 91 5 is_stmt 1 view .LVU23
  86              		.loc 1 91 13 is_stmt 0 view .LVU24
  87 001a 4FEAEC7B 		asr	fp, ip, #31
  88              		.loc 1 91 26 view .LVU25
  89 001e 4FEAE47A 		asr	r10, r4, #31
  90 0022 0CFB0AFE 		mul	lr, ip, r10
  91 0026 04FB0BEE 		mla	lr, r4, fp, lr
  92 002a ACFB04CB 		umull	ip, fp, ip, r4
  93              	.LVL9:
  94              		.loc 1 91 26 view .LVU26
  95 002e DE44     		add	lr, lr, fp
  96              	.LVL10:
  92:DSP/Source/ComplexMathFunctions/arm_cmplx_mult_real_q31.c ****     out2 = ((q63_t) inA2 * inB1) >> 32;
  97              		.loc 1 92 5 is_stmt 1 view .LVU27
  98              		.loc 1 92 13 is_stmt 0 view .LVU28
  99 0030 4FEAE67C 		asr	ip, r6, #31
 100              		.loc 1 92 26 view .LVU29
 101 0034 04FB0CFC 		mul	ip, r4, ip
 102 0038 06FB0ACC 		mla	ip, r6, r10, ip
 103 003c A4FB0646 		umull	r4, r6, r4, r6
 104              	.LVL11:
 105              		.loc 1 92 26 view .LVU30
 106 0040 B444     		add	ip, ip, r6
 107              	.LVL12:
  93:DSP/Source/ComplexMathFunctions/arm_cmplx_mult_real_q31.c ****     out3 = ((q63_t) inA3 * inB2) >> 32;
 108              		.loc 1 93 5 is_stmt 1 view .LVU31
 109              		.loc 1 93 13 is_stmt 0 view .LVU32
 110 0042 4FEAE974 		asr	r4, r9, #31
 111              		.loc 1 93 26 view .LVU33
 112 0046 4FEAE77A 		asr	r10, r7, #31
 113 004a 09FB0AF6 		mul	r6, r9, r10
 114 004e 07FB0466 		mla	r6, r7, r4, r6
 115 0052 A9FB0794 		umull	r9, r4, r9, r7
 116              	.LVL13:
 117              		.loc 1 93 26 view .LVU34
 118 0056 2644     		add	r6, r6, r4
 119              	.LVL14:
  94:DSP/Source/ComplexMathFunctions/arm_cmplx_mult_real_q31.c ****     out4 = ((q63_t) inA4 * inB2) >> 32;
 120              		.loc 1 94 5 is_stmt 1 view .LVU35
 121              		.loc 1 94 13 is_stmt 0 view .LVU36
 122 0058 4FEAE874 		asr	r4, r8, #31
 123              		.loc 1 94 26 view .LVU37
 124 005c 07FB04F4 		mul	r4, r7, r4
 125 0060 08FB0A44 		mla	r4, r8, r10, r4
 126 0064 A7FB0878 		umull	r7, r8, r7, r8
 127              	.LVL15:
 128              		.loc 1 94 26 view .LVU38
 129 0068 4444     		add	r4, r4, r8
 130              	.LVL16:
  95:DSP/Source/ComplexMathFunctions/arm_cmplx_mult_real_q31.c **** 
  96:DSP/Source/ComplexMathFunctions/arm_cmplx_mult_real_q31.c ****     /* sature the result */
  97:DSP/Source/ComplexMathFunctions/arm_cmplx_mult_real_q31.c ****     out1 = __SSAT(out1, 31);
 131              		.loc 1 97 5 is_stmt 1 view .LVU39
 132              	.LBB2:
ARM GAS  /var/folders/ck/g3dcd5x55xs4107jgdl0snvr0000gn/T//ccKj6PSW.s 			page 5


 133              		.loc 1 97 12 view .LVU40
 134              		.loc 1 97 12 view .LVU41
 135              		.syntax unified
 136              	@ 97 "DSP/Source/ComplexMathFunctions/arm_cmplx_mult_real_q31.c" 1
 137 006a 0EF31E0E 		ssat lr, #31, lr
 138              	@ 0 "" 2
 139              	.LVL17:
 140              		.loc 1 97 12 view .LVU42
 141              		.loc 1 97 12 is_stmt 0 view .LVU43
 142              		.thumb
 143              		.syntax unified
 144              	.LBE2:
  98:DSP/Source/ComplexMathFunctions/arm_cmplx_mult_real_q31.c ****     out2 = __SSAT(out2, 31);
 145              		.loc 1 98 5 is_stmt 1 view .LVU44
 146              	.LBB3:
 147              		.loc 1 98 12 view .LVU45
 148              		.loc 1 98 12 view .LVU46
 149              		.syntax unified
 150              	@ 98 "DSP/Source/ComplexMathFunctions/arm_cmplx_mult_real_q31.c" 1
 151 006e 0CF31E0C 		ssat ip, #31, ip
 152              	@ 0 "" 2
 153              	.LVL18:
 154              		.loc 1 98 12 view .LVU47
 155              		.loc 1 98 12 is_stmt 0 view .LVU48
 156              		.thumb
 157              		.syntax unified
 158              	.LBE3:
  99:DSP/Source/ComplexMathFunctions/arm_cmplx_mult_real_q31.c ****     out3 = __SSAT(out3, 31);
 159              		.loc 1 99 5 is_stmt 1 view .LVU49
 160              	.LBB4:
 161              		.loc 1 99 12 view .LVU50
 162              		.loc 1 99 12 view .LVU51
 163              		.syntax unified
 164              	@ 99 "DSP/Source/ComplexMathFunctions/arm_cmplx_mult_real_q31.c" 1
 165 0072 06F31E06 		ssat r6, #31, r6
 166              	@ 0 "" 2
 167              	.LVL19:
 168              		.loc 1 99 12 view .LVU52
 169              		.loc 1 99 12 is_stmt 0 view .LVU53
 170              		.thumb
 171              		.syntax unified
 172              	.LBE4:
 100:DSP/Source/ComplexMathFunctions/arm_cmplx_mult_real_q31.c ****     out4 = __SSAT(out4, 31);
 173              		.loc 1 100 5 is_stmt 1 view .LVU54
 174              	.LBB5:
 175              		.loc 1 100 12 view .LVU55
 176              		.loc 1 100 12 view .LVU56
 177              		.syntax unified
 178              	@ 100 "DSP/Source/ComplexMathFunctions/arm_cmplx_mult_real_q31.c" 1
 179 0076 04F31E04 		ssat r4, #31, r4
 180              	@ 0 "" 2
 181              	.LVL20:
 182              		.loc 1 100 12 view .LVU57
 183              		.loc 1 100 12 is_stmt 0 view .LVU58
 184              		.thumb
 185              		.syntax unified
 186              	.LBE5:
ARM GAS  /var/folders/ck/g3dcd5x55xs4107jgdl0snvr0000gn/T//ccKj6PSW.s 			page 6


 101:DSP/Source/ComplexMathFunctions/arm_cmplx_mult_real_q31.c **** 
 102:DSP/Source/ComplexMathFunctions/arm_cmplx_mult_real_q31.c ****     /* get result in 1.31 format */
 103:DSP/Source/ComplexMathFunctions/arm_cmplx_mult_real_q31.c ****     out1 = out1 << 1;
 187              		.loc 1 103 5 is_stmt 1 view .LVU59
 188              		.loc 1 103 10 is_stmt 0 view .LVU60
 189 007a 4FEA4E0E 		lsl	lr, lr, #1
 190              	.LVL21:
 104:DSP/Source/ComplexMathFunctions/arm_cmplx_mult_real_q31.c ****     out2 = out2 << 1;
 191              		.loc 1 104 5 is_stmt 1 view .LVU61
 192              		.loc 1 104 10 is_stmt 0 view .LVU62
 193 007e 4FEA4C07 		lsl	r7, ip, #1
 194              	.LVL22:
 105:DSP/Source/ComplexMathFunctions/arm_cmplx_mult_real_q31.c ****     out3 = out3 << 1;
 195              		.loc 1 105 5 is_stmt 1 view .LVU63
 196              		.loc 1 105 10 is_stmt 0 view .LVU64
 197 0082 7600     		lsls	r6, r6, #1
 198              	.LVL23:
 106:DSP/Source/ComplexMathFunctions/arm_cmplx_mult_real_q31.c ****     out4 = out4 << 1;
 199              		.loc 1 106 5 is_stmt 1 view .LVU65
 200              		.loc 1 106 10 is_stmt 0 view .LVU66
 201 0084 6400     		lsls	r4, r4, #1
 202              	.LVL24:
 107:DSP/Source/ComplexMathFunctions/arm_cmplx_mult_real_q31.c **** 
 108:DSP/Source/ComplexMathFunctions/arm_cmplx_mult_real_q31.c ****     /* store the result to destination buffer */
 109:DSP/Source/ComplexMathFunctions/arm_cmplx_mult_real_q31.c ****     *pCmplxDst++ = out1;
 203              		.loc 1 109 5 is_stmt 1 view .LVU67
 204              		.loc 1 109 18 is_stmt 0 view .LVU68
 205 0086 C2F800E0 		str	lr, [r2]
 206              	.LVL25:
 110:DSP/Source/ComplexMathFunctions/arm_cmplx_mult_real_q31.c ****     *pCmplxDst++ = out2;
 207              		.loc 1 110 5 is_stmt 1 view .LVU69
 208              		.loc 1 110 18 is_stmt 0 view .LVU70
 209 008a 5760     		str	r7, [r2, #4]
 111:DSP/Source/ComplexMathFunctions/arm_cmplx_mult_real_q31.c ****     *pCmplxDst++ = out3;
 210              		.loc 1 111 5 is_stmt 1 view .LVU71
 211              	.LVL26:
 212              		.loc 1 111 18 is_stmt 0 view .LVU72
 213 008c 9660     		str	r6, [r2, #8]
 112:DSP/Source/ComplexMathFunctions/arm_cmplx_mult_real_q31.c ****     *pCmplxDst++ = out4;
 214              		.loc 1 112 5 is_stmt 1 view .LVU73
 215              	.LVL27:
 216              		.loc 1 112 18 is_stmt 0 view .LVU74
 217 008e D460     		str	r4, [r2, #12]
 113:DSP/Source/ComplexMathFunctions/arm_cmplx_mult_real_q31.c **** 
 114:DSP/Source/ComplexMathFunctions/arm_cmplx_mult_real_q31.c ****     /* read real input from complex input buffer */
 115:DSP/Source/ComplexMathFunctions/arm_cmplx_mult_real_q31.c ****     inA1 = *pSrcCmplx++;
 218              		.loc 1 115 5 is_stmt 1 view .LVU75
 219              	.LVL28:
 220              		.loc 1 115 10 is_stmt 0 view .LVU76
 221 0090 0669     		ldr	r6, [r0, #16]
 222              	.LVL29:
 116:DSP/Source/ComplexMathFunctions/arm_cmplx_mult_real_q31.c ****     inA2 = *pSrcCmplx++;
 223              		.loc 1 116 5 is_stmt 1 view .LVU77
 224              		.loc 1 116 10 is_stmt 0 view .LVU78
 225 0092 D0F81490 		ldr	r9, [r0, #20]
 226              	.LVL30:
 117:DSP/Source/ComplexMathFunctions/arm_cmplx_mult_real_q31.c ****     /* read input from real input bufer */
ARM GAS  /var/folders/ck/g3dcd5x55xs4107jgdl0snvr0000gn/T//ccKj6PSW.s 			page 7


 118:DSP/Source/ComplexMathFunctions/arm_cmplx_mult_real_q31.c ****     inB1 = *pSrcReal++;
 227              		.loc 1 118 5 is_stmt 1 view .LVU79
 228              		.loc 1 118 10 is_stmt 0 view .LVU80
 229 0096 D1F808E0 		ldr	lr, [r1, #8]
 230              	.LVL31:
 119:DSP/Source/ComplexMathFunctions/arm_cmplx_mult_real_q31.c ****     inB2 = *pSrcReal++;
 231              		.loc 1 119 5 is_stmt 1 view .LVU81
 232              		.loc 1 119 21 is_stmt 0 view .LVU82
 233 009a 01F1100C 		add	ip, r1, #16
 234              	.LVL32:
 235              		.loc 1 119 10 view .LVU83
 236 009e CF68     		ldr	r7, [r1, #12]
 237              	.LVL33:
 120:DSP/Source/ComplexMathFunctions/arm_cmplx_mult_real_q31.c ****     /* read imaginary input from complex input buffer */
 121:DSP/Source/ComplexMathFunctions/arm_cmplx_mult_real_q31.c ****     inA3 = *pSrcCmplx++;
 238              		.loc 1 121 5 is_stmt 1 view .LVU84
 239              		.loc 1 121 10 is_stmt 0 view .LVU85
 240 00a0 8169     		ldr	r1, [r0, #24]
 241              	.LVL34:
 122:DSP/Source/ComplexMathFunctions/arm_cmplx_mult_real_q31.c ****     inA4 = *pSrcCmplx++;
 242              		.loc 1 122 5 is_stmt 1 view .LVU86
 243              		.loc 1 122 22 is_stmt 0 view .LVU87
 244 00a2 00F12004 		add	r4, r0, #32
 245              	.LVL35:
 246              		.loc 1 122 10 view .LVU88
 247 00a6 D0F81C80 		ldr	r8, [r0, #28]
 248              	.LVL36:
 123:DSP/Source/ComplexMathFunctions/arm_cmplx_mult_real_q31.c **** 
 124:DSP/Source/ComplexMathFunctions/arm_cmplx_mult_real_q31.c ****     /* multiply complex input with real input */
 125:DSP/Source/ComplexMathFunctions/arm_cmplx_mult_real_q31.c ****     out1 = ((q63_t) inA1 * inB1) >> 32;
 249              		.loc 1 125 5 is_stmt 1 view .LVU89
 250              		.loc 1 125 13 is_stmt 0 view .LVU90
 251 00aa F017     		asrs	r0, r6, #31
 252              		.loc 1 125 26 view .LVU91
 253 00ac 4FEAEE7A 		asr	r10, lr, #31
 254 00b0 06FB0AFB 		mul	fp, r6, r10
 255 00b4 0EFB00BB 		mla	fp, lr, r0, fp
 256 00b8 A6FB0E06 		umull	r0, r6, r6, lr
 257              	.LVL37:
 258              		.loc 1 125 26 view .LVU92
 259 00bc 5E44     		add	r6, r6, fp
 260              	.LVL38:
 126:DSP/Source/ComplexMathFunctions/arm_cmplx_mult_real_q31.c ****     out2 = ((q63_t) inA2 * inB1) >> 32;
 261              		.loc 1 126 5 is_stmt 1 view .LVU93
 262              		.loc 1 126 13 is_stmt 0 view .LVU94
 263 00be 4FEAE970 		asr	r0, r9, #31
 264              		.loc 1 126 26 view .LVU95
 265 00c2 0EFB00F0 		mul	r0, lr, r0
 266 00c6 09FB0A00 		mla	r0, r9, r10, r0
 267 00ca AEFB09E9 		umull	lr, r9, lr, r9
 268              	.LVL39:
 269              		.loc 1 126 26 view .LVU96
 270 00ce 4844     		add	r0, r0, r9
 271              	.LVL40:
 127:DSP/Source/ComplexMathFunctions/arm_cmplx_mult_real_q31.c ****     out3 = ((q63_t) inA3 * inB2) >> 32;
 272              		.loc 1 127 5 is_stmt 1 view .LVU97
 273              		.loc 1 127 13 is_stmt 0 view .LVU98
ARM GAS  /var/folders/ck/g3dcd5x55xs4107jgdl0snvr0000gn/T//ccKj6PSW.s 			page 8


 274 00d0 4FEAE17A 		asr	r10, r1, #31
 275              		.loc 1 127 26 view .LVU99
 276 00d4 4FEAE779 		asr	r9, r7, #31
 277 00d8 01FB09FE 		mul	lr, r1, r9
 278 00dc 07FB0AEE 		mla	lr, r7, r10, lr
 279 00e0 A1FB071A 		umull	r1, r10, r1, r7
 280              	.LVL41:
 281              		.loc 1 127 26 view .LVU100
 282 00e4 D644     		add	lr, lr, r10
 283              	.LVL42:
 128:DSP/Source/ComplexMathFunctions/arm_cmplx_mult_real_q31.c ****     out4 = ((q63_t) inA4 * inB2) >> 32;
 284              		.loc 1 128 5 is_stmt 1 view .LVU101
 285              		.loc 1 128 13 is_stmt 0 view .LVU102
 286 00e6 4FEAE871 		asr	r1, r8, #31
 287              		.loc 1 128 26 view .LVU103
 288 00ea 07FB01F1 		mul	r1, r7, r1
 289 00ee 08FB0911 		mla	r1, r8, r9, r1
 290 00f2 A7FB0878 		umull	r7, r8, r7, r8
 291              	.LVL43:
 292              		.loc 1 128 26 view .LVU104
 293 00f6 4144     		add	r1, r1, r8
 294              	.LVL44:
 129:DSP/Source/ComplexMathFunctions/arm_cmplx_mult_real_q31.c **** 
 130:DSP/Source/ComplexMathFunctions/arm_cmplx_mult_real_q31.c ****     /* sature the result */
 131:DSP/Source/ComplexMathFunctions/arm_cmplx_mult_real_q31.c ****     out1 = __SSAT(out1, 31);
 295              		.loc 1 131 5 is_stmt 1 view .LVU105
 296              	.LBB6:
 297              		.loc 1 131 12 view .LVU106
 298              		.loc 1 131 12 view .LVU107
 299              		.syntax unified
 300              	@ 131 "DSP/Source/ComplexMathFunctions/arm_cmplx_mult_real_q31.c" 1
 301 00f8 06F31E06 		ssat r6, #31, r6
 302              	@ 0 "" 2
 303              	.LVL45:
 304              		.loc 1 131 12 view .LVU108
 305              		.loc 1 131 12 is_stmt 0 view .LVU109
 306              		.thumb
 307              		.syntax unified
 308              	.LBE6:
 132:DSP/Source/ComplexMathFunctions/arm_cmplx_mult_real_q31.c ****     out2 = __SSAT(out2, 31);
 309              		.loc 1 132 5 is_stmt 1 view .LVU110
 310              	.LBB7:
 311              		.loc 1 132 12 view .LVU111
 312              		.loc 1 132 12 view .LVU112
 313              		.syntax unified
 314              	@ 132 "DSP/Source/ComplexMathFunctions/arm_cmplx_mult_real_q31.c" 1
 315 00fc 00F31E00 		ssat r0, #31, r0
 316              	@ 0 "" 2
 317              	.LVL46:
 318              		.loc 1 132 12 view .LVU113
 319              		.loc 1 132 12 is_stmt 0 view .LVU114
 320              		.thumb
 321              		.syntax unified
 322              	.LBE7:
 133:DSP/Source/ComplexMathFunctions/arm_cmplx_mult_real_q31.c ****     out3 = __SSAT(out3, 31);
 323              		.loc 1 133 5 is_stmt 1 view .LVU115
 324              	.LBB8:
ARM GAS  /var/folders/ck/g3dcd5x55xs4107jgdl0snvr0000gn/T//ccKj6PSW.s 			page 9


 325              		.loc 1 133 12 view .LVU116
 326              		.loc 1 133 12 view .LVU117
 327              		.syntax unified
 328              	@ 133 "DSP/Source/ComplexMathFunctions/arm_cmplx_mult_real_q31.c" 1
 329 0100 0EF31E0E 		ssat lr, #31, lr
 330              	@ 0 "" 2
 331              	.LVL47:
 332              		.loc 1 133 12 view .LVU118
 333              		.loc 1 133 12 is_stmt 0 view .LVU119
 334              		.thumb
 335              		.syntax unified
 336              	.LBE8:
 134:DSP/Source/ComplexMathFunctions/arm_cmplx_mult_real_q31.c ****     out4 = __SSAT(out4, 31);
 337              		.loc 1 134 5 is_stmt 1 view .LVU120
 338              	.LBB9:
 339              		.loc 1 134 12 view .LVU121
 340              		.loc 1 134 12 view .LVU122
 341              		.syntax unified
 342              	@ 134 "DSP/Source/ComplexMathFunctions/arm_cmplx_mult_real_q31.c" 1
 343 0104 01F31E01 		ssat r1, #31, r1
 344              	@ 0 "" 2
 345              	.LVL48:
 346              		.loc 1 134 12 view .LVU123
 347              		.loc 1 134 12 is_stmt 0 view .LVU124
 348              		.thumb
 349              		.syntax unified
 350              	.LBE9:
 135:DSP/Source/ComplexMathFunctions/arm_cmplx_mult_real_q31.c **** 
 136:DSP/Source/ComplexMathFunctions/arm_cmplx_mult_real_q31.c ****     /* get result in 1.31 format */
 137:DSP/Source/ComplexMathFunctions/arm_cmplx_mult_real_q31.c ****     out1 = out1 << 1;
 351              		.loc 1 137 5 is_stmt 1 view .LVU125
 352              		.loc 1 137 10 is_stmt 0 view .LVU126
 353 0108 7600     		lsls	r6, r6, #1
 354              	.LVL49:
 138:DSP/Source/ComplexMathFunctions/arm_cmplx_mult_real_q31.c ****     out2 = out2 << 1;
 355              		.loc 1 138 5 is_stmt 1 view .LVU127
 356              		.loc 1 138 10 is_stmt 0 view .LVU128
 357 010a 4000     		lsls	r0, r0, #1
 358              	.LVL50:
 139:DSP/Source/ComplexMathFunctions/arm_cmplx_mult_real_q31.c ****     out3 = out3 << 1;
 359              		.loc 1 139 5 is_stmt 1 view .LVU129
 360              		.loc 1 139 10 is_stmt 0 view .LVU130
 361 010c 4FEA4E07 		lsl	r7, lr, #1
 362              	.LVL51:
 140:DSP/Source/ComplexMathFunctions/arm_cmplx_mult_real_q31.c ****     out4 = out4 << 1;
 363              		.loc 1 140 5 is_stmt 1 view .LVU131
 364              		.loc 1 140 10 is_stmt 0 view .LVU132
 365 0110 4900     		lsls	r1, r1, #1
 366              	.LVL52:
 141:DSP/Source/ComplexMathFunctions/arm_cmplx_mult_real_q31.c **** 
 142:DSP/Source/ComplexMathFunctions/arm_cmplx_mult_real_q31.c ****     /* store the result to destination buffer */
 143:DSP/Source/ComplexMathFunctions/arm_cmplx_mult_real_q31.c ****     *pCmplxDst++ = out1;
 367              		.loc 1 143 5 is_stmt 1 view .LVU133
 368              		.loc 1 143 18 is_stmt 0 view .LVU134
 369 0112 1661     		str	r6, [r2, #16]
 370              	.LVL53:
 144:DSP/Source/ComplexMathFunctions/arm_cmplx_mult_real_q31.c ****     *pCmplxDst++ = out2;
ARM GAS  /var/folders/ck/g3dcd5x55xs4107jgdl0snvr0000gn/T//ccKj6PSW.s 			page 10


 371              		.loc 1 144 5 is_stmt 1 view .LVU135
 372              		.loc 1 144 18 is_stmt 0 view .LVU136
 373 0114 5061     		str	r0, [r2, #20]
 145:DSP/Source/ComplexMathFunctions/arm_cmplx_mult_real_q31.c ****     *pCmplxDst++ = out3;
 374              		.loc 1 145 5 is_stmt 1 view .LVU137
 375              	.LVL54:
 376              		.loc 1 145 18 is_stmt 0 view .LVU138
 377 0116 9761     		str	r7, [r2, #24]
 146:DSP/Source/ComplexMathFunctions/arm_cmplx_mult_real_q31.c ****     *pCmplxDst++ = out4;
 378              		.loc 1 146 5 is_stmt 1 view .LVU139
 379              	.LVL55:
 380              		.loc 1 146 18 is_stmt 0 view .LVU140
 381 0118 D161     		str	r1, [r2, #28]
 147:DSP/Source/ComplexMathFunctions/arm_cmplx_mult_real_q31.c **** 
 148:DSP/Source/ComplexMathFunctions/arm_cmplx_mult_real_q31.c ****     /* Decrement the numSamples loop counter */
 149:DSP/Source/ComplexMathFunctions/arm_cmplx_mult_real_q31.c ****     blkCnt--;
 382              		.loc 1 149 5 is_stmt 1 view .LVU141
 383              		.loc 1 149 11 is_stmt 0 view .LVU142
 384 011a 013D     		subs	r5, r5, #1
 385              	.LVL56:
 146:DSP/Source/ComplexMathFunctions/arm_cmplx_mult_real_q31.c ****     *pCmplxDst++ = out4;
 386              		.loc 1 146 15 view .LVU143
 387 011c 2032     		adds	r2, r2, #32
 388              	.LVL57:
 119:DSP/Source/ComplexMathFunctions/arm_cmplx_mult_real_q31.c ****     /* read imaginary input from complex input buffer */
 389              		.loc 1 119 21 view .LVU144
 390 011e 6146     		mov	r1, ip
 391              	.LVL58:
 122:DSP/Source/ComplexMathFunctions/arm_cmplx_mult_real_q31.c **** 
 392              		.loc 1 122 22 view .LVU145
 393 0120 2046     		mov	r0, r4
 394              	.LVL59:
 395              	.L2:
  76:DSP/Source/ComplexMathFunctions/arm_cmplx_mult_real_q31.c ****   {
 396              		.loc 1 76 17 is_stmt 1 view .LVU146
 397 0122 002D     		cmp	r5, #0
 398 0124 7FF470AF 		bne	.L3
 150:DSP/Source/ComplexMathFunctions/arm_cmplx_mult_real_q31.c ****   }
 151:DSP/Source/ComplexMathFunctions/arm_cmplx_mult_real_q31.c **** 
 152:DSP/Source/ComplexMathFunctions/arm_cmplx_mult_real_q31.c ****   /* If the numSamples is not a multiple of 4, compute any remaining output samples here.
 153:DSP/Source/ComplexMathFunctions/arm_cmplx_mult_real_q31.c ****    ** No loop unrolling is used. */
 154:DSP/Source/ComplexMathFunctions/arm_cmplx_mult_real_q31.c ****   blkCnt = numSamples % 0x4U;
 399              		.loc 1 154 3 view .LVU147
 400              		.loc 1 154 10 is_stmt 0 view .LVU148
 401 0128 03F00303 		and	r3, r3, #3
 402              	.LVL60:
 155:DSP/Source/ComplexMathFunctions/arm_cmplx_mult_real_q31.c **** 
 156:DSP/Source/ComplexMathFunctions/arm_cmplx_mult_real_q31.c ****   while (blkCnt > 0U)
 403              		.loc 1 156 3 is_stmt 1 view .LVU149
 404              		.loc 1 156 9 is_stmt 0 view .LVU150
 405 012c 25E0     		b	.L4
 406              	.L5:
 157:DSP/Source/ComplexMathFunctions/arm_cmplx_mult_real_q31.c ****   {
 158:DSP/Source/ComplexMathFunctions/arm_cmplx_mult_real_q31.c ****     /* C[2 * i] = A[2 * i] * B[i].            */
 159:DSP/Source/ComplexMathFunctions/arm_cmplx_mult_real_q31.c ****     /* C[2 * i + 1] = A[2 * i + 1] * B[i].        */
 160:DSP/Source/ComplexMathFunctions/arm_cmplx_mult_real_q31.c ****     /* read real input from complex input buffer */
 161:DSP/Source/ComplexMathFunctions/arm_cmplx_mult_real_q31.c ****     inA1 = *pSrcCmplx++;
ARM GAS  /var/folders/ck/g3dcd5x55xs4107jgdl0snvr0000gn/T//ccKj6PSW.s 			page 11


 407              		.loc 1 161 5 is_stmt 1 view .LVU151
 408              	.LVL61:
 409              		.loc 1 161 10 is_stmt 0 view .LVU152
 410 012e 0546     		mov	r5, r0
 411 0130 55F808CB 		ldr	ip, [r5], #8
 412              	.LVL62:
 162:DSP/Source/ComplexMathFunctions/arm_cmplx_mult_real_q31.c ****     inA2 = *pSrcCmplx++;
 413              		.loc 1 162 5 is_stmt 1 view .LVU153
 414              		.loc 1 162 10 is_stmt 0 view .LVU154
 415 0134 4768     		ldr	r7, [r0, #4]
 416              	.LVL63:
 163:DSP/Source/ComplexMathFunctions/arm_cmplx_mult_real_q31.c ****     /* read input from real input bufer */
 164:DSP/Source/ComplexMathFunctions/arm_cmplx_mult_real_q31.c ****     inB1 = *pSrcReal++;
 417              		.loc 1 164 5 is_stmt 1 view .LVU155
 418              		.loc 1 164 10 is_stmt 0 view .LVU156
 419 0136 51F8046B 		ldr	r6, [r1], #4
 420              	.LVL64:
 165:DSP/Source/ComplexMathFunctions/arm_cmplx_mult_real_q31.c **** 
 166:DSP/Source/ComplexMathFunctions/arm_cmplx_mult_real_q31.c ****     /* multiply complex input with real input */
 167:DSP/Source/ComplexMathFunctions/arm_cmplx_mult_real_q31.c ****     out1 = ((q63_t) inA1 * inB1) >> 32;
 421              		.loc 1 167 5 is_stmt 1 view .LVU157
 422              		.loc 1 167 13 is_stmt 0 view .LVU158
 423 013a 4FEAEC70 		asr	r0, ip, #31
 424              		.loc 1 167 26 view .LVU159
 425 013e 4FEAE67E 		asr	lr, r6, #31
 426 0142 0CFB0EF4 		mul	r4, ip, lr
 427 0146 06FB0044 		mla	r4, r6, r0, r4
 428 014a ACFB06C0 		umull	ip, r0, ip, r6
 429              	.LVL65:
 430              		.loc 1 167 26 view .LVU160
 431 014e 0444     		add	r4, r4, r0
 432              	.LVL66:
 168:DSP/Source/ComplexMathFunctions/arm_cmplx_mult_real_q31.c ****     out2 = ((q63_t) inA2 * inB1) >> 32;
 433              		.loc 1 168 5 is_stmt 1 view .LVU161
 434              		.loc 1 168 13 is_stmt 0 view .LVU162
 435 0150 F817     		asrs	r0, r7, #31
 436              		.loc 1 168 26 view .LVU163
 437 0152 06FB00F0 		mul	r0, r6, r0
 438 0156 07FB0E00 		mla	r0, r7, lr, r0
 439 015a A6FB0767 		umull	r6, r7, r6, r7
 440              	.LVL67:
 441              		.loc 1 168 26 view .LVU164
 442 015e 3844     		add	r0, r0, r7
 443              	.LVL68:
 169:DSP/Source/ComplexMathFunctions/arm_cmplx_mult_real_q31.c **** 
 170:DSP/Source/ComplexMathFunctions/arm_cmplx_mult_real_q31.c ****     /* sature the result */
 171:DSP/Source/ComplexMathFunctions/arm_cmplx_mult_real_q31.c ****     out1 = __SSAT(out1, 31);
 444              		.loc 1 171 5 is_stmt 1 view .LVU165
 445              	.LBB10:
 446              		.loc 1 171 12 view .LVU166
 447              		.loc 1 171 12 view .LVU167
 448              		.syntax unified
 449              	@ 171 "DSP/Source/ComplexMathFunctions/arm_cmplx_mult_real_q31.c" 1
 450 0160 04F31E04 		ssat r4, #31, r4
 451              	@ 0 "" 2
 452              	.LVL69:
 453              		.loc 1 171 12 view .LVU168
ARM GAS  /var/folders/ck/g3dcd5x55xs4107jgdl0snvr0000gn/T//ccKj6PSW.s 			page 12


 454              		.loc 1 171 12 is_stmt 0 view .LVU169
 455              		.thumb
 456              		.syntax unified
 457              	.LBE10:
 172:DSP/Source/ComplexMathFunctions/arm_cmplx_mult_real_q31.c ****     out2 = __SSAT(out2, 31);
 458              		.loc 1 172 5 is_stmt 1 view .LVU170
 459              	.LBB11:
 460              		.loc 1 172 12 view .LVU171
 461              		.loc 1 172 12 view .LVU172
 462              		.syntax unified
 463              	@ 172 "DSP/Source/ComplexMathFunctions/arm_cmplx_mult_real_q31.c" 1
 464 0164 00F31E00 		ssat r0, #31, r0
 465              	@ 0 "" 2
 466              	.LVL70:
 467              		.loc 1 172 12 view .LVU173
 468              		.loc 1 172 12 is_stmt 0 view .LVU174
 469              		.thumb
 470              		.syntax unified
 471              	.LBE11:
 173:DSP/Source/ComplexMathFunctions/arm_cmplx_mult_real_q31.c **** 
 174:DSP/Source/ComplexMathFunctions/arm_cmplx_mult_real_q31.c ****     /* get result in 1.31 format */
 175:DSP/Source/ComplexMathFunctions/arm_cmplx_mult_real_q31.c ****     out1 = out1 << 1;
 472              		.loc 1 175 5 is_stmt 1 view .LVU175
 473              		.loc 1 175 10 is_stmt 0 view .LVU176
 474 0168 6400     		lsls	r4, r4, #1
 475              	.LVL71:
 176:DSP/Source/ComplexMathFunctions/arm_cmplx_mult_real_q31.c ****     out2 = out2 << 1;
 476              		.loc 1 176 5 is_stmt 1 view .LVU177
 477              		.loc 1 176 10 is_stmt 0 view .LVU178
 478 016a 4000     		lsls	r0, r0, #1
 479              	.LVL72:
 177:DSP/Source/ComplexMathFunctions/arm_cmplx_mult_real_q31.c **** 
 178:DSP/Source/ComplexMathFunctions/arm_cmplx_mult_real_q31.c ****     /* store the result to destination buffer */
 179:DSP/Source/ComplexMathFunctions/arm_cmplx_mult_real_q31.c ****     *pCmplxDst++ = out1;
 480              		.loc 1 179 5 is_stmt 1 view .LVU179
 481              		.loc 1 179 18 is_stmt 0 view .LVU180
 482 016c 1646     		mov	r6, r2
 483 016e 46F8084B 		str	r4, [r6], #8
 484              	.LVL73:
 180:DSP/Source/ComplexMathFunctions/arm_cmplx_mult_real_q31.c ****     *pCmplxDst++ = out2;
 485              		.loc 1 180 5 is_stmt 1 view .LVU181
 486              		.loc 1 180 18 is_stmt 0 view .LVU182
 487 0172 5060     		str	r0, [r2, #4]
 181:DSP/Source/ComplexMathFunctions/arm_cmplx_mult_real_q31.c **** 
 182:DSP/Source/ComplexMathFunctions/arm_cmplx_mult_real_q31.c ****     /* Decrement the numSamples loop counter */
 183:DSP/Source/ComplexMathFunctions/arm_cmplx_mult_real_q31.c ****     blkCnt--;
 488              		.loc 1 183 5 is_stmt 1 view .LVU183
 489              		.loc 1 183 11 is_stmt 0 view .LVU184
 490 0174 013B     		subs	r3, r3, #1
 491              	.LVL74:
 180:DSP/Source/ComplexMathFunctions/arm_cmplx_mult_real_q31.c ****     *pCmplxDst++ = out2;
 492              		.loc 1 180 15 view .LVU185
 493 0176 3246     		mov	r2, r6
 162:DSP/Source/ComplexMathFunctions/arm_cmplx_mult_real_q31.c ****     /* read input from real input bufer */
 494              		.loc 1 162 22 view .LVU186
 495 0178 2846     		mov	r0, r5
 496              	.LVL75:
ARM GAS  /var/folders/ck/g3dcd5x55xs4107jgdl0snvr0000gn/T//ccKj6PSW.s 			page 13


 497              	.L4:
 156:DSP/Source/ComplexMathFunctions/arm_cmplx_mult_real_q31.c ****   {
 498              		.loc 1 156 17 is_stmt 1 view .LVU187
 499 017a 002B     		cmp	r3, #0
 500 017c D7D1     		bne	.L5
 184:DSP/Source/ComplexMathFunctions/arm_cmplx_mult_real_q31.c ****   }
 185:DSP/Source/ComplexMathFunctions/arm_cmplx_mult_real_q31.c **** 
 186:DSP/Source/ComplexMathFunctions/arm_cmplx_mult_real_q31.c **** #else
 187:DSP/Source/ComplexMathFunctions/arm_cmplx_mult_real_q31.c **** 
 188:DSP/Source/ComplexMathFunctions/arm_cmplx_mult_real_q31.c ****   /* Run the below code for Cortex-M0 */
 189:DSP/Source/ComplexMathFunctions/arm_cmplx_mult_real_q31.c **** 
 190:DSP/Source/ComplexMathFunctions/arm_cmplx_mult_real_q31.c ****   while (numSamples > 0U)
 191:DSP/Source/ComplexMathFunctions/arm_cmplx_mult_real_q31.c ****   {
 192:DSP/Source/ComplexMathFunctions/arm_cmplx_mult_real_q31.c ****     /* realOut = realA * realB.            */
 193:DSP/Source/ComplexMathFunctions/arm_cmplx_mult_real_q31.c ****     /* imagReal = imagA * realB.               */
 194:DSP/Source/ComplexMathFunctions/arm_cmplx_mult_real_q31.c ****     inA1 = *pSrcReal++;
 195:DSP/Source/ComplexMathFunctions/arm_cmplx_mult_real_q31.c ****     /* store the result in the destination buffer. */
 196:DSP/Source/ComplexMathFunctions/arm_cmplx_mult_real_q31.c ****     *pCmplxDst++ =
 197:DSP/Source/ComplexMathFunctions/arm_cmplx_mult_real_q31.c ****       (q31_t) clip_q63_to_q31(((q63_t) * pSrcCmplx++ * inA1) >> 31);
 198:DSP/Source/ComplexMathFunctions/arm_cmplx_mult_real_q31.c ****     *pCmplxDst++ =
 199:DSP/Source/ComplexMathFunctions/arm_cmplx_mult_real_q31.c ****       (q31_t) clip_q63_to_q31(((q63_t) * pSrcCmplx++ * inA1) >> 31);
 200:DSP/Source/ComplexMathFunctions/arm_cmplx_mult_real_q31.c **** 
 201:DSP/Source/ComplexMathFunctions/arm_cmplx_mult_real_q31.c ****     /* Decrement the numSamples loop counter */
 202:DSP/Source/ComplexMathFunctions/arm_cmplx_mult_real_q31.c ****     numSamples--;
 203:DSP/Source/ComplexMathFunctions/arm_cmplx_mult_real_q31.c ****   }
 204:DSP/Source/ComplexMathFunctions/arm_cmplx_mult_real_q31.c **** 
 205:DSP/Source/ComplexMathFunctions/arm_cmplx_mult_real_q31.c **** #endif /* #if defined (ARM_MATH_DSP) */
 206:DSP/Source/ComplexMathFunctions/arm_cmplx_mult_real_q31.c **** 
 207:DSP/Source/ComplexMathFunctions/arm_cmplx_mult_real_q31.c **** }
 501              		.loc 1 207 1 is_stmt 0 view .LVU188
 502 017e BDE8F08F 		pop	{r4, r5, r6, r7, r8, r9, r10, fp, pc}
 503              		.cfi_endproc
 504              	.LFE139:
 506              		.text
 507              	.Letext0:
 508              		.file 2 "/Users/luban/.local/xPacks/arm-none-eabi-gcc/xpack-arm-none-eabi-gcc-13.2.1-1.1/arm-none-
 509              		.file 3 "/Users/luban/.local/xPacks/arm-none-eabi-gcc/xpack-arm-none-eabi-gcc-13.2.1-1.1/arm-none-
 510              		.file 4 "DSP/Inc/arm_math.h"
ARM GAS  /var/folders/ck/g3dcd5x55xs4107jgdl0snvr0000gn/T//ccKj6PSW.s 			page 14

