ARM GAS  /var/folders/ck/g3dcd5x55xs4107jgdl0snvr0000gn/T//ccf8UflK.s 			page 1


   1              		.cpu cortex-m4
   2              		.arch armv7e-m
   3              		.fpu fpv4-sp-d16
   4              		.eabi_attribute 27, 1
   5              		.eabi_attribute 28, 1
   6              		.eabi_attribute 20, 1
   7              		.eabi_attribute 21, 1
   8              		.eabi_attribute 23, 3
   9              		.eabi_attribute 24, 1
  10              		.eabi_attribute 25, 1
  11              		.eabi_attribute 26, 1
  12              		.eabi_attribute 30, 1
  13              		.eabi_attribute 34, 1
  14              		.eabi_attribute 18, 4
  15              		.file	"arm_fir_decimate_f32.c"
  16              		.text
  17              	.Ltext0:
  18              		.cfi_sections	.debug_frame
  19              		.file 1 "DSP/Source/FilteringFunctions/arm_fir_decimate_f32.c"
  20              		.section	.text.arm_fir_decimate_f32,"ax",%progbits
  21              		.align	1
  22              		.global	arm_fir_decimate_f32
  23              		.syntax unified
  24              		.thumb
  25              		.thumb_func
  27              	arm_fir_decimate_f32:
  28              	.LVL0:
  29              	.LFB139:
   1:DSP/Source/FilteringFunctions/arm_fir_decimate_f32.c **** /* ----------------------------------------------------------------------
   2:DSP/Source/FilteringFunctions/arm_fir_decimate_f32.c ****  * Project:      CMSIS DSP Library
   3:DSP/Source/FilteringFunctions/arm_fir_decimate_f32.c ****  * Title:        arm_fir_decimate_f32.c
   4:DSP/Source/FilteringFunctions/arm_fir_decimate_f32.c ****  * Description:  FIR decimation for floating-point sequences
   5:DSP/Source/FilteringFunctions/arm_fir_decimate_f32.c ****  *
   6:DSP/Source/FilteringFunctions/arm_fir_decimate_f32.c ****  * $Date:        27. January 2017
   7:DSP/Source/FilteringFunctions/arm_fir_decimate_f32.c ****  * $Revision:    V.1.5.1
   8:DSP/Source/FilteringFunctions/arm_fir_decimate_f32.c ****  *
   9:DSP/Source/FilteringFunctions/arm_fir_decimate_f32.c ****  * Target Processor: Cortex-M cores
  10:DSP/Source/FilteringFunctions/arm_fir_decimate_f32.c ****  * -------------------------------------------------------------------- */
  11:DSP/Source/FilteringFunctions/arm_fir_decimate_f32.c **** /*
  12:DSP/Source/FilteringFunctions/arm_fir_decimate_f32.c ****  * Copyright (C) 2010-2017 ARM Limited or its affiliates. All rights reserved.
  13:DSP/Source/FilteringFunctions/arm_fir_decimate_f32.c ****  *
  14:DSP/Source/FilteringFunctions/arm_fir_decimate_f32.c ****  * SPDX-License-Identifier: Apache-2.0
  15:DSP/Source/FilteringFunctions/arm_fir_decimate_f32.c ****  *
  16:DSP/Source/FilteringFunctions/arm_fir_decimate_f32.c ****  * Licensed under the Apache License, Version 2.0 (the License); you may
  17:DSP/Source/FilteringFunctions/arm_fir_decimate_f32.c ****  * not use this file except in compliance with the License.
  18:DSP/Source/FilteringFunctions/arm_fir_decimate_f32.c ****  * You may obtain a copy of the License at
  19:DSP/Source/FilteringFunctions/arm_fir_decimate_f32.c ****  *
  20:DSP/Source/FilteringFunctions/arm_fir_decimate_f32.c ****  * www.apache.org/licenses/LICENSE-2.0
  21:DSP/Source/FilteringFunctions/arm_fir_decimate_f32.c ****  *
  22:DSP/Source/FilteringFunctions/arm_fir_decimate_f32.c ****  * Unless required by applicable law or agreed to in writing, software
  23:DSP/Source/FilteringFunctions/arm_fir_decimate_f32.c ****  * distributed under the License is distributed on an AS IS BASIS, WITHOUT
  24:DSP/Source/FilteringFunctions/arm_fir_decimate_f32.c ****  * WARRANTIES OR CONDITIONS OF ANY KIND, either express or implied.
  25:DSP/Source/FilteringFunctions/arm_fir_decimate_f32.c ****  * See the License for the specific language governing permissions and
  26:DSP/Source/FilteringFunctions/arm_fir_decimate_f32.c ****  * limitations under the License.
  27:DSP/Source/FilteringFunctions/arm_fir_decimate_f32.c ****  */
  28:DSP/Source/FilteringFunctions/arm_fir_decimate_f32.c **** 
  29:DSP/Source/FilteringFunctions/arm_fir_decimate_f32.c **** #include "arm_math.h"
ARM GAS  /var/folders/ck/g3dcd5x55xs4107jgdl0snvr0000gn/T//ccf8UflK.s 			page 2


  30:DSP/Source/FilteringFunctions/arm_fir_decimate_f32.c **** 
  31:DSP/Source/FilteringFunctions/arm_fir_decimate_f32.c **** /**
  32:DSP/Source/FilteringFunctions/arm_fir_decimate_f32.c ****  * @ingroup groupFilters
  33:DSP/Source/FilteringFunctions/arm_fir_decimate_f32.c ****  */
  34:DSP/Source/FilteringFunctions/arm_fir_decimate_f32.c **** 
  35:DSP/Source/FilteringFunctions/arm_fir_decimate_f32.c **** /**
  36:DSP/Source/FilteringFunctions/arm_fir_decimate_f32.c ****  * @defgroup FIR_decimate Finite Impulse Response (FIR) Decimator
  37:DSP/Source/FilteringFunctions/arm_fir_decimate_f32.c ****  *
  38:DSP/Source/FilteringFunctions/arm_fir_decimate_f32.c ****  * These functions combine an FIR filter together with a decimator.
  39:DSP/Source/FilteringFunctions/arm_fir_decimate_f32.c ****  * They are used in multirate systems for reducing the sample rate of a signal without introducing 
  40:DSP/Source/FilteringFunctions/arm_fir_decimate_f32.c ****  * Conceptually, the functions are equivalent to the block diagram below:
  41:DSP/Source/FilteringFunctions/arm_fir_decimate_f32.c ****  * \image html FIRDecimator.gif "Components included in the FIR Decimator functions"
  42:DSP/Source/FilteringFunctions/arm_fir_decimate_f32.c ****  * When decimating by a factor of <code>M</code>, the signal should be prefiltered by a lowpass fil
  43:DSP/Source/FilteringFunctions/arm_fir_decimate_f32.c ****  * cutoff frequency of <code>1/M</code> in order to prevent aliasing distortion.
  44:DSP/Source/FilteringFunctions/arm_fir_decimate_f32.c ****  * The user of the function is responsible for providing the filter coefficients.
  45:DSP/Source/FilteringFunctions/arm_fir_decimate_f32.c ****  *
  46:DSP/Source/FilteringFunctions/arm_fir_decimate_f32.c ****  * The FIR decimator functions provided in the CMSIS DSP Library combine the FIR filter and the dec
  47:DSP/Source/FilteringFunctions/arm_fir_decimate_f32.c ****  * Instead of calculating all of the FIR filter outputs and discarding <code>M-1</code> out of ever
  48:DSP/Source/FilteringFunctions/arm_fir_decimate_f32.c ****  * samples output by the decimator are computed.
  49:DSP/Source/FilteringFunctions/arm_fir_decimate_f32.c ****  * The functions operate on blocks of input and output data.
  50:DSP/Source/FilteringFunctions/arm_fir_decimate_f32.c ****  * <code>pSrc</code> points to an array of <code>blockSize</code> input values and
  51:DSP/Source/FilteringFunctions/arm_fir_decimate_f32.c ****  * <code>pDst</code> points to an array of <code>blockSize/M</code> output values.
  52:DSP/Source/FilteringFunctions/arm_fir_decimate_f32.c ****  * In order to have an integer number of output samples <code>blockSize</code>
  53:DSP/Source/FilteringFunctions/arm_fir_decimate_f32.c ****  * must always be a multiple of the decimation factor <code>M</code>.
  54:DSP/Source/FilteringFunctions/arm_fir_decimate_f32.c ****  *
  55:DSP/Source/FilteringFunctions/arm_fir_decimate_f32.c ****  * The library provides separate functions for Q15, Q31 and floating-point data types.
  56:DSP/Source/FilteringFunctions/arm_fir_decimate_f32.c ****  *
  57:DSP/Source/FilteringFunctions/arm_fir_decimate_f32.c ****  * \par Algorithm:
  58:DSP/Source/FilteringFunctions/arm_fir_decimate_f32.c ****  * The FIR portion of the algorithm uses the standard form filter:
  59:DSP/Source/FilteringFunctions/arm_fir_decimate_f32.c ****  * <pre>
  60:DSP/Source/FilteringFunctions/arm_fir_decimate_f32.c ****  *    y[n] = b[0] * x[n] + b[1] * x[n-1] + b[2] * x[n-2] + ...+ b[numTaps-1] * x[n-numTaps+1]
  61:DSP/Source/FilteringFunctions/arm_fir_decimate_f32.c ****  * </pre>
  62:DSP/Source/FilteringFunctions/arm_fir_decimate_f32.c ****  * where, <code>b[n]</code> are the filter coefficients.
  63:DSP/Source/FilteringFunctions/arm_fir_decimate_f32.c ****  * \par
  64:DSP/Source/FilteringFunctions/arm_fir_decimate_f32.c ****  * The <code>pCoeffs</code> points to a coefficient array of size <code>numTaps</code>.
  65:DSP/Source/FilteringFunctions/arm_fir_decimate_f32.c ****  * Coefficients are stored in time reversed order.
  66:DSP/Source/FilteringFunctions/arm_fir_decimate_f32.c ****  * \par
  67:DSP/Source/FilteringFunctions/arm_fir_decimate_f32.c ****  * <pre>
  68:DSP/Source/FilteringFunctions/arm_fir_decimate_f32.c ****  *    {b[numTaps-1], b[numTaps-2], b[N-2], ..., b[1], b[0]}
  69:DSP/Source/FilteringFunctions/arm_fir_decimate_f32.c ****  * </pre>
  70:DSP/Source/FilteringFunctions/arm_fir_decimate_f32.c ****  * \par
  71:DSP/Source/FilteringFunctions/arm_fir_decimate_f32.c ****  * <code>pState</code> points to a state array of size <code>numTaps + blockSize - 1</code>.
  72:DSP/Source/FilteringFunctions/arm_fir_decimate_f32.c ****  * Samples in the state buffer are stored in the order:
  73:DSP/Source/FilteringFunctions/arm_fir_decimate_f32.c ****  * \par
  74:DSP/Source/FilteringFunctions/arm_fir_decimate_f32.c ****  * <pre>
  75:DSP/Source/FilteringFunctions/arm_fir_decimate_f32.c ****  *    {x[n-numTaps+1], x[n-numTaps], x[n-numTaps-1], x[n-numTaps-2]....x[0], x[1], ..., x[blockSize
  76:DSP/Source/FilteringFunctions/arm_fir_decimate_f32.c ****  * </pre>
  77:DSP/Source/FilteringFunctions/arm_fir_decimate_f32.c ****  * The state variables are updated after each block of data is processed, the coefficients are unto
  78:DSP/Source/FilteringFunctions/arm_fir_decimate_f32.c ****  *
  79:DSP/Source/FilteringFunctions/arm_fir_decimate_f32.c ****  * \par Instance Structure
  80:DSP/Source/FilteringFunctions/arm_fir_decimate_f32.c ****  * The coefficients and state variables for a filter are stored together in an instance data struct
  81:DSP/Source/FilteringFunctions/arm_fir_decimate_f32.c ****  * A separate instance structure must be defined for each filter.
  82:DSP/Source/FilteringFunctions/arm_fir_decimate_f32.c ****  * Coefficient arrays may be shared among several instances while state variable array should be al
  83:DSP/Source/FilteringFunctions/arm_fir_decimate_f32.c ****  * There are separate instance structure declarations for each of the 3 supported data types.
  84:DSP/Source/FilteringFunctions/arm_fir_decimate_f32.c ****  *
  85:DSP/Source/FilteringFunctions/arm_fir_decimate_f32.c ****  * \par Initialization Functions
  86:DSP/Source/FilteringFunctions/arm_fir_decimate_f32.c ****  * There is also an associated initialization function for each data type.
ARM GAS  /var/folders/ck/g3dcd5x55xs4107jgdl0snvr0000gn/T//ccf8UflK.s 			page 3


  87:DSP/Source/FilteringFunctions/arm_fir_decimate_f32.c ****  * The initialization function performs the following operations:
  88:DSP/Source/FilteringFunctions/arm_fir_decimate_f32.c ****  * - Sets the values of the internal structure fields.
  89:DSP/Source/FilteringFunctions/arm_fir_decimate_f32.c ****  * - Zeros out the values in the state buffer.
  90:DSP/Source/FilteringFunctions/arm_fir_decimate_f32.c ****  * - Checks to make sure that the size of the input is a multiple of the decimation factor.
  91:DSP/Source/FilteringFunctions/arm_fir_decimate_f32.c ****  * To do this manually without calling the init function, assign the follow subfields of the instan
  92:DSP/Source/FilteringFunctions/arm_fir_decimate_f32.c ****  * numTaps, pCoeffs, M (decimation factor), pState. Also set all of the values in pState to zero.
  93:DSP/Source/FilteringFunctions/arm_fir_decimate_f32.c ****  *
  94:DSP/Source/FilteringFunctions/arm_fir_decimate_f32.c ****  * \par
  95:DSP/Source/FilteringFunctions/arm_fir_decimate_f32.c ****  * Use of the initialization function is optional.
  96:DSP/Source/FilteringFunctions/arm_fir_decimate_f32.c ****  * However, if the initialization function is used, then the instance structure cannot be placed in
  97:DSP/Source/FilteringFunctions/arm_fir_decimate_f32.c ****  * To place an instance structure into a const data section, the instance structure must be manuall
  98:DSP/Source/FilteringFunctions/arm_fir_decimate_f32.c ****  * The code below statically initializes each of the 3 different data type filter instance structur
  99:DSP/Source/FilteringFunctions/arm_fir_decimate_f32.c ****  * <pre>
 100:DSP/Source/FilteringFunctions/arm_fir_decimate_f32.c ****  *arm_fir_decimate_instance_f32 S = {M, numTaps, pCoeffs, pState};
 101:DSP/Source/FilteringFunctions/arm_fir_decimate_f32.c ****  *arm_fir_decimate_instance_q31 S = {M, numTaps, pCoeffs, pState};
 102:DSP/Source/FilteringFunctions/arm_fir_decimate_f32.c ****  *arm_fir_decimate_instance_q15 S = {M, numTaps, pCoeffs, pState};
 103:DSP/Source/FilteringFunctions/arm_fir_decimate_f32.c ****  * </pre>
 104:DSP/Source/FilteringFunctions/arm_fir_decimate_f32.c ****  * where <code>M</code> is the decimation factor; <code>numTaps</code> is the number of filter coef
 105:DSP/Source/FilteringFunctions/arm_fir_decimate_f32.c ****  * <code>pCoeffs</code> is the address of the coefficient buffer;
 106:DSP/Source/FilteringFunctions/arm_fir_decimate_f32.c ****  * <code>pState</code> is the address of the state buffer.
 107:DSP/Source/FilteringFunctions/arm_fir_decimate_f32.c ****  * Be sure to set the values in the state buffer to zeros when doing static initialization.
 108:DSP/Source/FilteringFunctions/arm_fir_decimate_f32.c ****  *
 109:DSP/Source/FilteringFunctions/arm_fir_decimate_f32.c ****  * \par Fixed-Point Behavior
 110:DSP/Source/FilteringFunctions/arm_fir_decimate_f32.c ****  * Care must be taken when using the fixed-point versions of the FIR decimate filter functions.
 111:DSP/Source/FilteringFunctions/arm_fir_decimate_f32.c ****  * In particular, the overflow and saturation behavior of the accumulator used in each function mus
 112:DSP/Source/FilteringFunctions/arm_fir_decimate_f32.c ****  * Refer to the function specific documentation below for usage guidelines.
 113:DSP/Source/FilteringFunctions/arm_fir_decimate_f32.c ****  */
 114:DSP/Source/FilteringFunctions/arm_fir_decimate_f32.c **** 
 115:DSP/Source/FilteringFunctions/arm_fir_decimate_f32.c **** /**
 116:DSP/Source/FilteringFunctions/arm_fir_decimate_f32.c ****  * @addtogroup FIR_decimate
 117:DSP/Source/FilteringFunctions/arm_fir_decimate_f32.c ****  * @{
 118:DSP/Source/FilteringFunctions/arm_fir_decimate_f32.c ****  */
 119:DSP/Source/FilteringFunctions/arm_fir_decimate_f32.c **** 
 120:DSP/Source/FilteringFunctions/arm_fir_decimate_f32.c ****   /**
 121:DSP/Source/FilteringFunctions/arm_fir_decimate_f32.c ****    * @brief Processing function for the floating-point FIR decimator.
 122:DSP/Source/FilteringFunctions/arm_fir_decimate_f32.c ****    * @param[in] *S        points to an instance of the floating-point FIR decimator structure.
 123:DSP/Source/FilteringFunctions/arm_fir_decimate_f32.c ****    * @param[in] *pSrc     points to the block of input data.
 124:DSP/Source/FilteringFunctions/arm_fir_decimate_f32.c ****    * @param[out] *pDst    points to the block of output data.
 125:DSP/Source/FilteringFunctions/arm_fir_decimate_f32.c ****    * @param[in] blockSize number of input samples to process per call.
 126:DSP/Source/FilteringFunctions/arm_fir_decimate_f32.c ****    * @return none.
 127:DSP/Source/FilteringFunctions/arm_fir_decimate_f32.c ****    */
 128:DSP/Source/FilteringFunctions/arm_fir_decimate_f32.c **** 
 129:DSP/Source/FilteringFunctions/arm_fir_decimate_f32.c **** void arm_fir_decimate_f32(
 130:DSP/Source/FilteringFunctions/arm_fir_decimate_f32.c ****   const arm_fir_decimate_instance_f32 * S,
 131:DSP/Source/FilteringFunctions/arm_fir_decimate_f32.c ****   float32_t * pSrc,
 132:DSP/Source/FilteringFunctions/arm_fir_decimate_f32.c ****   float32_t * pDst,
 133:DSP/Source/FilteringFunctions/arm_fir_decimate_f32.c ****   uint32_t blockSize)
 134:DSP/Source/FilteringFunctions/arm_fir_decimate_f32.c **** {
  30              		.loc 1 134 1 view -0
  31              		.cfi_startproc
  32              		@ args = 0, pretend = 0, frame = 8
  33              		@ frame_needed = 0, uses_anonymous_args = 0
  34              		.loc 1 134 1 is_stmt 0 view .LVU1
  35 0000 2DE9F04F 		push	{r4, r5, r6, r7, r8, r9, r10, fp, lr}
  36              	.LCFI0:
  37              		.cfi_def_cfa_offset 36
  38              		.cfi_offset 4, -36
ARM GAS  /var/folders/ck/g3dcd5x55xs4107jgdl0snvr0000gn/T//ccf8UflK.s 			page 4


  39              		.cfi_offset 5, -32
  40              		.cfi_offset 6, -28
  41              		.cfi_offset 7, -24
  42              		.cfi_offset 8, -20
  43              		.cfi_offset 9, -16
  44              		.cfi_offset 10, -12
  45              		.cfi_offset 11, -8
  46              		.cfi_offset 14, -4
  47 0004 83B0     		sub	sp, sp, #12
  48              	.LCFI1:
  49              		.cfi_def_cfa_offset 48
  50 0006 8046     		mov	r8, r0
  51 0008 0C46     		mov	r4, r1
  52 000a 1746     		mov	r7, r2
 135:DSP/Source/FilteringFunctions/arm_fir_decimate_f32.c ****   float32_t *pState = S->pState;                 /* State pointer */
  53              		.loc 1 135 3 is_stmt 1 view .LVU2
  54              		.loc 1 135 14 is_stmt 0 view .LVU3
  55 000c 8668     		ldr	r6, [r0, #8]
  56              	.LVL1:
 136:DSP/Source/FilteringFunctions/arm_fir_decimate_f32.c ****   float32_t *pCoeffs = S->pCoeffs;               /* Coefficient pointer */
  57              		.loc 1 136 3 is_stmt 1 view .LVU4
  58              		.loc 1 136 14 is_stmt 0 view .LVU5
  59 000e 4268     		ldr	r2, [r0, #4]
  60              	.LVL2:
  61              		.loc 1 136 14 view .LVU6
  62 0010 0092     		str	r2, [sp]
  63              	.LVL3:
 137:DSP/Source/FilteringFunctions/arm_fir_decimate_f32.c ****   float32_t *pStateCurnt;                        /* Points to the current sample of the state */
  64              		.loc 1 137 3 is_stmt 1 view .LVU7
 138:DSP/Source/FilteringFunctions/arm_fir_decimate_f32.c ****   float32_t *px, *pb;                            /* Temporary pointers for state and coefficient bu
  65              		.loc 1 138 3 view .LVU8
 139:DSP/Source/FilteringFunctions/arm_fir_decimate_f32.c ****   float32_t sum0;                                /* Accumulator */
  66              		.loc 1 139 3 view .LVU9
 140:DSP/Source/FilteringFunctions/arm_fir_decimate_f32.c ****   float32_t x0, c0;                              /* Temporary variables to hold state and coefficie
  67              		.loc 1 140 3 view .LVU10
 141:DSP/Source/FilteringFunctions/arm_fir_decimate_f32.c ****   uint32_t numTaps = S->numTaps;                 /* Number of filter coefficients in the filter */
  68              		.loc 1 141 3 view .LVU11
  69              		.loc 1 141 23 is_stmt 0 view .LVU12
  70 0012 B0F80290 		ldrh	r9, [r0, #2]
  71              	.LVL4:
 142:DSP/Source/FilteringFunctions/arm_fir_decimate_f32.c ****   uint32_t i, tapCnt, blkCnt, outBlockSize = blockSize / S->M;  /* Loop counters */
  72              		.loc 1 142 3 is_stmt 1 view .LVU13
  73              		.loc 1 142 59 is_stmt 0 view .LVU14
  74 0016 0278     		ldrb	r2, [r0]	@ zero_extendqisi2
  75              	.LVL5:
  76              		.loc 1 142 31 view .LVU15
  77 0018 B3FBF2F3 		udiv	r3, r3, r2
  78              	.LVL6:
 143:DSP/Source/FilteringFunctions/arm_fir_decimate_f32.c **** 
 144:DSP/Source/FilteringFunctions/arm_fir_decimate_f32.c **** #if defined (ARM_MATH_DSP)
 145:DSP/Source/FilteringFunctions/arm_fir_decimate_f32.c **** 
 146:DSP/Source/FilteringFunctions/arm_fir_decimate_f32.c ****   uint32_t blkCntN4;
  79              		.loc 1 146 3 is_stmt 1 view .LVU16
 147:DSP/Source/FilteringFunctions/arm_fir_decimate_f32.c ****   float32_t *px0, *px1, *px2, *px3;
  80              		.loc 1 147 3 view .LVU17
 148:DSP/Source/FilteringFunctions/arm_fir_decimate_f32.c ****   float32_t acc0, acc1, acc2, acc3;
  81              		.loc 1 148 3 view .LVU18
ARM GAS  /var/folders/ck/g3dcd5x55xs4107jgdl0snvr0000gn/T//ccf8UflK.s 			page 5


 149:DSP/Source/FilteringFunctions/arm_fir_decimate_f32.c ****   float32_t x1, x2, x3;
  82              		.loc 1 149 3 view .LVU19
 150:DSP/Source/FilteringFunctions/arm_fir_decimate_f32.c **** 
 151:DSP/Source/FilteringFunctions/arm_fir_decimate_f32.c ****   /* Run the below code for Cortex-M4 and Cortex-M3 */
 152:DSP/Source/FilteringFunctions/arm_fir_decimate_f32.c **** 
 153:DSP/Source/FilteringFunctions/arm_fir_decimate_f32.c ****   /* S->pState buffer contains previous frame (numTaps - 1) samples */
 154:DSP/Source/FilteringFunctions/arm_fir_decimate_f32.c ****   /* pStateCurnt points to the location where the new input data should be written */
 155:DSP/Source/FilteringFunctions/arm_fir_decimate_f32.c ****   pStateCurnt = S->pState + (numTaps - 1U);
  83              		.loc 1 155 3 view .LVU20
  84              		.loc 1 155 27 is_stmt 0 view .LVU21
  85 001c 09F18040 		add	r0, r9, #1073741824
  86              	.LVL7:
  87              		.loc 1 155 27 view .LVU22
  88 0020 0138     		subs	r0, r0, #1
  89              		.loc 1 155 15 view .LVU23
  90 0022 06EB8000 		add	r0, r6, r0, lsl #2
  91              	.LVL8:
 156:DSP/Source/FilteringFunctions/arm_fir_decimate_f32.c **** 
 157:DSP/Source/FilteringFunctions/arm_fir_decimate_f32.c ****   /* Total number of output samples to be computed */
 158:DSP/Source/FilteringFunctions/arm_fir_decimate_f32.c ****   blkCnt = outBlockSize / 4;
  92              		.loc 1 158 3 is_stmt 1 view .LVU24
  93              		.loc 1 158 10 is_stmt 0 view .LVU25
  94 0026 4FEA930B 		lsr	fp, r3, #2
  95              	.LVL9:
 159:DSP/Source/FilteringFunctions/arm_fir_decimate_f32.c ****   blkCntN4 = outBlockSize - (4 * blkCnt);
  96              		.loc 1 159 3 is_stmt 1 view .LVU26
  97 002a 03F00302 		and	r2, r3, #3
  98              	.LVL10:
 160:DSP/Source/FilteringFunctions/arm_fir_decimate_f32.c **** 
 161:DSP/Source/FilteringFunctions/arm_fir_decimate_f32.c ****   while (blkCnt > 0U)
  99              		.loc 1 161 3 view .LVU27
 100 002e B646     		mov	lr, r6
 101 0030 0192     		str	r2, [sp, #4]
 102              		.loc 1 161 9 is_stmt 0 view .LVU28
 103 0032 9DE0     		b	.L2
 104              	.LVL11:
 105              	.L5:
 162:DSP/Source/FilteringFunctions/arm_fir_decimate_f32.c ****   {
 163:DSP/Source/FilteringFunctions/arm_fir_decimate_f32.c ****     /* Copy 4 * decimation factor number of new input samples into the state buffer */
 164:DSP/Source/FilteringFunctions/arm_fir_decimate_f32.c ****     i = 4 * S->M;
 165:DSP/Source/FilteringFunctions/arm_fir_decimate_f32.c **** 
 166:DSP/Source/FilteringFunctions/arm_fir_decimate_f32.c ****     do
 167:DSP/Source/FilteringFunctions/arm_fir_decimate_f32.c ****     {
 168:DSP/Source/FilteringFunctions/arm_fir_decimate_f32.c ****       *pStateCurnt++ = *pSrc++;
 169:DSP/Source/FilteringFunctions/arm_fir_decimate_f32.c **** 
 170:DSP/Source/FilteringFunctions/arm_fir_decimate_f32.c ****     } while (--i);
 171:DSP/Source/FilteringFunctions/arm_fir_decimate_f32.c **** 
 172:DSP/Source/FilteringFunctions/arm_fir_decimate_f32.c ****     /* Set accumulators to zero */
 173:DSP/Source/FilteringFunctions/arm_fir_decimate_f32.c ****     acc0 = 0.0f;
 174:DSP/Source/FilteringFunctions/arm_fir_decimate_f32.c ****     acc1 = 0.0f;
 175:DSP/Source/FilteringFunctions/arm_fir_decimate_f32.c ****     acc2 = 0.0f;
 176:DSP/Source/FilteringFunctions/arm_fir_decimate_f32.c ****     acc3 = 0.0f;
 177:DSP/Source/FilteringFunctions/arm_fir_decimate_f32.c **** 
 178:DSP/Source/FilteringFunctions/arm_fir_decimate_f32.c ****     /* Initialize state pointer for all the samples */
 179:DSP/Source/FilteringFunctions/arm_fir_decimate_f32.c ****     px0 = pState;
 180:DSP/Source/FilteringFunctions/arm_fir_decimate_f32.c ****     px1 = pState + S->M;
 181:DSP/Source/FilteringFunctions/arm_fir_decimate_f32.c ****     px2 = pState + 2 * S->M;
ARM GAS  /var/folders/ck/g3dcd5x55xs4107jgdl0snvr0000gn/T//ccf8UflK.s 			page 6


 182:DSP/Source/FilteringFunctions/arm_fir_decimate_f32.c ****     px3 = pState + 3 * S->M;
 183:DSP/Source/FilteringFunctions/arm_fir_decimate_f32.c **** 
 184:DSP/Source/FilteringFunctions/arm_fir_decimate_f32.c ****     /* Initialize coeff pointer */
 185:DSP/Source/FilteringFunctions/arm_fir_decimate_f32.c ****     pb = pCoeffs;
 186:DSP/Source/FilteringFunctions/arm_fir_decimate_f32.c **** 
 187:DSP/Source/FilteringFunctions/arm_fir_decimate_f32.c ****     /* Loop unrolling.  Process 4 taps at a time. */
 188:DSP/Source/FilteringFunctions/arm_fir_decimate_f32.c ****     tapCnt = numTaps >> 2;
 189:DSP/Source/FilteringFunctions/arm_fir_decimate_f32.c **** 
 190:DSP/Source/FilteringFunctions/arm_fir_decimate_f32.c ****     /* Loop over the number of taps.  Unroll by a factor of 4.
 191:DSP/Source/FilteringFunctions/arm_fir_decimate_f32.c ****      ** Repeat until we've computed numTaps-4 coefficients. */
 192:DSP/Source/FilteringFunctions/arm_fir_decimate_f32.c **** 
 193:DSP/Source/FilteringFunctions/arm_fir_decimate_f32.c ****     while (tapCnt > 0U)
 194:DSP/Source/FilteringFunctions/arm_fir_decimate_f32.c ****     {
 195:DSP/Source/FilteringFunctions/arm_fir_decimate_f32.c ****       /* Read the b[numTaps-1] coefficient */
 196:DSP/Source/FilteringFunctions/arm_fir_decimate_f32.c ****       c0 = *(pb++);
 106              		.loc 1 196 7 is_stmt 1 view .LVU29
 107              		.loc 1 196 10 is_stmt 0 view .LVU30
 108 0034 92ED007A 		vldr.32	s14, [r2]
 109              	.LVL12:
 197:DSP/Source/FilteringFunctions/arm_fir_decimate_f32.c **** 
 198:DSP/Source/FilteringFunctions/arm_fir_decimate_f32.c ****       /* Read x[n-numTaps-1] sample for acc0 */
 199:DSP/Source/FilteringFunctions/arm_fir_decimate_f32.c ****       x0 = *(px0++);
 110              		.loc 1 199 7 is_stmt 1 view .LVU31
 111              		.loc 1 199 10 is_stmt 0 view .LVU32
 112 0038 91ED004A 		vldr.32	s8, [r1]
 113              	.LVL13:
 200:DSP/Source/FilteringFunctions/arm_fir_decimate_f32.c ****       /* Read x[n-numTaps-1] sample for acc1 */
 201:DSP/Source/FilteringFunctions/arm_fir_decimate_f32.c ****       x1 = *(px1++);
 114              		.loc 1 201 7 is_stmt 1 view .LVU33
 115              		.loc 1 201 10 is_stmt 0 view .LVU34
 116 003c 95ED005A 		vldr.32	s10, [r5]
 117              	.LVL14:
 202:DSP/Source/FilteringFunctions/arm_fir_decimate_f32.c ****       /* Read x[n-numTaps-1] sample for acc2 */
 203:DSP/Source/FilteringFunctions/arm_fir_decimate_f32.c ****       x2 = *(px2++);
 118              		.loc 1 203 7 is_stmt 1 view .LVU35
 119              		.loc 1 203 10 is_stmt 0 view .LVU36
 120 0040 9CED006A 		vldr.32	s12, [ip]
 121              	.LVL15:
 204:DSP/Source/FilteringFunctions/arm_fir_decimate_f32.c ****       /* Read x[n-numTaps-1] sample for acc3 */
 205:DSP/Source/FilteringFunctions/arm_fir_decimate_f32.c ****       x3 = *(px3++);
 122              		.loc 1 205 7 is_stmt 1 view .LVU37
 123              		.loc 1 205 10 is_stmt 0 view .LVU38
 124 0044 D3ED003A 		vldr.32	s7, [r3]
 125              	.LVL16:
 206:DSP/Source/FilteringFunctions/arm_fir_decimate_f32.c **** 
 207:DSP/Source/FilteringFunctions/arm_fir_decimate_f32.c ****       /* Perform the multiply-accumulate */
 208:DSP/Source/FilteringFunctions/arm_fir_decimate_f32.c ****       acc0 += x0 * c0;
 126              		.loc 1 208 7 is_stmt 1 view .LVU39
 127              		.loc 1 208 18 is_stmt 0 view .LVU40
 128 0048 27EE044A 		vmul.f32	s8, s14, s8
 129              	.LVL17:
 130              		.loc 1 208 12 view .LVU41
 131 004c 74EE244A 		vadd.f32	s9, s8, s9
 132              	.LVL18:
 209:DSP/Source/FilteringFunctions/arm_fir_decimate_f32.c ****       acc1 += x1 * c0;
 133              		.loc 1 209 7 is_stmt 1 view .LVU42
 134              		.loc 1 209 18 is_stmt 0 view .LVU43
ARM GAS  /var/folders/ck/g3dcd5x55xs4107jgdl0snvr0000gn/T//ccf8UflK.s 			page 7


 135 0050 27EE055A 		vmul.f32	s10, s14, s10
 136              	.LVL19:
 137              		.loc 1 209 12 view .LVU44
 138 0054 75EE255A 		vadd.f32	s11, s10, s11
 139              	.LVL20:
 210:DSP/Source/FilteringFunctions/arm_fir_decimate_f32.c ****       acc2 += x2 * c0;
 140              		.loc 1 210 7 is_stmt 1 view .LVU45
 141              		.loc 1 210 18 is_stmt 0 view .LVU46
 142 0058 27EE066A 		vmul.f32	s12, s14, s12
 143              	.LVL21:
 144              		.loc 1 210 12 view .LVU47
 145 005c 76EE266A 		vadd.f32	s13, s12, s13
 146              	.LVL22:
 211:DSP/Source/FilteringFunctions/arm_fir_decimate_f32.c ****       acc3 += x3 * c0;
 147              		.loc 1 211 7 is_stmt 1 view .LVU48
 148              		.loc 1 211 18 is_stmt 0 view .LVU49
 149 0060 27EE237A 		vmul.f32	s14, s14, s7
 150              	.LVL23:
 151              		.loc 1 211 12 view .LVU50
 152 0064 77EE277A 		vadd.f32	s15, s14, s15
 153              	.LVL24:
 212:DSP/Source/FilteringFunctions/arm_fir_decimate_f32.c **** 
 213:DSP/Source/FilteringFunctions/arm_fir_decimate_f32.c ****       /* Read the b[numTaps-2] coefficient */
 214:DSP/Source/FilteringFunctions/arm_fir_decimate_f32.c ****       c0 = *(pb++);
 154              		.loc 1 214 7 is_stmt 1 view .LVU51
 155              		.loc 1 214 10 is_stmt 0 view .LVU52
 156 0068 92ED017A 		vldr.32	s14, [r2, #4]
 157              	.LVL25:
 215:DSP/Source/FilteringFunctions/arm_fir_decimate_f32.c **** 
 216:DSP/Source/FilteringFunctions/arm_fir_decimate_f32.c ****       /* Read x[n-numTaps-2] sample for acc0, acc1, acc2, acc3 */
 217:DSP/Source/FilteringFunctions/arm_fir_decimate_f32.c ****       x0 = *(px0++);
 158              		.loc 1 217 7 is_stmt 1 view .LVU53
 159              		.loc 1 217 10 is_stmt 0 view .LVU54
 160 006c 91ED014A 		vldr.32	s8, [r1, #4]
 161              	.LVL26:
 218:DSP/Source/FilteringFunctions/arm_fir_decimate_f32.c ****       x1 = *(px1++);
 162              		.loc 1 218 7 is_stmt 1 view .LVU55
 163              		.loc 1 218 10 is_stmt 0 view .LVU56
 164 0070 95ED015A 		vldr.32	s10, [r5, #4]
 165              	.LVL27:
 219:DSP/Source/FilteringFunctions/arm_fir_decimate_f32.c ****       x2 = *(px2++);
 166              		.loc 1 219 7 is_stmt 1 view .LVU57
 167              		.loc 1 219 10 is_stmt 0 view .LVU58
 168 0074 9CED016A 		vldr.32	s12, [ip, #4]
 169              	.LVL28:
 220:DSP/Source/FilteringFunctions/arm_fir_decimate_f32.c ****       x3 = *(px3++);
 170              		.loc 1 220 7 is_stmt 1 view .LVU59
 171              		.loc 1 220 10 is_stmt 0 view .LVU60
 172 0078 D3ED013A 		vldr.32	s7, [r3, #4]
 173              	.LVL29:
 221:DSP/Source/FilteringFunctions/arm_fir_decimate_f32.c **** 
 222:DSP/Source/FilteringFunctions/arm_fir_decimate_f32.c ****       /* Perform the multiply-accumulate */
 223:DSP/Source/FilteringFunctions/arm_fir_decimate_f32.c ****       acc0 += x0 * c0;
 174              		.loc 1 223 7 is_stmt 1 view .LVU61
 175              		.loc 1 223 18 is_stmt 0 view .LVU62
 176 007c 27EE044A 		vmul.f32	s8, s14, s8
 177              	.LVL30:
ARM GAS  /var/folders/ck/g3dcd5x55xs4107jgdl0snvr0000gn/T//ccf8UflK.s 			page 8


 178              		.loc 1 223 12 view .LVU63
 179 0080 74EE244A 		vadd.f32	s9, s8, s9
 180              	.LVL31:
 224:DSP/Source/FilteringFunctions/arm_fir_decimate_f32.c ****       acc1 += x1 * c0;
 181              		.loc 1 224 7 is_stmt 1 view .LVU64
 182              		.loc 1 224 18 is_stmt 0 view .LVU65
 183 0084 27EE055A 		vmul.f32	s10, s14, s10
 184              	.LVL32:
 185              		.loc 1 224 12 view .LVU66
 186 0088 75EE255A 		vadd.f32	s11, s10, s11
 187              	.LVL33:
 225:DSP/Source/FilteringFunctions/arm_fir_decimate_f32.c ****       acc2 += x2 * c0;
 188              		.loc 1 225 7 is_stmt 1 view .LVU67
 189              		.loc 1 225 18 is_stmt 0 view .LVU68
 190 008c 27EE066A 		vmul.f32	s12, s14, s12
 191              	.LVL34:
 192              		.loc 1 225 12 view .LVU69
 193 0090 76EE266A 		vadd.f32	s13, s12, s13
 194              	.LVL35:
 226:DSP/Source/FilteringFunctions/arm_fir_decimate_f32.c ****       acc3 += x3 * c0;
 195              		.loc 1 226 7 is_stmt 1 view .LVU70
 196              		.loc 1 226 18 is_stmt 0 view .LVU71
 197 0094 27EE237A 		vmul.f32	s14, s14, s7
 198              	.LVL36:
 199              		.loc 1 226 12 view .LVU72
 200 0098 37EE277A 		vadd.f32	s14, s14, s15
 201              	.LVL37:
 227:DSP/Source/FilteringFunctions/arm_fir_decimate_f32.c **** 
 228:DSP/Source/FilteringFunctions/arm_fir_decimate_f32.c ****       /* Read the b[numTaps-3] coefficient */
 229:DSP/Source/FilteringFunctions/arm_fir_decimate_f32.c ****       c0 = *(pb++);
 202              		.loc 1 229 7 is_stmt 1 view .LVU73
 203              		.loc 1 229 10 is_stmt 0 view .LVU74
 204 009c D2ED027A 		vldr.32	s15, [r2, #8]
 205              	.LVL38:
 230:DSP/Source/FilteringFunctions/arm_fir_decimate_f32.c **** 
 231:DSP/Source/FilteringFunctions/arm_fir_decimate_f32.c ****       /* Read x[n-numTaps-3] sample acc0, acc1, acc2, acc3 */
 232:DSP/Source/FilteringFunctions/arm_fir_decimate_f32.c ****       x0 = *(px0++);
 206              		.loc 1 232 7 is_stmt 1 view .LVU75
 207              		.loc 1 232 10 is_stmt 0 view .LVU76
 208 00a0 91ED024A 		vldr.32	s8, [r1, #8]
 209              	.LVL39:
 233:DSP/Source/FilteringFunctions/arm_fir_decimate_f32.c ****       x1 = *(px1++);
 210              		.loc 1 233 7 is_stmt 1 view .LVU77
 211              		.loc 1 233 10 is_stmt 0 view .LVU78
 212 00a4 95ED025A 		vldr.32	s10, [r5, #8]
 213              	.LVL40:
 234:DSP/Source/FilteringFunctions/arm_fir_decimate_f32.c ****       x2 = *(px2++);
 214              		.loc 1 234 7 is_stmt 1 view .LVU79
 215              		.loc 1 234 10 is_stmt 0 view .LVU80
 216 00a8 9CED026A 		vldr.32	s12, [ip, #8]
 217              	.LVL41:
 235:DSP/Source/FilteringFunctions/arm_fir_decimate_f32.c ****       x3 = *(px3++);
 218              		.loc 1 235 7 is_stmt 1 view .LVU81
 219              		.loc 1 235 10 is_stmt 0 view .LVU82
 220 00ac D3ED023A 		vldr.32	s7, [r3, #8]
 221              	.LVL42:
 236:DSP/Source/FilteringFunctions/arm_fir_decimate_f32.c **** 
ARM GAS  /var/folders/ck/g3dcd5x55xs4107jgdl0snvr0000gn/T//ccf8UflK.s 			page 9


 237:DSP/Source/FilteringFunctions/arm_fir_decimate_f32.c ****       /* Perform the multiply-accumulate */
 238:DSP/Source/FilteringFunctions/arm_fir_decimate_f32.c ****       acc0 += x0 * c0;
 222              		.loc 1 238 7 is_stmt 1 view .LVU83
 223              		.loc 1 238 18 is_stmt 0 view .LVU84
 224 00b0 27EE844A 		vmul.f32	s8, s15, s8
 225              	.LVL43:
 226              		.loc 1 238 12 view .LVU85
 227 00b4 34EE244A 		vadd.f32	s8, s8, s9
 228              	.LVL44:
 239:DSP/Source/FilteringFunctions/arm_fir_decimate_f32.c ****       acc1 += x1 * c0;
 229              		.loc 1 239 7 is_stmt 1 view .LVU86
 230              		.loc 1 239 18 is_stmt 0 view .LVU87
 231 00b8 27EE855A 		vmul.f32	s10, s15, s10
 232              	.LVL45:
 233              		.loc 1 239 12 view .LVU88
 234 00bc 35EE255A 		vadd.f32	s10, s10, s11
 235              	.LVL46:
 240:DSP/Source/FilteringFunctions/arm_fir_decimate_f32.c ****       acc2 += x2 * c0;
 236              		.loc 1 240 7 is_stmt 1 view .LVU89
 237              		.loc 1 240 18 is_stmt 0 view .LVU90
 238 00c0 27EE866A 		vmul.f32	s12, s15, s12
 239              	.LVL47:
 240              		.loc 1 240 12 view .LVU91
 241 00c4 36EE266A 		vadd.f32	s12, s12, s13
 242              	.LVL48:
 241:DSP/Source/FilteringFunctions/arm_fir_decimate_f32.c ****       acc3 += x3 * c0;
 243              		.loc 1 241 7 is_stmt 1 view .LVU92
 244              		.loc 1 241 18 is_stmt 0 view .LVU93
 245 00c8 67EEA37A 		vmul.f32	s15, s15, s7
 246              	.LVL49:
 247              		.loc 1 241 12 view .LVU94
 248 00cc 37EE877A 		vadd.f32	s14, s15, s14
 249              	.LVL50:
 242:DSP/Source/FilteringFunctions/arm_fir_decimate_f32.c **** 
 243:DSP/Source/FilteringFunctions/arm_fir_decimate_f32.c ****       /* Read the b[numTaps-4] coefficient */
 244:DSP/Source/FilteringFunctions/arm_fir_decimate_f32.c ****       c0 = *(pb++);
 250              		.loc 1 244 7 is_stmt 1 view .LVU95
 251              		.loc 1 244 10 is_stmt 0 view .LVU96
 252 00d0 D2ED037A 		vldr.32	s15, [r2, #12]
 253              	.LVL51:
 245:DSP/Source/FilteringFunctions/arm_fir_decimate_f32.c **** 
 246:DSP/Source/FilteringFunctions/arm_fir_decimate_f32.c ****       /* Read x[n-numTaps-4] sample acc0, acc1, acc2, acc3 */
 247:DSP/Source/FilteringFunctions/arm_fir_decimate_f32.c ****       x0 = *(px0++);
 254              		.loc 1 247 7 is_stmt 1 view .LVU97
 255              		.loc 1 247 10 is_stmt 0 view .LVU98
 256 00d4 D1ED034A 		vldr.32	s9, [r1, #12]
 257              	.LVL52:
 248:DSP/Source/FilteringFunctions/arm_fir_decimate_f32.c ****       x1 = *(px1++);
 258              		.loc 1 248 7 is_stmt 1 view .LVU99
 259              		.loc 1 248 10 is_stmt 0 view .LVU100
 260 00d8 D5ED035A 		vldr.32	s11, [r5, #12]
 261              	.LVL53:
 249:DSP/Source/FilteringFunctions/arm_fir_decimate_f32.c ****       x2 = *(px2++);
 262              		.loc 1 249 7 is_stmt 1 view .LVU101
 263              		.loc 1 249 10 is_stmt 0 view .LVU102
 264 00dc DCED036A 		vldr.32	s13, [ip, #12]
 265              	.LVL54:
ARM GAS  /var/folders/ck/g3dcd5x55xs4107jgdl0snvr0000gn/T//ccf8UflK.s 			page 10


 250:DSP/Source/FilteringFunctions/arm_fir_decimate_f32.c ****       x3 = *(px3++);
 266              		.loc 1 250 7 is_stmt 1 view .LVU103
 267              		.loc 1 250 10 is_stmt 0 view .LVU104
 268 00e0 D3ED033A 		vldr.32	s7, [r3, #12]
 269              	.LVL55:
 251:DSP/Source/FilteringFunctions/arm_fir_decimate_f32.c **** 
 252:DSP/Source/FilteringFunctions/arm_fir_decimate_f32.c ****       /* Perform the multiply-accumulate */
 253:DSP/Source/FilteringFunctions/arm_fir_decimate_f32.c ****       acc0 += x0 * c0;
 270              		.loc 1 253 7 is_stmt 1 view .LVU105
 271              		.loc 1 253 18 is_stmt 0 view .LVU106
 272 00e4 67EEA44A 		vmul.f32	s9, s15, s9
 273              	.LVL56:
 274              		.loc 1 253 12 view .LVU107
 275 00e8 74EE844A 		vadd.f32	s9, s9, s8
 276              	.LVL57:
 254:DSP/Source/FilteringFunctions/arm_fir_decimate_f32.c ****       acc1 += x1 * c0;
 277              		.loc 1 254 7 is_stmt 1 view .LVU108
 278              		.loc 1 254 18 is_stmt 0 view .LVU109
 279 00ec 67EEA55A 		vmul.f32	s11, s15, s11
 280              	.LVL58:
 281              		.loc 1 254 12 view .LVU110
 282 00f0 75EE855A 		vadd.f32	s11, s11, s10
 283              	.LVL59:
 255:DSP/Source/FilteringFunctions/arm_fir_decimate_f32.c ****       acc2 += x2 * c0;
 284              		.loc 1 255 7 is_stmt 1 view .LVU111
 285              		.loc 1 255 18 is_stmt 0 view .LVU112
 286 00f4 67EEA66A 		vmul.f32	s13, s15, s13
 287              	.LVL60:
 288              		.loc 1 255 12 view .LVU113
 289 00f8 76EE866A 		vadd.f32	s13, s13, s12
 290              	.LVL61:
 256:DSP/Source/FilteringFunctions/arm_fir_decimate_f32.c ****       acc3 += x3 * c0;
 291              		.loc 1 256 7 is_stmt 1 view .LVU114
 292              		.loc 1 256 18 is_stmt 0 view .LVU115
 293 00fc 67EEA37A 		vmul.f32	s15, s15, s7
 294              	.LVL62:
 295              		.loc 1 256 12 view .LVU116
 296 0100 77EE877A 		vadd.f32	s15, s15, s14
 297              	.LVL63:
 257:DSP/Source/FilteringFunctions/arm_fir_decimate_f32.c **** 
 258:DSP/Source/FilteringFunctions/arm_fir_decimate_f32.c ****       /* Decrement the loop counter */
 259:DSP/Source/FilteringFunctions/arm_fir_decimate_f32.c ****       tapCnt--;
 298              		.loc 1 259 7 is_stmt 1 view .LVU117
 299              		.loc 1 259 13 is_stmt 0 view .LVU118
 300 0104 013E     		subs	r6, r6, #1
 301              	.LVL64:
 250:DSP/Source/FilteringFunctions/arm_fir_decimate_f32.c **** 
 302              		.loc 1 250 17 view .LVU119
 303 0106 1033     		adds	r3, r3, #16
 304              	.LVL65:
 249:DSP/Source/FilteringFunctions/arm_fir_decimate_f32.c ****       x3 = *(px3++);
 305              		.loc 1 249 17 view .LVU120
 306 0108 0CF1100C 		add	ip, ip, #16
 307              	.LVL66:
 248:DSP/Source/FilteringFunctions/arm_fir_decimate_f32.c ****       x2 = *(px2++);
 308              		.loc 1 248 17 view .LVU121
 309 010c 1035     		adds	r5, r5, #16
ARM GAS  /var/folders/ck/g3dcd5x55xs4107jgdl0snvr0000gn/T//ccf8UflK.s 			page 11


 310              	.LVL67:
 247:DSP/Source/FilteringFunctions/arm_fir_decimate_f32.c ****       x1 = *(px1++);
 311              		.loc 1 247 17 view .LVU122
 312 010e 1031     		adds	r1, r1, #16
 313              	.LVL68:
 244:DSP/Source/FilteringFunctions/arm_fir_decimate_f32.c **** 
 314              		.loc 1 244 16 view .LVU123
 315 0110 1032     		adds	r2, r2, #16
 316              	.LVL69:
 317              	.L4:
 193:DSP/Source/FilteringFunctions/arm_fir_decimate_f32.c ****     {
 318              		.loc 1 193 19 is_stmt 1 view .LVU124
 319 0112 002E     		cmp	r6, #0
 320 0114 8ED1     		bne	.L5
 260:DSP/Source/FilteringFunctions/arm_fir_decimate_f32.c ****     }
 261:DSP/Source/FilteringFunctions/arm_fir_decimate_f32.c **** 
 262:DSP/Source/FilteringFunctions/arm_fir_decimate_f32.c ****     /* If the filter length is not a multiple of 4, compute the remaining filter taps */
 263:DSP/Source/FilteringFunctions/arm_fir_decimate_f32.c ****     tapCnt = numTaps % 0x4U;
 321              		.loc 1 263 5 view .LVU125
 322              		.loc 1 263 12 is_stmt 0 view .LVU126
 323 0116 09F00306 		and	r6, r9, #3
 324              	.LVL70:
 264:DSP/Source/FilteringFunctions/arm_fir_decimate_f32.c **** 
 265:DSP/Source/FilteringFunctions/arm_fir_decimate_f32.c ****     while (tapCnt > 0U)
 325              		.loc 1 265 5 is_stmt 1 view .LVU127
 326              		.loc 1 265 11 is_stmt 0 view .LVU128
 327 011a 1AE0     		b	.L6
 328              	.L7:
 266:DSP/Source/FilteringFunctions/arm_fir_decimate_f32.c ****     {
 267:DSP/Source/FilteringFunctions/arm_fir_decimate_f32.c ****       /* Read coefficients */
 268:DSP/Source/FilteringFunctions/arm_fir_decimate_f32.c ****       c0 = *(pb++);
 329              		.loc 1 268 7 is_stmt 1 view .LVU129
 330              	.LVL71:
 331              		.loc 1 268 10 is_stmt 0 view .LVU130
 332 011c B2EC017A 		vldmia.32	r2!, {s14}
 333              	.LVL72:
 269:DSP/Source/FilteringFunctions/arm_fir_decimate_f32.c **** 
 270:DSP/Source/FilteringFunctions/arm_fir_decimate_f32.c ****       /* Fetch  state variables for acc0, acc1, acc2, acc3 */
 271:DSP/Source/FilteringFunctions/arm_fir_decimate_f32.c ****       x0 = *(px0++);
 334              		.loc 1 271 7 is_stmt 1 view .LVU131
 335              		.loc 1 271 10 is_stmt 0 view .LVU132
 336 0120 B1EC014A 		vldmia.32	r1!, {s8}
 337              	.LVL73:
 272:DSP/Source/FilteringFunctions/arm_fir_decimate_f32.c ****       x1 = *(px1++);
 338              		.loc 1 272 7 is_stmt 1 view .LVU133
 339              		.loc 1 272 10 is_stmt 0 view .LVU134
 340 0124 B5EC015A 		vldmia.32	r5!, {s10}
 341              	.LVL74:
 273:DSP/Source/FilteringFunctions/arm_fir_decimate_f32.c ****       x2 = *(px2++);
 342              		.loc 1 273 7 is_stmt 1 view .LVU135
 343              		.loc 1 273 10 is_stmt 0 view .LVU136
 344 0128 BCEC016A 		vldmia.32	ip!, {s12}
 345              	.LVL75:
 274:DSP/Source/FilteringFunctions/arm_fir_decimate_f32.c ****       x3 = *(px3++);
 346              		.loc 1 274 7 is_stmt 1 view .LVU137
 347              		.loc 1 274 10 is_stmt 0 view .LVU138
 348 012c F3EC013A 		vldmia.32	r3!, {s7}
ARM GAS  /var/folders/ck/g3dcd5x55xs4107jgdl0snvr0000gn/T//ccf8UflK.s 			page 12


 349              	.LVL76:
 275:DSP/Source/FilteringFunctions/arm_fir_decimate_f32.c **** 
 276:DSP/Source/FilteringFunctions/arm_fir_decimate_f32.c ****       /* Perform the multiply-accumulate */
 277:DSP/Source/FilteringFunctions/arm_fir_decimate_f32.c ****       acc0 += x0 * c0;
 350              		.loc 1 277 7 is_stmt 1 view .LVU139
 351              		.loc 1 277 18 is_stmt 0 view .LVU140
 352 0130 27EE044A 		vmul.f32	s8, s14, s8
 353              	.LVL77:
 354              		.loc 1 277 12 view .LVU141
 355 0134 74EE844A 		vadd.f32	s9, s9, s8
 356              	.LVL78:
 278:DSP/Source/FilteringFunctions/arm_fir_decimate_f32.c ****       acc1 += x1 * c0;
 357              		.loc 1 278 7 is_stmt 1 view .LVU142
 358              		.loc 1 278 18 is_stmt 0 view .LVU143
 359 0138 27EE055A 		vmul.f32	s10, s14, s10
 360              	.LVL79:
 361              		.loc 1 278 12 view .LVU144
 362 013c 75EE855A 		vadd.f32	s11, s11, s10
 363              	.LVL80:
 279:DSP/Source/FilteringFunctions/arm_fir_decimate_f32.c ****       acc2 += x2 * c0;
 364              		.loc 1 279 7 is_stmt 1 view .LVU145
 365              		.loc 1 279 18 is_stmt 0 view .LVU146
 366 0140 27EE066A 		vmul.f32	s12, s14, s12
 367              	.LVL81:
 368              		.loc 1 279 12 view .LVU147
 369 0144 76EE866A 		vadd.f32	s13, s13, s12
 370              	.LVL82:
 280:DSP/Source/FilteringFunctions/arm_fir_decimate_f32.c ****       acc3 += x3 * c0;
 371              		.loc 1 280 7 is_stmt 1 view .LVU148
 372              		.loc 1 280 18 is_stmt 0 view .LVU149
 373 0148 27EE237A 		vmul.f32	s14, s14, s7
 374              	.LVL83:
 375              		.loc 1 280 12 view .LVU150
 376 014c 77EE877A 		vadd.f32	s15, s15, s14
 377              	.LVL84:
 281:DSP/Source/FilteringFunctions/arm_fir_decimate_f32.c **** 
 282:DSP/Source/FilteringFunctions/arm_fir_decimate_f32.c ****       /* Decrement the loop counter */
 283:DSP/Source/FilteringFunctions/arm_fir_decimate_f32.c ****       tapCnt--;
 378              		.loc 1 283 7 is_stmt 1 view .LVU151
 379              		.loc 1 283 13 is_stmt 0 view .LVU152
 380 0150 013E     		subs	r6, r6, #1
 381              	.LVL85:
 382              	.L6:
 265:DSP/Source/FilteringFunctions/arm_fir_decimate_f32.c ****     {
 383              		.loc 1 265 19 is_stmt 1 view .LVU153
 384 0152 002E     		cmp	r6, #0
 385 0154 E2D1     		bne	.L7
 284:DSP/Source/FilteringFunctions/arm_fir_decimate_f32.c ****     }
 285:DSP/Source/FilteringFunctions/arm_fir_decimate_f32.c **** 
 286:DSP/Source/FilteringFunctions/arm_fir_decimate_f32.c ****     /* Advance the state pointer by the decimation factor
 287:DSP/Source/FilteringFunctions/arm_fir_decimate_f32.c ****      * to process the next group of decimation factor number samples */
 288:DSP/Source/FilteringFunctions/arm_fir_decimate_f32.c ****     pState = pState + 4 * S->M;
 386              		.loc 1 288 5 view .LVU154
 387              		.loc 1 288 12 is_stmt 0 view .LVU155
 388 0156 0EEB0A1E 		add	lr, lr, r10, lsl #4
 389              	.LVL86:
 289:DSP/Source/FilteringFunctions/arm_fir_decimate_f32.c **** 
ARM GAS  /var/folders/ck/g3dcd5x55xs4107jgdl0snvr0000gn/T//ccf8UflK.s 			page 13


 290:DSP/Source/FilteringFunctions/arm_fir_decimate_f32.c ****     /* The result is in the accumulator, store in the destination buffer. */
 291:DSP/Source/FilteringFunctions/arm_fir_decimate_f32.c ****     *pDst++ = acc0;
 390              		.loc 1 291 5 is_stmt 1 view .LVU156
 391              		.loc 1 291 13 is_stmt 0 view .LVU157
 392 015a C7ED004A 		vstr.32	s9, [r7]
 292:DSP/Source/FilteringFunctions/arm_fir_decimate_f32.c ****     *pDst++ = acc1;
 393              		.loc 1 292 5 is_stmt 1 view .LVU158
 394              	.LVL87:
 395              		.loc 1 292 13 is_stmt 0 view .LVU159
 396 015e C7ED015A 		vstr.32	s11, [r7, #4]
 293:DSP/Source/FilteringFunctions/arm_fir_decimate_f32.c ****     *pDst++ = acc2;
 397              		.loc 1 293 5 is_stmt 1 view .LVU160
 398              	.LVL88:
 399              		.loc 1 293 13 is_stmt 0 view .LVU161
 400 0162 C7ED026A 		vstr.32	s13, [r7, #8]
 294:DSP/Source/FilteringFunctions/arm_fir_decimate_f32.c ****     *pDst++ = acc3;
 401              		.loc 1 294 5 is_stmt 1 view .LVU162
 402              	.LVL89:
 403              		.loc 1 294 13 is_stmt 0 view .LVU163
 404 0166 C7ED037A 		vstr.32	s15, [r7, #12]
 295:DSP/Source/FilteringFunctions/arm_fir_decimate_f32.c **** 
 296:DSP/Source/FilteringFunctions/arm_fir_decimate_f32.c ****     /* Decrement the loop counter */
 297:DSP/Source/FilteringFunctions/arm_fir_decimate_f32.c ****     blkCnt--;
 405              		.loc 1 297 5 is_stmt 1 view .LVU164
 406              		.loc 1 297 11 is_stmt 0 view .LVU165
 407 016a 0BF1FF3B 		add	fp, fp, #-1
 408              	.LVL90:
 294:DSP/Source/FilteringFunctions/arm_fir_decimate_f32.c ****     *pDst++ = acc3;
 409              		.loc 1 294 10 view .LVU166
 410 016e 1037     		adds	r7, r7, #16
 411              	.LVL91:
 412              	.L2:
 161:DSP/Source/FilteringFunctions/arm_fir_decimate_f32.c ****   {
 413              		.loc 1 161 17 is_stmt 1 view .LVU167
 414 0170 BBF1000F 		cmp	fp, #0
 415 0174 20D0     		beq	.L21
 164:DSP/Source/FilteringFunctions/arm_fir_decimate_f32.c **** 
 416              		.loc 1 164 5 view .LVU168
 164:DSP/Source/FilteringFunctions/arm_fir_decimate_f32.c **** 
 417              		.loc 1 164 14 is_stmt 0 view .LVU169
 418 0176 98F80020 		ldrb	r2, [r8]	@ zero_extendqisi2
 164:DSP/Source/FilteringFunctions/arm_fir_decimate_f32.c **** 
 419              		.loc 1 164 11 view .LVU170
 420 017a 9200     		lsls	r2, r2, #2
 421              	.LVL92:
 422              	.L3:
 166:DSP/Source/FilteringFunctions/arm_fir_decimate_f32.c ****     {
 423              		.loc 1 166 5 is_stmt 1 view .LVU171
 168:DSP/Source/FilteringFunctions/arm_fir_decimate_f32.c **** 
 424              		.loc 1 168 7 view .LVU172
 168:DSP/Source/FilteringFunctions/arm_fir_decimate_f32.c **** 
 425              		.loc 1 168 7 is_stmt 0 view .LVU173
 426 017c 0146     		mov	r1, r0
 168:DSP/Source/FilteringFunctions/arm_fir_decimate_f32.c **** 
 427              		.loc 1 168 19 view .LVU174
 428 017e 0430     		adds	r0, r0, #4
 429              	.LVL93:
ARM GAS  /var/folders/ck/g3dcd5x55xs4107jgdl0snvr0000gn/T//ccf8UflK.s 			page 14


 168:DSP/Source/FilteringFunctions/arm_fir_decimate_f32.c **** 
 430              		.loc 1 168 24 view .LVU175
 431 0180 2368     		ldr	r3, [r4]	@ float
 432 0182 0434     		adds	r4, r4, #4
 433              	.LVL94:
 168:DSP/Source/FilteringFunctions/arm_fir_decimate_f32.c **** 
 434              		.loc 1 168 22 view .LVU176
 435 0184 0B60     		str	r3, [r1]	@ float
 170:DSP/Source/FilteringFunctions/arm_fir_decimate_f32.c **** 
 436              		.loc 1 170 14 is_stmt 1 discriminator 1 view .LVU177
 437              	.LVL95:
 170:DSP/Source/FilteringFunctions/arm_fir_decimate_f32.c **** 
 438              		.loc 1 170 14 is_stmt 0 discriminator 1 view .LVU178
 439 0186 013A     		subs	r2, r2, #1
 440              	.LVL96:
 170:DSP/Source/FilteringFunctions/arm_fir_decimate_f32.c **** 
 441              		.loc 1 170 14 discriminator 1 view .LVU179
 442 0188 F8D1     		bne	.L3
 173:DSP/Source/FilteringFunctions/arm_fir_decimate_f32.c ****     acc1 = 0.0f;
 443              		.loc 1 173 5 is_stmt 1 view .LVU180
 444              	.LVL97:
 174:DSP/Source/FilteringFunctions/arm_fir_decimate_f32.c ****     acc2 = 0.0f;
 445              		.loc 1 174 5 view .LVU181
 175:DSP/Source/FilteringFunctions/arm_fir_decimate_f32.c ****     acc3 = 0.0f;
 446              		.loc 1 175 5 view .LVU182
 176:DSP/Source/FilteringFunctions/arm_fir_decimate_f32.c **** 
 447              		.loc 1 176 5 view .LVU183
 179:DSP/Source/FilteringFunctions/arm_fir_decimate_f32.c ****     px1 = pState + S->M;
 448              		.loc 1 179 5 view .LVU184
 180:DSP/Source/FilteringFunctions/arm_fir_decimate_f32.c ****     px2 = pState + 2 * S->M;
 449              		.loc 1 180 5 view .LVU185
 180:DSP/Source/FilteringFunctions/arm_fir_decimate_f32.c ****     px2 = pState + 2 * S->M;
 450              		.loc 1 180 21 is_stmt 0 view .LVU186
 451 018a 98F800A0 		ldrb	r10, [r8]	@ zero_extendqisi2
 180:DSP/Source/FilteringFunctions/arm_fir_decimate_f32.c ****     px2 = pState + 2 * S->M;
 452              		.loc 1 180 9 view .LVU187
 453 018e 0EEB8A05 		add	r5, lr, r10, lsl #2
 454              	.LVL98:
 181:DSP/Source/FilteringFunctions/arm_fir_decimate_f32.c ****     px3 = pState + 3 * S->M;
 455              		.loc 1 181 5 is_stmt 1 view .LVU188
 181:DSP/Source/FilteringFunctions/arm_fir_decimate_f32.c ****     px3 = pState + 3 * S->M;
 456              		.loc 1 181 9 is_stmt 0 view .LVU189
 457 0192 0EEBCA0C 		add	ip, lr, r10, lsl #3
 458              	.LVL99:
 182:DSP/Source/FilteringFunctions/arm_fir_decimate_f32.c **** 
 459              		.loc 1 182 5 is_stmt 1 view .LVU190
 182:DSP/Source/FilteringFunctions/arm_fir_decimate_f32.c **** 
 460              		.loc 1 182 18 is_stmt 0 view .LVU191
 461 0196 0AEB4A03 		add	r3, r10, r10, lsl #1
 182:DSP/Source/FilteringFunctions/arm_fir_decimate_f32.c **** 
 462              		.loc 1 182 9 view .LVU192
 463 019a 0EEB8303 		add	r3, lr, r3, lsl #2
 464              	.LVL100:
 185:DSP/Source/FilteringFunctions/arm_fir_decimate_f32.c **** 
 465              		.loc 1 185 5 is_stmt 1 view .LVU193
 188:DSP/Source/FilteringFunctions/arm_fir_decimate_f32.c **** 
 466              		.loc 1 188 5 view .LVU194
ARM GAS  /var/folders/ck/g3dcd5x55xs4107jgdl0snvr0000gn/T//ccf8UflK.s 			page 15


 188:DSP/Source/FilteringFunctions/arm_fir_decimate_f32.c **** 
 467              		.loc 1 188 12 is_stmt 0 view .LVU195
 468 019e 4FEA9906 		lsr	r6, r9, #2
 469              	.LVL101:
 193:DSP/Source/FilteringFunctions/arm_fir_decimate_f32.c ****     {
 470              		.loc 1 193 5 is_stmt 1 view .LVU196
 179:DSP/Source/FilteringFunctions/arm_fir_decimate_f32.c ****     px1 = pState + S->M;
 471              		.loc 1 179 9 is_stmt 0 view .LVU197
 472 01a2 7146     		mov	r1, lr
 185:DSP/Source/FilteringFunctions/arm_fir_decimate_f32.c **** 
 473              		.loc 1 185 8 view .LVU198
 474 01a4 009A     		ldr	r2, [sp]
 475              	.LVL102:
 176:DSP/Source/FilteringFunctions/arm_fir_decimate_f32.c **** 
 476              		.loc 1 176 10 view .LVU199
 477 01a6 DFED3B7A 		vldr.32	s15, .L23
 175:DSP/Source/FilteringFunctions/arm_fir_decimate_f32.c ****     acc3 = 0.0f;
 478              		.loc 1 175 10 view .LVU200
 479 01aa F0EE676A 		vmov.f32	s13, s15
 174:DSP/Source/FilteringFunctions/arm_fir_decimate_f32.c ****     acc2 = 0.0f;
 480              		.loc 1 174 10 view .LVU201
 481 01ae F0EE675A 		vmov.f32	s11, s15
 173:DSP/Source/FilteringFunctions/arm_fir_decimate_f32.c ****     acc1 = 0.0f;
 482              		.loc 1 173 10 view .LVU202
 483 01b2 F0EE674A 		vmov.f32	s9, s15
 193:DSP/Source/FilteringFunctions/arm_fir_decimate_f32.c ****     {
 484              		.loc 1 193 11 view .LVU203
 485 01b6 ACE7     		b	.L4
 486              	.LVL103:
 487              	.L21:
 193:DSP/Source/FilteringFunctions/arm_fir_decimate_f32.c ****     {
 488              		.loc 1 193 11 view .LVU204
 489 01b8 7646     		mov	r6, lr
 490 01ba 019A     		ldr	r2, [sp, #4]
 491 01bc 39E0     		b	.L9
 492              	.LVL104:
 493              	.L12:
 298:DSP/Source/FilteringFunctions/arm_fir_decimate_f32.c ****   }
 299:DSP/Source/FilteringFunctions/arm_fir_decimate_f32.c **** 
 300:DSP/Source/FilteringFunctions/arm_fir_decimate_f32.c ****   while (blkCntN4 > 0U)
 301:DSP/Source/FilteringFunctions/arm_fir_decimate_f32.c ****   {
 302:DSP/Source/FilteringFunctions/arm_fir_decimate_f32.c ****     /* Copy decimation factor number of new input samples into the state buffer */
 303:DSP/Source/FilteringFunctions/arm_fir_decimate_f32.c ****     i = S->M;
 304:DSP/Source/FilteringFunctions/arm_fir_decimate_f32.c **** 
 305:DSP/Source/FilteringFunctions/arm_fir_decimate_f32.c ****     do
 306:DSP/Source/FilteringFunctions/arm_fir_decimate_f32.c ****     {
 307:DSP/Source/FilteringFunctions/arm_fir_decimate_f32.c ****       *pStateCurnt++ = *pSrc++;
 308:DSP/Source/FilteringFunctions/arm_fir_decimate_f32.c **** 
 309:DSP/Source/FilteringFunctions/arm_fir_decimate_f32.c ****     } while (--i);
 310:DSP/Source/FilteringFunctions/arm_fir_decimate_f32.c **** 
 311:DSP/Source/FilteringFunctions/arm_fir_decimate_f32.c ****     /* Set accumulator to zero */
 312:DSP/Source/FilteringFunctions/arm_fir_decimate_f32.c ****     sum0 = 0.0f;
 313:DSP/Source/FilteringFunctions/arm_fir_decimate_f32.c **** 
 314:DSP/Source/FilteringFunctions/arm_fir_decimate_f32.c ****     /* Initialize state pointer */
 315:DSP/Source/FilteringFunctions/arm_fir_decimate_f32.c ****     px = pState;
 316:DSP/Source/FilteringFunctions/arm_fir_decimate_f32.c **** 
 317:DSP/Source/FilteringFunctions/arm_fir_decimate_f32.c ****     /* Initialize coeff pointer */
ARM GAS  /var/folders/ck/g3dcd5x55xs4107jgdl0snvr0000gn/T//ccf8UflK.s 			page 16


 318:DSP/Source/FilteringFunctions/arm_fir_decimate_f32.c ****     pb = pCoeffs;
 319:DSP/Source/FilteringFunctions/arm_fir_decimate_f32.c **** 
 320:DSP/Source/FilteringFunctions/arm_fir_decimate_f32.c ****     /* Loop unrolling.  Process 4 taps at a time. */
 321:DSP/Source/FilteringFunctions/arm_fir_decimate_f32.c ****     tapCnt = numTaps >> 2;
 322:DSP/Source/FilteringFunctions/arm_fir_decimate_f32.c **** 
 323:DSP/Source/FilteringFunctions/arm_fir_decimate_f32.c ****     /* Loop over the number of taps.  Unroll by a factor of 4.
 324:DSP/Source/FilteringFunctions/arm_fir_decimate_f32.c ****      ** Repeat until we've computed numTaps-4 coefficients. */
 325:DSP/Source/FilteringFunctions/arm_fir_decimate_f32.c ****     while (tapCnt > 0U)
 326:DSP/Source/FilteringFunctions/arm_fir_decimate_f32.c ****     {
 327:DSP/Source/FilteringFunctions/arm_fir_decimate_f32.c ****       /* Read the b[numTaps-1] coefficient */
 328:DSP/Source/FilteringFunctions/arm_fir_decimate_f32.c ****       c0 = *(pb++);
 494              		.loc 1 328 7 is_stmt 1 view .LVU205
 495              		.loc 1 328 10 is_stmt 0 view .LVU206
 496 01be 91ED007A 		vldr.32	s14, [r1]
 497              	.LVL105:
 329:DSP/Source/FilteringFunctions/arm_fir_decimate_f32.c **** 
 330:DSP/Source/FilteringFunctions/arm_fir_decimate_f32.c ****       /* Read x[n-numTaps-1] sample */
 331:DSP/Source/FilteringFunctions/arm_fir_decimate_f32.c ****       x0 = *(px++);
 498              		.loc 1 331 7 is_stmt 1 view .LVU207
 499              		.loc 1 331 10 is_stmt 0 view .LVU208
 500 01c2 D3ED006A 		vldr.32	s13, [r3]
 501              	.LVL106:
 332:DSP/Source/FilteringFunctions/arm_fir_decimate_f32.c **** 
 333:DSP/Source/FilteringFunctions/arm_fir_decimate_f32.c ****       /* Perform the multiply-accumulate */
 334:DSP/Source/FilteringFunctions/arm_fir_decimate_f32.c ****       sum0 += x0 * c0;
 502              		.loc 1 334 7 is_stmt 1 view .LVU209
 503              		.loc 1 334 18 is_stmt 0 view .LVU210
 504 01c6 27EE267A 		vmul.f32	s14, s14, s13
 505              	.LVL107:
 506              		.loc 1 334 12 view .LVU211
 507 01ca 37EE277A 		vadd.f32	s14, s14, s15
 508              	.LVL108:
 335:DSP/Source/FilteringFunctions/arm_fir_decimate_f32.c **** 
 336:DSP/Source/FilteringFunctions/arm_fir_decimate_f32.c ****       /* Read the b[numTaps-2] coefficient */
 337:DSP/Source/FilteringFunctions/arm_fir_decimate_f32.c ****       c0 = *(pb++);
 509              		.loc 1 337 7 is_stmt 1 view .LVU212
 510              		.loc 1 337 10 is_stmt 0 view .LVU213
 511 01ce D1ED017A 		vldr.32	s15, [r1, #4]
 512              	.LVL109:
 338:DSP/Source/FilteringFunctions/arm_fir_decimate_f32.c **** 
 339:DSP/Source/FilteringFunctions/arm_fir_decimate_f32.c ****       /* Read x[n-numTaps-2] sample */
 340:DSP/Source/FilteringFunctions/arm_fir_decimate_f32.c ****       x0 = *(px++);
 513              		.loc 1 340 7 is_stmt 1 view .LVU214
 514              		.loc 1 340 10 is_stmt 0 view .LVU215
 515 01d2 D3ED016A 		vldr.32	s13, [r3, #4]
 516              	.LVL110:
 341:DSP/Source/FilteringFunctions/arm_fir_decimate_f32.c **** 
 342:DSP/Source/FilteringFunctions/arm_fir_decimate_f32.c ****       /* Perform the multiply-accumulate */
 343:DSP/Source/FilteringFunctions/arm_fir_decimate_f32.c ****       sum0 += x0 * c0;
 517              		.loc 1 343 7 is_stmt 1 view .LVU216
 518              		.loc 1 343 18 is_stmt 0 view .LVU217
 519 01d6 67EEA67A 		vmul.f32	s15, s15, s13
 520              	.LVL111:
 521              		.loc 1 343 12 view .LVU218
 522 01da 77EE877A 		vadd.f32	s15, s15, s14
 523              	.LVL112:
 344:DSP/Source/FilteringFunctions/arm_fir_decimate_f32.c **** 
ARM GAS  /var/folders/ck/g3dcd5x55xs4107jgdl0snvr0000gn/T//ccf8UflK.s 			page 17


 345:DSP/Source/FilteringFunctions/arm_fir_decimate_f32.c ****       /* Read the b[numTaps-3] coefficient */
 346:DSP/Source/FilteringFunctions/arm_fir_decimate_f32.c ****       c0 = *(pb++);
 524              		.loc 1 346 7 is_stmt 1 view .LVU219
 525              		.loc 1 346 10 is_stmt 0 view .LVU220
 526 01de 91ED027A 		vldr.32	s14, [r1, #8]
 527              	.LVL113:
 347:DSP/Source/FilteringFunctions/arm_fir_decimate_f32.c **** 
 348:DSP/Source/FilteringFunctions/arm_fir_decimate_f32.c ****       /* Read x[n-numTaps-3] sample */
 349:DSP/Source/FilteringFunctions/arm_fir_decimate_f32.c ****       x0 = *(px++);
 528              		.loc 1 349 7 is_stmt 1 view .LVU221
 529              		.loc 1 349 10 is_stmt 0 view .LVU222
 530 01e2 D3ED026A 		vldr.32	s13, [r3, #8]
 531              	.LVL114:
 350:DSP/Source/FilteringFunctions/arm_fir_decimate_f32.c **** 
 351:DSP/Source/FilteringFunctions/arm_fir_decimate_f32.c ****       /* Perform the multiply-accumulate */
 352:DSP/Source/FilteringFunctions/arm_fir_decimate_f32.c ****       sum0 += x0 * c0;
 532              		.loc 1 352 7 is_stmt 1 view .LVU223
 533              		.loc 1 352 18 is_stmt 0 view .LVU224
 534 01e6 27EE267A 		vmul.f32	s14, s14, s13
 535              	.LVL115:
 536              		.loc 1 352 12 view .LVU225
 537 01ea 37EE277A 		vadd.f32	s14, s14, s15
 538              	.LVL116:
 353:DSP/Source/FilteringFunctions/arm_fir_decimate_f32.c **** 
 354:DSP/Source/FilteringFunctions/arm_fir_decimate_f32.c ****       /* Read the b[numTaps-4] coefficient */
 355:DSP/Source/FilteringFunctions/arm_fir_decimate_f32.c ****       c0 = *(pb++);
 539              		.loc 1 355 7 is_stmt 1 view .LVU226
 540              		.loc 1 355 10 is_stmt 0 view .LVU227
 541 01ee D1ED037A 		vldr.32	s15, [r1, #12]
 542              	.LVL117:
 356:DSP/Source/FilteringFunctions/arm_fir_decimate_f32.c **** 
 357:DSP/Source/FilteringFunctions/arm_fir_decimate_f32.c ****       /* Read x[n-numTaps-4] sample */
 358:DSP/Source/FilteringFunctions/arm_fir_decimate_f32.c ****       x0 = *(px++);
 543              		.loc 1 358 7 is_stmt 1 view .LVU228
 544              		.loc 1 358 10 is_stmt 0 view .LVU229
 545 01f2 D3ED036A 		vldr.32	s13, [r3, #12]
 546              	.LVL118:
 359:DSP/Source/FilteringFunctions/arm_fir_decimate_f32.c **** 
 360:DSP/Source/FilteringFunctions/arm_fir_decimate_f32.c ****       /* Perform the multiply-accumulate */
 361:DSP/Source/FilteringFunctions/arm_fir_decimate_f32.c ****       sum0 += x0 * c0;
 547              		.loc 1 361 7 is_stmt 1 view .LVU230
 548              		.loc 1 361 18 is_stmt 0 view .LVU231
 549 01f6 67EEA67A 		vmul.f32	s15, s15, s13
 550              	.LVL119:
 551              		.loc 1 361 12 view .LVU232
 552 01fa 77EE877A 		vadd.f32	s15, s15, s14
 553              	.LVL120:
 362:DSP/Source/FilteringFunctions/arm_fir_decimate_f32.c **** 
 363:DSP/Source/FilteringFunctions/arm_fir_decimate_f32.c ****       /* Decrement the loop counter */
 364:DSP/Source/FilteringFunctions/arm_fir_decimate_f32.c ****       tapCnt--;
 554              		.loc 1 364 7 is_stmt 1 view .LVU233
 555              		.loc 1 364 13 is_stmt 0 view .LVU234
 556 01fe 013D     		subs	r5, r5, #1
 557              	.LVL121:
 355:DSP/Source/FilteringFunctions/arm_fir_decimate_f32.c **** 
 558              		.loc 1 355 16 view .LVU235
 559 0200 1031     		adds	r1, r1, #16
ARM GAS  /var/folders/ck/g3dcd5x55xs4107jgdl0snvr0000gn/T//ccf8UflK.s 			page 18


 560              	.LVL122:
 358:DSP/Source/FilteringFunctions/arm_fir_decimate_f32.c **** 
 561              		.loc 1 358 16 view .LVU236
 562 0202 1033     		adds	r3, r3, #16
 563              	.LVL123:
 564              	.L11:
 325:DSP/Source/FilteringFunctions/arm_fir_decimate_f32.c ****     {
 565              		.loc 1 325 19 is_stmt 1 view .LVU237
 566 0204 002D     		cmp	r5, #0
 567 0206 DAD1     		bne	.L12
 365:DSP/Source/FilteringFunctions/arm_fir_decimate_f32.c ****     }
 366:DSP/Source/FilteringFunctions/arm_fir_decimate_f32.c **** 
 367:DSP/Source/FilteringFunctions/arm_fir_decimate_f32.c ****     /* If the filter length is not a multiple of 4, compute the remaining filter taps */
 368:DSP/Source/FilteringFunctions/arm_fir_decimate_f32.c ****     tapCnt = numTaps % 0x4U;
 568              		.loc 1 368 5 view .LVU238
 569              		.loc 1 368 12 is_stmt 0 view .LVU239
 570 0208 09F00305 		and	r5, r9, #3
 571              	.LVL124:
 369:DSP/Source/FilteringFunctions/arm_fir_decimate_f32.c **** 
 370:DSP/Source/FilteringFunctions/arm_fir_decimate_f32.c ****     while (tapCnt > 0U)
 572              		.loc 1 370 5 is_stmt 1 view .LVU240
 573              		.loc 1 370 11 is_stmt 0 view .LVU241
 574 020c 08E0     		b	.L13
 575              	.L14:
 371:DSP/Source/FilteringFunctions/arm_fir_decimate_f32.c ****     {
 372:DSP/Source/FilteringFunctions/arm_fir_decimate_f32.c ****       /* Read coefficients */
 373:DSP/Source/FilteringFunctions/arm_fir_decimate_f32.c ****       c0 = *(pb++);
 576              		.loc 1 373 7 is_stmt 1 view .LVU242
 577              	.LVL125:
 578              		.loc 1 373 10 is_stmt 0 view .LVU243
 579 020e B1EC017A 		vldmia.32	r1!, {s14}
 580              	.LVL126:
 374:DSP/Source/FilteringFunctions/arm_fir_decimate_f32.c **** 
 375:DSP/Source/FilteringFunctions/arm_fir_decimate_f32.c ****       /* Fetch 1 state variable */
 376:DSP/Source/FilteringFunctions/arm_fir_decimate_f32.c ****       x0 = *(px++);
 581              		.loc 1 376 7 is_stmt 1 view .LVU244
 582              		.loc 1 376 10 is_stmt 0 view .LVU245
 583 0212 F3EC016A 		vldmia.32	r3!, {s13}
 584              	.LVL127:
 377:DSP/Source/FilteringFunctions/arm_fir_decimate_f32.c **** 
 378:DSP/Source/FilteringFunctions/arm_fir_decimate_f32.c ****       /* Perform the multiply-accumulate */
 379:DSP/Source/FilteringFunctions/arm_fir_decimate_f32.c ****       sum0 += x0 * c0;
 585              		.loc 1 379 7 is_stmt 1 view .LVU246
 586              		.loc 1 379 18 is_stmt 0 view .LVU247
 587 0216 27EE267A 		vmul.f32	s14, s14, s13
 588              	.LVL128:
 589              		.loc 1 379 12 view .LVU248
 590 021a 77EE877A 		vadd.f32	s15, s15, s14
 591              	.LVL129:
 380:DSP/Source/FilteringFunctions/arm_fir_decimate_f32.c **** 
 381:DSP/Source/FilteringFunctions/arm_fir_decimate_f32.c ****       /* Decrement the loop counter */
 382:DSP/Source/FilteringFunctions/arm_fir_decimate_f32.c ****       tapCnt--;
 592              		.loc 1 382 7 is_stmt 1 view .LVU249
 593              		.loc 1 382 13 is_stmt 0 view .LVU250
 594 021e 013D     		subs	r5, r5, #1
 595              	.LVL130:
 596              	.L13:
ARM GAS  /var/folders/ck/g3dcd5x55xs4107jgdl0snvr0000gn/T//ccf8UflK.s 			page 19


 370:DSP/Source/FilteringFunctions/arm_fir_decimate_f32.c ****     {
 597              		.loc 1 370 19 is_stmt 1 view .LVU251
 598 0220 002D     		cmp	r5, #0
 599 0222 F4D1     		bne	.L14
 383:DSP/Source/FilteringFunctions/arm_fir_decimate_f32.c ****     }
 384:DSP/Source/FilteringFunctions/arm_fir_decimate_f32.c **** 
 385:DSP/Source/FilteringFunctions/arm_fir_decimate_f32.c ****     /* Advance the state pointer by the decimation factor
 386:DSP/Source/FilteringFunctions/arm_fir_decimate_f32.c ****      * to process the next group of decimation factor number samples */
 387:DSP/Source/FilteringFunctions/arm_fir_decimate_f32.c ****     pState = pState + S->M;
 600              		.loc 1 387 5 view .LVU252
 601              		.loc 1 387 24 is_stmt 0 view .LVU253
 602 0224 98F80030 		ldrb	r3, [r8]	@ zero_extendqisi2
 603              	.LVL131:
 604              		.loc 1 387 12 view .LVU254
 605 0228 06EB8306 		add	r6, r6, r3, lsl #2
 606              	.LVL132:
 388:DSP/Source/FilteringFunctions/arm_fir_decimate_f32.c **** 
 389:DSP/Source/FilteringFunctions/arm_fir_decimate_f32.c ****     /* The result is in the accumulator, store in the destination buffer. */
 390:DSP/Source/FilteringFunctions/arm_fir_decimate_f32.c ****     *pDst++ = sum0;
 607              		.loc 1 390 5 is_stmt 1 view .LVU255
 608              		.loc 1 390 13 is_stmt 0 view .LVU256
 609 022c E7EC017A 		vstmia.32	r7!, {s15}
 610              	.LVL133:
 391:DSP/Source/FilteringFunctions/arm_fir_decimate_f32.c **** 
 392:DSP/Source/FilteringFunctions/arm_fir_decimate_f32.c ****     /* Decrement the loop counter */
 393:DSP/Source/FilteringFunctions/arm_fir_decimate_f32.c ****     blkCntN4--;
 611              		.loc 1 393 5 is_stmt 1 view .LVU257
 612              		.loc 1 393 13 is_stmt 0 view .LVU258
 613 0230 013A     		subs	r2, r2, #1
 614              	.LVL134:
 615              	.L9:
 300:DSP/Source/FilteringFunctions/arm_fir_decimate_f32.c ****   {
 616              		.loc 1 300 19 is_stmt 1 view .LVU259
 617 0232 7AB1     		cbz	r2, .L22
 303:DSP/Source/FilteringFunctions/arm_fir_decimate_f32.c **** 
 618              		.loc 1 303 5 view .LVU260
 303:DSP/Source/FilteringFunctions/arm_fir_decimate_f32.c **** 
 619              		.loc 1 303 10 is_stmt 0 view .LVU261
 620 0234 98F80010 		ldrb	r1, [r8]	@ zero_extendqisi2
 621              	.LVL135:
 622              	.L10:
 305:DSP/Source/FilteringFunctions/arm_fir_decimate_f32.c ****     {
 623              		.loc 1 305 5 is_stmt 1 view .LVU262
 307:DSP/Source/FilteringFunctions/arm_fir_decimate_f32.c **** 
 624              		.loc 1 307 7 view .LVU263
 307:DSP/Source/FilteringFunctions/arm_fir_decimate_f32.c **** 
 625              		.loc 1 307 7 is_stmt 0 view .LVU264
 626 0238 0546     		mov	r5, r0
 307:DSP/Source/FilteringFunctions/arm_fir_decimate_f32.c **** 
 627              		.loc 1 307 19 view .LVU265
 628 023a 0430     		adds	r0, r0, #4
 629              	.LVL136:
 307:DSP/Source/FilteringFunctions/arm_fir_decimate_f32.c **** 
 630              		.loc 1 307 24 view .LVU266
 631 023c 2368     		ldr	r3, [r4]	@ float
 632 023e 0434     		adds	r4, r4, #4
 633              	.LVL137:
ARM GAS  /var/folders/ck/g3dcd5x55xs4107jgdl0snvr0000gn/T//ccf8UflK.s 			page 20


 307:DSP/Source/FilteringFunctions/arm_fir_decimate_f32.c **** 
 634              		.loc 1 307 22 view .LVU267
 635 0240 2B60     		str	r3, [r5]	@ float
 309:DSP/Source/FilteringFunctions/arm_fir_decimate_f32.c **** 
 636              		.loc 1 309 14 is_stmt 1 discriminator 1 view .LVU268
 637              	.LVL138:
 309:DSP/Source/FilteringFunctions/arm_fir_decimate_f32.c **** 
 638              		.loc 1 309 14 is_stmt 0 discriminator 1 view .LVU269
 639 0242 0139     		subs	r1, r1, #1
 640              	.LVL139:
 309:DSP/Source/FilteringFunctions/arm_fir_decimate_f32.c **** 
 641              		.loc 1 309 14 discriminator 1 view .LVU270
 642 0244 F8D1     		bne	.L10
 312:DSP/Source/FilteringFunctions/arm_fir_decimate_f32.c **** 
 643              		.loc 1 312 5 is_stmt 1 view .LVU271
 644              	.LVL140:
 315:DSP/Source/FilteringFunctions/arm_fir_decimate_f32.c **** 
 645              		.loc 1 315 5 view .LVU272
 318:DSP/Source/FilteringFunctions/arm_fir_decimate_f32.c **** 
 646              		.loc 1 318 5 view .LVU273
 321:DSP/Source/FilteringFunctions/arm_fir_decimate_f32.c **** 
 647              		.loc 1 321 5 view .LVU274
 321:DSP/Source/FilteringFunctions/arm_fir_decimate_f32.c **** 
 648              		.loc 1 321 12 is_stmt 0 view .LVU275
 649 0246 4FEA9905 		lsr	r5, r9, #2
 650              	.LVL141:
 325:DSP/Source/FilteringFunctions/arm_fir_decimate_f32.c ****     {
 651              		.loc 1 325 5 is_stmt 1 view .LVU276
 318:DSP/Source/FilteringFunctions/arm_fir_decimate_f32.c **** 
 652              		.loc 1 318 8 is_stmt 0 view .LVU277
 653 024a 0099     		ldr	r1, [sp]
 654              	.LVL142:
 315:DSP/Source/FilteringFunctions/arm_fir_decimate_f32.c **** 
 655              		.loc 1 315 8 view .LVU278
 656 024c 3346     		mov	r3, r6
 312:DSP/Source/FilteringFunctions/arm_fir_decimate_f32.c **** 
 657              		.loc 1 312 10 view .LVU279
 658 024e DFED117A 		vldr.32	s15, .L23
 325:DSP/Source/FilteringFunctions/arm_fir_decimate_f32.c ****     {
 659              		.loc 1 325 11 view .LVU280
 660 0252 D7E7     		b	.L11
 661              	.LVL143:
 662              	.L22:
 394:DSP/Source/FilteringFunctions/arm_fir_decimate_f32.c ****   }
 395:DSP/Source/FilteringFunctions/arm_fir_decimate_f32.c **** 
 396:DSP/Source/FilteringFunctions/arm_fir_decimate_f32.c ****   /* Processing is complete.
 397:DSP/Source/FilteringFunctions/arm_fir_decimate_f32.c ****    ** Now copy the last numTaps - 1 samples to the satrt of the state buffer.
 398:DSP/Source/FilteringFunctions/arm_fir_decimate_f32.c ****    ** This prepares the state buffer for the next function call. */
 399:DSP/Source/FilteringFunctions/arm_fir_decimate_f32.c **** 
 400:DSP/Source/FilteringFunctions/arm_fir_decimate_f32.c ****   /* Points to the start of the state buffer */
 401:DSP/Source/FilteringFunctions/arm_fir_decimate_f32.c ****   pStateCurnt = S->pState;
 663              		.loc 1 401 3 is_stmt 1 view .LVU281
 664              		.loc 1 401 15 is_stmt 0 view .LVU282
 665 0254 D8F80830 		ldr	r3, [r8, #8]
 666              	.LVL144:
 402:DSP/Source/FilteringFunctions/arm_fir_decimate_f32.c **** 
 403:DSP/Source/FilteringFunctions/arm_fir_decimate_f32.c ****   i = (numTaps - 1U) >> 2;
ARM GAS  /var/folders/ck/g3dcd5x55xs4107jgdl0snvr0000gn/T//ccf8UflK.s 			page 21


 667              		.loc 1 403 3 is_stmt 1 view .LVU283
 668              		.loc 1 403 16 is_stmt 0 view .LVU284
 669 0258 09F1FF32 		add	r2, r9, #-1
 670              	.LVL145:
 671              		.loc 1 403 5 view .LVU285
 672 025c 9108     		lsrs	r1, r2, #2
 673              	.LVL146:
 404:DSP/Source/FilteringFunctions/arm_fir_decimate_f32.c **** 
 405:DSP/Source/FilteringFunctions/arm_fir_decimate_f32.c ****   /* copy data */
 406:DSP/Source/FilteringFunctions/arm_fir_decimate_f32.c ****   while (i > 0U)
 674              		.loc 1 406 3 is_stmt 1 view .LVU286
 675              		.loc 1 406 9 is_stmt 0 view .LVU287
 676 025e 0AE0     		b	.L16
 677              	.L17:
 407:DSP/Source/FilteringFunctions/arm_fir_decimate_f32.c ****   {
 408:DSP/Source/FilteringFunctions/arm_fir_decimate_f32.c ****     *pStateCurnt++ = *pState++;
 678              		.loc 1 408 5 is_stmt 1 view .LVU288
 679              	.LVL147:
 680              		.loc 1 408 22 is_stmt 0 view .LVU289
 681 0260 3068     		ldr	r0, [r6]	@ float
 682              		.loc 1 408 20 view .LVU290
 683 0262 1860     		str	r0, [r3]	@ float
 409:DSP/Source/FilteringFunctions/arm_fir_decimate_f32.c ****     *pStateCurnt++ = *pState++;
 684              		.loc 1 409 5 is_stmt 1 view .LVU291
 685              	.LVL148:
 686              		.loc 1 409 22 is_stmt 0 view .LVU292
 687 0264 7068     		ldr	r0, [r6, #4]	@ float
 688              		.loc 1 409 20 view .LVU293
 689 0266 5860     		str	r0, [r3, #4]	@ float
 410:DSP/Source/FilteringFunctions/arm_fir_decimate_f32.c ****     *pStateCurnt++ = *pState++;
 690              		.loc 1 410 5 is_stmt 1 view .LVU294
 691              	.LVL149:
 692              		.loc 1 410 22 is_stmt 0 view .LVU295
 693 0268 B068     		ldr	r0, [r6, #8]	@ float
 694              		.loc 1 410 20 view .LVU296
 695 026a 9860     		str	r0, [r3, #8]	@ float
 411:DSP/Source/FilteringFunctions/arm_fir_decimate_f32.c ****     *pStateCurnt++ = *pState++;
 696              		.loc 1 411 5 is_stmt 1 view .LVU297
 697              	.LVL150:
 698              		.loc 1 411 22 is_stmt 0 view .LVU298
 699 026c F068     		ldr	r0, [r6, #12]	@ float
 700              		.loc 1 411 20 view .LVU299
 701 026e D860     		str	r0, [r3, #12]	@ float
 412:DSP/Source/FilteringFunctions/arm_fir_decimate_f32.c **** 
 413:DSP/Source/FilteringFunctions/arm_fir_decimate_f32.c ****     /* Decrement the loop counter */
 414:DSP/Source/FilteringFunctions/arm_fir_decimate_f32.c ****     i--;
 702              		.loc 1 414 5 is_stmt 1 view .LVU300
 703              		.loc 1 414 6 is_stmt 0 view .LVU301
 704 0270 0139     		subs	r1, r1, #1
 705              	.LVL151:
 411:DSP/Source/FilteringFunctions/arm_fir_decimate_f32.c ****     *pStateCurnt++ = *pState++;
 706              		.loc 1 411 17 view .LVU302
 707 0272 1033     		adds	r3, r3, #16
 708              	.LVL152:
 411:DSP/Source/FilteringFunctions/arm_fir_decimate_f32.c ****     *pStateCurnt++ = *pState++;
 709              		.loc 1 411 29 view .LVU303
 710 0274 1036     		adds	r6, r6, #16
ARM GAS  /var/folders/ck/g3dcd5x55xs4107jgdl0snvr0000gn/T//ccf8UflK.s 			page 22


 711              	.LVL153:
 712              	.L16:
 406:DSP/Source/FilteringFunctions/arm_fir_decimate_f32.c ****   {
 713              		.loc 1 406 12 is_stmt 1 view .LVU304
 714 0276 0029     		cmp	r1, #0
 715 0278 F2D1     		bne	.L17
 415:DSP/Source/FilteringFunctions/arm_fir_decimate_f32.c ****   }
 416:DSP/Source/FilteringFunctions/arm_fir_decimate_f32.c **** 
 417:DSP/Source/FilteringFunctions/arm_fir_decimate_f32.c ****   i = (numTaps - 1U) % 0x04U;
 716              		.loc 1 417 3 view .LVU305
 717              		.loc 1 417 5 is_stmt 0 view .LVU306
 718 027a 02F00302 		and	r2, r2, #3
 719              	.LVL154:
 418:DSP/Source/FilteringFunctions/arm_fir_decimate_f32.c **** 
 419:DSP/Source/FilteringFunctions/arm_fir_decimate_f32.c ****   /* copy data */
 420:DSP/Source/FilteringFunctions/arm_fir_decimate_f32.c ****   while (i > 0U)
 720              		.loc 1 420 3 is_stmt 1 view .LVU307
 721              		.loc 1 420 9 is_stmt 0 view .LVU308
 722 027e 04E0     		b	.L18
 723              	.L19:
 421:DSP/Source/FilteringFunctions/arm_fir_decimate_f32.c ****   {
 422:DSP/Source/FilteringFunctions/arm_fir_decimate_f32.c ****     *pStateCurnt++ = *pState++;
 724              		.loc 1 422 5 is_stmt 1 view .LVU309
 725              	.LVL155:
 726              		.loc 1 422 22 is_stmt 0 view .LVU310
 727 0280 56F8041B 		ldr	r1, [r6], #4	@ float
 728              	.LVL156:
 729              		.loc 1 422 20 view .LVU311
 730 0284 43F8041B 		str	r1, [r3], #4	@ float
 731              	.LVL157:
 423:DSP/Source/FilteringFunctions/arm_fir_decimate_f32.c **** 
 424:DSP/Source/FilteringFunctions/arm_fir_decimate_f32.c ****     /* Decrement the loop counter */
 425:DSP/Source/FilteringFunctions/arm_fir_decimate_f32.c ****     i--;
 732              		.loc 1 425 5 is_stmt 1 view .LVU312
 733              		.loc 1 425 6 is_stmt 0 view .LVU313
 734 0288 013A     		subs	r2, r2, #1
 735              	.LVL158:
 736              	.L18:
 420:DSP/Source/FilteringFunctions/arm_fir_decimate_f32.c ****   {
 737              		.loc 1 420 12 is_stmt 1 view .LVU314
 738 028a 002A     		cmp	r2, #0
 739 028c F8D1     		bne	.L19
 426:DSP/Source/FilteringFunctions/arm_fir_decimate_f32.c ****   }
 427:DSP/Source/FilteringFunctions/arm_fir_decimate_f32.c **** 
 428:DSP/Source/FilteringFunctions/arm_fir_decimate_f32.c **** #else
 429:DSP/Source/FilteringFunctions/arm_fir_decimate_f32.c **** 
 430:DSP/Source/FilteringFunctions/arm_fir_decimate_f32.c **** /* Run the below code for Cortex-M0 */
 431:DSP/Source/FilteringFunctions/arm_fir_decimate_f32.c **** 
 432:DSP/Source/FilteringFunctions/arm_fir_decimate_f32.c ****   /* S->pState buffer contains previous frame (numTaps - 1) samples */
 433:DSP/Source/FilteringFunctions/arm_fir_decimate_f32.c ****   /* pStateCurnt points to the location where the new input data should be written */
 434:DSP/Source/FilteringFunctions/arm_fir_decimate_f32.c ****   pStateCurnt = S->pState + (numTaps - 1U);
 435:DSP/Source/FilteringFunctions/arm_fir_decimate_f32.c **** 
 436:DSP/Source/FilteringFunctions/arm_fir_decimate_f32.c ****   /* Total number of output samples to be computed */
 437:DSP/Source/FilteringFunctions/arm_fir_decimate_f32.c ****   blkCnt = outBlockSize;
 438:DSP/Source/FilteringFunctions/arm_fir_decimate_f32.c **** 
 439:DSP/Source/FilteringFunctions/arm_fir_decimate_f32.c ****   while (blkCnt > 0U)
 440:DSP/Source/FilteringFunctions/arm_fir_decimate_f32.c ****   {
ARM GAS  /var/folders/ck/g3dcd5x55xs4107jgdl0snvr0000gn/T//ccf8UflK.s 			page 23


 441:DSP/Source/FilteringFunctions/arm_fir_decimate_f32.c ****     /* Copy decimation factor number of new input samples into the state buffer */
 442:DSP/Source/FilteringFunctions/arm_fir_decimate_f32.c ****     i = S->M;
 443:DSP/Source/FilteringFunctions/arm_fir_decimate_f32.c **** 
 444:DSP/Source/FilteringFunctions/arm_fir_decimate_f32.c ****     do
 445:DSP/Source/FilteringFunctions/arm_fir_decimate_f32.c ****     {
 446:DSP/Source/FilteringFunctions/arm_fir_decimate_f32.c ****       *pStateCurnt++ = *pSrc++;
 447:DSP/Source/FilteringFunctions/arm_fir_decimate_f32.c **** 
 448:DSP/Source/FilteringFunctions/arm_fir_decimate_f32.c ****     } while (--i);
 449:DSP/Source/FilteringFunctions/arm_fir_decimate_f32.c **** 
 450:DSP/Source/FilteringFunctions/arm_fir_decimate_f32.c ****     /* Set accumulator to zero */
 451:DSP/Source/FilteringFunctions/arm_fir_decimate_f32.c ****     sum0 = 0.0f;
 452:DSP/Source/FilteringFunctions/arm_fir_decimate_f32.c **** 
 453:DSP/Source/FilteringFunctions/arm_fir_decimate_f32.c ****     /* Initialize state pointer */
 454:DSP/Source/FilteringFunctions/arm_fir_decimate_f32.c ****     px = pState;
 455:DSP/Source/FilteringFunctions/arm_fir_decimate_f32.c **** 
 456:DSP/Source/FilteringFunctions/arm_fir_decimate_f32.c ****     /* Initialize coeff pointer */
 457:DSP/Source/FilteringFunctions/arm_fir_decimate_f32.c ****     pb = pCoeffs;
 458:DSP/Source/FilteringFunctions/arm_fir_decimate_f32.c **** 
 459:DSP/Source/FilteringFunctions/arm_fir_decimate_f32.c ****     tapCnt = numTaps;
 460:DSP/Source/FilteringFunctions/arm_fir_decimate_f32.c **** 
 461:DSP/Source/FilteringFunctions/arm_fir_decimate_f32.c ****     while (tapCnt > 0U)
 462:DSP/Source/FilteringFunctions/arm_fir_decimate_f32.c ****     {
 463:DSP/Source/FilteringFunctions/arm_fir_decimate_f32.c ****       /* Read coefficients */
 464:DSP/Source/FilteringFunctions/arm_fir_decimate_f32.c ****       c0 = *pb++;
 465:DSP/Source/FilteringFunctions/arm_fir_decimate_f32.c **** 
 466:DSP/Source/FilteringFunctions/arm_fir_decimate_f32.c ****       /* Fetch 1 state variable */
 467:DSP/Source/FilteringFunctions/arm_fir_decimate_f32.c ****       x0 = *px++;
 468:DSP/Source/FilteringFunctions/arm_fir_decimate_f32.c **** 
 469:DSP/Source/FilteringFunctions/arm_fir_decimate_f32.c ****       /* Perform the multiply-accumulate */
 470:DSP/Source/FilteringFunctions/arm_fir_decimate_f32.c ****       sum0 += x0 * c0;
 471:DSP/Source/FilteringFunctions/arm_fir_decimate_f32.c **** 
 472:DSP/Source/FilteringFunctions/arm_fir_decimate_f32.c ****       /* Decrement the loop counter */
 473:DSP/Source/FilteringFunctions/arm_fir_decimate_f32.c ****       tapCnt--;
 474:DSP/Source/FilteringFunctions/arm_fir_decimate_f32.c ****     }
 475:DSP/Source/FilteringFunctions/arm_fir_decimate_f32.c **** 
 476:DSP/Source/FilteringFunctions/arm_fir_decimate_f32.c ****     /* Advance the state pointer by the decimation factor
 477:DSP/Source/FilteringFunctions/arm_fir_decimate_f32.c ****      * to process the next group of decimation factor number samples */
 478:DSP/Source/FilteringFunctions/arm_fir_decimate_f32.c ****     pState = pState + S->M;
 479:DSP/Source/FilteringFunctions/arm_fir_decimate_f32.c **** 
 480:DSP/Source/FilteringFunctions/arm_fir_decimate_f32.c ****     /* The result is in the accumulator, store in the destination buffer. */
 481:DSP/Source/FilteringFunctions/arm_fir_decimate_f32.c ****     *pDst++ = sum0;
 482:DSP/Source/FilteringFunctions/arm_fir_decimate_f32.c **** 
 483:DSP/Source/FilteringFunctions/arm_fir_decimate_f32.c ****     /* Decrement the loop counter */
 484:DSP/Source/FilteringFunctions/arm_fir_decimate_f32.c ****     blkCnt--;
 485:DSP/Source/FilteringFunctions/arm_fir_decimate_f32.c ****   }
 486:DSP/Source/FilteringFunctions/arm_fir_decimate_f32.c **** 
 487:DSP/Source/FilteringFunctions/arm_fir_decimate_f32.c ****   /* Processing is complete.
 488:DSP/Source/FilteringFunctions/arm_fir_decimate_f32.c ****    ** Now copy the last numTaps - 1 samples to the start of the state buffer.
 489:DSP/Source/FilteringFunctions/arm_fir_decimate_f32.c ****    ** This prepares the state buffer for the next function call. */
 490:DSP/Source/FilteringFunctions/arm_fir_decimate_f32.c **** 
 491:DSP/Source/FilteringFunctions/arm_fir_decimate_f32.c ****   /* Points to the start of the state buffer */
 492:DSP/Source/FilteringFunctions/arm_fir_decimate_f32.c ****   pStateCurnt = S->pState;
 493:DSP/Source/FilteringFunctions/arm_fir_decimate_f32.c **** 
 494:DSP/Source/FilteringFunctions/arm_fir_decimate_f32.c ****   /* Copy numTaps number of values */
 495:DSP/Source/FilteringFunctions/arm_fir_decimate_f32.c ****   i = (numTaps - 1U);
 496:DSP/Source/FilteringFunctions/arm_fir_decimate_f32.c **** 
 497:DSP/Source/FilteringFunctions/arm_fir_decimate_f32.c ****   /* copy data */
ARM GAS  /var/folders/ck/g3dcd5x55xs4107jgdl0snvr0000gn/T//ccf8UflK.s 			page 24


 498:DSP/Source/FilteringFunctions/arm_fir_decimate_f32.c ****   while (i > 0U)
 499:DSP/Source/FilteringFunctions/arm_fir_decimate_f32.c ****   {
 500:DSP/Source/FilteringFunctions/arm_fir_decimate_f32.c ****     *pStateCurnt++ = *pState++;
 501:DSP/Source/FilteringFunctions/arm_fir_decimate_f32.c **** 
 502:DSP/Source/FilteringFunctions/arm_fir_decimate_f32.c ****     /* Decrement the loop counter */
 503:DSP/Source/FilteringFunctions/arm_fir_decimate_f32.c ****     i--;
 504:DSP/Source/FilteringFunctions/arm_fir_decimate_f32.c ****   }
 505:DSP/Source/FilteringFunctions/arm_fir_decimate_f32.c **** 
 506:DSP/Source/FilteringFunctions/arm_fir_decimate_f32.c **** #endif /*   #if defined (ARM_MATH_DSP)        */
 507:DSP/Source/FilteringFunctions/arm_fir_decimate_f32.c **** 
 508:DSP/Source/FilteringFunctions/arm_fir_decimate_f32.c **** }
 740              		.loc 1 508 1 is_stmt 0 view .LVU315
 741 028e 03B0     		add	sp, sp, #12
 742              	.LCFI2:
 743              		.cfi_def_cfa_offset 36
 744              	.LVL159:
 745              		.loc 1 508 1 view .LVU316
 746              		@ sp needed
 747 0290 BDE8F08F 		pop	{r4, r5, r6, r7, r8, r9, r10, fp, pc}
 748              	.LVL160:
 749              	.L24:
 750              		.loc 1 508 1 view .LVU317
 751              		.align	2
 752              	.L23:
 753 0294 00000000 		.word	0
 754              		.cfi_endproc
 755              	.LFE139:
 757              		.text
 758              	.Letext0:
 759              		.file 2 "/Users/luban/.local/xPacks/arm-none-eabi-gcc/xpack-arm-none-eabi-gcc-13.2.1-1.1/arm-none-
 760              		.file 3 "/Users/luban/.local/xPacks/arm-none-eabi-gcc/xpack-arm-none-eabi-gcc-13.2.1-1.1/arm-none-
 761              		.file 4 "DSP/Inc/arm_math.h"
ARM GAS  /var/folders/ck/g3dcd5x55xs4107jgdl0snvr0000gn/T//ccf8UflK.s 			page 25

