ARM GAS  /var/folders/ck/g3dcd5x55xs4107jgdl0snvr0000gn/T//ccQ2slvo.s 			page 1


   1              		.cpu cortex-m4
   2              		.arch armv7e-m
   3              		.fpu fpv4-sp-d16
   4              		.eabi_attribute 27, 1
   5              		.eabi_attribute 28, 1
   6              		.eabi_attribute 20, 1
   7              		.eabi_attribute 21, 1
   8              		.eabi_attribute 23, 3
   9              		.eabi_attribute 24, 1
  10              		.eabi_attribute 25, 1
  11              		.eabi_attribute 26, 1
  12              		.eabi_attribute 30, 1
  13              		.eabi_attribute 34, 1
  14              		.eabi_attribute 18, 4
  15              		.file	"arm_copy_q7.c"
  16              		.text
  17              	.Ltext0:
  18              		.cfi_sections	.debug_frame
  19              		.file 1 "DSP/Source/SupportFunctions/arm_copy_q7.c"
  20              		.section	.text.arm_copy_q7,"ax",%progbits
  21              		.align	1
  22              		.global	arm_copy_q7
  23              		.syntax unified
  24              		.thumb
  25              		.thumb_func
  27              	arm_copy_q7:
  28              	.LVL0:
  29              	.LFB139:
   1:DSP/Source/SupportFunctions/arm_copy_q7.c **** /* ----------------------------------------------------------------------
   2:DSP/Source/SupportFunctions/arm_copy_q7.c ****  * Project:      CMSIS DSP Library
   3:DSP/Source/SupportFunctions/arm_copy_q7.c ****  * Title:        arm_copy_q7.c
   4:DSP/Source/SupportFunctions/arm_copy_q7.c ****  * Description:  Copies the elements of a Q7 vector
   5:DSP/Source/SupportFunctions/arm_copy_q7.c ****  *
   6:DSP/Source/SupportFunctions/arm_copy_q7.c ****  * $Date:        27. January 2017
   7:DSP/Source/SupportFunctions/arm_copy_q7.c ****  * $Revision:    V.1.5.1
   8:DSP/Source/SupportFunctions/arm_copy_q7.c ****  *
   9:DSP/Source/SupportFunctions/arm_copy_q7.c ****  * Target Processor: Cortex-M cores
  10:DSP/Source/SupportFunctions/arm_copy_q7.c ****  * -------------------------------------------------------------------- */
  11:DSP/Source/SupportFunctions/arm_copy_q7.c **** /*
  12:DSP/Source/SupportFunctions/arm_copy_q7.c ****  * Copyright (C) 2010-2017 ARM Limited or its affiliates. All rights reserved.
  13:DSP/Source/SupportFunctions/arm_copy_q7.c ****  *
  14:DSP/Source/SupportFunctions/arm_copy_q7.c ****  * SPDX-License-Identifier: Apache-2.0
  15:DSP/Source/SupportFunctions/arm_copy_q7.c ****  *
  16:DSP/Source/SupportFunctions/arm_copy_q7.c ****  * Licensed under the Apache License, Version 2.0 (the License); you may
  17:DSP/Source/SupportFunctions/arm_copy_q7.c ****  * not use this file except in compliance with the License.
  18:DSP/Source/SupportFunctions/arm_copy_q7.c ****  * You may obtain a copy of the License at
  19:DSP/Source/SupportFunctions/arm_copy_q7.c ****  *
  20:DSP/Source/SupportFunctions/arm_copy_q7.c ****  * www.apache.org/licenses/LICENSE-2.0
  21:DSP/Source/SupportFunctions/arm_copy_q7.c ****  *
  22:DSP/Source/SupportFunctions/arm_copy_q7.c ****  * Unless required by applicable law or agreed to in writing, software
  23:DSP/Source/SupportFunctions/arm_copy_q7.c ****  * distributed under the License is distributed on an AS IS BASIS, WITHOUT
  24:DSP/Source/SupportFunctions/arm_copy_q7.c ****  * WARRANTIES OR CONDITIONS OF ANY KIND, either express or implied.
  25:DSP/Source/SupportFunctions/arm_copy_q7.c ****  * See the License for the specific language governing permissions and
  26:DSP/Source/SupportFunctions/arm_copy_q7.c ****  * limitations under the License.
  27:DSP/Source/SupportFunctions/arm_copy_q7.c ****  */
  28:DSP/Source/SupportFunctions/arm_copy_q7.c **** 
  29:DSP/Source/SupportFunctions/arm_copy_q7.c **** #include "arm_math.h"
ARM GAS  /var/folders/ck/g3dcd5x55xs4107jgdl0snvr0000gn/T//ccQ2slvo.s 			page 2


  30:DSP/Source/SupportFunctions/arm_copy_q7.c **** 
  31:DSP/Source/SupportFunctions/arm_copy_q7.c **** /**
  32:DSP/Source/SupportFunctions/arm_copy_q7.c ****  * @ingroup groupSupport
  33:DSP/Source/SupportFunctions/arm_copy_q7.c ****  */
  34:DSP/Source/SupportFunctions/arm_copy_q7.c **** 
  35:DSP/Source/SupportFunctions/arm_copy_q7.c **** /**
  36:DSP/Source/SupportFunctions/arm_copy_q7.c ****  * @addtogroup copy
  37:DSP/Source/SupportFunctions/arm_copy_q7.c ****  * @{
  38:DSP/Source/SupportFunctions/arm_copy_q7.c ****  */
  39:DSP/Source/SupportFunctions/arm_copy_q7.c **** 
  40:DSP/Source/SupportFunctions/arm_copy_q7.c **** /**
  41:DSP/Source/SupportFunctions/arm_copy_q7.c ****  * @brief Copies the elements of a Q7 vector.
  42:DSP/Source/SupportFunctions/arm_copy_q7.c ****  * @param[in]       *pSrc points to input vector
  43:DSP/Source/SupportFunctions/arm_copy_q7.c ****  * @param[out]      *pDst points to output vector
  44:DSP/Source/SupportFunctions/arm_copy_q7.c ****  * @param[in]       blockSize length of the input vector
  45:DSP/Source/SupportFunctions/arm_copy_q7.c ****  * @return none.
  46:DSP/Source/SupportFunctions/arm_copy_q7.c ****  *
  47:DSP/Source/SupportFunctions/arm_copy_q7.c ****  */
  48:DSP/Source/SupportFunctions/arm_copy_q7.c **** 
  49:DSP/Source/SupportFunctions/arm_copy_q7.c **** void arm_copy_q7(
  50:DSP/Source/SupportFunctions/arm_copy_q7.c ****   q7_t * pSrc,
  51:DSP/Source/SupportFunctions/arm_copy_q7.c ****   q7_t * pDst,
  52:DSP/Source/SupportFunctions/arm_copy_q7.c ****   uint32_t blockSize)
  53:DSP/Source/SupportFunctions/arm_copy_q7.c **** {
  30              		.loc 1 53 1 view -0
  31              		.cfi_startproc
  32              		@ args = 0, pretend = 0, frame = 0
  33              		@ frame_needed = 0, uses_anonymous_args = 0
  34              		@ link register save eliminated.
  54:DSP/Source/SupportFunctions/arm_copy_q7.c ****   uint32_t blkCnt;                               /* loop counter */
  35              		.loc 1 54 3 view .LVU1
  55:DSP/Source/SupportFunctions/arm_copy_q7.c **** 
  56:DSP/Source/SupportFunctions/arm_copy_q7.c **** #if defined (ARM_MATH_DSP)
  57:DSP/Source/SupportFunctions/arm_copy_q7.c **** 
  58:DSP/Source/SupportFunctions/arm_copy_q7.c ****   /* Run the below code for Cortex-M4 and Cortex-M3 */
  59:DSP/Source/SupportFunctions/arm_copy_q7.c **** 
  60:DSP/Source/SupportFunctions/arm_copy_q7.c ****   /*loop Unrolling */
  61:DSP/Source/SupportFunctions/arm_copy_q7.c ****   blkCnt = blockSize >> 2U;
  36              		.loc 1 61 3 view .LVU2
  37              		.loc 1 61 10 is_stmt 0 view .LVU3
  38 0000 9308     		lsrs	r3, r2, #2
  39              	.LVL1:
  62:DSP/Source/SupportFunctions/arm_copy_q7.c **** 
  63:DSP/Source/SupportFunctions/arm_copy_q7.c ****   /* First part of the processing with loop unrolling.  Compute 4 outputs at a time.
  64:DSP/Source/SupportFunctions/arm_copy_q7.c ****    ** a second loop below computes the remaining 1 to 3 samples. */
  65:DSP/Source/SupportFunctions/arm_copy_q7.c ****   while (blkCnt > 0U)
  40              		.loc 1 65 3 is_stmt 1 view .LVU4
  41              		.loc 1 65 17 view .LVU5
  42 0002 A3B1     		cbz	r3, .L12
  53:DSP/Source/SupportFunctions/arm_copy_q7.c ****   uint32_t blkCnt;                               /* loop counter */
  43              		.loc 1 53 1 is_stmt 0 view .LVU6
  44 0004 10B4     		push	{r4}
  45              	.LCFI0:
  46              		.cfi_def_cfa_offset 4
  47              		.cfi_offset 4, -4
  48              	.L3:
  66:DSP/Source/SupportFunctions/arm_copy_q7.c ****   {
ARM GAS  /var/folders/ck/g3dcd5x55xs4107jgdl0snvr0000gn/T//ccQ2slvo.s 			page 3


  67:DSP/Source/SupportFunctions/arm_copy_q7.c ****     /* C = A */
  68:DSP/Source/SupportFunctions/arm_copy_q7.c ****     /* Copy and then store the results in the destination buffer */
  69:DSP/Source/SupportFunctions/arm_copy_q7.c ****     /* 4 samples are copied and stored at a time using SIMD */
  70:DSP/Source/SupportFunctions/arm_copy_q7.c ****     *__SIMD32(pDst)++ = *__SIMD32(pSrc)++;
  49              		.loc 1 70 5 is_stmt 1 view .LVU7
  50              	.LVL2:
  51              		.loc 1 70 25 is_stmt 0 view .LVU8
  52 0006 50F8044B 		ldr	r4, [r0], #4
  53              	.LVL3:
  54              		.loc 1 70 23 view .LVU9
  55 000a 41F8044B 		str	r4, [r1], #4
  56              	.LVL4:
  71:DSP/Source/SupportFunctions/arm_copy_q7.c **** 
  72:DSP/Source/SupportFunctions/arm_copy_q7.c ****     /* Decrement the loop counter */
  73:DSP/Source/SupportFunctions/arm_copy_q7.c ****     blkCnt--;
  57              		.loc 1 73 5 is_stmt 1 view .LVU10
  58              		.loc 1 73 11 is_stmt 0 view .LVU11
  59 000e 013B     		subs	r3, r3, #1
  60              	.LVL5:
  65:DSP/Source/SupportFunctions/arm_copy_q7.c ****   {
  61              		.loc 1 65 17 is_stmt 1 view .LVU12
  62 0010 002B     		cmp	r3, #0
  63 0012 F8D1     		bne	.L3
  74:DSP/Source/SupportFunctions/arm_copy_q7.c ****   }
  75:DSP/Source/SupportFunctions/arm_copy_q7.c **** 
  76:DSP/Source/SupportFunctions/arm_copy_q7.c ****   /* If the blockSize is not a multiple of 4, compute any remaining output samples here.
  77:DSP/Source/SupportFunctions/arm_copy_q7.c ****    ** No loop unrolling is used. */
  78:DSP/Source/SupportFunctions/arm_copy_q7.c ****   blkCnt = blockSize % 0x4U;
  64              		.loc 1 78 3 view .LVU13
  65              		.loc 1 78 10 is_stmt 0 view .LVU14
  66 0014 02F00302 		and	r2, r2, #3
  67              	.LVL6:
  79:DSP/Source/SupportFunctions/arm_copy_q7.c **** 
  80:DSP/Source/SupportFunctions/arm_copy_q7.c **** #else
  81:DSP/Source/SupportFunctions/arm_copy_q7.c **** 
  82:DSP/Source/SupportFunctions/arm_copy_q7.c ****   /* Run the below code for Cortex-M0 */
  83:DSP/Source/SupportFunctions/arm_copy_q7.c **** 
  84:DSP/Source/SupportFunctions/arm_copy_q7.c ****   /* Loop over blockSize number of values */
  85:DSP/Source/SupportFunctions/arm_copy_q7.c ****   blkCnt = blockSize;
  86:DSP/Source/SupportFunctions/arm_copy_q7.c **** 
  87:DSP/Source/SupportFunctions/arm_copy_q7.c **** #endif /* #if defined (ARM_MATH_DSP) */
  88:DSP/Source/SupportFunctions/arm_copy_q7.c **** 
  89:DSP/Source/SupportFunctions/arm_copy_q7.c **** 
  90:DSP/Source/SupportFunctions/arm_copy_q7.c ****   while (blkCnt > 0U)
  68              		.loc 1 90 3 is_stmt 1 view .LVU15
  69              		.loc 1 90 9 is_stmt 0 view .LVU16
  70 0018 04E0     		b	.L4
  71              	.L5:
  91:DSP/Source/SupportFunctions/arm_copy_q7.c ****   {
  92:DSP/Source/SupportFunctions/arm_copy_q7.c ****     /* C = A */
  93:DSP/Source/SupportFunctions/arm_copy_q7.c ****     /* Copy and then store the results in the destination buffer */
  94:DSP/Source/SupportFunctions/arm_copy_q7.c ****     *pDst++ = *pSrc++;
  72              		.loc 1 94 5 is_stmt 1 view .LVU17
  73              	.LVL7:
  74              		.loc 1 94 15 is_stmt 0 view .LVU18
  75 001a 10F9013B 		ldrsb	r3, [r0], #1
  76              	.LVL8:
ARM GAS  /var/folders/ck/g3dcd5x55xs4107jgdl0snvr0000gn/T//ccQ2slvo.s 			page 4


  77              		.loc 1 94 13 view .LVU19
  78 001e 01F8013B 		strb	r3, [r1], #1
  79              	.LVL9:
  95:DSP/Source/SupportFunctions/arm_copy_q7.c **** 
  96:DSP/Source/SupportFunctions/arm_copy_q7.c ****     /* Decrement the loop counter */
  97:DSP/Source/SupportFunctions/arm_copy_q7.c ****     blkCnt--;
  80              		.loc 1 97 5 is_stmt 1 view .LVU20
  81              		.loc 1 97 11 is_stmt 0 view .LVU21
  82 0022 013A     		subs	r2, r2, #1
  83              	.LVL10:
  84              	.L4:
  90:DSP/Source/SupportFunctions/arm_copy_q7.c ****   {
  85              		.loc 1 90 17 is_stmt 1 view .LVU22
  86 0024 002A     		cmp	r2, #0
  87 0026 F8D1     		bne	.L5
  98:DSP/Source/SupportFunctions/arm_copy_q7.c ****   }
  99:DSP/Source/SupportFunctions/arm_copy_q7.c **** }
  88              		.loc 1 99 1 is_stmt 0 view .LVU23
  89 0028 5DF8044B 		ldr	r4, [sp], #4
  90              	.LCFI1:
  91              		.cfi_restore 4
  92              		.cfi_def_cfa_offset 0
  93 002c 7047     		bx	lr
  94              	.LVL11:
  95              	.L12:
  78:DSP/Source/SupportFunctions/arm_copy_q7.c **** 
  96              		.loc 1 78 3 is_stmt 1 view .LVU24
  78:DSP/Source/SupportFunctions/arm_copy_q7.c **** 
  97              		.loc 1 78 10 is_stmt 0 view .LVU25
  98 002e 02F00302 		and	r2, r2, #3
  99              	.LVL12:
  90:DSP/Source/SupportFunctions/arm_copy_q7.c ****   {
 100              		.loc 1 90 3 is_stmt 1 view .LVU26
 101 0032 04E0     		b	.L9
 102              	.L10:
  94:DSP/Source/SupportFunctions/arm_copy_q7.c **** 
 103              		.loc 1 94 5 view .LVU27
 104              	.LVL13:
  94:DSP/Source/SupportFunctions/arm_copy_q7.c **** 
 105              		.loc 1 94 15 is_stmt 0 view .LVU28
 106 0034 10F9013B 		ldrsb	r3, [r0], #1
 107              	.LVL14:
  94:DSP/Source/SupportFunctions/arm_copy_q7.c **** 
 108              		.loc 1 94 13 view .LVU29
 109 0038 01F8013B 		strb	r3, [r1], #1
 110              	.LVL15:
  97:DSP/Source/SupportFunctions/arm_copy_q7.c ****   }
 111              		.loc 1 97 5 is_stmt 1 view .LVU30
  97:DSP/Source/SupportFunctions/arm_copy_q7.c ****   }
 112              		.loc 1 97 11 is_stmt 0 view .LVU31
 113 003c 013A     		subs	r2, r2, #1
 114              	.LVL16:
 115              	.L9:
  90:DSP/Source/SupportFunctions/arm_copy_q7.c ****   {
 116              		.loc 1 90 17 is_stmt 1 view .LVU32
 117 003e 002A     		cmp	r2, #0
 118 0040 F8D1     		bne	.L10
ARM GAS  /var/folders/ck/g3dcd5x55xs4107jgdl0snvr0000gn/T//ccQ2slvo.s 			page 5


  90:DSP/Source/SupportFunctions/arm_copy_q7.c ****   {
 119              		.loc 1 90 17 is_stmt 0 view .LVU33
 120 0042 7047     		bx	lr
 121              		.cfi_endproc
 122              	.LFE139:
 124              		.text
 125              	.Letext0:
 126              		.file 2 "/Users/luban/.local/xPacks/arm-none-eabi-gcc/xpack-arm-none-eabi-gcc-13.2.1-1.1/arm-none-
 127              		.file 3 "/Users/luban/.local/xPacks/arm-none-eabi-gcc/xpack-arm-none-eabi-gcc-13.2.1-1.1/arm-none-
 128              		.file 4 "DSP/Inc/arm_math.h"
ARM GAS  /var/folders/ck/g3dcd5x55xs4107jgdl0snvr0000gn/T//ccQ2slvo.s 			page 6


DEFINED SYMBOLS
                            *ABS*:00000000 arm_copy_q7.c
/var/folders/ck/g3dcd5x55xs4107jgdl0snvr0000gn/T//ccQ2slvo.s:21     .text.arm_copy_q7:00000000 $t
/var/folders/ck/g3dcd5x55xs4107jgdl0snvr0000gn/T//ccQ2slvo.s:27     .text.arm_copy_q7:00000000 arm_copy_q7

NO UNDEFINED SYMBOLS
