ARM GAS  /var/folders/ck/g3dcd5x55xs4107jgdl0snvr0000gn/T//ccglehqi.s 			page 1


   1              		.cpu cortex-m4
   2              		.arch armv7e-m
   3              		.fpu fpv4-sp-d16
   4              		.eabi_attribute 27, 1
   5              		.eabi_attribute 28, 1
   6              		.eabi_attribute 20, 1
   7              		.eabi_attribute 21, 1
   8              		.eabi_attribute 23, 3
   9              		.eabi_attribute 24, 1
  10              		.eabi_attribute 25, 1
  11              		.eabi_attribute 26, 1
  12              		.eabi_attribute 30, 1
  13              		.eabi_attribute 34, 1
  14              		.eabi_attribute 18, 4
  15              		.file	"arm_lms_norm_init_f32.c"
  16              		.text
  17              	.Ltext0:
  18              		.cfi_sections	.debug_frame
  19              		.file 1 "DSP/Source/FilteringFunctions/arm_lms_norm_init_f32.c"
  20              		.section	.text.arm_lms_norm_init_f32,"ax",%progbits
  21              		.align	1
  22              		.global	arm_lms_norm_init_f32
  23              		.syntax unified
  24              		.thumb
  25              		.thumb_func
  27              	arm_lms_norm_init_f32:
  28              	.LVL0:
  29              	.LFB139:
   1:DSP/Source/FilteringFunctions/arm_lms_norm_init_f32.c **** /* ----------------------------------------------------------------------
   2:DSP/Source/FilteringFunctions/arm_lms_norm_init_f32.c ****  * Project:      CMSIS DSP Library
   3:DSP/Source/FilteringFunctions/arm_lms_norm_init_f32.c ****  * Title:        arm_lms_norm_init_f32.c
   4:DSP/Source/FilteringFunctions/arm_lms_norm_init_f32.c ****  * Description:  Floating-point NLMS filter initialization function
   5:DSP/Source/FilteringFunctions/arm_lms_norm_init_f32.c ****  *
   6:DSP/Source/FilteringFunctions/arm_lms_norm_init_f32.c ****  * $Date:        27. January 2017
   7:DSP/Source/FilteringFunctions/arm_lms_norm_init_f32.c ****  * $Revision:    V.1.5.1
   8:DSP/Source/FilteringFunctions/arm_lms_norm_init_f32.c ****  *
   9:DSP/Source/FilteringFunctions/arm_lms_norm_init_f32.c ****  * Target Processor: Cortex-M cores
  10:DSP/Source/FilteringFunctions/arm_lms_norm_init_f32.c ****  * -------------------------------------------------------------------- */
  11:DSP/Source/FilteringFunctions/arm_lms_norm_init_f32.c **** /*
  12:DSP/Source/FilteringFunctions/arm_lms_norm_init_f32.c ****  * Copyright (C) 2010-2017 ARM Limited or its affiliates. All rights reserved.
  13:DSP/Source/FilteringFunctions/arm_lms_norm_init_f32.c ****  *
  14:DSP/Source/FilteringFunctions/arm_lms_norm_init_f32.c ****  * SPDX-License-Identifier: Apache-2.0
  15:DSP/Source/FilteringFunctions/arm_lms_norm_init_f32.c ****  *
  16:DSP/Source/FilteringFunctions/arm_lms_norm_init_f32.c ****  * Licensed under the Apache License, Version 2.0 (the License); you may
  17:DSP/Source/FilteringFunctions/arm_lms_norm_init_f32.c ****  * not use this file except in compliance with the License.
  18:DSP/Source/FilteringFunctions/arm_lms_norm_init_f32.c ****  * You may obtain a copy of the License at
  19:DSP/Source/FilteringFunctions/arm_lms_norm_init_f32.c ****  *
  20:DSP/Source/FilteringFunctions/arm_lms_norm_init_f32.c ****  * www.apache.org/licenses/LICENSE-2.0
  21:DSP/Source/FilteringFunctions/arm_lms_norm_init_f32.c ****  *
  22:DSP/Source/FilteringFunctions/arm_lms_norm_init_f32.c ****  * Unless required by applicable law or agreed to in writing, software
  23:DSP/Source/FilteringFunctions/arm_lms_norm_init_f32.c ****  * distributed under the License is distributed on an AS IS BASIS, WITHOUT
  24:DSP/Source/FilteringFunctions/arm_lms_norm_init_f32.c ****  * WARRANTIES OR CONDITIONS OF ANY KIND, either express or implied.
  25:DSP/Source/FilteringFunctions/arm_lms_norm_init_f32.c ****  * See the License for the specific language governing permissions and
  26:DSP/Source/FilteringFunctions/arm_lms_norm_init_f32.c ****  * limitations under the License.
  27:DSP/Source/FilteringFunctions/arm_lms_norm_init_f32.c ****  */
  28:DSP/Source/FilteringFunctions/arm_lms_norm_init_f32.c **** 
  29:DSP/Source/FilteringFunctions/arm_lms_norm_init_f32.c **** #include "arm_math.h"
ARM GAS  /var/folders/ck/g3dcd5x55xs4107jgdl0snvr0000gn/T//ccglehqi.s 			page 2


  30:DSP/Source/FilteringFunctions/arm_lms_norm_init_f32.c **** 
  31:DSP/Source/FilteringFunctions/arm_lms_norm_init_f32.c **** /**
  32:DSP/Source/FilteringFunctions/arm_lms_norm_init_f32.c ****  * @ingroup groupFilters
  33:DSP/Source/FilteringFunctions/arm_lms_norm_init_f32.c ****  */
  34:DSP/Source/FilteringFunctions/arm_lms_norm_init_f32.c **** 
  35:DSP/Source/FilteringFunctions/arm_lms_norm_init_f32.c **** /**
  36:DSP/Source/FilteringFunctions/arm_lms_norm_init_f32.c ****  * @addtogroup LMS_NORM
  37:DSP/Source/FilteringFunctions/arm_lms_norm_init_f32.c ****  * @{
  38:DSP/Source/FilteringFunctions/arm_lms_norm_init_f32.c ****  */
  39:DSP/Source/FilteringFunctions/arm_lms_norm_init_f32.c **** 
  40:DSP/Source/FilteringFunctions/arm_lms_norm_init_f32.c ****   /**
  41:DSP/Source/FilteringFunctions/arm_lms_norm_init_f32.c ****    * @brief Initialization function for floating-point normalized LMS filter.
  42:DSP/Source/FilteringFunctions/arm_lms_norm_init_f32.c ****    * @param[in] *S points to an instance of the floating-point LMS filter structure.
  43:DSP/Source/FilteringFunctions/arm_lms_norm_init_f32.c ****    * @param[in] numTaps  number of filter coefficients.
  44:DSP/Source/FilteringFunctions/arm_lms_norm_init_f32.c ****    * @param[in] *pCoeffs points to coefficient buffer.
  45:DSP/Source/FilteringFunctions/arm_lms_norm_init_f32.c ****    * @param[in] *pState points to state buffer.
  46:DSP/Source/FilteringFunctions/arm_lms_norm_init_f32.c ****    * @param[in] mu step size that controls filter coefficient updates.
  47:DSP/Source/FilteringFunctions/arm_lms_norm_init_f32.c ****    * @param[in] blockSize number of samples to process.
  48:DSP/Source/FilteringFunctions/arm_lms_norm_init_f32.c ****    * @return none.
  49:DSP/Source/FilteringFunctions/arm_lms_norm_init_f32.c ****    *
  50:DSP/Source/FilteringFunctions/arm_lms_norm_init_f32.c ****  * \par Description:
  51:DSP/Source/FilteringFunctions/arm_lms_norm_init_f32.c ****  * <code>pCoeffs</code> points to the array of filter coefficients stored in time reversed order:
  52:DSP/Source/FilteringFunctions/arm_lms_norm_init_f32.c ****  * <pre>
  53:DSP/Source/FilteringFunctions/arm_lms_norm_init_f32.c ****  *    {b[numTaps-1], b[numTaps-2], b[N-2], ..., b[1], b[0]}
  54:DSP/Source/FilteringFunctions/arm_lms_norm_init_f32.c ****  * </pre>
  55:DSP/Source/FilteringFunctions/arm_lms_norm_init_f32.c ****  * The initial filter coefficients serve as a starting point for the adaptive filter.
  56:DSP/Source/FilteringFunctions/arm_lms_norm_init_f32.c ****  * <code>pState</code> points to an array of length <code>numTaps+blockSize-1</code> samples,
  57:DSP/Source/FilteringFunctions/arm_lms_norm_init_f32.c ****  * where <code>blockSize</code> is the number of input samples processed by each call to <code>arm_
  58:DSP/Source/FilteringFunctions/arm_lms_norm_init_f32.c ****  */
  59:DSP/Source/FilteringFunctions/arm_lms_norm_init_f32.c **** 
  60:DSP/Source/FilteringFunctions/arm_lms_norm_init_f32.c **** void arm_lms_norm_init_f32(
  61:DSP/Source/FilteringFunctions/arm_lms_norm_init_f32.c ****   arm_lms_norm_instance_f32 * S,
  62:DSP/Source/FilteringFunctions/arm_lms_norm_init_f32.c ****   uint16_t numTaps,
  63:DSP/Source/FilteringFunctions/arm_lms_norm_init_f32.c ****   float32_t * pCoeffs,
  64:DSP/Source/FilteringFunctions/arm_lms_norm_init_f32.c ****   float32_t * pState,
  65:DSP/Source/FilteringFunctions/arm_lms_norm_init_f32.c ****   float32_t mu,
  66:DSP/Source/FilteringFunctions/arm_lms_norm_init_f32.c ****   uint32_t blockSize)
  67:DSP/Source/FilteringFunctions/arm_lms_norm_init_f32.c **** {
  30              		.loc 1 67 1 view -0
  31              		.cfi_startproc
  32              		@ args = 4, pretend = 0, frame = 0
  33              		@ frame_needed = 0, uses_anonymous_args = 0
  34              		.loc 1 67 1 is_stmt 0 view .LVU1
  35 0000 70B5     		push	{r4, r5, r6, lr}
  36              	.LCFI0:
  37              		.cfi_def_cfa_offset 16
  38              		.cfi_offset 4, -16
  39              		.cfi_offset 5, -12
  40              		.cfi_offset 6, -8
  41              		.cfi_offset 14, -4
  42 0002 0446     		mov	r4, r0
  43 0004 1D46     		mov	r5, r3
  44 0006 10EE106A 		vmov	r6, s0
  68:DSP/Source/FilteringFunctions/arm_lms_norm_init_f32.c ****   /* Assign filter taps */
  69:DSP/Source/FilteringFunctions/arm_lms_norm_init_f32.c ****   S->numTaps = numTaps;
  45              		.loc 1 69 3 is_stmt 1 view .LVU2
  46              		.loc 1 69 14 is_stmt 0 view .LVU3
ARM GAS  /var/folders/ck/g3dcd5x55xs4107jgdl0snvr0000gn/T//ccglehqi.s 			page 3


  47 000a 0180     		strh	r1, [r0]	@ movhi
  70:DSP/Source/FilteringFunctions/arm_lms_norm_init_f32.c **** 
  71:DSP/Source/FilteringFunctions/arm_lms_norm_init_f32.c ****   /* Assign coefficient pointer */
  72:DSP/Source/FilteringFunctions/arm_lms_norm_init_f32.c ****   S->pCoeffs = pCoeffs;
  48              		.loc 1 72 3 is_stmt 1 view .LVU4
  49              		.loc 1 72 14 is_stmt 0 view .LVU5
  50 000c 8260     		str	r2, [r0, #8]
  73:DSP/Source/FilteringFunctions/arm_lms_norm_init_f32.c **** 
  74:DSP/Source/FilteringFunctions/arm_lms_norm_init_f32.c ****   /* Clear state buffer and size is always blockSize + numTaps - 1 */
  75:DSP/Source/FilteringFunctions/arm_lms_norm_init_f32.c ****   memset(pState, 0, (numTaps + (blockSize - 1U)) * sizeof(float32_t));
  51              		.loc 1 75 3 is_stmt 1 view .LVU6
  52              		.loc 1 75 30 is_stmt 0 view .LVU7
  53 000e 049B     		ldr	r3, [sp, #16]
  54              	.LVL1:
  55              		.loc 1 75 30 view .LVU8
  56 0010 1944     		add	r1, r1, r3
  57              	.LVL2:
  58              		.loc 1 75 30 view .LVU9
  59 0012 4A1E     		subs	r2, r1, #1
  60              	.LVL3:
  61              		.loc 1 75 3 view .LVU10
  62 0014 9200     		lsls	r2, r2, #2
  63 0016 0021     		movs	r1, #0
  64 0018 2846     		mov	r0, r5
  65              	.LVL4:
  66              		.loc 1 75 3 view .LVU11
  67 001a FFF7FEFF 		bl	memset
  68              	.LVL5:
  76:DSP/Source/FilteringFunctions/arm_lms_norm_init_f32.c **** 
  77:DSP/Source/FilteringFunctions/arm_lms_norm_init_f32.c ****   /* Assign state pointer */
  78:DSP/Source/FilteringFunctions/arm_lms_norm_init_f32.c ****   S->pState = pState;
  69              		.loc 1 78 3 is_stmt 1 view .LVU12
  70              		.loc 1 78 13 is_stmt 0 view .LVU13
  71 001e 6560     		str	r5, [r4, #4]
  79:DSP/Source/FilteringFunctions/arm_lms_norm_init_f32.c **** 
  80:DSP/Source/FilteringFunctions/arm_lms_norm_init_f32.c ****   /* Assign Step size value */
  81:DSP/Source/FilteringFunctions/arm_lms_norm_init_f32.c ****   S->mu = mu;
  72              		.loc 1 81 3 is_stmt 1 view .LVU14
  73              		.loc 1 81 9 is_stmt 0 view .LVU15
  74 0020 E660     		str	r6, [r4, #12]	@ float
  82:DSP/Source/FilteringFunctions/arm_lms_norm_init_f32.c **** 
  83:DSP/Source/FilteringFunctions/arm_lms_norm_init_f32.c ****   /* Initialise Energy to zero */
  84:DSP/Source/FilteringFunctions/arm_lms_norm_init_f32.c ****   S->energy = 0.0f;
  75              		.loc 1 84 3 is_stmt 1 view .LVU16
  76              		.loc 1 84 13 is_stmt 0 view .LVU17
  77 0022 0023     		movs	r3, #0
  78 0024 2361     		str	r3, [r4, #16]	@ float
  85:DSP/Source/FilteringFunctions/arm_lms_norm_init_f32.c **** 
  86:DSP/Source/FilteringFunctions/arm_lms_norm_init_f32.c ****   /* Initialise x0 to zero */
  87:DSP/Source/FilteringFunctions/arm_lms_norm_init_f32.c ****   S->x0 = 0.0f;
  79              		.loc 1 87 3 is_stmt 1 view .LVU18
  80              		.loc 1 87 9 is_stmt 0 view .LVU19
  81 0026 6361     		str	r3, [r4, #20]	@ float
  88:DSP/Source/FilteringFunctions/arm_lms_norm_init_f32.c **** 
  89:DSP/Source/FilteringFunctions/arm_lms_norm_init_f32.c **** }
  82              		.loc 1 89 1 view .LVU20
  83 0028 70BD     		pop	{r4, r5, r6, pc}
ARM GAS  /var/folders/ck/g3dcd5x55xs4107jgdl0snvr0000gn/T//ccglehqi.s 			page 4


  84              		.loc 1 89 1 view .LVU21
  85              		.cfi_endproc
  86              	.LFE139:
  88              		.text
  89              	.Letext0:
  90              		.file 2 "/Users/luban/.local/xPacks/arm-none-eabi-gcc/xpack-arm-none-eabi-gcc-13.2.1-1.1/arm-none-
  91              		.file 3 "/Users/luban/.local/xPacks/arm-none-eabi-gcc/xpack-arm-none-eabi-gcc-13.2.1-1.1/arm-none-
  92              		.file 4 "/Users/luban/.local/xPacks/arm-none-eabi-gcc/xpack-arm-none-eabi-gcc-13.2.1-1.1/lib/gcc/a
  93              		.file 5 "DSP/Inc/arm_math.h"
  94              		.file 6 "/Users/luban/.local/xPacks/arm-none-eabi-gcc/xpack-arm-none-eabi-gcc-13.2.1-1.1/arm-none-
  95              		.file 7 "<built-in>"
ARM GAS  /var/folders/ck/g3dcd5x55xs4107jgdl0snvr0000gn/T//ccglehqi.s 			page 5

