ARM GAS  /var/folders/ck/g3dcd5x55xs4107jgdl0snvr0000gn/T//ccwkSEVv.s 			page 1


   1              		.cpu cortex-m4
   2              		.arch armv7e-m
   3              		.fpu fpv4-sp-d16
   4              		.eabi_attribute 27, 1
   5              		.eabi_attribute 28, 1
   6              		.eabi_attribute 20, 1
   7              		.eabi_attribute 21, 1
   8              		.eabi_attribute 23, 3
   9              		.eabi_attribute 24, 1
  10              		.eabi_attribute 25, 1
  11              		.eabi_attribute 26, 1
  12              		.eabi_attribute 30, 1
  13              		.eabi_attribute 34, 1
  14              		.eabi_attribute 18, 4
  15              		.file	"arm_float_to_q7.c"
  16              		.text
  17              	.Ltext0:
  18              		.cfi_sections	.debug_frame
  19              		.file 1 "DSP/Source/SupportFunctions/arm_float_to_q7.c"
  20              		.section	.text.arm_float_to_q7,"ax",%progbits
  21              		.align	1
  22              		.global	arm_float_to_q7
  23              		.syntax unified
  24              		.thumb
  25              		.thumb_func
  27              	arm_float_to_q7:
  28              	.LVL0:
  29              	.LFB139:
   1:DSP/Source/SupportFunctions/arm_float_to_q7.c **** /* ----------------------------------------------------------------------
   2:DSP/Source/SupportFunctions/arm_float_to_q7.c ****  * Project:      CMSIS DSP Library
   3:DSP/Source/SupportFunctions/arm_float_to_q7.c ****  * Title:        arm_float_to_q7.c
   4:DSP/Source/SupportFunctions/arm_float_to_q7.c ****  * Description:  Converts the elements of the floating-point vector to Q7 vector
   5:DSP/Source/SupportFunctions/arm_float_to_q7.c ****  *
   6:DSP/Source/SupportFunctions/arm_float_to_q7.c ****  * $Date:        27. January 2017
   7:DSP/Source/SupportFunctions/arm_float_to_q7.c ****  * $Revision:    V.1.5.1
   8:DSP/Source/SupportFunctions/arm_float_to_q7.c ****  *
   9:DSP/Source/SupportFunctions/arm_float_to_q7.c ****  * Target Processor: Cortex-M cores
  10:DSP/Source/SupportFunctions/arm_float_to_q7.c ****  * -------------------------------------------------------------------- */
  11:DSP/Source/SupportFunctions/arm_float_to_q7.c **** /*
  12:DSP/Source/SupportFunctions/arm_float_to_q7.c ****  * Copyright (C) 2010-2017 ARM Limited or its affiliates. All rights reserved.
  13:DSP/Source/SupportFunctions/arm_float_to_q7.c ****  *
  14:DSP/Source/SupportFunctions/arm_float_to_q7.c ****  * SPDX-License-Identifier: Apache-2.0
  15:DSP/Source/SupportFunctions/arm_float_to_q7.c ****  *
  16:DSP/Source/SupportFunctions/arm_float_to_q7.c ****  * Licensed under the Apache License, Version 2.0 (the License); you may
  17:DSP/Source/SupportFunctions/arm_float_to_q7.c ****  * not use this file except in compliance with the License.
  18:DSP/Source/SupportFunctions/arm_float_to_q7.c ****  * You may obtain a copy of the License at
  19:DSP/Source/SupportFunctions/arm_float_to_q7.c ****  *
  20:DSP/Source/SupportFunctions/arm_float_to_q7.c ****  * www.apache.org/licenses/LICENSE-2.0
  21:DSP/Source/SupportFunctions/arm_float_to_q7.c ****  *
  22:DSP/Source/SupportFunctions/arm_float_to_q7.c ****  * Unless required by applicable law or agreed to in writing, software
  23:DSP/Source/SupportFunctions/arm_float_to_q7.c ****  * distributed under the License is distributed on an AS IS BASIS, WITHOUT
  24:DSP/Source/SupportFunctions/arm_float_to_q7.c ****  * WARRANTIES OR CONDITIONS OF ANY KIND, either express or implied.
  25:DSP/Source/SupportFunctions/arm_float_to_q7.c ****  * See the License for the specific language governing permissions and
  26:DSP/Source/SupportFunctions/arm_float_to_q7.c ****  * limitations under the License.
  27:DSP/Source/SupportFunctions/arm_float_to_q7.c ****  */
  28:DSP/Source/SupportFunctions/arm_float_to_q7.c **** 
  29:DSP/Source/SupportFunctions/arm_float_to_q7.c **** #include "arm_math.h"
ARM GAS  /var/folders/ck/g3dcd5x55xs4107jgdl0snvr0000gn/T//ccwkSEVv.s 			page 2


  30:DSP/Source/SupportFunctions/arm_float_to_q7.c **** 
  31:DSP/Source/SupportFunctions/arm_float_to_q7.c **** /**
  32:DSP/Source/SupportFunctions/arm_float_to_q7.c ****  * @ingroup groupSupport
  33:DSP/Source/SupportFunctions/arm_float_to_q7.c ****  */
  34:DSP/Source/SupportFunctions/arm_float_to_q7.c **** 
  35:DSP/Source/SupportFunctions/arm_float_to_q7.c **** /**
  36:DSP/Source/SupportFunctions/arm_float_to_q7.c ****  * @addtogroup float_to_x
  37:DSP/Source/SupportFunctions/arm_float_to_q7.c ****  * @{
  38:DSP/Source/SupportFunctions/arm_float_to_q7.c ****  */
  39:DSP/Source/SupportFunctions/arm_float_to_q7.c **** 
  40:DSP/Source/SupportFunctions/arm_float_to_q7.c **** /**
  41:DSP/Source/SupportFunctions/arm_float_to_q7.c ****  * @brief Converts the elements of the floating-point vector to Q7 vector.
  42:DSP/Source/SupportFunctions/arm_float_to_q7.c ****  * @param[in]       *pSrc points to the floating-point input vector
  43:DSP/Source/SupportFunctions/arm_float_to_q7.c ****  * @param[out]      *pDst points to the Q7 output vector
  44:DSP/Source/SupportFunctions/arm_float_to_q7.c ****  * @param[in]       blockSize length of the input vector
  45:DSP/Source/SupportFunctions/arm_float_to_q7.c ****  * @return none.
  46:DSP/Source/SupportFunctions/arm_float_to_q7.c ****  *
  47:DSP/Source/SupportFunctions/arm_float_to_q7.c ****  *\par Description:
  48:DSP/Source/SupportFunctions/arm_float_to_q7.c ****  * \par
  49:DSP/Source/SupportFunctions/arm_float_to_q7.c ****  * The equation used for the conversion process is:
  50:DSP/Source/SupportFunctions/arm_float_to_q7.c ****  * <pre>
  51:DSP/Source/SupportFunctions/arm_float_to_q7.c ****  * 	pDst[n] = (q7_t)(pSrc[n] * 128);   0 <= n < blockSize.
  52:DSP/Source/SupportFunctions/arm_float_to_q7.c ****  * </pre>
  53:DSP/Source/SupportFunctions/arm_float_to_q7.c ****  * \par Scaling and Overflow Behavior:
  54:DSP/Source/SupportFunctions/arm_float_to_q7.c ****  * \par
  55:DSP/Source/SupportFunctions/arm_float_to_q7.c ****  * The function uses saturating arithmetic.
  56:DSP/Source/SupportFunctions/arm_float_to_q7.c ****  * Results outside of the allowable Q7 range [0x80 0x7F] will be saturated.
  57:DSP/Source/SupportFunctions/arm_float_to_q7.c ****  * \note
  58:DSP/Source/SupportFunctions/arm_float_to_q7.c ****  * In order to apply rounding, the library should be rebuilt with the ROUNDING macro
  59:DSP/Source/SupportFunctions/arm_float_to_q7.c ****  * defined in the preprocessor section of project options.
  60:DSP/Source/SupportFunctions/arm_float_to_q7.c ****  */
  61:DSP/Source/SupportFunctions/arm_float_to_q7.c **** 
  62:DSP/Source/SupportFunctions/arm_float_to_q7.c **** 
  63:DSP/Source/SupportFunctions/arm_float_to_q7.c **** void arm_float_to_q7(
  64:DSP/Source/SupportFunctions/arm_float_to_q7.c ****   float32_t * pSrc,
  65:DSP/Source/SupportFunctions/arm_float_to_q7.c ****   q7_t * pDst,
  66:DSP/Source/SupportFunctions/arm_float_to_q7.c ****   uint32_t blockSize)
  67:DSP/Source/SupportFunctions/arm_float_to_q7.c **** {
  30              		.loc 1 67 1 view -0
  31              		.cfi_startproc
  32              		@ args = 0, pretend = 0, frame = 0
  33              		@ frame_needed = 0, uses_anonymous_args = 0
  34              		@ link register save eliminated.
  35              		.loc 1 67 1 is_stmt 0 view .LVU1
  36 0000 10B4     		push	{r4}
  37              	.LCFI0:
  38              		.cfi_def_cfa_offset 4
  39              		.cfi_offset 4, -4
  68:DSP/Source/SupportFunctions/arm_float_to_q7.c ****   float32_t *pIn = pSrc;                         /* Src pointer */
  40              		.loc 1 68 3 is_stmt 1 view .LVU2
  41              	.LVL1:
  69:DSP/Source/SupportFunctions/arm_float_to_q7.c ****   uint32_t blkCnt;                               /* loop counter */
  42              		.loc 1 69 3 view .LVU3
  70:DSP/Source/SupportFunctions/arm_float_to_q7.c **** 
  71:DSP/Source/SupportFunctions/arm_float_to_q7.c **** #ifdef ARM_MATH_ROUNDING
  72:DSP/Source/SupportFunctions/arm_float_to_q7.c **** 
  73:DSP/Source/SupportFunctions/arm_float_to_q7.c ****   float32_t in;
ARM GAS  /var/folders/ck/g3dcd5x55xs4107jgdl0snvr0000gn/T//ccwkSEVv.s 			page 3


  43              		.loc 1 73 3 view .LVU4
  74:DSP/Source/SupportFunctions/arm_float_to_q7.c **** 
  75:DSP/Source/SupportFunctions/arm_float_to_q7.c **** #endif /*      #ifdef ARM_MATH_ROUNDING        */
  76:DSP/Source/SupportFunctions/arm_float_to_q7.c **** 
  77:DSP/Source/SupportFunctions/arm_float_to_q7.c **** #if defined (ARM_MATH_DSP)
  78:DSP/Source/SupportFunctions/arm_float_to_q7.c **** 
  79:DSP/Source/SupportFunctions/arm_float_to_q7.c ****   /* Run the below code for Cortex-M4 and Cortex-M3 */
  80:DSP/Source/SupportFunctions/arm_float_to_q7.c **** 
  81:DSP/Source/SupportFunctions/arm_float_to_q7.c ****   /*loop Unrolling */
  82:DSP/Source/SupportFunctions/arm_float_to_q7.c ****   blkCnt = blockSize >> 2U;
  44              		.loc 1 82 3 view .LVU5
  45              		.loc 1 82 10 is_stmt 0 view .LVU6
  46 0002 9408     		lsrs	r4, r2, #2
  47              	.LVL2:
  83:DSP/Source/SupportFunctions/arm_float_to_q7.c **** 
  84:DSP/Source/SupportFunctions/arm_float_to_q7.c ****   /* First part of the processing with loop unrolling.  Compute 4 outputs at a time.
  85:DSP/Source/SupportFunctions/arm_float_to_q7.c ****    ** a second loop below computes the remaining 1 to 3 samples. */
  86:DSP/Source/SupportFunctions/arm_float_to_q7.c ****   while (blkCnt > 0U)
  48              		.loc 1 86 3 is_stmt 1 view .LVU7
  49              		.loc 1 86 9 is_stmt 0 view .LVU8
  50 0004 17E0     		b	.L2
  51              	.LVL3:
  52              	.L26:
  87:DSP/Source/SupportFunctions/arm_float_to_q7.c ****   {
  88:DSP/Source/SupportFunctions/arm_float_to_q7.c **** 
  89:DSP/Source/SupportFunctions/arm_float_to_q7.c **** #ifdef ARM_MATH_ROUNDING
  90:DSP/Source/SupportFunctions/arm_float_to_q7.c ****     /* C = A * 128 */
  91:DSP/Source/SupportFunctions/arm_float_to_q7.c ****     /* convert from float to q7 and then store the results in the destination buffer */
  92:DSP/Source/SupportFunctions/arm_float_to_q7.c ****     in = *pIn++;
  93:DSP/Source/SupportFunctions/arm_float_to_q7.c ****     in = (in * 128);
  94:DSP/Source/SupportFunctions/arm_float_to_q7.c ****     in += in > 0.0f ? 0.5f : -0.5f;
  53              		.loc 1 94 28 discriminator 2 view .LVU9
  54 0006 FEEE007A 		vmov.f32	s15, #-5.0e-1
  55 000a 23E0     		b	.L3
  56              	.LVL4:
  57              	.L27:
  95:DSP/Source/SupportFunctions/arm_float_to_q7.c ****     *pDst++ = (q7_t) (__SSAT((q15_t) (in), 8));
  96:DSP/Source/SupportFunctions/arm_float_to_q7.c **** 
  97:DSP/Source/SupportFunctions/arm_float_to_q7.c ****     in = *pIn++;
  98:DSP/Source/SupportFunctions/arm_float_to_q7.c ****     in = (in * 128);
  99:DSP/Source/SupportFunctions/arm_float_to_q7.c ****     in += in > 0.0f ? 0.5f : -0.5f;
  58              		.loc 1 99 28 discriminator 2 view .LVU10
  59 000c FEEE007A 		vmov.f32	s15, #-5.0e-1
  60 0010 37E0     		b	.L5
  61              	.LVL5:
  62              	.L28:
 100:DSP/Source/SupportFunctions/arm_float_to_q7.c ****     *pDst++ = (q7_t) (__SSAT((q15_t) (in), 8));
 101:DSP/Source/SupportFunctions/arm_float_to_q7.c **** 
 102:DSP/Source/SupportFunctions/arm_float_to_q7.c ****     in = *pIn++;
 103:DSP/Source/SupportFunctions/arm_float_to_q7.c ****     in = (in * 128);
 104:DSP/Source/SupportFunctions/arm_float_to_q7.c ****     in += in > 0.0f ? 0.5f : -0.5f;
  63              		.loc 1 104 28 discriminator 2 view .LVU11
  64 0012 FEEE007A 		vmov.f32	s15, #-5.0e-1
  65 0016 4BE0     		b	.L7
  66              	.LVL6:
  67              	.L29:
 105:DSP/Source/SupportFunctions/arm_float_to_q7.c ****     *pDst++ = (q7_t) (__SSAT((q15_t) (in), 8));
ARM GAS  /var/folders/ck/g3dcd5x55xs4107jgdl0snvr0000gn/T//ccwkSEVv.s 			page 4


 106:DSP/Source/SupportFunctions/arm_float_to_q7.c **** 
 107:DSP/Source/SupportFunctions/arm_float_to_q7.c ****     in = *pIn++;
 108:DSP/Source/SupportFunctions/arm_float_to_q7.c ****     in = (in * 128);
 109:DSP/Source/SupportFunctions/arm_float_to_q7.c ****     in += in > 0.0f ? 0.5f : -0.5f;
  68              		.loc 1 109 28 discriminator 2 view .LVU12
  69 0018 FEEE007A 		vmov.f32	s15, #-5.0e-1
  70              	.L9:
  71              		.loc 1 109 8 discriminator 4 view .LVU13
  72 001c 77EE877A 		vadd.f32	s15, s15, s14
  73              	.LVL7:
 110:DSP/Source/SupportFunctions/arm_float_to_q7.c ****     *pDst++ = (q7_t) (__SSAT((q15_t) (in), 8));
  74              		.loc 1 110 5 is_stmt 1 view .LVU14
  75              	.LBB2:
  76              		.loc 1 110 23 view .LVU15
  77 0020 FDEEE77A 		vcvt.s32.f32	s15, s15
  78              	.LVL8:
  79              		.loc 1 110 23 is_stmt 0 view .LVU16
  80 0024 17EE903A 		vmov	r3, s15	@ int
  81              	.LVL9:
  82              		.loc 1 110 23 view .LVU17
  83 0028 1BB2     		sxth	r3, r3
  84              	.LVL10:
  85              		.loc 1 110 23 is_stmt 1 view .LVU18
  86              		.syntax unified
  87              	@ 110 "DSP/Source/SupportFunctions/arm_float_to_q7.c" 1
  88 002a 03F30703 		ssat r3, #8, r3
  89              	@ 0 "" 2
  90              	.LVL11:
  91              		.loc 1 110 23 view .LVU19
  92              		.loc 1 110 23 is_stmt 0 view .LVU20
  93              		.thumb
  94              		.syntax unified
  95              	.LBE2:
  96              		.loc 1 110 13 view .LVU21
  97 002e CB70     		strb	r3, [r1, #3]
 111:DSP/Source/SupportFunctions/arm_float_to_q7.c **** 
 112:DSP/Source/SupportFunctions/arm_float_to_q7.c **** #else
 113:DSP/Source/SupportFunctions/arm_float_to_q7.c **** 
 114:DSP/Source/SupportFunctions/arm_float_to_q7.c ****     /* C = A * 128 */
 115:DSP/Source/SupportFunctions/arm_float_to_q7.c ****     /* convert from float to q7 and then store the results in the destination buffer */
 116:DSP/Source/SupportFunctions/arm_float_to_q7.c ****     *pDst++ = __SSAT((q31_t) (*pIn++ * 128.0f), 8);
 117:DSP/Source/SupportFunctions/arm_float_to_q7.c ****     *pDst++ = __SSAT((q31_t) (*pIn++ * 128.0f), 8);
 118:DSP/Source/SupportFunctions/arm_float_to_q7.c ****     *pDst++ = __SSAT((q31_t) (*pIn++ * 128.0f), 8);
 119:DSP/Source/SupportFunctions/arm_float_to_q7.c ****     *pDst++ = __SSAT((q31_t) (*pIn++ * 128.0f), 8);
 120:DSP/Source/SupportFunctions/arm_float_to_q7.c **** 
 121:DSP/Source/SupportFunctions/arm_float_to_q7.c **** #endif /*      #ifdef ARM_MATH_ROUNDING        */
 122:DSP/Source/SupportFunctions/arm_float_to_q7.c **** 
 123:DSP/Source/SupportFunctions/arm_float_to_q7.c ****     /* Decrement the loop counter */
 124:DSP/Source/SupportFunctions/arm_float_to_q7.c ****     blkCnt--;
  98              		.loc 1 124 5 is_stmt 1 view .LVU22
  99              		.loc 1 124 11 is_stmt 0 view .LVU23
 100 0030 013C     		subs	r4, r4, #1
 101              	.LVL12:
 107:DSP/Source/SupportFunctions/arm_float_to_q7.c ****     in = (in * 128);
 102              		.loc 1 107 14 view .LVU24
 103 0032 6046     		mov	r0, ip
 110:DSP/Source/SupportFunctions/arm_float_to_q7.c ****     *pDst++ = (q7_t) (__SSAT((q15_t) (in), 8));
ARM GAS  /var/folders/ck/g3dcd5x55xs4107jgdl0snvr0000gn/T//ccwkSEVv.s 			page 5


 104              		.loc 1 110 10 view .LVU25
 105 0034 0431     		adds	r1, r1, #4
 106              	.LVL13:
 107              	.L2:
  86:DSP/Source/SupportFunctions/arm_float_to_q7.c ****   {
 108              		.loc 1 86 17 is_stmt 1 view .LVU26
 109 0036 002C     		cmp	r4, #0
 110 0038 54D0     		beq	.L32
  92:DSP/Source/SupportFunctions/arm_float_to_q7.c ****     in = (in * 128);
 111              		.loc 1 92 5 view .LVU27
 112              	.LVL14:
  92:DSP/Source/SupportFunctions/arm_float_to_q7.c ****     in = (in * 128);
 113              		.loc 1 92 8 is_stmt 0 view .LVU28
 114 003a 90ED007A 		vldr.32	s14, [r0]
 115              	.LVL15:
  93:DSP/Source/SupportFunctions/arm_float_to_q7.c ****     in += in > 0.0f ? 0.5f : -0.5f;
 116              		.loc 1 93 5 is_stmt 1 view .LVU29
  93:DSP/Source/SupportFunctions/arm_float_to_q7.c ****     in += in > 0.0f ? 0.5f : -0.5f;
 117              		.loc 1 93 8 is_stmt 0 view .LVU30
 118 003e DFED3B7A 		vldr.32	s15, .L34
 119 0042 27EE277A 		vmul.f32	s14, s14, s15
 120              	.LVL16:
  94:DSP/Source/SupportFunctions/arm_float_to_q7.c ****     *pDst++ = (q7_t) (__SSAT((q15_t) (in), 8));
 121              		.loc 1 94 5 is_stmt 1 view .LVU31
  94:DSP/Source/SupportFunctions/arm_float_to_q7.c ****     *pDst++ = (q7_t) (__SSAT((q15_t) (in), 8));
 122              		.loc 1 94 28 is_stmt 0 view .LVU32
 123 0046 B5EEC07A 		vcmpe.f32	s14, #0
 124 004a F1EE10FA 		vmrs	APSR_nzcv, FPSCR
 125 004e DADD     		ble	.L26
  94:DSP/Source/SupportFunctions/arm_float_to_q7.c ****     *pDst++ = (q7_t) (__SSAT((q15_t) (in), 8));
 126              		.loc 1 94 28 discriminator 1 view .LVU33
 127 0050 F6EE007A 		vmov.f32	s15, #5.0e-1
 128              	.L3:
  94:DSP/Source/SupportFunctions/arm_float_to_q7.c ****     *pDst++ = (q7_t) (__SSAT((q15_t) (in), 8));
 129              		.loc 1 94 8 discriminator 4 view .LVU34
 130 0054 77EE877A 		vadd.f32	s15, s15, s14
 131              	.LVL17:
  95:DSP/Source/SupportFunctions/arm_float_to_q7.c **** 
 132              		.loc 1 95 5 is_stmt 1 view .LVU35
 133              	.LBB3:
  95:DSP/Source/SupportFunctions/arm_float_to_q7.c **** 
 134              		.loc 1 95 23 view .LVU36
 135 0058 FDEEE77A 		vcvt.s32.f32	s15, s15
 136              	.LVL18:
  95:DSP/Source/SupportFunctions/arm_float_to_q7.c **** 
 137              		.loc 1 95 23 is_stmt 0 view .LVU37
 138 005c 17EE903A 		vmov	r3, s15	@ int
 139 0060 1BB2     		sxth	r3, r3
 140              	.LVL19:
  95:DSP/Source/SupportFunctions/arm_float_to_q7.c **** 
 141              		.loc 1 95 23 is_stmt 1 view .LVU38
 142              		.syntax unified
 143              	@ 95 "DSP/Source/SupportFunctions/arm_float_to_q7.c" 1
 144 0062 03F30703 		ssat r3, #8, r3
 145              	@ 0 "" 2
 146              	.LVL20:
  95:DSP/Source/SupportFunctions/arm_float_to_q7.c **** 
ARM GAS  /var/folders/ck/g3dcd5x55xs4107jgdl0snvr0000gn/T//ccwkSEVv.s 			page 6


 147              		.loc 1 95 23 view .LVU39
  95:DSP/Source/SupportFunctions/arm_float_to_q7.c **** 
 148              		.loc 1 95 23 is_stmt 0 view .LVU40
 149              		.thumb
 150              		.syntax unified
 151              	.LBE3:
  95:DSP/Source/SupportFunctions/arm_float_to_q7.c **** 
 152              		.loc 1 95 13 view .LVU41
 153 0066 0B70     		strb	r3, [r1]
  97:DSP/Source/SupportFunctions/arm_float_to_q7.c ****     in = (in * 128);
 154              		.loc 1 97 5 is_stmt 1 view .LVU42
 155              	.LVL21:
  97:DSP/Source/SupportFunctions/arm_float_to_q7.c ****     in = (in * 128);
 156              		.loc 1 97 8 is_stmt 0 view .LVU43
 157 0068 90ED017A 		vldr.32	s14, [r0, #4]
 158              	.LVL22:
  98:DSP/Source/SupportFunctions/arm_float_to_q7.c ****     in += in > 0.0f ? 0.5f : -0.5f;
 159              		.loc 1 98 5 is_stmt 1 view .LVU44
  98:DSP/Source/SupportFunctions/arm_float_to_q7.c ****     in += in > 0.0f ? 0.5f : -0.5f;
 160              		.loc 1 98 8 is_stmt 0 view .LVU45
 161 006c DFED2F7A 		vldr.32	s15, .L34
 162              	.LVL23:
  98:DSP/Source/SupportFunctions/arm_float_to_q7.c ****     in += in > 0.0f ? 0.5f : -0.5f;
 163              		.loc 1 98 8 view .LVU46
 164 0070 27EE277A 		vmul.f32	s14, s14, s15
 165              	.LVL24:
  99:DSP/Source/SupportFunctions/arm_float_to_q7.c ****     *pDst++ = (q7_t) (__SSAT((q15_t) (in), 8));
 166              		.loc 1 99 5 is_stmt 1 view .LVU47
  99:DSP/Source/SupportFunctions/arm_float_to_q7.c ****     *pDst++ = (q7_t) (__SSAT((q15_t) (in), 8));
 167              		.loc 1 99 28 is_stmt 0 view .LVU48
 168 0074 B5EEC07A 		vcmpe.f32	s14, #0
 169 0078 F1EE10FA 		vmrs	APSR_nzcv, FPSCR
 170 007c C6DD     		ble	.L27
  99:DSP/Source/SupportFunctions/arm_float_to_q7.c ****     *pDst++ = (q7_t) (__SSAT((q15_t) (in), 8));
 171              		.loc 1 99 28 discriminator 1 view .LVU49
 172 007e F6EE007A 		vmov.f32	s15, #5.0e-1
 173              	.L5:
  99:DSP/Source/SupportFunctions/arm_float_to_q7.c ****     *pDst++ = (q7_t) (__SSAT((q15_t) (in), 8));
 174              		.loc 1 99 8 discriminator 4 view .LVU50
 175 0082 77EE877A 		vadd.f32	s15, s15, s14
 176              	.LVL25:
 100:DSP/Source/SupportFunctions/arm_float_to_q7.c **** 
 177              		.loc 1 100 5 is_stmt 1 view .LVU51
 178              	.LBB4:
 100:DSP/Source/SupportFunctions/arm_float_to_q7.c **** 
 179              		.loc 1 100 23 view .LVU52
 180 0086 FDEEE77A 		vcvt.s32.f32	s15, s15
 181              	.LVL26:
 100:DSP/Source/SupportFunctions/arm_float_to_q7.c **** 
 182              		.loc 1 100 23 is_stmt 0 view .LVU53
 183 008a 17EE903A 		vmov	r3, s15	@ int
 184              	.LVL27:
 100:DSP/Source/SupportFunctions/arm_float_to_q7.c **** 
 185              		.loc 1 100 23 view .LVU54
 186 008e 1BB2     		sxth	r3, r3
 187              	.LVL28:
 100:DSP/Source/SupportFunctions/arm_float_to_q7.c **** 
ARM GAS  /var/folders/ck/g3dcd5x55xs4107jgdl0snvr0000gn/T//ccwkSEVv.s 			page 7


 188              		.loc 1 100 23 is_stmt 1 view .LVU55
 189              		.syntax unified
 190              	@ 100 "DSP/Source/SupportFunctions/arm_float_to_q7.c" 1
 191 0090 03F30703 		ssat r3, #8, r3
 192              	@ 0 "" 2
 193              	.LVL29:
 100:DSP/Source/SupportFunctions/arm_float_to_q7.c **** 
 194              		.loc 1 100 23 view .LVU56
 100:DSP/Source/SupportFunctions/arm_float_to_q7.c **** 
 195              		.loc 1 100 23 is_stmt 0 view .LVU57
 196              		.thumb
 197              		.syntax unified
 198              	.LBE4:
 100:DSP/Source/SupportFunctions/arm_float_to_q7.c **** 
 199              		.loc 1 100 13 view .LVU58
 200 0094 4B70     		strb	r3, [r1, #1]
 102:DSP/Source/SupportFunctions/arm_float_to_q7.c ****     in = (in * 128);
 201              		.loc 1 102 5 is_stmt 1 view .LVU59
 202              	.LVL30:
 102:DSP/Source/SupportFunctions/arm_float_to_q7.c ****     in = (in * 128);
 203              		.loc 1 102 8 is_stmt 0 view .LVU60
 204 0096 90ED027A 		vldr.32	s14, [r0, #8]
 205              	.LVL31:
 103:DSP/Source/SupportFunctions/arm_float_to_q7.c ****     in += in > 0.0f ? 0.5f : -0.5f;
 206              		.loc 1 103 5 is_stmt 1 view .LVU61
 103:DSP/Source/SupportFunctions/arm_float_to_q7.c ****     in += in > 0.0f ? 0.5f : -0.5f;
 207              		.loc 1 103 8 is_stmt 0 view .LVU62
 208 009a DFED247A 		vldr.32	s15, .L34
 209              	.LVL32:
 103:DSP/Source/SupportFunctions/arm_float_to_q7.c ****     in += in > 0.0f ? 0.5f : -0.5f;
 210              		.loc 1 103 8 view .LVU63
 211 009e 27EE277A 		vmul.f32	s14, s14, s15
 212              	.LVL33:
 104:DSP/Source/SupportFunctions/arm_float_to_q7.c ****     *pDst++ = (q7_t) (__SSAT((q15_t) (in), 8));
 213              		.loc 1 104 5 is_stmt 1 view .LVU64
 104:DSP/Source/SupportFunctions/arm_float_to_q7.c ****     *pDst++ = (q7_t) (__SSAT((q15_t) (in), 8));
 214              		.loc 1 104 28 is_stmt 0 view .LVU65
 215 00a2 B5EEC07A 		vcmpe.f32	s14, #0
 216 00a6 F1EE10FA 		vmrs	APSR_nzcv, FPSCR
 217 00aa B2DD     		ble	.L28
 104:DSP/Source/SupportFunctions/arm_float_to_q7.c ****     *pDst++ = (q7_t) (__SSAT((q15_t) (in), 8));
 218              		.loc 1 104 28 discriminator 1 view .LVU66
 219 00ac F6EE007A 		vmov.f32	s15, #5.0e-1
 220              	.L7:
 104:DSP/Source/SupportFunctions/arm_float_to_q7.c ****     *pDst++ = (q7_t) (__SSAT((q15_t) (in), 8));
 221              		.loc 1 104 8 discriminator 4 view .LVU67
 222 00b0 77EE877A 		vadd.f32	s15, s15, s14
 223              	.LVL34:
 105:DSP/Source/SupportFunctions/arm_float_to_q7.c **** 
 224              		.loc 1 105 5 is_stmt 1 view .LVU68
 225              	.LBB5:
 105:DSP/Source/SupportFunctions/arm_float_to_q7.c **** 
 226              		.loc 1 105 23 view .LVU69
 227 00b4 FDEEE77A 		vcvt.s32.f32	s15, s15
 228              	.LVL35:
 105:DSP/Source/SupportFunctions/arm_float_to_q7.c **** 
 229              		.loc 1 105 23 is_stmt 0 view .LVU70
ARM GAS  /var/folders/ck/g3dcd5x55xs4107jgdl0snvr0000gn/T//ccwkSEVv.s 			page 8


 230 00b8 17EE903A 		vmov	r3, s15	@ int
 231              	.LVL36:
 105:DSP/Source/SupportFunctions/arm_float_to_q7.c **** 
 232              		.loc 1 105 23 view .LVU71
 233 00bc 1BB2     		sxth	r3, r3
 234              	.LVL37:
 105:DSP/Source/SupportFunctions/arm_float_to_q7.c **** 
 235              		.loc 1 105 23 is_stmt 1 view .LVU72
 236              		.syntax unified
 237              	@ 105 "DSP/Source/SupportFunctions/arm_float_to_q7.c" 1
 238 00be 03F30703 		ssat r3, #8, r3
 239              	@ 0 "" 2
 240              	.LVL38:
 105:DSP/Source/SupportFunctions/arm_float_to_q7.c **** 
 241              		.loc 1 105 23 view .LVU73
 105:DSP/Source/SupportFunctions/arm_float_to_q7.c **** 
 242              		.loc 1 105 23 is_stmt 0 view .LVU74
 243              		.thumb
 244              		.syntax unified
 245              	.LBE5:
 105:DSP/Source/SupportFunctions/arm_float_to_q7.c **** 
 246              		.loc 1 105 13 view .LVU75
 247 00c2 8B70     		strb	r3, [r1, #2]
 107:DSP/Source/SupportFunctions/arm_float_to_q7.c ****     in = (in * 128);
 248              		.loc 1 107 5 is_stmt 1 view .LVU76
 107:DSP/Source/SupportFunctions/arm_float_to_q7.c ****     in = (in * 128);
 249              		.loc 1 107 14 is_stmt 0 view .LVU77
 250 00c4 00F1100C 		add	ip, r0, #16
 251              	.LVL39:
 107:DSP/Source/SupportFunctions/arm_float_to_q7.c ****     in = (in * 128);
 252              		.loc 1 107 8 view .LVU78
 253 00c8 90ED037A 		vldr.32	s14, [r0, #12]
 254              	.LVL40:
 108:DSP/Source/SupportFunctions/arm_float_to_q7.c ****     in += in > 0.0f ? 0.5f : -0.5f;
 255              		.loc 1 108 5 is_stmt 1 view .LVU79
 108:DSP/Source/SupportFunctions/arm_float_to_q7.c ****     in += in > 0.0f ? 0.5f : -0.5f;
 256              		.loc 1 108 8 is_stmt 0 view .LVU80
 257 00cc DFED177A 		vldr.32	s15, .L34
 258              	.LVL41:
 108:DSP/Source/SupportFunctions/arm_float_to_q7.c ****     in += in > 0.0f ? 0.5f : -0.5f;
 259              		.loc 1 108 8 view .LVU81
 260 00d0 27EE277A 		vmul.f32	s14, s14, s15
 261              	.LVL42:
 109:DSP/Source/SupportFunctions/arm_float_to_q7.c ****     *pDst++ = (q7_t) (__SSAT((q15_t) (in), 8));
 262              		.loc 1 109 5 is_stmt 1 view .LVU82
 109:DSP/Source/SupportFunctions/arm_float_to_q7.c ****     *pDst++ = (q7_t) (__SSAT((q15_t) (in), 8));
 263              		.loc 1 109 28 is_stmt 0 view .LVU83
 264 00d4 B5EEC07A 		vcmpe.f32	s14, #0
 265 00d8 F1EE10FA 		vmrs	APSR_nzcv, FPSCR
 266 00dc 9CDD     		ble	.L29
 109:DSP/Source/SupportFunctions/arm_float_to_q7.c ****     *pDst++ = (q7_t) (__SSAT((q15_t) (in), 8));
 267              		.loc 1 109 28 discriminator 1 view .LVU84
 268 00de F6EE007A 		vmov.f32	s15, #5.0e-1
 269 00e2 9BE7     		b	.L9
 270              	.LVL43:
 271              	.L32:
 125:DSP/Source/SupportFunctions/arm_float_to_q7.c ****   }
ARM GAS  /var/folders/ck/g3dcd5x55xs4107jgdl0snvr0000gn/T//ccwkSEVv.s 			page 9


 126:DSP/Source/SupportFunctions/arm_float_to_q7.c **** 
 127:DSP/Source/SupportFunctions/arm_float_to_q7.c ****   /* If the blockSize is not a multiple of 4, compute any remaining output samples here.
 128:DSP/Source/SupportFunctions/arm_float_to_q7.c ****    ** No loop unrolling is used. */
 129:DSP/Source/SupportFunctions/arm_float_to_q7.c ****   blkCnt = blockSize % 0x4U;
 272              		.loc 1 129 3 is_stmt 1 view .LVU85
 273              		.loc 1 129 10 is_stmt 0 view .LVU86
 274 00e4 02F00302 		and	r2, r2, #3
 275              	.LVL44:
 130:DSP/Source/SupportFunctions/arm_float_to_q7.c **** 
 131:DSP/Source/SupportFunctions/arm_float_to_q7.c ****   while (blkCnt > 0U)
 276              		.loc 1 131 3 is_stmt 1 view .LVU87
 277              		.loc 1 131 9 is_stmt 0 view .LVU88
 278 00e8 0DE0     		b	.L12
 279              	.LVL45:
 280              	.L30:
 132:DSP/Source/SupportFunctions/arm_float_to_q7.c ****   {
 133:DSP/Source/SupportFunctions/arm_float_to_q7.c **** 
 134:DSP/Source/SupportFunctions/arm_float_to_q7.c **** #ifdef ARM_MATH_ROUNDING
 135:DSP/Source/SupportFunctions/arm_float_to_q7.c ****     /* C = A * 128 */
 136:DSP/Source/SupportFunctions/arm_float_to_q7.c ****     /* convert from float to q7 and then store the results in the destination buffer */
 137:DSP/Source/SupportFunctions/arm_float_to_q7.c ****     in = *pIn++;
 138:DSP/Source/SupportFunctions/arm_float_to_q7.c ****     in = (in * 128);
 139:DSP/Source/SupportFunctions/arm_float_to_q7.c ****     in += in > 0.0f ? 0.5f : -0.5f;
 281              		.loc 1 139 28 discriminator 2 view .LVU89
 282 00ea FEEE007A 		vmov.f32	s15, #-5.0e-1
 283              	.L13:
 284              		.loc 1 139 8 discriminator 4 view .LVU90
 285 00ee 77EE877A 		vadd.f32	s15, s15, s14
 286              	.LVL46:
 140:DSP/Source/SupportFunctions/arm_float_to_q7.c ****     *pDst++ = (q7_t) (__SSAT((q15_t) (in), 8));
 287              		.loc 1 140 5 is_stmt 1 view .LVU91
 288              	.LBB6:
 289              		.loc 1 140 23 view .LVU92
 290 00f2 FDEEE77A 		vcvt.s32.f32	s15, s15
 291              	.LVL47:
 292              		.loc 1 140 23 is_stmt 0 view .LVU93
 293 00f6 17EE903A 		vmov	r3, s15	@ int
 294 00fa 1BB2     		sxth	r3, r3
 295              	.LVL48:
 296              		.loc 1 140 23 is_stmt 1 view .LVU94
 297              		.syntax unified
 298              	@ 140 "DSP/Source/SupportFunctions/arm_float_to_q7.c" 1
 299 00fc 03F30703 		ssat r3, #8, r3
 300              	@ 0 "" 2
 301              	.LVL49:
 302              		.loc 1 140 23 view .LVU95
 303              		.loc 1 140 23 is_stmt 0 view .LVU96
 304              		.thumb
 305              		.syntax unified
 306              	.LBE6:
 307              		.loc 1 140 13 view .LVU97
 308 0100 01F8013B 		strb	r3, [r1], #1
 309              	.LVL50:
 141:DSP/Source/SupportFunctions/arm_float_to_q7.c **** 
 142:DSP/Source/SupportFunctions/arm_float_to_q7.c **** #else
 143:DSP/Source/SupportFunctions/arm_float_to_q7.c **** 
 144:DSP/Source/SupportFunctions/arm_float_to_q7.c ****     /* C = A * 128 */
ARM GAS  /var/folders/ck/g3dcd5x55xs4107jgdl0snvr0000gn/T//ccwkSEVv.s 			page 10


 145:DSP/Source/SupportFunctions/arm_float_to_q7.c ****     /* convert from float to q7 and then store the results in the destination buffer */
 146:DSP/Source/SupportFunctions/arm_float_to_q7.c ****     *pDst++ = __SSAT((q31_t) (*pIn++ * 128.0f), 8);
 147:DSP/Source/SupportFunctions/arm_float_to_q7.c **** 
 148:DSP/Source/SupportFunctions/arm_float_to_q7.c **** #endif /*      #ifdef ARM_MATH_ROUNDING        */
 149:DSP/Source/SupportFunctions/arm_float_to_q7.c **** 
 150:DSP/Source/SupportFunctions/arm_float_to_q7.c ****     /* Decrement the loop counter */
 151:DSP/Source/SupportFunctions/arm_float_to_q7.c ****     blkCnt--;
 310              		.loc 1 151 5 is_stmt 1 view .LVU98
 311              		.loc 1 151 11 is_stmt 0 view .LVU99
 312 0104 013A     		subs	r2, r2, #1
 313              	.LVL51:
 314              	.L12:
 131:DSP/Source/SupportFunctions/arm_float_to_q7.c ****   {
 315              		.loc 1 131 17 is_stmt 1 view .LVU100
 316 0106 6AB1     		cbz	r2, .L33
 137:DSP/Source/SupportFunctions/arm_float_to_q7.c ****     in = (in * 128);
 317              		.loc 1 137 5 view .LVU101
 318              	.LVL52:
 137:DSP/Source/SupportFunctions/arm_float_to_q7.c ****     in = (in * 128);
 319              		.loc 1 137 8 is_stmt 0 view .LVU102
 320 0108 B0EC017A 		vldmia.32	r0!, {s14}
 321              	.LVL53:
 138:DSP/Source/SupportFunctions/arm_float_to_q7.c ****     in += in > 0.0f ? 0.5f : -0.5f;
 322              		.loc 1 138 5 is_stmt 1 view .LVU103
 138:DSP/Source/SupportFunctions/arm_float_to_q7.c ****     in += in > 0.0f ? 0.5f : -0.5f;
 323              		.loc 1 138 8 is_stmt 0 view .LVU104
 324 010c DFED077A 		vldr.32	s15, .L34
 325 0110 27EE277A 		vmul.f32	s14, s14, s15
 326              	.LVL54:
 139:DSP/Source/SupportFunctions/arm_float_to_q7.c ****     *pDst++ = (q7_t) (__SSAT((q15_t) (in), 8));
 327              		.loc 1 139 5 is_stmt 1 view .LVU105
 139:DSP/Source/SupportFunctions/arm_float_to_q7.c ****     *pDst++ = (q7_t) (__SSAT((q15_t) (in), 8));
 328              		.loc 1 139 28 is_stmt 0 view .LVU106
 329 0114 B5EEC07A 		vcmpe.f32	s14, #0
 330 0118 F1EE10FA 		vmrs	APSR_nzcv, FPSCR
 331 011c E5DD     		ble	.L30
 139:DSP/Source/SupportFunctions/arm_float_to_q7.c ****     *pDst++ = (q7_t) (__SSAT((q15_t) (in), 8));
 332              		.loc 1 139 28 discriminator 1 view .LVU107
 333 011e F6EE007A 		vmov.f32	s15, #5.0e-1
 334 0122 E4E7     		b	.L13
 335              	.LVL55:
 336              	.L33:
 152:DSP/Source/SupportFunctions/arm_float_to_q7.c ****   }
 153:DSP/Source/SupportFunctions/arm_float_to_q7.c **** 
 154:DSP/Source/SupportFunctions/arm_float_to_q7.c **** 
 155:DSP/Source/SupportFunctions/arm_float_to_q7.c **** #else
 156:DSP/Source/SupportFunctions/arm_float_to_q7.c **** 
 157:DSP/Source/SupportFunctions/arm_float_to_q7.c ****   /* Run the below code for Cortex-M0 */
 158:DSP/Source/SupportFunctions/arm_float_to_q7.c **** 
 159:DSP/Source/SupportFunctions/arm_float_to_q7.c **** 
 160:DSP/Source/SupportFunctions/arm_float_to_q7.c ****   /* Loop over blockSize number of values */
 161:DSP/Source/SupportFunctions/arm_float_to_q7.c ****   blkCnt = blockSize;
 162:DSP/Source/SupportFunctions/arm_float_to_q7.c **** 
 163:DSP/Source/SupportFunctions/arm_float_to_q7.c ****   while (blkCnt > 0U)
 164:DSP/Source/SupportFunctions/arm_float_to_q7.c ****   {
 165:DSP/Source/SupportFunctions/arm_float_to_q7.c **** #ifdef ARM_MATH_ROUNDING
 166:DSP/Source/SupportFunctions/arm_float_to_q7.c ****     /* C = A * 128 */
ARM GAS  /var/folders/ck/g3dcd5x55xs4107jgdl0snvr0000gn/T//ccwkSEVv.s 			page 11


 167:DSP/Source/SupportFunctions/arm_float_to_q7.c ****     /* convert from float to q7 and then store the results in the destination buffer */
 168:DSP/Source/SupportFunctions/arm_float_to_q7.c ****     in = *pIn++;
 169:DSP/Source/SupportFunctions/arm_float_to_q7.c ****     in = (in * 128.0f);
 170:DSP/Source/SupportFunctions/arm_float_to_q7.c ****     in += in > 0 ? 0.5f : -0.5f;
 171:DSP/Source/SupportFunctions/arm_float_to_q7.c ****     *pDst++ = (q7_t) (__SSAT((q31_t) (in), 8));
 172:DSP/Source/SupportFunctions/arm_float_to_q7.c **** 
 173:DSP/Source/SupportFunctions/arm_float_to_q7.c **** #else
 174:DSP/Source/SupportFunctions/arm_float_to_q7.c **** 
 175:DSP/Source/SupportFunctions/arm_float_to_q7.c ****     /* C = A * 128 */
 176:DSP/Source/SupportFunctions/arm_float_to_q7.c ****     /* convert from float to q7 and then store the results in the destination buffer */
 177:DSP/Source/SupportFunctions/arm_float_to_q7.c ****     *pDst++ = (q7_t) __SSAT((q31_t) (*pIn++ * 128.0f), 8);
 178:DSP/Source/SupportFunctions/arm_float_to_q7.c **** 
 179:DSP/Source/SupportFunctions/arm_float_to_q7.c **** #endif /*      #ifdef ARM_MATH_ROUNDING        */
 180:DSP/Source/SupportFunctions/arm_float_to_q7.c **** 
 181:DSP/Source/SupportFunctions/arm_float_to_q7.c ****     /* Decrement the loop counter */
 182:DSP/Source/SupportFunctions/arm_float_to_q7.c ****     blkCnt--;
 183:DSP/Source/SupportFunctions/arm_float_to_q7.c ****   }
 184:DSP/Source/SupportFunctions/arm_float_to_q7.c **** 
 185:DSP/Source/SupportFunctions/arm_float_to_q7.c **** #endif /* #if defined (ARM_MATH_DSP) */
 186:DSP/Source/SupportFunctions/arm_float_to_q7.c **** 
 187:DSP/Source/SupportFunctions/arm_float_to_q7.c **** }
 337              		.loc 1 187 1 view .LVU108
 338 0124 5DF8044B 		ldr	r4, [sp], #4
 339              	.LCFI1:
 340              		.cfi_restore 4
 341              		.cfi_def_cfa_offset 0
 342 0128 7047     		bx	lr
 343              	.L35:
 344 012a 00BF     		.align	2
 345              	.L34:
 346 012c 00000043 		.word	1124073472
 347              		.cfi_endproc
 348              	.LFE139:
 350              		.text
 351              	.Letext0:
 352              		.file 2 "/Users/luban/.local/xPacks/arm-none-eabi-gcc/xpack-arm-none-eabi-gcc-13.2.1-1.1/arm-none-
 353              		.file 3 "/Users/luban/.local/xPacks/arm-none-eabi-gcc/xpack-arm-none-eabi-gcc-13.2.1-1.1/arm-none-
 354              		.file 4 "DSP/Inc/arm_math.h"
ARM GAS  /var/folders/ck/g3dcd5x55xs4107jgdl0snvr0000gn/T//ccwkSEVv.s 			page 12


DEFINED SYMBOLS
                            *ABS*:00000000 arm_float_to_q7.c
/var/folders/ck/g3dcd5x55xs4107jgdl0snvr0000gn/T//ccwkSEVv.s:21     .text.arm_float_to_q7:00000000 $t
/var/folders/ck/g3dcd5x55xs4107jgdl0snvr0000gn/T//ccwkSEVv.s:27     .text.arm_float_to_q7:00000000 arm_float_to_q7
/var/folders/ck/g3dcd5x55xs4107jgdl0snvr0000gn/T//ccwkSEVv.s:346    .text.arm_float_to_q7:0000012c $d

NO UNDEFINED SYMBOLS
