ARM GAS  /var/folders/ck/g3dcd5x55xs4107jgdl0snvr0000gn/T//ccI4dD4Q.s 			page 1


   1              		.cpu cortex-m4
   2              		.arch armv7e-m
   3              		.fpu fpv4-sp-d16
   4              		.eabi_attribute 27, 1
   5              		.eabi_attribute 28, 1
   6              		.eabi_attribute 20, 1
   7              		.eabi_attribute 21, 1
   8              		.eabi_attribute 23, 3
   9              		.eabi_attribute 24, 1
  10              		.eabi_attribute 25, 1
  11              		.eabi_attribute 26, 1
  12              		.eabi_attribute 30, 1
  13              		.eabi_attribute 34, 1
  14              		.eabi_attribute 18, 4
  15              		.file	"arm_cos_q15.c"
  16              		.text
  17              	.Ltext0:
  18              		.cfi_sections	.debug_frame
  19              		.file 1 "DSP/Source/FastMathFunctions/arm_cos_q15.c"
  20              		.section	.text.arm_cos_q15,"ax",%progbits
  21              		.align	1
  22              		.global	arm_cos_q15
  23              		.syntax unified
  24              		.thumb
  25              		.thumb_func
  27              	arm_cos_q15:
  28              	.LVL0:
  29              	.LFB139:
   1:DSP/Source/FastMathFunctions/arm_cos_q15.c **** /* ----------------------------------------------------------------------
   2:DSP/Source/FastMathFunctions/arm_cos_q15.c ****  * Project:      CMSIS DSP Library
   3:DSP/Source/FastMathFunctions/arm_cos_q15.c ****  * Title:        arm_cos_q15.c
   4:DSP/Source/FastMathFunctions/arm_cos_q15.c ****  * Description:  Fast cosine calculation for Q15 values
   5:DSP/Source/FastMathFunctions/arm_cos_q15.c ****  *
   6:DSP/Source/FastMathFunctions/arm_cos_q15.c ****  * $Date:        27. January 2017
   7:DSP/Source/FastMathFunctions/arm_cos_q15.c ****  * $Revision:    V.1.5.1
   8:DSP/Source/FastMathFunctions/arm_cos_q15.c ****  *
   9:DSP/Source/FastMathFunctions/arm_cos_q15.c ****  * Target Processor: Cortex-M cores
  10:DSP/Source/FastMathFunctions/arm_cos_q15.c ****  * -------------------------------------------------------------------- */
  11:DSP/Source/FastMathFunctions/arm_cos_q15.c **** /*
  12:DSP/Source/FastMathFunctions/arm_cos_q15.c ****  * Copyright (C) 2010-2017 ARM Limited or its affiliates. All rights reserved.
  13:DSP/Source/FastMathFunctions/arm_cos_q15.c ****  *
  14:DSP/Source/FastMathFunctions/arm_cos_q15.c ****  * SPDX-License-Identifier: Apache-2.0
  15:DSP/Source/FastMathFunctions/arm_cos_q15.c ****  *
  16:DSP/Source/FastMathFunctions/arm_cos_q15.c ****  * Licensed under the Apache License, Version 2.0 (the License); you may
  17:DSP/Source/FastMathFunctions/arm_cos_q15.c ****  * not use this file except in compliance with the License.
  18:DSP/Source/FastMathFunctions/arm_cos_q15.c ****  * You may obtain a copy of the License at
  19:DSP/Source/FastMathFunctions/arm_cos_q15.c ****  *
  20:DSP/Source/FastMathFunctions/arm_cos_q15.c ****  * www.apache.org/licenses/LICENSE-2.0
  21:DSP/Source/FastMathFunctions/arm_cos_q15.c ****  *
  22:DSP/Source/FastMathFunctions/arm_cos_q15.c ****  * Unless required by applicable law or agreed to in writing, software
  23:DSP/Source/FastMathFunctions/arm_cos_q15.c ****  * distributed under the License is distributed on an AS IS BASIS, WITHOUT
  24:DSP/Source/FastMathFunctions/arm_cos_q15.c ****  * WARRANTIES OR CONDITIONS OF ANY KIND, either express or implied.
  25:DSP/Source/FastMathFunctions/arm_cos_q15.c ****  * See the License for the specific language governing permissions and
  26:DSP/Source/FastMathFunctions/arm_cos_q15.c ****  * limitations under the License.
  27:DSP/Source/FastMathFunctions/arm_cos_q15.c ****  */
  28:DSP/Source/FastMathFunctions/arm_cos_q15.c **** 
  29:DSP/Source/FastMathFunctions/arm_cos_q15.c **** #include "arm_math.h"
ARM GAS  /var/folders/ck/g3dcd5x55xs4107jgdl0snvr0000gn/T//ccI4dD4Q.s 			page 2


  30:DSP/Source/FastMathFunctions/arm_cos_q15.c **** #include "arm_common_tables.h"
  31:DSP/Source/FastMathFunctions/arm_cos_q15.c **** 
  32:DSP/Source/FastMathFunctions/arm_cos_q15.c **** /**
  33:DSP/Source/FastMathFunctions/arm_cos_q15.c ****  * @ingroup groupFastMath
  34:DSP/Source/FastMathFunctions/arm_cos_q15.c ****  */
  35:DSP/Source/FastMathFunctions/arm_cos_q15.c **** 
  36:DSP/Source/FastMathFunctions/arm_cos_q15.c ****  /**
  37:DSP/Source/FastMathFunctions/arm_cos_q15.c ****  * @addtogroup cos
  38:DSP/Source/FastMathFunctions/arm_cos_q15.c ****  * @{
  39:DSP/Source/FastMathFunctions/arm_cos_q15.c ****  */
  40:DSP/Source/FastMathFunctions/arm_cos_q15.c **** 
  41:DSP/Source/FastMathFunctions/arm_cos_q15.c **** /**
  42:DSP/Source/FastMathFunctions/arm_cos_q15.c ****  * @brief Fast approximation to the trigonometric cosine function for Q15 data.
  43:DSP/Source/FastMathFunctions/arm_cos_q15.c ****  * @param[in] x Scaled input value in radians.
  44:DSP/Source/FastMathFunctions/arm_cos_q15.c ****  * @return  cos(x).
  45:DSP/Source/FastMathFunctions/arm_cos_q15.c ****  *
  46:DSP/Source/FastMathFunctions/arm_cos_q15.c ****  * The Q15 input value is in the range [0 +0.9999] and is mapped to a radian
  47:DSP/Source/FastMathFunctions/arm_cos_q15.c ****  * value in the range [0 2*pi).
  48:DSP/Source/FastMathFunctions/arm_cos_q15.c ****  */
  49:DSP/Source/FastMathFunctions/arm_cos_q15.c **** 
  50:DSP/Source/FastMathFunctions/arm_cos_q15.c **** q15_t arm_cos_q15(
  51:DSP/Source/FastMathFunctions/arm_cos_q15.c ****   q15_t x)
  52:DSP/Source/FastMathFunctions/arm_cos_q15.c **** {
  30              		.loc 1 52 1 view -0
  31              		.cfi_startproc
  32              		@ args = 0, pretend = 0, frame = 0
  33              		@ frame_needed = 0, uses_anonymous_args = 0
  34              		@ link register save eliminated.
  53:DSP/Source/FastMathFunctions/arm_cos_q15.c ****   q15_t cosVal;                                  /* Temporary variables for input, output */
  35              		.loc 1 53 3 view .LVU1
  54:DSP/Source/FastMathFunctions/arm_cos_q15.c ****   int32_t index;                                 /* Index variables */
  36              		.loc 1 54 3 view .LVU2
  55:DSP/Source/FastMathFunctions/arm_cos_q15.c ****   q15_t a, b;                                    /* Four nearest output values */
  37              		.loc 1 55 3 view .LVU3
  56:DSP/Source/FastMathFunctions/arm_cos_q15.c ****   q15_t fract;                                   /* Temporary values for fractional values */
  38              		.loc 1 56 3 view .LVU4
  57:DSP/Source/FastMathFunctions/arm_cos_q15.c **** 
  58:DSP/Source/FastMathFunctions/arm_cos_q15.c ****   /* add 0.25 (pi/2) to read sine table */
  59:DSP/Source/FastMathFunctions/arm_cos_q15.c ****   x = (uint16_t)x + 0x2000;
  39              		.loc 1 59 3 view .LVU5
  40              		.loc 1 59 7 is_stmt 0 view .LVU6
  41 0000 80B2     		uxth	r0, r0
  42              		.loc 1 59 19 view .LVU7
  43 0002 00F50053 		add	r3, r0, #8192
  44              		.loc 1 59 5 view .LVU8
  45 0006 1BB2     		sxth	r3, r3
  46              	.LVL1:
  60:DSP/Source/FastMathFunctions/arm_cos_q15.c ****   if (x < 0)
  47              		.loc 1 60 3 is_stmt 1 view .LVU9
  48              		.loc 1 60 6 is_stmt 0 view .LVU10
  49 0008 002B     		cmp	r3, #0
  50 000a 15DB     		blt	.L3
  51              	.L2:
  61:DSP/Source/FastMathFunctions/arm_cos_q15.c ****   {   /* convert negative numbers to corresponding positive ones */
  62:DSP/Source/FastMathFunctions/arm_cos_q15.c ****       x = (uint16_t)x + 0x8000;
  63:DSP/Source/FastMathFunctions/arm_cos_q15.c ****   }
  64:DSP/Source/FastMathFunctions/arm_cos_q15.c **** 
ARM GAS  /var/folders/ck/g3dcd5x55xs4107jgdl0snvr0000gn/T//ccI4dD4Q.s 			page 3


  65:DSP/Source/FastMathFunctions/arm_cos_q15.c ****   /* Calculate the nearest index */
  66:DSP/Source/FastMathFunctions/arm_cos_q15.c ****   index = (uint32_t)x >> FAST_MATH_Q15_SHIFT;
  52              		.loc 1 66 3 is_stmt 1 view .LVU11
  53              		.loc 1 66 23 is_stmt 0 view .LVU12
  54 000c 9A09     		lsrs	r2, r3, #6
  55              	.LVL2:
  67:DSP/Source/FastMathFunctions/arm_cos_q15.c **** 
  68:DSP/Source/FastMathFunctions/arm_cos_q15.c ****   /* Calculation of fractional value */
  69:DSP/Source/FastMathFunctions/arm_cos_q15.c ****   fract = (x - (index << FAST_MATH_Q15_SHIFT)) << 9;
  56              		.loc 1 69 3 is_stmt 1 view .LVU13
  57              		.loc 1 69 9 is_stmt 0 view .LVU14
  58 000e 03F03F03 		and	r3, r3, #63
  59              	.LVL3:
  60              		.loc 1 69 9 view .LVU15
  61 0012 5B02     		lsls	r3, r3, #9
  62              	.LVL4:
  70:DSP/Source/FastMathFunctions/arm_cos_q15.c **** 
  71:DSP/Source/FastMathFunctions/arm_cos_q15.c ****   /* Read two nearest values of input value from the sin table */
  72:DSP/Source/FastMathFunctions/arm_cos_q15.c ****   a = sinTable_q15[index];
  63              		.loc 1 72 3 is_stmt 1 view .LVU16
  64              		.loc 1 72 5 is_stmt 0 view .LVU17
  65 0014 0A49     		ldr	r1, .L4
  66 0016 31F91200 		ldrsh	r0, [r1, r2, lsl #1]
  67              	.LVL5:
  73:DSP/Source/FastMathFunctions/arm_cos_q15.c ****   b = sinTable_q15[index+1];
  68              		.loc 1 73 3 is_stmt 1 view .LVU18
  69              		.loc 1 73 25 is_stmt 0 view .LVU19
  70 001a 0132     		adds	r2, r2, #1
  71              	.LVL6:
  72              		.loc 1 73 5 view .LVU20
  73 001c 31F91220 		ldrsh	r2, [r1, r2, lsl #1]
  74              	.LVL7:
  74:DSP/Source/FastMathFunctions/arm_cos_q15.c **** 
  75:DSP/Source/FastMathFunctions/arm_cos_q15.c ****   /* Linear interpolation process */
  76:DSP/Source/FastMathFunctions/arm_cos_q15.c ****   cosVal = (q31_t)(0x8000-fract)*a >> 16;
  75              		.loc 1 76 3 is_stmt 1 view .LVU21
  76              		.loc 1 76 26 is_stmt 0 view .LVU22
  77 0020 C3F50041 		rsb	r1, r3, #32768
  78              		.loc 1 76 33 view .LVU23
  79 0024 01FB00F0 		mul	r0, r1, r0
  80              	.LVL8:
  77:DSP/Source/FastMathFunctions/arm_cos_q15.c ****   cosVal = (q15_t)((((q31_t)cosVal << 16) + ((q31_t)fract*b)) >> 16);
  81              		.loc 1 77 3 is_stmt 1 view .LVU24
  82              		.loc 1 77 36 is_stmt 0 view .LVU25
  83 0028 6FF30F00 		bfc	r0, #0, #16
  84              	.LVL9:
  85              		.loc 1 77 43 view .LVU26
  86 002c 03FB0200 		mla	r0, r3, r2, r0
  87              		.loc 1 77 10 view .LVU27
  88 0030 0014     		asrs	r0, r0, #16
  89              	.LVL10:
  78:DSP/Source/FastMathFunctions/arm_cos_q15.c **** 
  79:DSP/Source/FastMathFunctions/arm_cos_q15.c ****   return cosVal << 1;
  90              		.loc 1 79 3 is_stmt 1 view .LVU28
  91              		.loc 1 79 17 is_stmt 0 view .LVU29
  92 0032 4000     		lsls	r0, r0, #1
  93              	.LVL11:
ARM GAS  /var/folders/ck/g3dcd5x55xs4107jgdl0snvr0000gn/T//ccI4dD4Q.s 			page 4


  80:DSP/Source/FastMathFunctions/arm_cos_q15.c **** }
  94              		.loc 1 80 1 view .LVU30
  95 0034 00B2     		sxth	r0, r0
  96 0036 7047     		bx	lr
  97              	.LVL12:
  98              	.L3:
  62:DSP/Source/FastMathFunctions/arm_cos_q15.c ****   }
  99              		.loc 1 62 7 is_stmt 1 view .LVU31
  62:DSP/Source/FastMathFunctions/arm_cos_q15.c ****   }
 100              		.loc 1 62 23 is_stmt 0 view .LVU32
 101 0038 A0F5C040 		sub	r0, r0, #24576
  62:DSP/Source/FastMathFunctions/arm_cos_q15.c ****   }
 102              		.loc 1 62 9 view .LVU33
 103 003c 03B2     		sxth	r3, r0
 104              	.LVL13:
  62:DSP/Source/FastMathFunctions/arm_cos_q15.c ****   }
 105              		.loc 1 62 9 view .LVU34
 106 003e E5E7     		b	.L2
 107              	.L5:
 108              		.align	2
 109              	.L4:
 110 0040 00000000 		.word	sinTable_q15
 111              		.cfi_endproc
 112              	.LFE139:
 114              		.text
 115              	.Letext0:
 116              		.file 2 "/Users/luban/.local/xPacks/arm-none-eabi-gcc/xpack-arm-none-eabi-gcc-13.2.1-1.1/arm-none-
 117              		.file 3 "/Users/luban/.local/xPacks/arm-none-eabi-gcc/xpack-arm-none-eabi-gcc-13.2.1-1.1/arm-none-
 118              		.file 4 "DSP/Inc/arm_math.h"
 119              		.file 5 "DSP/Inc/arm_common_tables.h"
ARM GAS  /var/folders/ck/g3dcd5x55xs4107jgdl0snvr0000gn/T//ccI4dD4Q.s 			page 5


DEFINED SYMBOLS
                            *ABS*:00000000 arm_cos_q15.c
/var/folders/ck/g3dcd5x55xs4107jgdl0snvr0000gn/T//ccI4dD4Q.s:21     .text.arm_cos_q15:00000000 $t
/var/folders/ck/g3dcd5x55xs4107jgdl0snvr0000gn/T//ccI4dD4Q.s:27     .text.arm_cos_q15:00000000 arm_cos_q15
/var/folders/ck/g3dcd5x55xs4107jgdl0snvr0000gn/T//ccI4dD4Q.s:110    .text.arm_cos_q15:00000040 $d

UNDEFINED SYMBOLS
sinTable_q15
