ARM GAS  /var/folders/ck/g3dcd5x55xs4107jgdl0snvr0000gn/T//ccT4HE9t.s 			page 1


   1              		.cpu cortex-m4
   2              		.arch armv7e-m
   3              		.fpu fpv4-sp-d16
   4              		.eabi_attribute 27, 1
   5              		.eabi_attribute 28, 1
   6              		.eabi_attribute 20, 1
   7              		.eabi_attribute 21, 1
   8              		.eabi_attribute 23, 3
   9              		.eabi_attribute 24, 1
  10              		.eabi_attribute 25, 1
  11              		.eabi_attribute 26, 1
  12              		.eabi_attribute 30, 1
  13              		.eabi_attribute 34, 1
  14              		.eabi_attribute 18, 4
  15              		.file	"arm_cfft_radix2_f32.c"
  16              		.text
  17              	.Ltext0:
  18              		.cfi_sections	.debug_frame
  19              		.file 1 "DSP/Source/TransformFunctions/arm_cfft_radix2_f32.c"
  20              		.section	.text.arm_radix2_butterfly_f32,"ax",%progbits
  21              		.align	1
  22              		.global	arm_radix2_butterfly_f32
  23              		.syntax unified
  24              		.thumb
  25              		.thumb_func
  27              	arm_radix2_butterfly_f32:
  28              	.LVL0:
  29              	.LFB140:
   1:DSP/Source/TransformFunctions/arm_cfft_radix2_f32.c **** /* ----------------------------------------------------------------------
   2:DSP/Source/TransformFunctions/arm_cfft_radix2_f32.c ****  * Project:      CMSIS DSP Library
   3:DSP/Source/TransformFunctions/arm_cfft_radix2_f32.c ****  * Title:        arm_cfft_radix2_f32.c
   4:DSP/Source/TransformFunctions/arm_cfft_radix2_f32.c ****  * Description:  Radix-2 Decimation in Frequency CFFT & CIFFT Floating point processing function
   5:DSP/Source/TransformFunctions/arm_cfft_radix2_f32.c ****  *
   6:DSP/Source/TransformFunctions/arm_cfft_radix2_f32.c ****  * $Date:        27. January 2017
   7:DSP/Source/TransformFunctions/arm_cfft_radix2_f32.c ****  * $Revision:    V.1.5.1
   8:DSP/Source/TransformFunctions/arm_cfft_radix2_f32.c ****  *
   9:DSP/Source/TransformFunctions/arm_cfft_radix2_f32.c ****  * Target Processor: Cortex-M cores
  10:DSP/Source/TransformFunctions/arm_cfft_radix2_f32.c ****  * -------------------------------------------------------------------- */
  11:DSP/Source/TransformFunctions/arm_cfft_radix2_f32.c **** /*
  12:DSP/Source/TransformFunctions/arm_cfft_radix2_f32.c ****  * Copyright (C) 2010-2017 ARM Limited or its affiliates. All rights reserved.
  13:DSP/Source/TransformFunctions/arm_cfft_radix2_f32.c ****  *
  14:DSP/Source/TransformFunctions/arm_cfft_radix2_f32.c ****  * SPDX-License-Identifier: Apache-2.0
  15:DSP/Source/TransformFunctions/arm_cfft_radix2_f32.c ****  *
  16:DSP/Source/TransformFunctions/arm_cfft_radix2_f32.c ****  * Licensed under the Apache License, Version 2.0 (the License); you may
  17:DSP/Source/TransformFunctions/arm_cfft_radix2_f32.c ****  * not use this file except in compliance with the License.
  18:DSP/Source/TransformFunctions/arm_cfft_radix2_f32.c ****  * You may obtain a copy of the License at
  19:DSP/Source/TransformFunctions/arm_cfft_radix2_f32.c ****  *
  20:DSP/Source/TransformFunctions/arm_cfft_radix2_f32.c ****  * www.apache.org/licenses/LICENSE-2.0
  21:DSP/Source/TransformFunctions/arm_cfft_radix2_f32.c ****  *
  22:DSP/Source/TransformFunctions/arm_cfft_radix2_f32.c ****  * Unless required by applicable law or agreed to in writing, software
  23:DSP/Source/TransformFunctions/arm_cfft_radix2_f32.c ****  * distributed under the License is distributed on an AS IS BASIS, WITHOUT
  24:DSP/Source/TransformFunctions/arm_cfft_radix2_f32.c ****  * WARRANTIES OR CONDITIONS OF ANY KIND, either express or implied.
  25:DSP/Source/TransformFunctions/arm_cfft_radix2_f32.c ****  * See the License for the specific language governing permissions and
  26:DSP/Source/TransformFunctions/arm_cfft_radix2_f32.c ****  * limitations under the License.
  27:DSP/Source/TransformFunctions/arm_cfft_radix2_f32.c ****  */
  28:DSP/Source/TransformFunctions/arm_cfft_radix2_f32.c **** 
  29:DSP/Source/TransformFunctions/arm_cfft_radix2_f32.c **** #include "arm_math.h"
ARM GAS  /var/folders/ck/g3dcd5x55xs4107jgdl0snvr0000gn/T//ccT4HE9t.s 			page 2


  30:DSP/Source/TransformFunctions/arm_cfft_radix2_f32.c **** 
  31:DSP/Source/TransformFunctions/arm_cfft_radix2_f32.c **** void arm_radix2_butterfly_f32(
  32:DSP/Source/TransformFunctions/arm_cfft_radix2_f32.c ****   float32_t * pSrc,
  33:DSP/Source/TransformFunctions/arm_cfft_radix2_f32.c ****   uint32_t fftLen,
  34:DSP/Source/TransformFunctions/arm_cfft_radix2_f32.c ****   float32_t * pCoef,
  35:DSP/Source/TransformFunctions/arm_cfft_radix2_f32.c ****   uint16_t twidCoefModifier);
  36:DSP/Source/TransformFunctions/arm_cfft_radix2_f32.c **** 
  37:DSP/Source/TransformFunctions/arm_cfft_radix2_f32.c **** void arm_radix2_butterfly_inverse_f32(
  38:DSP/Source/TransformFunctions/arm_cfft_radix2_f32.c ****   float32_t * pSrc,
  39:DSP/Source/TransformFunctions/arm_cfft_radix2_f32.c ****   uint32_t fftLen,
  40:DSP/Source/TransformFunctions/arm_cfft_radix2_f32.c ****   float32_t * pCoef,
  41:DSP/Source/TransformFunctions/arm_cfft_radix2_f32.c ****   uint16_t twidCoefModifier,
  42:DSP/Source/TransformFunctions/arm_cfft_radix2_f32.c ****   float32_t onebyfftLen);
  43:DSP/Source/TransformFunctions/arm_cfft_radix2_f32.c **** 
  44:DSP/Source/TransformFunctions/arm_cfft_radix2_f32.c **** extern void arm_bitreversal_f32(
  45:DSP/Source/TransformFunctions/arm_cfft_radix2_f32.c ****     float32_t * pSrc,
  46:DSP/Source/TransformFunctions/arm_cfft_radix2_f32.c ****     uint16_t fftSize,
  47:DSP/Source/TransformFunctions/arm_cfft_radix2_f32.c ****     uint16_t bitRevFactor,
  48:DSP/Source/TransformFunctions/arm_cfft_radix2_f32.c ****     uint16_t * pBitRevTab);
  49:DSP/Source/TransformFunctions/arm_cfft_radix2_f32.c **** 
  50:DSP/Source/TransformFunctions/arm_cfft_radix2_f32.c **** /**
  51:DSP/Source/TransformFunctions/arm_cfft_radix2_f32.c **** * @ingroup groupTransforms
  52:DSP/Source/TransformFunctions/arm_cfft_radix2_f32.c **** */
  53:DSP/Source/TransformFunctions/arm_cfft_radix2_f32.c **** 
  54:DSP/Source/TransformFunctions/arm_cfft_radix2_f32.c **** /**
  55:DSP/Source/TransformFunctions/arm_cfft_radix2_f32.c **** * @addtogroup ComplexFFT
  56:DSP/Source/TransformFunctions/arm_cfft_radix2_f32.c **** * @{
  57:DSP/Source/TransformFunctions/arm_cfft_radix2_f32.c **** */
  58:DSP/Source/TransformFunctions/arm_cfft_radix2_f32.c **** 
  59:DSP/Source/TransformFunctions/arm_cfft_radix2_f32.c **** /**
  60:DSP/Source/TransformFunctions/arm_cfft_radix2_f32.c **** * @details
  61:DSP/Source/TransformFunctions/arm_cfft_radix2_f32.c **** * @brief Radix-2 CFFT/CIFFT.
  62:DSP/Source/TransformFunctions/arm_cfft_radix2_f32.c **** * @deprecated Do not use this function.  It has been superseded by \ref arm_cfft_f32 and will be re
  63:DSP/Source/TransformFunctions/arm_cfft_radix2_f32.c **** * in the future.
  64:DSP/Source/TransformFunctions/arm_cfft_radix2_f32.c **** * @param[in]      *S    points to an instance of the floating-point Radix-2 CFFT/CIFFT structure.
  65:DSP/Source/TransformFunctions/arm_cfft_radix2_f32.c **** * @param[in, out] *pSrc points to the complex data buffer of size <code>2*fftLen</code>. Processing
  66:DSP/Source/TransformFunctions/arm_cfft_radix2_f32.c **** * @return none.
  67:DSP/Source/TransformFunctions/arm_cfft_radix2_f32.c **** */
  68:DSP/Source/TransformFunctions/arm_cfft_radix2_f32.c **** 
  69:DSP/Source/TransformFunctions/arm_cfft_radix2_f32.c **** void arm_cfft_radix2_f32(
  70:DSP/Source/TransformFunctions/arm_cfft_radix2_f32.c **** const arm_cfft_radix2_instance_f32 * S,
  71:DSP/Source/TransformFunctions/arm_cfft_radix2_f32.c **** float32_t * pSrc)
  72:DSP/Source/TransformFunctions/arm_cfft_radix2_f32.c **** {
  73:DSP/Source/TransformFunctions/arm_cfft_radix2_f32.c **** 
  74:DSP/Source/TransformFunctions/arm_cfft_radix2_f32.c ****    if (S->ifftFlag == 1U)
  75:DSP/Source/TransformFunctions/arm_cfft_radix2_f32.c ****    {
  76:DSP/Source/TransformFunctions/arm_cfft_radix2_f32.c ****       /*  Complex IFFT radix-2  */
  77:DSP/Source/TransformFunctions/arm_cfft_radix2_f32.c ****       arm_radix2_butterfly_inverse_f32(pSrc, S->fftLen, S->pTwiddle,
  78:DSP/Source/TransformFunctions/arm_cfft_radix2_f32.c ****       S->twidCoefModifier, S->onebyfftLen);
  79:DSP/Source/TransformFunctions/arm_cfft_radix2_f32.c ****    }
  80:DSP/Source/TransformFunctions/arm_cfft_radix2_f32.c ****    else
  81:DSP/Source/TransformFunctions/arm_cfft_radix2_f32.c ****    {
  82:DSP/Source/TransformFunctions/arm_cfft_radix2_f32.c ****       /*  Complex FFT radix-2  */
  83:DSP/Source/TransformFunctions/arm_cfft_radix2_f32.c ****       arm_radix2_butterfly_f32(pSrc, S->fftLen, S->pTwiddle,
  84:DSP/Source/TransformFunctions/arm_cfft_radix2_f32.c ****       S->twidCoefModifier);
  85:DSP/Source/TransformFunctions/arm_cfft_radix2_f32.c ****    }
  86:DSP/Source/TransformFunctions/arm_cfft_radix2_f32.c **** 
ARM GAS  /var/folders/ck/g3dcd5x55xs4107jgdl0snvr0000gn/T//ccT4HE9t.s 			page 3


  87:DSP/Source/TransformFunctions/arm_cfft_radix2_f32.c ****    if (S->bitReverseFlag == 1U)
  88:DSP/Source/TransformFunctions/arm_cfft_radix2_f32.c ****    {
  89:DSP/Source/TransformFunctions/arm_cfft_radix2_f32.c ****       /*  Bit Reversal */
  90:DSP/Source/TransformFunctions/arm_cfft_radix2_f32.c ****       arm_bitreversal_f32(pSrc, S->fftLen, S->bitRevFactor, S->pBitRevTable);
  91:DSP/Source/TransformFunctions/arm_cfft_radix2_f32.c ****    }
  92:DSP/Source/TransformFunctions/arm_cfft_radix2_f32.c **** 
  93:DSP/Source/TransformFunctions/arm_cfft_radix2_f32.c **** }
  94:DSP/Source/TransformFunctions/arm_cfft_radix2_f32.c **** 
  95:DSP/Source/TransformFunctions/arm_cfft_radix2_f32.c **** 
  96:DSP/Source/TransformFunctions/arm_cfft_radix2_f32.c **** /**
  97:DSP/Source/TransformFunctions/arm_cfft_radix2_f32.c **** * @} end of ComplexFFT group
  98:DSP/Source/TransformFunctions/arm_cfft_radix2_f32.c **** */
  99:DSP/Source/TransformFunctions/arm_cfft_radix2_f32.c **** 
 100:DSP/Source/TransformFunctions/arm_cfft_radix2_f32.c **** 
 101:DSP/Source/TransformFunctions/arm_cfft_radix2_f32.c **** 
 102:DSP/Source/TransformFunctions/arm_cfft_radix2_f32.c **** /* ----------------------------------------------------------------------
 103:DSP/Source/TransformFunctions/arm_cfft_radix2_f32.c **** ** Internal helper function used by the FFTs
 104:DSP/Source/TransformFunctions/arm_cfft_radix2_f32.c **** ** ------------------------------------------------------------------- */
 105:DSP/Source/TransformFunctions/arm_cfft_radix2_f32.c **** 
 106:DSP/Source/TransformFunctions/arm_cfft_radix2_f32.c **** /*
 107:DSP/Source/TransformFunctions/arm_cfft_radix2_f32.c **** * @brief  Core function for the floating-point CFFT butterfly process.
 108:DSP/Source/TransformFunctions/arm_cfft_radix2_f32.c **** * @param[in, out] *pSrc            points to the in-place buffer of floating-point data type.
 109:DSP/Source/TransformFunctions/arm_cfft_radix2_f32.c **** * @param[in]      fftLen           length of the FFT.
 110:DSP/Source/TransformFunctions/arm_cfft_radix2_f32.c **** * @param[in]      *pCoef           points to the twiddle coefficient buffer.
 111:DSP/Source/TransformFunctions/arm_cfft_radix2_f32.c **** * @param[in]      twidCoefModifier twiddle coefficient modifier that supports different size FFTs w
 112:DSP/Source/TransformFunctions/arm_cfft_radix2_f32.c **** * @return none.
 113:DSP/Source/TransformFunctions/arm_cfft_radix2_f32.c **** */
 114:DSP/Source/TransformFunctions/arm_cfft_radix2_f32.c **** 
 115:DSP/Source/TransformFunctions/arm_cfft_radix2_f32.c **** void arm_radix2_butterfly_f32(
 116:DSP/Source/TransformFunctions/arm_cfft_radix2_f32.c **** float32_t * pSrc,
 117:DSP/Source/TransformFunctions/arm_cfft_radix2_f32.c **** uint32_t fftLen,
 118:DSP/Source/TransformFunctions/arm_cfft_radix2_f32.c **** float32_t * pCoef,
 119:DSP/Source/TransformFunctions/arm_cfft_radix2_f32.c **** uint16_t twidCoefModifier)
 120:DSP/Source/TransformFunctions/arm_cfft_radix2_f32.c **** {
  30              		.loc 1 120 1 view -0
  31              		.cfi_startproc
  32              		@ args = 0, pretend = 0, frame = 8
  33              		@ frame_needed = 0, uses_anonymous_args = 0
  34              		.loc 1 120 1 is_stmt 0 view .LVU1
  35 0000 2DE9F04F 		push	{r4, r5, r6, r7, r8, r9, r10, fp, lr}
  36              	.LCFI0:
  37              		.cfi_def_cfa_offset 36
  38              		.cfi_offset 4, -36
  39              		.cfi_offset 5, -32
  40              		.cfi_offset 6, -28
  41              		.cfi_offset 7, -24
  42              		.cfi_offset 8, -20
  43              		.cfi_offset 9, -16
  44              		.cfi_offset 10, -12
  45              		.cfi_offset 11, -8
  46              		.cfi_offset 14, -4
  47 0004 83B0     		sub	sp, sp, #12
  48              	.LCFI1:
  49              		.cfi_def_cfa_offset 48
  50 0006 8446     		mov	ip, r0
  51 0008 0E46     		mov	r6, r1
  52 000a 9046     		mov	r8, r2
ARM GAS  /var/folders/ck/g3dcd5x55xs4107jgdl0snvr0000gn/T//ccT4HE9t.s 			page 4


  53 000c 9E46     		mov	lr, r3
 121:DSP/Source/TransformFunctions/arm_cfft_radix2_f32.c **** 
 122:DSP/Source/TransformFunctions/arm_cfft_radix2_f32.c ****    uint32_t i, j, k, l;
  54              		.loc 1 122 4 is_stmt 1 view .LVU2
 123:DSP/Source/TransformFunctions/arm_cfft_radix2_f32.c ****    uint32_t n1, n2, ia;
  55              		.loc 1 123 4 view .LVU3
 124:DSP/Source/TransformFunctions/arm_cfft_radix2_f32.c ****    float32_t xt, yt, cosVal, sinVal;
  56              		.loc 1 124 4 view .LVU4
 125:DSP/Source/TransformFunctions/arm_cfft_radix2_f32.c ****    float32_t p0, p1, p2, p3;
  57              		.loc 1 125 4 view .LVU5
 126:DSP/Source/TransformFunctions/arm_cfft_radix2_f32.c ****    float32_t a0, a1;
  58              		.loc 1 126 4 view .LVU6
 127:DSP/Source/TransformFunctions/arm_cfft_radix2_f32.c **** 
 128:DSP/Source/TransformFunctions/arm_cfft_radix2_f32.c **** #if defined (ARM_MATH_DSP)
 129:DSP/Source/TransformFunctions/arm_cfft_radix2_f32.c **** 
 130:DSP/Source/TransformFunctions/arm_cfft_radix2_f32.c ****    /*  Initializations for the first stage */
 131:DSP/Source/TransformFunctions/arm_cfft_radix2_f32.c ****    n2 = fftLen >> 1;
  59              		.loc 1 131 4 view .LVU7
  60              		.loc 1 131 7 is_stmt 0 view .LVU8
  61 000e 4B08     		lsrs	r3, r1, #1
  62              	.LVL1:
 132:DSP/Source/TransformFunctions/arm_cfft_radix2_f32.c ****    ia = 0;
  63              		.loc 1 132 4 is_stmt 1 view .LVU9
 133:DSP/Source/TransformFunctions/arm_cfft_radix2_f32.c ****    i = 0;
  64              		.loc 1 133 4 view .LVU10
 134:DSP/Source/TransformFunctions/arm_cfft_radix2_f32.c **** 
 135:DSP/Source/TransformFunctions/arm_cfft_radix2_f32.c ****    // loop for groups
 136:DSP/Source/TransformFunctions/arm_cfft_radix2_f32.c ****    for (k = n2; k > 0; k--)
  65              		.loc 1 136 4 view .LVU11
 132:DSP/Source/TransformFunctions/arm_cfft_radix2_f32.c ****    i = 0;
  66              		.loc 1 132 7 is_stmt 0 view .LVU12
  67 0010 0025     		movs	r5, #0
 133:DSP/Source/TransformFunctions/arm_cfft_radix2_f32.c ****    i = 0;
  68              		.loc 1 133 6 view .LVU13
  69 0012 2C46     		mov	r4, r5
  70 0014 1F46     		mov	r7, r3
  71              		.loc 1 136 4 view .LVU14
  72 0016 3AE0     		b	.L2
  73              	.LVL2:
  74              	.L3:
 137:DSP/Source/TransformFunctions/arm_cfft_radix2_f32.c ****    {
 138:DSP/Source/TransformFunctions/arm_cfft_radix2_f32.c ****       cosVal = pCoef[ia * 2];
  75              		.loc 1 138 7 is_stmt 1 view .LVU15
  76              		.loc 1 138 21 is_stmt 0 view .LVU16
  77 0018 EA00     		lsls	r2, r5, #3
  78 001a 08EBC501 		add	r1, r8, r5, lsl #3
  79              		.loc 1 138 14 view .LVU17
  80 001e D1ED007A 		vldr.32	s15, [r1]
  81              	.LVL3:
 139:DSP/Source/TransformFunctions/arm_cfft_radix2_f32.c ****       sinVal = pCoef[(ia * 2) + 1];
  82              		.loc 1 139 7 is_stmt 1 view .LVU18
  83              		.loc 1 139 21 is_stmt 0 view .LVU19
  84 0022 0432     		adds	r2, r2, #4
  85 0024 4244     		add	r2, r2, r8
  86              		.loc 1 139 14 view .LVU20
  87 0026 D2ED006A 		vldr.32	s13, [r2]
  88              	.LVL4:
ARM GAS  /var/folders/ck/g3dcd5x55xs4107jgdl0snvr0000gn/T//ccT4HE9t.s 			page 5


 140:DSP/Source/TransformFunctions/arm_cfft_radix2_f32.c **** 
 141:DSP/Source/TransformFunctions/arm_cfft_radix2_f32.c ****       /*  Twiddle coefficients index modifier */
 142:DSP/Source/TransformFunctions/arm_cfft_radix2_f32.c ****       ia += twidCoefModifier;
  89              		.loc 1 142 7 is_stmt 1 view .LVU21
  90              		.loc 1 142 10 is_stmt 0 view .LVU22
  91 002a 7544     		add	r5, r5, lr
  92              	.LVL5:
 143:DSP/Source/TransformFunctions/arm_cfft_radix2_f32.c **** 
 144:DSP/Source/TransformFunctions/arm_cfft_radix2_f32.c ****       /*  index calculation for the input as, */
 145:DSP/Source/TransformFunctions/arm_cfft_radix2_f32.c ****       /*  pSrc[i + 0], pSrc[i + fftLen/1] */
 146:DSP/Source/TransformFunctions/arm_cfft_radix2_f32.c ****       l = i + n2;
  93              		.loc 1 146 7 is_stmt 1 view .LVU23
  94              		.loc 1 146 9 is_stmt 0 view .LVU24
  95 002c E018     		adds	r0, r4, r3
  96              	.LVL6:
 147:DSP/Source/TransformFunctions/arm_cfft_radix2_f32.c **** 
 148:DSP/Source/TransformFunctions/arm_cfft_radix2_f32.c ****       /*  Butterfly implementation */
 149:DSP/Source/TransformFunctions/arm_cfft_radix2_f32.c ****       a0 = pSrc[2 * i] + pSrc[2 * l];
  97              		.loc 1 149 7 is_stmt 1 view .LVU25
  98              		.loc 1 149 16 is_stmt 0 view .LVU26
  99 002e E100     		lsls	r1, r4, #3
 100 0030 0CEBC409 		add	r9, ip, r4, lsl #3
 101 0034 99ED007A 		vldr.32	s14, [r9]
 102              		.loc 1 149 30 view .LVU27
 103 0038 C200     		lsls	r2, r0, #3
 104 003a 0CEBC000 		add	r0, ip, r0, lsl #3
 105              	.LVL7:
 106              		.loc 1 149 30 view .LVU28
 107 003e 90ED006A 		vldr.32	s12, [r0]
 108              		.loc 1 149 10 view .LVU29
 109 0042 37EE064A 		vadd.f32	s8, s14, s12
 110              	.LVL8:
 150:DSP/Source/TransformFunctions/arm_cfft_radix2_f32.c ****       xt = pSrc[2 * i] - pSrc[2 * l];
 111              		.loc 1 150 7 is_stmt 1 view .LVU30
 112              		.loc 1 150 10 is_stmt 0 view .LVU31
 113 0046 37EE467A 		vsub.f32	s14, s14, s12
 114              	.LVL9:
 151:DSP/Source/TransformFunctions/arm_cfft_radix2_f32.c **** 
 152:DSP/Source/TransformFunctions/arm_cfft_radix2_f32.c ****       yt = pSrc[2 * i + 1] - pSrc[2 * l + 1];
 115              		.loc 1 152 7 is_stmt 1 view .LVU32
 116              		.loc 1 152 16 is_stmt 0 view .LVU33
 117 004a 0431     		adds	r1, r1, #4
 118 004c 6144     		add	r1, r1, ip
 119 004e 91ED006A 		vldr.32	s12, [r1]
 120              		.loc 1 152 34 view .LVU34
 121 0052 0432     		adds	r2, r2, #4
 122 0054 6244     		add	r2, r2, ip
 123 0056 D2ED005A 		vldr.32	s11, [r2]
 124              		.loc 1 152 10 view .LVU35
 125 005a 36EE655A 		vsub.f32	s10, s12, s11
 126              	.LVL10:
 153:DSP/Source/TransformFunctions/arm_cfft_radix2_f32.c ****       a1 = pSrc[2 * l + 1] + pSrc[2 * i + 1];
 127              		.loc 1 153 7 is_stmt 1 view .LVU36
 128              		.loc 1 153 10 is_stmt 0 view .LVU37
 129 005e 36EE256A 		vadd.f32	s12, s12, s11
 130              	.LVL11:
 154:DSP/Source/TransformFunctions/arm_cfft_radix2_f32.c **** 
ARM GAS  /var/folders/ck/g3dcd5x55xs4107jgdl0snvr0000gn/T//ccT4HE9t.s 			page 6


 155:DSP/Source/TransformFunctions/arm_cfft_radix2_f32.c ****       p0 = xt * cosVal;
 131              		.loc 1 155 7 is_stmt 1 view .LVU38
 132              		.loc 1 155 10 is_stmt 0 view .LVU39
 133 0062 67EE875A 		vmul.f32	s11, s15, s14
 134              	.LVL12:
 156:DSP/Source/TransformFunctions/arm_cfft_radix2_f32.c ****       p1 = yt * sinVal;
 135              		.loc 1 156 7 is_stmt 1 view .LVU40
 136              		.loc 1 156 10 is_stmt 0 view .LVU41
 137 0066 66EE854A 		vmul.f32	s9, s13, s10
 138              	.LVL13:
 157:DSP/Source/TransformFunctions/arm_cfft_radix2_f32.c ****       p2 = yt * cosVal;
 139              		.loc 1 157 7 is_stmt 1 view .LVU42
 140              		.loc 1 157 10 is_stmt 0 view .LVU43
 141 006a 67EE857A 		vmul.f32	s15, s15, s10
 142              	.LVL14:
 158:DSP/Source/TransformFunctions/arm_cfft_radix2_f32.c ****       p3 = xt * sinVal;
 143              		.loc 1 158 7 is_stmt 1 view .LVU44
 144              		.loc 1 158 10 is_stmt 0 view .LVU45
 145 006e 66EE876A 		vmul.f32	s13, s13, s14
 146              	.LVL15:
 159:DSP/Source/TransformFunctions/arm_cfft_radix2_f32.c **** 
 160:DSP/Source/TransformFunctions/arm_cfft_radix2_f32.c ****       pSrc[2 * i]     = a0;
 147              		.loc 1 160 7 is_stmt 1 view .LVU46
 148              		.loc 1 160 23 is_stmt 0 view .LVU47
 149 0072 89ED004A 		vstr.32	s8, [r9]
 161:DSP/Source/TransformFunctions/arm_cfft_radix2_f32.c ****       pSrc[2 * i + 1] = a1;
 150              		.loc 1 161 7 is_stmt 1 view .LVU48
 151              		.loc 1 161 23 is_stmt 0 view .LVU49
 152 0076 81ED006A 		vstr.32	s12, [r1]
 162:DSP/Source/TransformFunctions/arm_cfft_radix2_f32.c **** 
 163:DSP/Source/TransformFunctions/arm_cfft_radix2_f32.c ****       pSrc[2 * l]     = p0 + p1;
 153              		.loc 1 163 7 is_stmt 1 view .LVU50
 154              		.loc 1 163 28 is_stmt 0 view .LVU51
 155 007a 35EEA47A 		vadd.f32	s14, s11, s9
 156              	.LVL16:
 157              		.loc 1 163 23 view .LVU52
 158 007e 80ED007A 		vstr.32	s14, [r0]
 164:DSP/Source/TransformFunctions/arm_cfft_radix2_f32.c ****       pSrc[2 * l + 1] = p2 - p3;
 159              		.loc 1 164 7 is_stmt 1 view .LVU53
 160              		.loc 1 164 28 is_stmt 0 view .LVU54
 161 0082 77EEE67A 		vsub.f32	s15, s15, s13
 162              	.LVL17:
 163              		.loc 1 164 23 view .LVU55
 164 0086 C2ED007A 		vstr.32	s15, [r2]
 165:DSP/Source/TransformFunctions/arm_cfft_radix2_f32.c **** 
 166:DSP/Source/TransformFunctions/arm_cfft_radix2_f32.c ****       i++;
 165              		.loc 1 166 7 is_stmt 1 view .LVU56
 166              		.loc 1 166 8 is_stmt 0 view .LVU57
 167 008a 0134     		adds	r4, r4, #1
 168              	.LVL18:
 136:DSP/Source/TransformFunctions/arm_cfft_radix2_f32.c ****    {
 169              		.loc 1 136 25 is_stmt 1 discriminator 3 view .LVU58
 170 008c 013F     		subs	r7, r7, #1
 171              	.LVL19:
 172              	.L2:
 136:DSP/Source/TransformFunctions/arm_cfft_radix2_f32.c ****    {
 173              		.loc 1 136 19 discriminator 1 view .LVU59
ARM GAS  /var/folders/ck/g3dcd5x55xs4107jgdl0snvr0000gn/T//ccT4HE9t.s 			page 7


 174 008e 002F     		cmp	r7, #0
 175 0090 C2D1     		bne	.L3
 167:DSP/Source/TransformFunctions/arm_cfft_radix2_f32.c ****    }                             // groups loop end
 168:DSP/Source/TransformFunctions/arm_cfft_radix2_f32.c **** 
 169:DSP/Source/TransformFunctions/arm_cfft_radix2_f32.c ****    twidCoefModifier <<= 1U;
 176              		.loc 1 169 4 view .LVU60
 177              		.loc 1 169 21 is_stmt 0 view .LVU61
 178 0092 4FEA4E0E 		lsl	lr, lr, #1
 179              	.LVL20:
 180              		.loc 1 169 21 view .LVU62
 181 0096 1FFA8EF9 		uxth	r9, lr
 182              	.LVL21:
 170:DSP/Source/TransformFunctions/arm_cfft_radix2_f32.c **** 
 171:DSP/Source/TransformFunctions/arm_cfft_radix2_f32.c ****    // loop for stage
 172:DSP/Source/TransformFunctions/arm_cfft_radix2_f32.c ****    for (k = n2; k > 2; k = k >> 1)
 183              		.loc 1 172 4 is_stmt 1 view .LVU63
 131:DSP/Source/TransformFunctions/arm_cfft_radix2_f32.c ****    ia = 0;
 184              		.loc 1 131 7 is_stmt 0 view .LVU64
 185 009a 1D46     		mov	r5, r3
 186              	.LVL22:
 131:DSP/Source/TransformFunctions/arm_cfft_radix2_f32.c ****    ia = 0;
 187              		.loc 1 131 7 view .LVU65
 188 009c 3A46     		mov	r2, r7
 189              		.loc 1 172 4 view .LVU66
 190 009e 53E0     		b	.L4
 191              	.LVL23:
 192              	.L7:
 173:DSP/Source/TransformFunctions/arm_cfft_radix2_f32.c ****    {
 174:DSP/Source/TransformFunctions/arm_cfft_radix2_f32.c ****       n1 = n2;
 193              		.loc 1 174 7 is_stmt 1 view .LVU67
 175:DSP/Source/TransformFunctions/arm_cfft_radix2_f32.c ****       n2 = n2 >> 1;
 194              		.loc 1 175 7 view .LVU68
 195              		.loc 1 175 10 is_stmt 0 view .LVU69
 196 00a0 4FEA550E 		lsr	lr, r5, #1
 197              	.LVL24:
 176:DSP/Source/TransformFunctions/arm_cfft_radix2_f32.c ****       ia = 0;
 198              		.loc 1 176 7 is_stmt 1 view .LVU70
 177:DSP/Source/TransformFunctions/arm_cfft_radix2_f32.c **** 
 178:DSP/Source/TransformFunctions/arm_cfft_radix2_f32.c ****       // loop for groups
 179:DSP/Source/TransformFunctions/arm_cfft_radix2_f32.c ****       j = 0;
 199              		.loc 1 179 7 view .LVU71
 176:DSP/Source/TransformFunctions/arm_cfft_radix2_f32.c ****       ia = 0;
 200              		.loc 1 176 10 is_stmt 0 view .LVU72
 201 00a4 9246     		mov	r10, r2
 202              		.loc 1 179 9 view .LVU73
 203 00a6 1746     		mov	r7, r2
 204 00a8 CDF80490 		str	r9, [sp, #4]
 205 00ac 1146     		mov	r1, r2
 206              	.LVL25:
 207              	.L6:
 180:DSP/Source/TransformFunctions/arm_cfft_radix2_f32.c ****       do
 208              		.loc 1 180 7 is_stmt 1 view .LVU74
 181:DSP/Source/TransformFunctions/arm_cfft_radix2_f32.c ****       {
 182:DSP/Source/TransformFunctions/arm_cfft_radix2_f32.c ****          cosVal = pCoef[ia * 2];
 209              		.loc 1 182 10 view .LVU75
 210              		.loc 1 182 24 is_stmt 0 view .LVU76
 211 00ae 4FEACA02 		lsl	r2, r10, #3
ARM GAS  /var/folders/ck/g3dcd5x55xs4107jgdl0snvr0000gn/T//ccT4HE9t.s 			page 8


 212 00b2 08EBCA00 		add	r0, r8, r10, lsl #3
 213              		.loc 1 182 17 view .LVU77
 214 00b6 90ED005A 		vldr.32	s10, [r0]
 215              	.LVL26:
 183:DSP/Source/TransformFunctions/arm_cfft_radix2_f32.c ****          sinVal = pCoef[(ia * 2) + 1];
 216              		.loc 1 183 10 is_stmt 1 view .LVU78
 217              		.loc 1 183 24 is_stmt 0 view .LVU79
 218 00ba 0432     		adds	r2, r2, #4
 219 00bc 4244     		add	r2, r2, r8
 220              		.loc 1 183 17 view .LVU80
 221 00be D2ED005A 		vldr.32	s11, [r2]
 222              	.LVL27:
 184:DSP/Source/TransformFunctions/arm_cfft_radix2_f32.c ****          ia += twidCoefModifier;
 223              		.loc 1 184 10 is_stmt 1 view .LVU81
 224              		.loc 1 184 13 is_stmt 0 view .LVU82
 225 00c2 019A     		ldr	r2, [sp, #4]
 226 00c4 9244     		add	r10, r10, r2
 227              	.LVL28:
 185:DSP/Source/TransformFunctions/arm_cfft_radix2_f32.c **** 
 186:DSP/Source/TransformFunctions/arm_cfft_radix2_f32.c ****          // loop for butterfly
 187:DSP/Source/TransformFunctions/arm_cfft_radix2_f32.c ****          i = j;
 228              		.loc 1 187 10 is_stmt 1 view .LVU83
 229              		.loc 1 187 12 is_stmt 0 view .LVU84
 230 00c6 3846     		mov	r0, r7
 231              	.LVL29:
 232              	.L5:
 188:DSP/Source/TransformFunctions/arm_cfft_radix2_f32.c ****          do
 233              		.loc 1 188 10 is_stmt 1 view .LVU85
 189:DSP/Source/TransformFunctions/arm_cfft_radix2_f32.c ****          {
 190:DSP/Source/TransformFunctions/arm_cfft_radix2_f32.c ****             l = i + n2;
 234              		.loc 1 190 13 view .LVU86
 235              		.loc 1 190 15 is_stmt 0 view .LVU87
 236 00c8 00EB0E09 		add	r9, r0, lr
 237              	.LVL30:
 191:DSP/Source/TransformFunctions/arm_cfft_radix2_f32.c ****             a0 = pSrc[2 * i] + pSrc[2 * l];
 238              		.loc 1 191 13 is_stmt 1 view .LVU88
 239              		.loc 1 191 22 is_stmt 0 view .LVU89
 240 00cc C400     		lsls	r4, r0, #3
 241 00ce 0CEBC00B 		add	fp, ip, r0, lsl #3
 242 00d2 DBED007A 		vldr.32	s15, [fp]
 243              		.loc 1 191 36 view .LVU90
 244 00d6 4FEAC902 		lsl	r2, r9, #3
 245 00da 0CEBC909 		add	r9, ip, r9, lsl #3
 246              	.LVL31:
 247              		.loc 1 191 36 view .LVU91
 248 00de 99ED007A 		vldr.32	s14, [r9]
 249              		.loc 1 191 16 view .LVU92
 250 00e2 37EE874A 		vadd.f32	s8, s15, s14
 251              	.LVL32:
 192:DSP/Source/TransformFunctions/arm_cfft_radix2_f32.c ****             xt = pSrc[2 * i] - pSrc[2 * l];
 252              		.loc 1 192 13 is_stmt 1 view .LVU93
 253              		.loc 1 192 16 is_stmt 0 view .LVU94
 254 00e6 77EEC77A 		vsub.f32	s15, s15, s14
 255              	.LVL33:
 193:DSP/Source/TransformFunctions/arm_cfft_radix2_f32.c **** 
 194:DSP/Source/TransformFunctions/arm_cfft_radix2_f32.c ****             yt = pSrc[2 * i + 1] - pSrc[2 * l + 1];
 256              		.loc 1 194 13 is_stmt 1 view .LVU95
ARM GAS  /var/folders/ck/g3dcd5x55xs4107jgdl0snvr0000gn/T//ccT4HE9t.s 			page 9


 257              		.loc 1 194 22 is_stmt 0 view .LVU96
 258 00ea 0434     		adds	r4, r4, #4
 259 00ec 6444     		add	r4, r4, ip
 260 00ee D4ED006A 		vldr.32	s13, [r4]
 261              		.loc 1 194 40 view .LVU97
 262 00f2 0432     		adds	r2, r2, #4
 263 00f4 6244     		add	r2, r2, ip
 264 00f6 92ED006A 		vldr.32	s12, [r2]
 265              		.loc 1 194 16 view .LVU98
 266 00fa 36EEC67A 		vsub.f32	s14, s13, s12
 267              	.LVL34:
 195:DSP/Source/TransformFunctions/arm_cfft_radix2_f32.c ****             a1 = pSrc[2 * l + 1] + pSrc[2 * i + 1];
 268              		.loc 1 195 13 is_stmt 1 view .LVU99
 269              		.loc 1 195 16 is_stmt 0 view .LVU100
 270 00fe 76EE866A 		vadd.f32	s13, s13, s12
 271              	.LVL35:
 196:DSP/Source/TransformFunctions/arm_cfft_radix2_f32.c **** 
 197:DSP/Source/TransformFunctions/arm_cfft_radix2_f32.c ****             p0 = xt * cosVal;
 272              		.loc 1 197 13 is_stmt 1 view .LVU101
 273              		.loc 1 197 16 is_stmt 0 view .LVU102
 274 0102 25EE276A 		vmul.f32	s12, s10, s15
 275              	.LVL36:
 198:DSP/Source/TransformFunctions/arm_cfft_radix2_f32.c ****             p1 = yt * sinVal;
 276              		.loc 1 198 13 is_stmt 1 view .LVU103
 277              		.loc 1 198 16 is_stmt 0 view .LVU104
 278 0106 65EE874A 		vmul.f32	s9, s11, s14
 279              	.LVL37:
 199:DSP/Source/TransformFunctions/arm_cfft_radix2_f32.c ****             p2 = yt * cosVal;
 280              		.loc 1 199 13 is_stmt 1 view .LVU105
 281              		.loc 1 199 16 is_stmt 0 view .LVU106
 282 010a 25EE077A 		vmul.f32	s14, s10, s14
 283              	.LVL38:
 200:DSP/Source/TransformFunctions/arm_cfft_radix2_f32.c ****             p3 = xt * sinVal;
 284              		.loc 1 200 13 is_stmt 1 view .LVU107
 285              		.loc 1 200 16 is_stmt 0 view .LVU108
 286 010e 65EEA77A 		vmul.f32	s15, s11, s15
 287              	.LVL39:
 201:DSP/Source/TransformFunctions/arm_cfft_radix2_f32.c **** 
 202:DSP/Source/TransformFunctions/arm_cfft_radix2_f32.c ****             pSrc[2 * i] = a0;
 288              		.loc 1 202 13 is_stmt 1 view .LVU109
 289              		.loc 1 202 25 is_stmt 0 view .LVU110
 290 0112 8BED004A 		vstr.32	s8, [fp]
 291              	.LVL40:
 203:DSP/Source/TransformFunctions/arm_cfft_radix2_f32.c ****             pSrc[2 * i + 1] = a1;
 292              		.loc 1 203 13 is_stmt 1 view .LVU111
 293              		.loc 1 203 29 is_stmt 0 view .LVU112
 294 0116 C4ED006A 		vstr.32	s13, [r4]
 204:DSP/Source/TransformFunctions/arm_cfft_radix2_f32.c **** 
 205:DSP/Source/TransformFunctions/arm_cfft_radix2_f32.c ****             pSrc[2 * l]     = p0 + p1;
 295              		.loc 1 205 13 is_stmt 1 view .LVU113
 296              		.loc 1 205 34 is_stmt 0 view .LVU114
 297 011a 76EE246A 		vadd.f32	s13, s12, s9
 298              	.LVL41:
 299              		.loc 1 205 29 view .LVU115
 300 011e C9ED006A 		vstr.32	s13, [r9]
 301              	.LVL42:
 206:DSP/Source/TransformFunctions/arm_cfft_radix2_f32.c ****             pSrc[2 * l + 1] = p2 - p3;
ARM GAS  /var/folders/ck/g3dcd5x55xs4107jgdl0snvr0000gn/T//ccT4HE9t.s 			page 10


 302              		.loc 1 206 13 is_stmt 1 view .LVU116
 303              		.loc 1 206 34 is_stmt 0 view .LVU117
 304 0122 37EE677A 		vsub.f32	s14, s14, s15
 305              	.LVL43:
 306              		.loc 1 206 29 view .LVU118
 307 0126 82ED007A 		vstr.32	s14, [r2]
 207:DSP/Source/TransformFunctions/arm_cfft_radix2_f32.c **** 
 208:DSP/Source/TransformFunctions/arm_cfft_radix2_f32.c ****             i += n1;
 308              		.loc 1 208 13 is_stmt 1 view .LVU119
 309              		.loc 1 208 15 is_stmt 0 view .LVU120
 310 012a 2844     		add	r0, r0, r5
 311              	.LVL44:
 209:DSP/Source/TransformFunctions/arm_cfft_radix2_f32.c ****          } while ( i < fftLen );                        // butterfly loop end
 312              		.loc 1 209 22 is_stmt 1 discriminator 1 view .LVU121
 313 012c 8642     		cmp	r6, r0
 314 012e CBD8     		bhi	.L5
 210:DSP/Source/TransformFunctions/arm_cfft_radix2_f32.c ****          j++;
 315              		.loc 1 210 10 view .LVU122
 316              		.loc 1 210 11 is_stmt 0 view .LVU123
 317 0130 0137     		adds	r7, r7, #1
 318              	.LVL45:
 211:DSP/Source/TransformFunctions/arm_cfft_radix2_f32.c ****       } while ( j < n2);                          // groups loop end
 319              		.loc 1 211 19 is_stmt 1 view .LVU124
 320 0132 BE45     		cmp	lr, r7
 321 0134 BBD8     		bhi	.L6
 212:DSP/Source/TransformFunctions/arm_cfft_radix2_f32.c ****       twidCoefModifier <<= 1U;
 322              		.loc 1 212 24 is_stmt 0 view .LVU125
 323 0136 DDF80490 		ldr	r9, [sp, #4]
 324 013a 0A46     		mov	r2, r1
 325              		.loc 1 212 7 is_stmt 1 view .LVU126
 326              		.loc 1 212 24 is_stmt 0 view .LVU127
 327 013c 4FEA4909 		lsl	r9, r9, #1
 328 0140 1FFA89F9 		uxth	r9, r9
 329              	.LVL46:
 172:DSP/Source/TransformFunctions/arm_cfft_radix2_f32.c ****    {
 330              		.loc 1 172 26 is_stmt 1 discriminator 2 view .LVU128
 331 0144 5B08     		lsrs	r3, r3, #1
 332              	.LVL47:
 175:DSP/Source/TransformFunctions/arm_cfft_radix2_f32.c ****       ia = 0;
 333              		.loc 1 175 10 is_stmt 0 view .LVU129
 334 0146 7546     		mov	r5, lr
 335              	.LVL48:
 336              	.L4:
 172:DSP/Source/TransformFunctions/arm_cfft_radix2_f32.c ****    {
 337              		.loc 1 172 19 is_stmt 1 discriminator 1 view .LVU130
 338 0148 022B     		cmp	r3, #2
 339 014a A9D8     		bhi	.L7
 172:DSP/Source/TransformFunctions/arm_cfft_radix2_f32.c ****    {
 340              		.loc 1 172 19 is_stmt 0 discriminator 1 view .LVU131
 341 014c 9246     		mov	r10, r2
 342 014e 25E0     		b	.L8
 343              	.LVL49:
 344              	.L9:
 213:DSP/Source/TransformFunctions/arm_cfft_radix2_f32.c ****    }                             // stages loop end
 214:DSP/Source/TransformFunctions/arm_cfft_radix2_f32.c **** 
 215:DSP/Source/TransformFunctions/arm_cfft_radix2_f32.c ****    // loop for butterfly
 216:DSP/Source/TransformFunctions/arm_cfft_radix2_f32.c ****    for (i = 0; i < fftLen; i += 2)
ARM GAS  /var/folders/ck/g3dcd5x55xs4107jgdl0snvr0000gn/T//ccT4HE9t.s 			page 11


 217:DSP/Source/TransformFunctions/arm_cfft_radix2_f32.c ****    {
 218:DSP/Source/TransformFunctions/arm_cfft_radix2_f32.c ****       a0 = pSrc[2 * i] + pSrc[2 * i + 2];
 345              		.loc 1 218 7 is_stmt 1 view .LVU132
 346              		.loc 1 218 16 is_stmt 0 view .LVU133
 347 0150 4FEACA03 		lsl	r3, r10, #3
 348 0154 0CEBCA00 		add	r0, ip, r10, lsl #3
 349 0158 D0ED007A 		vldr.32	s15, [r0]
 350              		.loc 1 218 30 view .LVU134
 351 015c 0AF10102 		add	r2, r10, #1
 352 0160 0CEBC202 		add	r2, ip, r2, lsl #3
 353 0164 92ED007A 		vldr.32	s14, [r2]
 354              		.loc 1 218 10 view .LVU135
 355 0168 77EE875A 		vadd.f32	s11, s15, s14
 356              	.LVL50:
 219:DSP/Source/TransformFunctions/arm_cfft_radix2_f32.c ****       xt = pSrc[2 * i] - pSrc[2 * i + 2];
 357              		.loc 1 219 7 is_stmt 1 view .LVU136
 358              		.loc 1 219 10 is_stmt 0 view .LVU137
 359 016c 77EEC77A 		vsub.f32	s15, s15, s14
 360              	.LVL51:
 220:DSP/Source/TransformFunctions/arm_cfft_radix2_f32.c **** 
 221:DSP/Source/TransformFunctions/arm_cfft_radix2_f32.c ****       yt = pSrc[2 * i + 1] - pSrc[2 * i + 3];
 361              		.loc 1 221 7 is_stmt 1 view .LVU138
 362              		.loc 1 221 16 is_stmt 0 view .LVU139
 363 0170 191D     		adds	r1, r3, #4
 364 0172 6144     		add	r1, r1, ip
 365 0174 91ED007A 		vldr.32	s14, [r1]
 366              		.loc 1 221 34 view .LVU140
 367 0178 0C33     		adds	r3, r3, #12
 368 017a 6344     		add	r3, r3, ip
 369 017c D3ED006A 		vldr.32	s13, [r3]
 370              		.loc 1 221 10 view .LVU141
 371 0180 37EE666A 		vsub.f32	s12, s14, s13
 372              	.LVL52:
 222:DSP/Source/TransformFunctions/arm_cfft_radix2_f32.c ****       a1 = pSrc[2 * i + 3] + pSrc[2 * i + 1];
 373              		.loc 1 222 7 is_stmt 1 view .LVU142
 374              		.loc 1 222 10 is_stmt 0 view .LVU143
 375 0184 37EE267A 		vadd.f32	s14, s14, s13
 376              	.LVL53:
 223:DSP/Source/TransformFunctions/arm_cfft_radix2_f32.c **** 
 224:DSP/Source/TransformFunctions/arm_cfft_radix2_f32.c ****       pSrc[2 * i] = a0;
 377              		.loc 1 224 7 is_stmt 1 view .LVU144
 378              		.loc 1 224 19 is_stmt 0 view .LVU145
 379 0188 C0ED005A 		vstr.32	s11, [r0]
 225:DSP/Source/TransformFunctions/arm_cfft_radix2_f32.c ****       pSrc[2 * i + 1] = a1;
 380              		.loc 1 225 7 is_stmt 1 view .LVU146
 381              		.loc 1 225 23 is_stmt 0 view .LVU147
 382 018c 81ED007A 		vstr.32	s14, [r1]
 226:DSP/Source/TransformFunctions/arm_cfft_radix2_f32.c ****       pSrc[2 * i + 2] = xt;
 383              		.loc 1 226 7 is_stmt 1 view .LVU148
 384              		.loc 1 226 23 is_stmt 0 view .LVU149
 385 0190 C2ED007A 		vstr.32	s15, [r2]
 227:DSP/Source/TransformFunctions/arm_cfft_radix2_f32.c ****       pSrc[2 * i + 3] = yt;
 386              		.loc 1 227 7 is_stmt 1 view .LVU150
 387              		.loc 1 227 23 is_stmt 0 view .LVU151
 388 0194 83ED006A 		vstr.32	s12, [r3]
 216:DSP/Source/TransformFunctions/arm_cfft_radix2_f32.c ****    {
 389              		.loc 1 216 30 is_stmt 1 discriminator 3 view .LVU152
ARM GAS  /var/folders/ck/g3dcd5x55xs4107jgdl0snvr0000gn/T//ccT4HE9t.s 			page 12


 390 0198 0AF1020A 		add	r10, r10, #2
 391              	.LVL54:
 392              	.L8:
 216:DSP/Source/TransformFunctions/arm_cfft_radix2_f32.c ****    {
 393              		.loc 1 216 18 discriminator 1 view .LVU153
 394 019c B245     		cmp	r10, r6
 395 019e D7D3     		bcc	.L9
 228:DSP/Source/TransformFunctions/arm_cfft_radix2_f32.c ****    }                             // groups loop end
 229:DSP/Source/TransformFunctions/arm_cfft_radix2_f32.c **** 
 230:DSP/Source/TransformFunctions/arm_cfft_radix2_f32.c **** #else
 231:DSP/Source/TransformFunctions/arm_cfft_radix2_f32.c **** 
 232:DSP/Source/TransformFunctions/arm_cfft_radix2_f32.c ****    n2 = fftLen;
 233:DSP/Source/TransformFunctions/arm_cfft_radix2_f32.c **** 
 234:DSP/Source/TransformFunctions/arm_cfft_radix2_f32.c ****    // loop for stage
 235:DSP/Source/TransformFunctions/arm_cfft_radix2_f32.c ****    for (k = fftLen; k > 1; k = k >> 1)
 236:DSP/Source/TransformFunctions/arm_cfft_radix2_f32.c ****    {
 237:DSP/Source/TransformFunctions/arm_cfft_radix2_f32.c ****       n1 = n2;
 238:DSP/Source/TransformFunctions/arm_cfft_radix2_f32.c ****       n2 = n2 >> 1;
 239:DSP/Source/TransformFunctions/arm_cfft_radix2_f32.c ****       ia = 0;
 240:DSP/Source/TransformFunctions/arm_cfft_radix2_f32.c **** 
 241:DSP/Source/TransformFunctions/arm_cfft_radix2_f32.c ****       // loop for groups
 242:DSP/Source/TransformFunctions/arm_cfft_radix2_f32.c ****       j = 0;
 243:DSP/Source/TransformFunctions/arm_cfft_radix2_f32.c ****       do
 244:DSP/Source/TransformFunctions/arm_cfft_radix2_f32.c ****       {
 245:DSP/Source/TransformFunctions/arm_cfft_radix2_f32.c ****          cosVal = pCoef[ia * 2];
 246:DSP/Source/TransformFunctions/arm_cfft_radix2_f32.c ****          sinVal = pCoef[(ia * 2) + 1];
 247:DSP/Source/TransformFunctions/arm_cfft_radix2_f32.c ****          ia += twidCoefModifier;
 248:DSP/Source/TransformFunctions/arm_cfft_radix2_f32.c **** 
 249:DSP/Source/TransformFunctions/arm_cfft_radix2_f32.c ****          // loop for butterfly
 250:DSP/Source/TransformFunctions/arm_cfft_radix2_f32.c ****          i = j;
 251:DSP/Source/TransformFunctions/arm_cfft_radix2_f32.c ****          do
 252:DSP/Source/TransformFunctions/arm_cfft_radix2_f32.c ****          {
 253:DSP/Source/TransformFunctions/arm_cfft_radix2_f32.c ****             l = i + n2;
 254:DSP/Source/TransformFunctions/arm_cfft_radix2_f32.c ****             a0 = pSrc[2 * i] + pSrc[2 * l];
 255:DSP/Source/TransformFunctions/arm_cfft_radix2_f32.c ****             xt = pSrc[2 * i] - pSrc[2 * l];
 256:DSP/Source/TransformFunctions/arm_cfft_radix2_f32.c **** 
 257:DSP/Source/TransformFunctions/arm_cfft_radix2_f32.c ****             yt = pSrc[2 * i + 1] - pSrc[2 * l + 1];
 258:DSP/Source/TransformFunctions/arm_cfft_radix2_f32.c ****             a1 = pSrc[2 * l + 1] + pSrc[2 * i + 1];
 259:DSP/Source/TransformFunctions/arm_cfft_radix2_f32.c **** 
 260:DSP/Source/TransformFunctions/arm_cfft_radix2_f32.c ****             p0 = xt * cosVal;
 261:DSP/Source/TransformFunctions/arm_cfft_radix2_f32.c ****             p1 = yt * sinVal;
 262:DSP/Source/TransformFunctions/arm_cfft_radix2_f32.c ****             p2 = yt * cosVal;
 263:DSP/Source/TransformFunctions/arm_cfft_radix2_f32.c ****             p3 = xt * sinVal;
 264:DSP/Source/TransformFunctions/arm_cfft_radix2_f32.c **** 
 265:DSP/Source/TransformFunctions/arm_cfft_radix2_f32.c ****             pSrc[2 * i] = a0;
 266:DSP/Source/TransformFunctions/arm_cfft_radix2_f32.c ****             pSrc[2 * i + 1] = a1;
 267:DSP/Source/TransformFunctions/arm_cfft_radix2_f32.c **** 
 268:DSP/Source/TransformFunctions/arm_cfft_radix2_f32.c ****             pSrc[2 * l]     = p0 + p1;
 269:DSP/Source/TransformFunctions/arm_cfft_radix2_f32.c ****             pSrc[2 * l + 1] = p2 - p3;
 270:DSP/Source/TransformFunctions/arm_cfft_radix2_f32.c **** 
 271:DSP/Source/TransformFunctions/arm_cfft_radix2_f32.c ****             i += n1;
 272:DSP/Source/TransformFunctions/arm_cfft_radix2_f32.c ****          } while (i < fftLen);
 273:DSP/Source/TransformFunctions/arm_cfft_radix2_f32.c ****          j++;
 274:DSP/Source/TransformFunctions/arm_cfft_radix2_f32.c ****       } while (j < n2);
 275:DSP/Source/TransformFunctions/arm_cfft_radix2_f32.c ****       twidCoefModifier <<= 1U;
 276:DSP/Source/TransformFunctions/arm_cfft_radix2_f32.c ****    }
 277:DSP/Source/TransformFunctions/arm_cfft_radix2_f32.c **** 
ARM GAS  /var/folders/ck/g3dcd5x55xs4107jgdl0snvr0000gn/T//ccT4HE9t.s 			page 13


 278:DSP/Source/TransformFunctions/arm_cfft_radix2_f32.c **** #endif //    #if defined (ARM_MATH_DSP)
 279:DSP/Source/TransformFunctions/arm_cfft_radix2_f32.c **** 
 280:DSP/Source/TransformFunctions/arm_cfft_radix2_f32.c **** }
 396              		.loc 1 280 1 is_stmt 0 view .LVU154
 397 01a0 03B0     		add	sp, sp, #12
 398              	.LCFI2:
 399              		.cfi_def_cfa_offset 36
 400              		@ sp needed
 401 01a2 BDE8F08F 		pop	{r4, r5, r6, r7, r8, r9, r10, fp, pc}
 402              		.loc 1 280 1 view .LVU155
 403              		.cfi_endproc
 404              	.LFE140:
 406              		.section	.text.arm_radix2_butterfly_inverse_f32,"ax",%progbits
 407              		.align	1
 408              		.global	arm_radix2_butterfly_inverse_f32
 409              		.syntax unified
 410              		.thumb
 411              		.thumb_func
 413              	arm_radix2_butterfly_inverse_f32:
 414              	.LVL55:
 415              	.LFB141:
 281:DSP/Source/TransformFunctions/arm_cfft_radix2_f32.c **** 
 282:DSP/Source/TransformFunctions/arm_cfft_radix2_f32.c **** 
 283:DSP/Source/TransformFunctions/arm_cfft_radix2_f32.c **** void arm_radix2_butterfly_inverse_f32(
 284:DSP/Source/TransformFunctions/arm_cfft_radix2_f32.c **** float32_t * pSrc,
 285:DSP/Source/TransformFunctions/arm_cfft_radix2_f32.c **** uint32_t fftLen,
 286:DSP/Source/TransformFunctions/arm_cfft_radix2_f32.c **** float32_t * pCoef,
 287:DSP/Source/TransformFunctions/arm_cfft_radix2_f32.c **** uint16_t twidCoefModifier,
 288:DSP/Source/TransformFunctions/arm_cfft_radix2_f32.c **** float32_t onebyfftLen)
 289:DSP/Source/TransformFunctions/arm_cfft_radix2_f32.c **** {
 416              		.loc 1 289 1 is_stmt 1 view -0
 417              		.cfi_startproc
 418              		@ args = 0, pretend = 0, frame = 0
 419              		@ frame_needed = 0, uses_anonymous_args = 0
 420              		.loc 1 289 1 is_stmt 0 view .LVU157
 421 0000 2DE9F04F 		push	{r4, r5, r6, r7, r8, r9, r10, fp, lr}
 422              	.LCFI3:
 423              		.cfi_def_cfa_offset 36
 424              		.cfi_offset 4, -36
 425              		.cfi_offset 5, -32
 426              		.cfi_offset 6, -28
 427              		.cfi_offset 7, -24
 428              		.cfi_offset 8, -20
 429              		.cfi_offset 9, -16
 430              		.cfi_offset 10, -12
 431              		.cfi_offset 11, -8
 432              		.cfi_offset 14, -4
 433 0004 8446     		mov	ip, r0
 434 0006 0E46     		mov	r6, r1
 435 0008 9146     		mov	r9, r2
 436 000a 9E46     		mov	lr, r3
 437 000c F0EE403A 		vmov.f32	s7, s0
 290:DSP/Source/TransformFunctions/arm_cfft_radix2_f32.c **** 
 291:DSP/Source/TransformFunctions/arm_cfft_radix2_f32.c ****    uint32_t i, j, k, l;
 438              		.loc 1 291 4 is_stmt 1 view .LVU158
 292:DSP/Source/TransformFunctions/arm_cfft_radix2_f32.c ****    uint32_t n1, n2, ia;
 439              		.loc 1 292 4 view .LVU159
ARM GAS  /var/folders/ck/g3dcd5x55xs4107jgdl0snvr0000gn/T//ccT4HE9t.s 			page 14


 293:DSP/Source/TransformFunctions/arm_cfft_radix2_f32.c ****    float32_t xt, yt, cosVal, sinVal;
 440              		.loc 1 293 4 view .LVU160
 294:DSP/Source/TransformFunctions/arm_cfft_radix2_f32.c ****    float32_t p0, p1, p2, p3;
 441              		.loc 1 294 4 view .LVU161
 295:DSP/Source/TransformFunctions/arm_cfft_radix2_f32.c ****    float32_t a0, a1;
 442              		.loc 1 295 4 view .LVU162
 296:DSP/Source/TransformFunctions/arm_cfft_radix2_f32.c **** 
 297:DSP/Source/TransformFunctions/arm_cfft_radix2_f32.c **** #if defined (ARM_MATH_DSP)
 298:DSP/Source/TransformFunctions/arm_cfft_radix2_f32.c **** 
 299:DSP/Source/TransformFunctions/arm_cfft_radix2_f32.c ****    n2 = fftLen >> 1;
 443              		.loc 1 299 4 view .LVU163
 444              		.loc 1 299 7 is_stmt 0 view .LVU164
 445 0010 4D08     		lsrs	r5, r1, #1
 446              	.LVL56:
 300:DSP/Source/TransformFunctions/arm_cfft_radix2_f32.c ****    ia = 0;
 447              		.loc 1 300 4 is_stmt 1 view .LVU165
 301:DSP/Source/TransformFunctions/arm_cfft_radix2_f32.c **** 
 302:DSP/Source/TransformFunctions/arm_cfft_radix2_f32.c ****    // loop for groups
 303:DSP/Source/TransformFunctions/arm_cfft_radix2_f32.c ****    for (i = 0; i < n2; i++)
 448              		.loc 1 303 4 view .LVU166
 300:DSP/Source/TransformFunctions/arm_cfft_radix2_f32.c ****    ia = 0;
 449              		.loc 1 300 7 is_stmt 0 view .LVU167
 450 0012 0024     		movs	r4, #0
 451              		.loc 1 303 11 view .LVU168
 452 0014 2146     		mov	r1, r4
 453              	.LVL57:
 454              		.loc 1 303 4 view .LVU169
 455 0016 39E0     		b	.L12
 456              	.LVL58:
 457              	.L13:
 304:DSP/Source/TransformFunctions/arm_cfft_radix2_f32.c ****    {
 305:DSP/Source/TransformFunctions/arm_cfft_radix2_f32.c ****       cosVal = pCoef[ia * 2];
 458              		.loc 1 305 7 is_stmt 1 view .LVU170
 459              		.loc 1 305 21 is_stmt 0 view .LVU171
 460 0018 E300     		lsls	r3, r4, #3
 461 001a 09EBC402 		add	r2, r9, r4, lsl #3
 462              		.loc 1 305 14 view .LVU172
 463 001e D2ED007A 		vldr.32	s15, [r2]
 464              	.LVL59:
 306:DSP/Source/TransformFunctions/arm_cfft_radix2_f32.c ****       sinVal = pCoef[(ia * 2) + 1];
 465              		.loc 1 306 7 is_stmt 1 view .LVU173
 466              		.loc 1 306 21 is_stmt 0 view .LVU174
 467 0022 0433     		adds	r3, r3, #4
 468 0024 4B44     		add	r3, r3, r9
 469              		.loc 1 306 14 view .LVU175
 470 0026 D3ED006A 		vldr.32	s13, [r3]
 471              	.LVL60:
 307:DSP/Source/TransformFunctions/arm_cfft_radix2_f32.c ****       ia += twidCoefModifier;
 472              		.loc 1 307 7 is_stmt 1 view .LVU176
 473              		.loc 1 307 10 is_stmt 0 view .LVU177
 474 002a 7444     		add	r4, r4, lr
 475              	.LVL61:
 308:DSP/Source/TransformFunctions/arm_cfft_radix2_f32.c **** 
 309:DSP/Source/TransformFunctions/arm_cfft_radix2_f32.c ****       l = i + n2;
 476              		.loc 1 309 7 is_stmt 1 view .LVU178
 477              		.loc 1 309 9 is_stmt 0 view .LVU179
 478 002c 4819     		adds	r0, r1, r5
ARM GAS  /var/folders/ck/g3dcd5x55xs4107jgdl0snvr0000gn/T//ccT4HE9t.s 			page 15


 479              	.LVL62:
 310:DSP/Source/TransformFunctions/arm_cfft_radix2_f32.c ****       a0 = pSrc[2 * i] + pSrc[2 * l];
 480              		.loc 1 310 7 is_stmt 1 view .LVU180
 481              		.loc 1 310 16 is_stmt 0 view .LVU181
 482 002e CA00     		lsls	r2, r1, #3
 483 0030 0CEBC107 		add	r7, ip, r1, lsl #3
 484 0034 97ED007A 		vldr.32	s14, [r7]
 485              		.loc 1 310 30 view .LVU182
 486 0038 C300     		lsls	r3, r0, #3
 487 003a 0CEBC000 		add	r0, ip, r0, lsl #3
 488              	.LVL63:
 489              		.loc 1 310 30 view .LVU183
 490 003e 90ED006A 		vldr.32	s12, [r0]
 491              		.loc 1 310 10 view .LVU184
 492 0042 37EE064A 		vadd.f32	s8, s14, s12
 493              	.LVL64:
 311:DSP/Source/TransformFunctions/arm_cfft_radix2_f32.c ****       xt = pSrc[2 * i] - pSrc[2 * l];
 494              		.loc 1 311 7 is_stmt 1 view .LVU185
 495              		.loc 1 311 10 is_stmt 0 view .LVU186
 496 0046 37EE467A 		vsub.f32	s14, s14, s12
 497              	.LVL65:
 312:DSP/Source/TransformFunctions/arm_cfft_radix2_f32.c **** 
 313:DSP/Source/TransformFunctions/arm_cfft_radix2_f32.c ****       yt = pSrc[2 * i + 1] - pSrc[2 * l + 1];
 498              		.loc 1 313 7 is_stmt 1 view .LVU187
 499              		.loc 1 313 16 is_stmt 0 view .LVU188
 500 004a 0432     		adds	r2, r2, #4
 501 004c 6244     		add	r2, r2, ip
 502 004e 92ED006A 		vldr.32	s12, [r2]
 503              		.loc 1 313 34 view .LVU189
 504 0052 0433     		adds	r3, r3, #4
 505 0054 6344     		add	r3, r3, ip
 506 0056 D3ED005A 		vldr.32	s11, [r3]
 507              		.loc 1 313 10 view .LVU190
 508 005a 36EE655A 		vsub.f32	s10, s12, s11
 509              	.LVL66:
 314:DSP/Source/TransformFunctions/arm_cfft_radix2_f32.c ****       a1 = pSrc[2 * l + 1] + pSrc[2 * i + 1];
 510              		.loc 1 314 7 is_stmt 1 view .LVU191
 511              		.loc 1 314 10 is_stmt 0 view .LVU192
 512 005e 36EE256A 		vadd.f32	s12, s12, s11
 513              	.LVL67:
 315:DSP/Source/TransformFunctions/arm_cfft_radix2_f32.c **** 
 316:DSP/Source/TransformFunctions/arm_cfft_radix2_f32.c ****       p0 = xt * cosVal;
 514              		.loc 1 316 7 is_stmt 1 view .LVU193
 515              		.loc 1 316 10 is_stmt 0 view .LVU194
 516 0062 67EE875A 		vmul.f32	s11, s15, s14
 517              	.LVL68:
 317:DSP/Source/TransformFunctions/arm_cfft_radix2_f32.c ****       p1 = yt * sinVal;
 518              		.loc 1 317 7 is_stmt 1 view .LVU195
 519              		.loc 1 317 10 is_stmt 0 view .LVU196
 520 0066 66EE854A 		vmul.f32	s9, s13, s10
 521              	.LVL69:
 318:DSP/Source/TransformFunctions/arm_cfft_radix2_f32.c ****       p2 = yt * cosVal;
 522              		.loc 1 318 7 is_stmt 1 view .LVU197
 523              		.loc 1 318 10 is_stmt 0 view .LVU198
 524 006a 67EE857A 		vmul.f32	s15, s15, s10
 525              	.LVL70:
 319:DSP/Source/TransformFunctions/arm_cfft_radix2_f32.c ****       p3 = xt * sinVal;
ARM GAS  /var/folders/ck/g3dcd5x55xs4107jgdl0snvr0000gn/T//ccT4HE9t.s 			page 16


 526              		.loc 1 319 7 is_stmt 1 view .LVU199
 527              		.loc 1 319 10 is_stmt 0 view .LVU200
 528 006e 66EE876A 		vmul.f32	s13, s13, s14
 529              	.LVL71:
 320:DSP/Source/TransformFunctions/arm_cfft_radix2_f32.c **** 
 321:DSP/Source/TransformFunctions/arm_cfft_radix2_f32.c ****       pSrc[2 * i] = a0;
 530              		.loc 1 321 7 is_stmt 1 view .LVU201
 531              		.loc 1 321 19 is_stmt 0 view .LVU202
 532 0072 87ED004A 		vstr.32	s8, [r7]
 322:DSP/Source/TransformFunctions/arm_cfft_radix2_f32.c ****       pSrc[2 * i + 1] = a1;
 533              		.loc 1 322 7 is_stmt 1 view .LVU203
 534              		.loc 1 322 23 is_stmt 0 view .LVU204
 535 0076 82ED006A 		vstr.32	s12, [r2]
 323:DSP/Source/TransformFunctions/arm_cfft_radix2_f32.c **** 
 324:DSP/Source/TransformFunctions/arm_cfft_radix2_f32.c ****       pSrc[2 * l]     = p0 - p1;
 536              		.loc 1 324 7 is_stmt 1 view .LVU205
 537              		.loc 1 324 28 is_stmt 0 view .LVU206
 538 007a 35EEE47A 		vsub.f32	s14, s11, s9
 539              	.LVL72:
 540              		.loc 1 324 23 view .LVU207
 541 007e 80ED007A 		vstr.32	s14, [r0]
 325:DSP/Source/TransformFunctions/arm_cfft_radix2_f32.c ****       pSrc[2 * l + 1] = p2 + p3;
 542              		.loc 1 325 7 is_stmt 1 view .LVU208
 543              		.loc 1 325 28 is_stmt 0 view .LVU209
 544 0082 77EEA67A 		vadd.f32	s15, s15, s13
 545              	.LVL73:
 546              		.loc 1 325 23 view .LVU210
 547 0086 C3ED007A 		vstr.32	s15, [r3]
 303:DSP/Source/TransformFunctions/arm_cfft_radix2_f32.c ****    {
 548              		.loc 1 303 25 is_stmt 1 discriminator 3 view .LVU211
 549 008a 0131     		adds	r1, r1, #1
 550              	.LVL74:
 551              	.L12:
 303:DSP/Source/TransformFunctions/arm_cfft_radix2_f32.c ****    {
 552              		.loc 1 303 18 discriminator 1 view .LVU212
 553 008c A942     		cmp	r1, r5
 554 008e C3D3     		bcc	.L13
 326:DSP/Source/TransformFunctions/arm_cfft_radix2_f32.c ****    }                             // groups loop end
 327:DSP/Source/TransformFunctions/arm_cfft_radix2_f32.c **** 
 328:DSP/Source/TransformFunctions/arm_cfft_radix2_f32.c ****    twidCoefModifier <<= 1U;
 555              		.loc 1 328 4 view .LVU213
 556              		.loc 1 328 21 is_stmt 0 view .LVU214
 557 0090 4FEA4E0E 		lsl	lr, lr, #1
 558              	.LVL75:
 559              		.loc 1 328 21 view .LVU215
 560 0094 1FFA8EFA 		uxth	r10, lr
 561              	.LVL76:
 329:DSP/Source/TransformFunctions/arm_cfft_radix2_f32.c **** 
 330:DSP/Source/TransformFunctions/arm_cfft_radix2_f32.c ****    // loop for stage
 331:DSP/Source/TransformFunctions/arm_cfft_radix2_f32.c ****    for (k = fftLen / 2; k > 2; k = k >> 1)
 562              		.loc 1 331 4 is_stmt 1 view .LVU216
 563              		.loc 1 331 11 is_stmt 0 view .LVU217
 564 0098 4FEA560B 		lsr	fp, r6, #1
 565              	.LVL77:
 566              		.loc 1 331 4 view .LVU218
 567 009c 4AE0     		b	.L14
 568              	.LVL78:
ARM GAS  /var/folders/ck/g3dcd5x55xs4107jgdl0snvr0000gn/T//ccT4HE9t.s 			page 17


 569              	.L17:
 332:DSP/Source/TransformFunctions/arm_cfft_radix2_f32.c ****    {
 333:DSP/Source/TransformFunctions/arm_cfft_radix2_f32.c ****       n1 = n2;
 570              		.loc 1 333 7 is_stmt 1 view .LVU219
 334:DSP/Source/TransformFunctions/arm_cfft_radix2_f32.c ****       n2 = n2 >> 1;
 571              		.loc 1 334 7 view .LVU220
 572              		.loc 1 334 10 is_stmt 0 view .LVU221
 573 009e 6C08     		lsrs	r4, r5, #1
 574              	.LVL79:
 335:DSP/Source/TransformFunctions/arm_cfft_radix2_f32.c ****       ia = 0;
 575              		.loc 1 335 7 is_stmt 1 view .LVU222
 336:DSP/Source/TransformFunctions/arm_cfft_radix2_f32.c **** 
 337:DSP/Source/TransformFunctions/arm_cfft_radix2_f32.c ****       // loop for groups
 338:DSP/Source/TransformFunctions/arm_cfft_radix2_f32.c ****       j = 0;
 576              		.loc 1 338 7 view .LVU223
 335:DSP/Source/TransformFunctions/arm_cfft_radix2_f32.c ****       ia = 0;
 577              		.loc 1 335 10 is_stmt 0 view .LVU224
 578 00a0 0027     		movs	r7, #0
 579              		.loc 1 338 9 view .LVU225
 580 00a2 B846     		mov	r8, r7
 581              	.LVL80:
 582              	.L16:
 339:DSP/Source/TransformFunctions/arm_cfft_radix2_f32.c ****       do
 583              		.loc 1 339 7 is_stmt 1 view .LVU226
 340:DSP/Source/TransformFunctions/arm_cfft_radix2_f32.c ****       {
 341:DSP/Source/TransformFunctions/arm_cfft_radix2_f32.c ****          cosVal = pCoef[ia * 2];
 584              		.loc 1 341 10 view .LVU227
 585              		.loc 1 341 24 is_stmt 0 view .LVU228
 586 00a4 FB00     		lsls	r3, r7, #3
 587 00a6 09EBC702 		add	r2, r9, r7, lsl #3
 588              		.loc 1 341 17 view .LVU229
 589 00aa 92ED005A 		vldr.32	s10, [r2]
 590              	.LVL81:
 342:DSP/Source/TransformFunctions/arm_cfft_radix2_f32.c ****          sinVal = pCoef[(ia * 2) + 1];
 591              		.loc 1 342 10 is_stmt 1 view .LVU230
 592              		.loc 1 342 24 is_stmt 0 view .LVU231
 593 00ae 0433     		adds	r3, r3, #4
 594 00b0 4B44     		add	r3, r3, r9
 595              		.loc 1 342 17 view .LVU232
 596 00b2 D3ED005A 		vldr.32	s11, [r3]
 597              	.LVL82:
 343:DSP/Source/TransformFunctions/arm_cfft_radix2_f32.c ****          ia += twidCoefModifier;
 598              		.loc 1 343 10 is_stmt 1 view .LVU233
 599              		.loc 1 343 13 is_stmt 0 view .LVU234
 600 00b6 5744     		add	r7, r7, r10
 601              	.LVL83:
 344:DSP/Source/TransformFunctions/arm_cfft_radix2_f32.c **** 
 345:DSP/Source/TransformFunctions/arm_cfft_radix2_f32.c ****          // loop for butterfly
 346:DSP/Source/TransformFunctions/arm_cfft_radix2_f32.c ****          i = j;
 602              		.loc 1 346 10 is_stmt 1 view .LVU235
 603              		.loc 1 346 12 is_stmt 0 view .LVU236
 604 00b8 4146     		mov	r1, r8
 605              	.LVL84:
 606              	.L15:
 347:DSP/Source/TransformFunctions/arm_cfft_radix2_f32.c ****          do
 607              		.loc 1 347 10 is_stmt 1 view .LVU237
 348:DSP/Source/TransformFunctions/arm_cfft_radix2_f32.c ****          {
ARM GAS  /var/folders/ck/g3dcd5x55xs4107jgdl0snvr0000gn/T//ccT4HE9t.s 			page 18


 349:DSP/Source/TransformFunctions/arm_cfft_radix2_f32.c ****             l = i + n2;
 608              		.loc 1 349 13 view .LVU238
 609              		.loc 1 349 15 is_stmt 0 view .LVU239
 610 00ba 0819     		adds	r0, r1, r4
 611              	.LVL85:
 350:DSP/Source/TransformFunctions/arm_cfft_radix2_f32.c ****             a0 = pSrc[2 * i] + pSrc[2 * l];
 612              		.loc 1 350 13 is_stmt 1 view .LVU240
 613              		.loc 1 350 22 is_stmt 0 view .LVU241
 614 00bc CA00     		lsls	r2, r1, #3
 615 00be 0CEBC10E 		add	lr, ip, r1, lsl #3
 616 00c2 DEED007A 		vldr.32	s15, [lr]
 617              		.loc 1 350 36 view .LVU242
 618 00c6 C300     		lsls	r3, r0, #3
 619 00c8 0CEBC000 		add	r0, ip, r0, lsl #3
 620              	.LVL86:
 621              		.loc 1 350 36 view .LVU243
 622 00cc 90ED007A 		vldr.32	s14, [r0]
 623              		.loc 1 350 16 view .LVU244
 624 00d0 37EE874A 		vadd.f32	s8, s15, s14
 625              	.LVL87:
 351:DSP/Source/TransformFunctions/arm_cfft_radix2_f32.c ****             xt = pSrc[2 * i] - pSrc[2 * l];
 626              		.loc 1 351 13 is_stmt 1 view .LVU245
 627              		.loc 1 351 16 is_stmt 0 view .LVU246
 628 00d4 77EEC77A 		vsub.f32	s15, s15, s14
 629              	.LVL88:
 352:DSP/Source/TransformFunctions/arm_cfft_radix2_f32.c **** 
 353:DSP/Source/TransformFunctions/arm_cfft_radix2_f32.c ****             yt = pSrc[2 * i + 1] - pSrc[2 * l + 1];
 630              		.loc 1 353 13 is_stmt 1 view .LVU247
 631              		.loc 1 353 22 is_stmt 0 view .LVU248
 632 00d8 0432     		adds	r2, r2, #4
 633 00da 6244     		add	r2, r2, ip
 634 00dc D2ED006A 		vldr.32	s13, [r2]
 635              		.loc 1 353 40 view .LVU249
 636 00e0 0433     		adds	r3, r3, #4
 637 00e2 6344     		add	r3, r3, ip
 638 00e4 93ED006A 		vldr.32	s12, [r3]
 639              		.loc 1 353 16 view .LVU250
 640 00e8 36EEC67A 		vsub.f32	s14, s13, s12
 641              	.LVL89:
 354:DSP/Source/TransformFunctions/arm_cfft_radix2_f32.c ****             a1 = pSrc[2 * l + 1] + pSrc[2 * i + 1];
 642              		.loc 1 354 13 is_stmt 1 view .LVU251
 643              		.loc 1 354 16 is_stmt 0 view .LVU252
 644 00ec 76EE866A 		vadd.f32	s13, s13, s12
 645              	.LVL90:
 355:DSP/Source/TransformFunctions/arm_cfft_radix2_f32.c **** 
 356:DSP/Source/TransformFunctions/arm_cfft_radix2_f32.c ****             p0 = xt * cosVal;
 646              		.loc 1 356 13 is_stmt 1 view .LVU253
 647              		.loc 1 356 16 is_stmt 0 view .LVU254
 648 00f0 25EE276A 		vmul.f32	s12, s10, s15
 649              	.LVL91:
 357:DSP/Source/TransformFunctions/arm_cfft_radix2_f32.c ****             p1 = yt * sinVal;
 650              		.loc 1 357 13 is_stmt 1 view .LVU255
 651              		.loc 1 357 16 is_stmt 0 view .LVU256
 652 00f4 65EE874A 		vmul.f32	s9, s11, s14
 653              	.LVL92:
 358:DSP/Source/TransformFunctions/arm_cfft_radix2_f32.c ****             p2 = yt * cosVal;
 654              		.loc 1 358 13 is_stmt 1 view .LVU257
ARM GAS  /var/folders/ck/g3dcd5x55xs4107jgdl0snvr0000gn/T//ccT4HE9t.s 			page 19


 655              		.loc 1 358 16 is_stmt 0 view .LVU258
 656 00f8 25EE077A 		vmul.f32	s14, s10, s14
 657              	.LVL93:
 359:DSP/Source/TransformFunctions/arm_cfft_radix2_f32.c ****             p3 = xt * sinVal;
 658              		.loc 1 359 13 is_stmt 1 view .LVU259
 659              		.loc 1 359 16 is_stmt 0 view .LVU260
 660 00fc 65EEA77A 		vmul.f32	s15, s11, s15
 661              	.LVL94:
 360:DSP/Source/TransformFunctions/arm_cfft_radix2_f32.c **** 
 361:DSP/Source/TransformFunctions/arm_cfft_radix2_f32.c ****             pSrc[2 * i] = a0;
 662              		.loc 1 361 13 is_stmt 1 view .LVU261
 663              		.loc 1 361 25 is_stmt 0 view .LVU262
 664 0100 8EED004A 		vstr.32	s8, [lr]
 665              	.LVL95:
 362:DSP/Source/TransformFunctions/arm_cfft_radix2_f32.c ****             pSrc[2 * i + 1] = a1;
 666              		.loc 1 362 13 is_stmt 1 view .LVU263
 667              		.loc 1 362 29 is_stmt 0 view .LVU264
 668 0104 C2ED006A 		vstr.32	s13, [r2]
 363:DSP/Source/TransformFunctions/arm_cfft_radix2_f32.c **** 
 364:DSP/Source/TransformFunctions/arm_cfft_radix2_f32.c ****             pSrc[2 * l]     = p0 - p1;
 669              		.loc 1 364 13 is_stmt 1 view .LVU265
 670              		.loc 1 364 34 is_stmt 0 view .LVU266
 671 0108 76EE646A 		vsub.f32	s13, s12, s9
 672              	.LVL96:
 673              		.loc 1 364 29 view .LVU267
 674 010c C0ED006A 		vstr.32	s13, [r0]
 675              	.LVL97:
 365:DSP/Source/TransformFunctions/arm_cfft_radix2_f32.c ****             pSrc[2 * l + 1] = p2 + p3;
 676              		.loc 1 365 13 is_stmt 1 view .LVU268
 677              		.loc 1 365 34 is_stmt 0 view .LVU269
 678 0110 37EE277A 		vadd.f32	s14, s14, s15
 679              	.LVL98:
 680              		.loc 1 365 29 view .LVU270
 681 0114 83ED007A 		vstr.32	s14, [r3]
 366:DSP/Source/TransformFunctions/arm_cfft_radix2_f32.c **** 
 367:DSP/Source/TransformFunctions/arm_cfft_radix2_f32.c ****             i += n1;
 682              		.loc 1 367 13 is_stmt 1 view .LVU271
 683              		.loc 1 367 15 is_stmt 0 view .LVU272
 684 0118 2944     		add	r1, r1, r5
 685              	.LVL99:
 368:DSP/Source/TransformFunctions/arm_cfft_radix2_f32.c ****          } while ( i < fftLen );                 // butterfly loop end
 686              		.loc 1 368 22 is_stmt 1 discriminator 1 view .LVU273
 687 011a 8E42     		cmp	r6, r1
 688 011c CDD8     		bhi	.L15
 369:DSP/Source/TransformFunctions/arm_cfft_radix2_f32.c ****          j++;
 689              		.loc 1 369 10 view .LVU274
 690              		.loc 1 369 11 is_stmt 0 view .LVU275
 691 011e 08F10108 		add	r8, r8, #1
 692              	.LVL100:
 370:DSP/Source/TransformFunctions/arm_cfft_radix2_f32.c ****       } while (j < n2);                      // groups loop end
 693              		.loc 1 370 18 is_stmt 1 view .LVU276
 694 0122 4445     		cmp	r4, r8
 695 0124 BED8     		bhi	.L16
 371:DSP/Source/TransformFunctions/arm_cfft_radix2_f32.c **** 
 372:DSP/Source/TransformFunctions/arm_cfft_radix2_f32.c ****       twidCoefModifier <<= 1U;
 696              		.loc 1 372 7 view .LVU277
 697              		.loc 1 372 24 is_stmt 0 view .LVU278
ARM GAS  /var/folders/ck/g3dcd5x55xs4107jgdl0snvr0000gn/T//ccT4HE9t.s 			page 20


 698 0126 4FEA4A0A 		lsl	r10, r10, #1
 699              	.LVL101:
 700              		.loc 1 372 24 view .LVU279
 701 012a 1FFA8AFA 		uxth	r10, r10
 702              	.LVL102:
 331:DSP/Source/TransformFunctions/arm_cfft_radix2_f32.c ****    {
 703              		.loc 1 331 34 is_stmt 1 discriminator 2 view .LVU280
 704 012e 4FEA5B0B 		lsr	fp, fp, #1
 705              	.LVL103:
 334:DSP/Source/TransformFunctions/arm_cfft_radix2_f32.c ****       ia = 0;
 706              		.loc 1 334 10 is_stmt 0 view .LVU281
 707 0132 2546     		mov	r5, r4
 708              	.LVL104:
 709              	.L14:
 331:DSP/Source/TransformFunctions/arm_cfft_radix2_f32.c ****    {
 710              		.loc 1 331 27 is_stmt 1 discriminator 1 view .LVU282
 711 0134 BBF1020F 		cmp	fp, #2
 712 0138 B1D8     		bhi	.L17
 373:DSP/Source/TransformFunctions/arm_cfft_radix2_f32.c ****    }                             // stages loop end
 374:DSP/Source/TransformFunctions/arm_cfft_radix2_f32.c **** 
 375:DSP/Source/TransformFunctions/arm_cfft_radix2_f32.c ****    // loop for butterfly
 376:DSP/Source/TransformFunctions/arm_cfft_radix2_f32.c ****    for (i = 0; i < fftLen; i += 2)
 713              		.loc 1 376 11 is_stmt 0 view .LVU283
 714 013a 0022     		movs	r2, #0
 715 013c 2BE0     		b	.L18
 716              	.LVL105:
 717              	.L19:
 377:DSP/Source/TransformFunctions/arm_cfft_radix2_f32.c ****    {
 378:DSP/Source/TransformFunctions/arm_cfft_radix2_f32.c ****       a0 = pSrc[2 * i] + pSrc[2 * i + 2];
 718              		.loc 1 378 7 is_stmt 1 view .LVU284
 719              		.loc 1 378 16 is_stmt 0 view .LVU285
 720 013e D300     		lsls	r3, r2, #3
 721 0140 0CEBC204 		add	r4, ip, r2, lsl #3
 722 0144 D4ED007A 		vldr.32	s15, [r4]
 723              		.loc 1 378 30 view .LVU286
 724 0148 501C     		adds	r0, r2, #1
 725 014a 0CEBC000 		add	r0, ip, r0, lsl #3
 726 014e 90ED007A 		vldr.32	s14, [r0]
 727              		.loc 1 378 10 view .LVU287
 728 0152 37EE876A 		vadd.f32	s12, s15, s14
 729              	.LVL106:
 379:DSP/Source/TransformFunctions/arm_cfft_radix2_f32.c ****       xt = pSrc[2 * i] - pSrc[2 * i + 2];
 730              		.loc 1 379 7 is_stmt 1 view .LVU288
 731              		.loc 1 379 10 is_stmt 0 view .LVU289
 732 0156 37EEC77A 		vsub.f32	s14, s15, s14
 733              	.LVL107:
 380:DSP/Source/TransformFunctions/arm_cfft_radix2_f32.c **** 
 381:DSP/Source/TransformFunctions/arm_cfft_radix2_f32.c ****       a1 = pSrc[2 * i + 3] + pSrc[2 * i + 1];
 734              		.loc 1 381 7 is_stmt 1 view .LVU290
 735              		.loc 1 381 16 is_stmt 0 view .LVU291
 736 015a 03F10C01 		add	r1, r3, #12
 737 015e 6144     		add	r1, r1, ip
 738 0160 D1ED005A 		vldr.32	s11, [r1]
 739              		.loc 1 381 34 view .LVU292
 740 0164 0433     		adds	r3, r3, #4
 741 0166 6344     		add	r3, r3, ip
 742 0168 D3ED007A 		vldr.32	s15, [r3]
ARM GAS  /var/folders/ck/g3dcd5x55xs4107jgdl0snvr0000gn/T//ccT4HE9t.s 			page 21


 743              		.loc 1 381 10 view .LVU293
 744 016c 75EEA76A 		vadd.f32	s13, s11, s15
 745              	.LVL108:
 382:DSP/Source/TransformFunctions/arm_cfft_radix2_f32.c ****       yt = pSrc[2 * i + 1] - pSrc[2 * i + 3];
 746              		.loc 1 382 7 is_stmt 1 view .LVU294
 747              		.loc 1 382 10 is_stmt 0 view .LVU295
 748 0170 77EEE57A 		vsub.f32	s15, s15, s11
 749              	.LVL109:
 383:DSP/Source/TransformFunctions/arm_cfft_radix2_f32.c **** 
 384:DSP/Source/TransformFunctions/arm_cfft_radix2_f32.c ****       p0 = a0 * onebyfftLen;
 750              		.loc 1 384 7 is_stmt 1 view .LVU296
 751              		.loc 1 384 10 is_stmt 0 view .LVU297
 752 0174 26EE236A 		vmul.f32	s12, s12, s7
 753              	.LVL110:
 385:DSP/Source/TransformFunctions/arm_cfft_radix2_f32.c ****       p2 = xt * onebyfftLen;
 754              		.loc 1 385 7 is_stmt 1 view .LVU298
 755              		.loc 1 385 10 is_stmt 0 view .LVU299
 756 0178 27EE237A 		vmul.f32	s14, s14, s7
 757              	.LVL111:
 386:DSP/Source/TransformFunctions/arm_cfft_radix2_f32.c ****       p1 = a1 * onebyfftLen;
 758              		.loc 1 386 7 is_stmt 1 view .LVU300
 759              		.loc 1 386 10 is_stmt 0 view .LVU301
 760 017c 66EEA36A 		vmul.f32	s13, s13, s7
 761              	.LVL112:
 387:DSP/Source/TransformFunctions/arm_cfft_radix2_f32.c ****       p3 = yt * onebyfftLen;
 762              		.loc 1 387 7 is_stmt 1 view .LVU302
 763              		.loc 1 387 10 is_stmt 0 view .LVU303
 764 0180 67EEA37A 		vmul.f32	s15, s15, s7
 765              	.LVL113:
 388:DSP/Source/TransformFunctions/arm_cfft_radix2_f32.c **** 
 389:DSP/Source/TransformFunctions/arm_cfft_radix2_f32.c ****       pSrc[2 * i] = p0;
 766              		.loc 1 389 7 is_stmt 1 view .LVU304
 767              		.loc 1 389 19 is_stmt 0 view .LVU305
 768 0184 84ED006A 		vstr.32	s12, [r4]
 769              	.LVL114:
 390:DSP/Source/TransformFunctions/arm_cfft_radix2_f32.c ****       pSrc[2 * i + 1] = p1;
 770              		.loc 1 390 7 is_stmt 1 view .LVU306
 771              		.loc 1 390 23 is_stmt 0 view .LVU307
 772 0188 C3ED006A 		vstr.32	s13, [r3]
 773              	.LVL115:
 391:DSP/Source/TransformFunctions/arm_cfft_radix2_f32.c ****       pSrc[2 * i + 2] = p2;
 774              		.loc 1 391 7 is_stmt 1 view .LVU308
 775              		.loc 1 391 23 is_stmt 0 view .LVU309
 776 018c 80ED007A 		vstr.32	s14, [r0]
 392:DSP/Source/TransformFunctions/arm_cfft_radix2_f32.c ****       pSrc[2 * i + 3] = p3;
 777              		.loc 1 392 7 is_stmt 1 view .LVU310
 778              		.loc 1 392 23 is_stmt 0 view .LVU311
 779 0190 C1ED007A 		vstr.32	s15, [r1]
 376:DSP/Source/TransformFunctions/arm_cfft_radix2_f32.c ****    {
 780              		.loc 1 376 30 is_stmt 1 discriminator 3 view .LVU312
 781 0194 0232     		adds	r2, r2, #2
 782              	.LVL116:
 783              	.L18:
 376:DSP/Source/TransformFunctions/arm_cfft_radix2_f32.c ****    {
 784              		.loc 1 376 18 discriminator 1 view .LVU313
 785 0196 B242     		cmp	r2, r6
 786 0198 D1D3     		bcc	.L19
ARM GAS  /var/folders/ck/g3dcd5x55xs4107jgdl0snvr0000gn/T//ccT4HE9t.s 			page 22


 393:DSP/Source/TransformFunctions/arm_cfft_radix2_f32.c ****    }                             // butterfly loop end
 394:DSP/Source/TransformFunctions/arm_cfft_radix2_f32.c **** 
 395:DSP/Source/TransformFunctions/arm_cfft_radix2_f32.c **** #else
 396:DSP/Source/TransformFunctions/arm_cfft_radix2_f32.c **** 
 397:DSP/Source/TransformFunctions/arm_cfft_radix2_f32.c ****    n2 = fftLen;
 398:DSP/Source/TransformFunctions/arm_cfft_radix2_f32.c **** 
 399:DSP/Source/TransformFunctions/arm_cfft_radix2_f32.c ****    // loop for stage
 400:DSP/Source/TransformFunctions/arm_cfft_radix2_f32.c ****    for (k = fftLen; k > 2; k = k >> 1)
 401:DSP/Source/TransformFunctions/arm_cfft_radix2_f32.c ****    {
 402:DSP/Source/TransformFunctions/arm_cfft_radix2_f32.c ****       n1 = n2;
 403:DSP/Source/TransformFunctions/arm_cfft_radix2_f32.c ****       n2 = n2 >> 1;
 404:DSP/Source/TransformFunctions/arm_cfft_radix2_f32.c ****       ia = 0;
 405:DSP/Source/TransformFunctions/arm_cfft_radix2_f32.c **** 
 406:DSP/Source/TransformFunctions/arm_cfft_radix2_f32.c ****       // loop for groups
 407:DSP/Source/TransformFunctions/arm_cfft_radix2_f32.c ****       j = 0;
 408:DSP/Source/TransformFunctions/arm_cfft_radix2_f32.c ****       do
 409:DSP/Source/TransformFunctions/arm_cfft_radix2_f32.c ****       {
 410:DSP/Source/TransformFunctions/arm_cfft_radix2_f32.c ****          cosVal = pCoef[ia * 2];
 411:DSP/Source/TransformFunctions/arm_cfft_radix2_f32.c ****          sinVal = pCoef[(ia * 2) + 1];
 412:DSP/Source/TransformFunctions/arm_cfft_radix2_f32.c ****          ia = ia + twidCoefModifier;
 413:DSP/Source/TransformFunctions/arm_cfft_radix2_f32.c **** 
 414:DSP/Source/TransformFunctions/arm_cfft_radix2_f32.c ****          // loop for butterfly
 415:DSP/Source/TransformFunctions/arm_cfft_radix2_f32.c ****          i = j;
 416:DSP/Source/TransformFunctions/arm_cfft_radix2_f32.c ****          do
 417:DSP/Source/TransformFunctions/arm_cfft_radix2_f32.c ****          {
 418:DSP/Source/TransformFunctions/arm_cfft_radix2_f32.c ****             l = i + n2;
 419:DSP/Source/TransformFunctions/arm_cfft_radix2_f32.c ****             a0 = pSrc[2 * i] + pSrc[2 * l];
 420:DSP/Source/TransformFunctions/arm_cfft_radix2_f32.c ****             xt = pSrc[2 * i] - pSrc[2 * l];
 421:DSP/Source/TransformFunctions/arm_cfft_radix2_f32.c **** 
 422:DSP/Source/TransformFunctions/arm_cfft_radix2_f32.c ****             yt = pSrc[2 * i + 1] - pSrc[2 * l + 1];
 423:DSP/Source/TransformFunctions/arm_cfft_radix2_f32.c ****             a1 = pSrc[2 * l + 1] + pSrc[2 * i + 1];
 424:DSP/Source/TransformFunctions/arm_cfft_radix2_f32.c **** 
 425:DSP/Source/TransformFunctions/arm_cfft_radix2_f32.c ****             p0 = xt * cosVal;
 426:DSP/Source/TransformFunctions/arm_cfft_radix2_f32.c ****             p1 = yt * sinVal;
 427:DSP/Source/TransformFunctions/arm_cfft_radix2_f32.c ****             p2 = yt * cosVal;
 428:DSP/Source/TransformFunctions/arm_cfft_radix2_f32.c ****             p3 = xt * sinVal;
 429:DSP/Source/TransformFunctions/arm_cfft_radix2_f32.c **** 
 430:DSP/Source/TransformFunctions/arm_cfft_radix2_f32.c ****             pSrc[2 * i] = a0;
 431:DSP/Source/TransformFunctions/arm_cfft_radix2_f32.c ****             pSrc[2 * i + 1] = a1;
 432:DSP/Source/TransformFunctions/arm_cfft_radix2_f32.c **** 
 433:DSP/Source/TransformFunctions/arm_cfft_radix2_f32.c ****             pSrc[2 * l]     = p0 - p1;
 434:DSP/Source/TransformFunctions/arm_cfft_radix2_f32.c ****             pSrc[2 * l + 1] = p2 + p3;
 435:DSP/Source/TransformFunctions/arm_cfft_radix2_f32.c **** 
 436:DSP/Source/TransformFunctions/arm_cfft_radix2_f32.c ****             i += n1;
 437:DSP/Source/TransformFunctions/arm_cfft_radix2_f32.c ****          } while ( i < fftLen );                    // butterfly loop end
 438:DSP/Source/TransformFunctions/arm_cfft_radix2_f32.c ****          j++;
 439:DSP/Source/TransformFunctions/arm_cfft_radix2_f32.c ****       } while ( j < n2 );                      // groups loop end
 440:DSP/Source/TransformFunctions/arm_cfft_radix2_f32.c **** 
 441:DSP/Source/TransformFunctions/arm_cfft_radix2_f32.c ****       twidCoefModifier = twidCoefModifier << 1U;
 442:DSP/Source/TransformFunctions/arm_cfft_radix2_f32.c ****    }                             // stages loop end
 443:DSP/Source/TransformFunctions/arm_cfft_radix2_f32.c **** 
 444:DSP/Source/TransformFunctions/arm_cfft_radix2_f32.c ****    n1 = n2;
 445:DSP/Source/TransformFunctions/arm_cfft_radix2_f32.c ****    n2 = n2 >> 1;
 446:DSP/Source/TransformFunctions/arm_cfft_radix2_f32.c **** 
 447:DSP/Source/TransformFunctions/arm_cfft_radix2_f32.c ****    // loop for butterfly
 448:DSP/Source/TransformFunctions/arm_cfft_radix2_f32.c ****    for (i = 0; i < fftLen; i += n1)
 449:DSP/Source/TransformFunctions/arm_cfft_radix2_f32.c ****    {
ARM GAS  /var/folders/ck/g3dcd5x55xs4107jgdl0snvr0000gn/T//ccT4HE9t.s 			page 23


 450:DSP/Source/TransformFunctions/arm_cfft_radix2_f32.c ****       l = i + n2;
 451:DSP/Source/TransformFunctions/arm_cfft_radix2_f32.c **** 
 452:DSP/Source/TransformFunctions/arm_cfft_radix2_f32.c ****       a0 = pSrc[2 * i] + pSrc[2 * l];
 453:DSP/Source/TransformFunctions/arm_cfft_radix2_f32.c ****       xt = pSrc[2 * i] - pSrc[2 * l];
 454:DSP/Source/TransformFunctions/arm_cfft_radix2_f32.c **** 
 455:DSP/Source/TransformFunctions/arm_cfft_radix2_f32.c ****       a1 = pSrc[2 * l + 1] + pSrc[2 * i + 1];
 456:DSP/Source/TransformFunctions/arm_cfft_radix2_f32.c ****       yt = pSrc[2 * i + 1] - pSrc[2 * l + 1];
 457:DSP/Source/TransformFunctions/arm_cfft_radix2_f32.c **** 
 458:DSP/Source/TransformFunctions/arm_cfft_radix2_f32.c ****       p0 = a0 * onebyfftLen;
 459:DSP/Source/TransformFunctions/arm_cfft_radix2_f32.c ****       p2 = xt * onebyfftLen;
 460:DSP/Source/TransformFunctions/arm_cfft_radix2_f32.c ****       p1 = a1 * onebyfftLen;
 461:DSP/Source/TransformFunctions/arm_cfft_radix2_f32.c ****       p3 = yt * onebyfftLen;
 462:DSP/Source/TransformFunctions/arm_cfft_radix2_f32.c **** 
 463:DSP/Source/TransformFunctions/arm_cfft_radix2_f32.c ****       pSrc[2 * i] = p0;
 464:DSP/Source/TransformFunctions/arm_cfft_radix2_f32.c ****       pSrc[2U * l] = p2;
 465:DSP/Source/TransformFunctions/arm_cfft_radix2_f32.c **** 
 466:DSP/Source/TransformFunctions/arm_cfft_radix2_f32.c ****       pSrc[2 * i + 1] = p1;
 467:DSP/Source/TransformFunctions/arm_cfft_radix2_f32.c ****       pSrc[2U * l + 1U] = p3;
 468:DSP/Source/TransformFunctions/arm_cfft_radix2_f32.c ****    }                             // butterfly loop end
 469:DSP/Source/TransformFunctions/arm_cfft_radix2_f32.c **** 
 470:DSP/Source/TransformFunctions/arm_cfft_radix2_f32.c **** #endif //      #if defined (ARM_MATH_DSP)
 471:DSP/Source/TransformFunctions/arm_cfft_radix2_f32.c **** 
 472:DSP/Source/TransformFunctions/arm_cfft_radix2_f32.c **** }
 787              		.loc 1 472 1 is_stmt 0 view .LVU314
 788 019a BDE8F08F 		pop	{r4, r5, r6, r7, r8, r9, r10, fp, pc}
 789              		.loc 1 472 1 view .LVU315
 790              		.cfi_endproc
 791              	.LFE141:
 793              		.section	.text.arm_cfft_radix2_f32,"ax",%progbits
 794              		.align	1
 795              		.global	arm_cfft_radix2_f32
 796              		.syntax unified
 797              		.thumb
 798              		.thumb_func
 800              	arm_cfft_radix2_f32:
 801              	.LVL117:
 802              	.LFB139:
  72:DSP/Source/TransformFunctions/arm_cfft_radix2_f32.c **** 
 803              		.loc 1 72 1 is_stmt 1 view -0
 804              		.cfi_startproc
 805              		@ args = 0, pretend = 0, frame = 0
 806              		@ frame_needed = 0, uses_anonymous_args = 0
  72:DSP/Source/TransformFunctions/arm_cfft_radix2_f32.c **** 
 807              		.loc 1 72 1 is_stmt 0 view .LVU317
 808 0000 38B5     		push	{r3, r4, r5, lr}
 809              	.LCFI4:
 810              		.cfi_def_cfa_offset 16
 811              		.cfi_offset 3, -16
 812              		.cfi_offset 4, -12
 813              		.cfi_offset 5, -8
 814              		.cfi_offset 14, -4
 815 0002 0446     		mov	r4, r0
 816 0004 0D46     		mov	r5, r1
  74:DSP/Source/TransformFunctions/arm_cfft_radix2_f32.c ****    {
 817              		.loc 1 74 4 is_stmt 1 view .LVU318
  74:DSP/Source/TransformFunctions/arm_cfft_radix2_f32.c ****    {
 818              		.loc 1 74 9 is_stmt 0 view .LVU319
ARM GAS  /var/folders/ck/g3dcd5x55xs4107jgdl0snvr0000gn/T//ccT4HE9t.s 			page 24


 819 0006 8378     		ldrb	r3, [r0, #2]	@ zero_extendqisi2
  74:DSP/Source/TransformFunctions/arm_cfft_radix2_f32.c ****    {
 820              		.loc 1 74 7 view .LVU320
 821 0008 012B     		cmp	r3, #1
 822 000a 09D0     		beq	.L26
  83:DSP/Source/TransformFunctions/arm_cfft_radix2_f32.c ****       S->twidCoefModifier);
 823              		.loc 1 83 7 is_stmt 1 view .LVU321
 824 000c 8389     		ldrh	r3, [r0, #12]
 825 000e 4268     		ldr	r2, [r0, #4]
 826 0010 0188     		ldrh	r1, [r0]
 827              	.LVL118:
  83:DSP/Source/TransformFunctions/arm_cfft_radix2_f32.c ****       S->twidCoefModifier);
 828              		.loc 1 83 7 is_stmt 0 view .LVU322
 829 0012 2846     		mov	r0, r5
 830              	.LVL119:
  83:DSP/Source/TransformFunctions/arm_cfft_radix2_f32.c ****       S->twidCoefModifier);
 831              		.loc 1 83 7 view .LVU323
 832 0014 FFF7FEFF 		bl	arm_radix2_butterfly_f32
 833              	.LVL120:
 834              	.L23:
  87:DSP/Source/TransformFunctions/arm_cfft_radix2_f32.c ****    {
 835              		.loc 1 87 4 is_stmt 1 view .LVU324
  87:DSP/Source/TransformFunctions/arm_cfft_radix2_f32.c ****    {
 836              		.loc 1 87 9 is_stmt 0 view .LVU325
 837 0018 E378     		ldrb	r3, [r4, #3]	@ zero_extendqisi2
  87:DSP/Source/TransformFunctions/arm_cfft_radix2_f32.c ****    {
 838              		.loc 1 87 7 view .LVU326
 839 001a 012B     		cmp	r3, #1
 840 001c 09D0     		beq	.L27
 841              	.L21:
  93:DSP/Source/TransformFunctions/arm_cfft_radix2_f32.c **** 
 842              		.loc 1 93 1 view .LVU327
 843 001e 38BD     		pop	{r3, r4, r5, pc}
 844              	.LVL121:
 845              	.L26:
  77:DSP/Source/TransformFunctions/arm_cfft_radix2_f32.c ****       S->twidCoefModifier, S->onebyfftLen);
 846              		.loc 1 77 7 is_stmt 1 view .LVU328
 847 0020 90ED040A 		vldr.32	s0, [r0, #16]
 848 0024 8389     		ldrh	r3, [r0, #12]
 849 0026 4268     		ldr	r2, [r0, #4]
 850 0028 0188     		ldrh	r1, [r0]
 851              	.LVL122:
  77:DSP/Source/TransformFunctions/arm_cfft_radix2_f32.c ****       S->twidCoefModifier, S->onebyfftLen);
 852              		.loc 1 77 7 is_stmt 0 view .LVU329
 853 002a 2846     		mov	r0, r5
 854              	.LVL123:
  77:DSP/Source/TransformFunctions/arm_cfft_radix2_f32.c ****       S->twidCoefModifier, S->onebyfftLen);
 855              		.loc 1 77 7 view .LVU330
 856 002c FFF7FEFF 		bl	arm_radix2_butterfly_inverse_f32
 857              	.LVL124:
 858 0030 F2E7     		b	.L23
 859              	.L27:
  90:DSP/Source/TransformFunctions/arm_cfft_radix2_f32.c ****    }
 860              		.loc 1 90 7 is_stmt 1 view .LVU331
 861 0032 A368     		ldr	r3, [r4, #8]
 862 0034 E289     		ldrh	r2, [r4, #14]
 863 0036 2188     		ldrh	r1, [r4]
ARM GAS  /var/folders/ck/g3dcd5x55xs4107jgdl0snvr0000gn/T//ccT4HE9t.s 			page 25


 864 0038 2846     		mov	r0, r5
 865 003a FFF7FEFF 		bl	arm_bitreversal_f32
 866              	.LVL125:
  93:DSP/Source/TransformFunctions/arm_cfft_radix2_f32.c **** 
 867              		.loc 1 93 1 is_stmt 0 view .LVU332
 868 003e EEE7     		b	.L21
 869              		.cfi_endproc
 870              	.LFE139:
 872              		.text
 873              	.Letext0:
 874              		.file 2 "/Users/luban/.local/xPacks/arm-none-eabi-gcc/xpack-arm-none-eabi-gcc-13.2.1-1.1/arm-none-
 875              		.file 3 "/Users/luban/.local/xPacks/arm-none-eabi-gcc/xpack-arm-none-eabi-gcc-13.2.1-1.1/arm-none-
 876              		.file 4 "DSP/Inc/arm_math.h"
ARM GAS  /var/folders/ck/g3dcd5x55xs4107jgdl0snvr0000gn/T//ccT4HE9t.s 			page 26

