ARM GAS  /var/folders/ck/g3dcd5x55xs4107jgdl0snvr0000gn/T//cc62bpmh.s 			page 1


   1              		.cpu cortex-m4
   2              		.arch armv7e-m
   3              		.fpu fpv4-sp-d16
   4              		.eabi_attribute 27, 1
   5              		.eabi_attribute 28, 1
   6              		.eabi_attribute 20, 1
   7              		.eabi_attribute 21, 1
   8              		.eabi_attribute 23, 3
   9              		.eabi_attribute 24, 1
  10              		.eabi_attribute 25, 1
  11              		.eabi_attribute 26, 1
  12              		.eabi_attribute 30, 1
  13              		.eabi_attribute 34, 1
  14              		.eabi_attribute 18, 4
  15              		.file	"arm_copy_q31.c"
  16              		.text
  17              	.Ltext0:
  18              		.cfi_sections	.debug_frame
  19              		.file 1 "DSP/Source/SupportFunctions/arm_copy_q31.c"
  20              		.section	.text.arm_copy_q31,"ax",%progbits
  21              		.align	1
  22              		.global	arm_copy_q31
  23              		.syntax unified
  24              		.thumb
  25              		.thumb_func
  27              	arm_copy_q31:
  28              	.LVL0:
  29              	.LFB139:
   1:DSP/Source/SupportFunctions/arm_copy_q31.c **** /* ----------------------------------------------------------------------
   2:DSP/Source/SupportFunctions/arm_copy_q31.c ****  * Project:      CMSIS DSP Library
   3:DSP/Source/SupportFunctions/arm_copy_q31.c ****  * Title:        arm_copy_q31.c
   4:DSP/Source/SupportFunctions/arm_copy_q31.c ****  * Description:  Copies the elements of a Q31 vector
   5:DSP/Source/SupportFunctions/arm_copy_q31.c ****  *
   6:DSP/Source/SupportFunctions/arm_copy_q31.c ****  * $Date:        27. January 2017
   7:DSP/Source/SupportFunctions/arm_copy_q31.c ****  * $Revision:    V.1.5.1
   8:DSP/Source/SupportFunctions/arm_copy_q31.c ****  *
   9:DSP/Source/SupportFunctions/arm_copy_q31.c ****  * Target Processor: Cortex-M cores
  10:DSP/Source/SupportFunctions/arm_copy_q31.c ****  * -------------------------------------------------------------------- */
  11:DSP/Source/SupportFunctions/arm_copy_q31.c **** /*
  12:DSP/Source/SupportFunctions/arm_copy_q31.c ****  * Copyright (C) 2010-2017 ARM Limited or its affiliates. All rights reserved.
  13:DSP/Source/SupportFunctions/arm_copy_q31.c ****  *
  14:DSP/Source/SupportFunctions/arm_copy_q31.c ****  * SPDX-License-Identifier: Apache-2.0
  15:DSP/Source/SupportFunctions/arm_copy_q31.c ****  *
  16:DSP/Source/SupportFunctions/arm_copy_q31.c ****  * Licensed under the Apache License, Version 2.0 (the License); you may
  17:DSP/Source/SupportFunctions/arm_copy_q31.c ****  * not use this file except in compliance with the License.
  18:DSP/Source/SupportFunctions/arm_copy_q31.c ****  * You may obtain a copy of the License at
  19:DSP/Source/SupportFunctions/arm_copy_q31.c ****  *
  20:DSP/Source/SupportFunctions/arm_copy_q31.c ****  * www.apache.org/licenses/LICENSE-2.0
  21:DSP/Source/SupportFunctions/arm_copy_q31.c ****  *
  22:DSP/Source/SupportFunctions/arm_copy_q31.c ****  * Unless required by applicable law or agreed to in writing, software
  23:DSP/Source/SupportFunctions/arm_copy_q31.c ****  * distributed under the License is distributed on an AS IS BASIS, WITHOUT
  24:DSP/Source/SupportFunctions/arm_copy_q31.c ****  * WARRANTIES OR CONDITIONS OF ANY KIND, either express or implied.
  25:DSP/Source/SupportFunctions/arm_copy_q31.c ****  * See the License for the specific language governing permissions and
  26:DSP/Source/SupportFunctions/arm_copy_q31.c ****  * limitations under the License.
  27:DSP/Source/SupportFunctions/arm_copy_q31.c ****  */
  28:DSP/Source/SupportFunctions/arm_copy_q31.c **** 
  29:DSP/Source/SupportFunctions/arm_copy_q31.c **** #include "arm_math.h"
ARM GAS  /var/folders/ck/g3dcd5x55xs4107jgdl0snvr0000gn/T//cc62bpmh.s 			page 2


  30:DSP/Source/SupportFunctions/arm_copy_q31.c **** 
  31:DSP/Source/SupportFunctions/arm_copy_q31.c **** /**
  32:DSP/Source/SupportFunctions/arm_copy_q31.c ****  * @ingroup groupSupport
  33:DSP/Source/SupportFunctions/arm_copy_q31.c ****  */
  34:DSP/Source/SupportFunctions/arm_copy_q31.c **** 
  35:DSP/Source/SupportFunctions/arm_copy_q31.c **** /**
  36:DSP/Source/SupportFunctions/arm_copy_q31.c ****  * @addtogroup copy
  37:DSP/Source/SupportFunctions/arm_copy_q31.c ****  * @{
  38:DSP/Source/SupportFunctions/arm_copy_q31.c ****  */
  39:DSP/Source/SupportFunctions/arm_copy_q31.c **** 
  40:DSP/Source/SupportFunctions/arm_copy_q31.c **** /**
  41:DSP/Source/SupportFunctions/arm_copy_q31.c ****  * @brief Copies the elements of a Q31 vector.
  42:DSP/Source/SupportFunctions/arm_copy_q31.c ****  * @param[in]       *pSrc points to input vector
  43:DSP/Source/SupportFunctions/arm_copy_q31.c ****  * @param[out]      *pDst points to output vector
  44:DSP/Source/SupportFunctions/arm_copy_q31.c ****  * @param[in]       blockSize length of the input vector
  45:DSP/Source/SupportFunctions/arm_copy_q31.c ****  * @return none.
  46:DSP/Source/SupportFunctions/arm_copy_q31.c ****  *
  47:DSP/Source/SupportFunctions/arm_copy_q31.c ****  */
  48:DSP/Source/SupportFunctions/arm_copy_q31.c **** 
  49:DSP/Source/SupportFunctions/arm_copy_q31.c **** void arm_copy_q31(
  50:DSP/Source/SupportFunctions/arm_copy_q31.c ****   q31_t * pSrc,
  51:DSP/Source/SupportFunctions/arm_copy_q31.c ****   q31_t * pDst,
  52:DSP/Source/SupportFunctions/arm_copy_q31.c ****   uint32_t blockSize)
  53:DSP/Source/SupportFunctions/arm_copy_q31.c **** {
  30              		.loc 1 53 1 view -0
  31              		.cfi_startproc
  32              		@ args = 0, pretend = 0, frame = 0
  33              		@ frame_needed = 0, uses_anonymous_args = 0
  34              		@ link register save eliminated.
  54:DSP/Source/SupportFunctions/arm_copy_q31.c ****   uint32_t blkCnt;                               /* loop counter */
  35              		.loc 1 54 3 view .LVU1
  55:DSP/Source/SupportFunctions/arm_copy_q31.c **** 
  56:DSP/Source/SupportFunctions/arm_copy_q31.c **** 
  57:DSP/Source/SupportFunctions/arm_copy_q31.c **** #if defined (ARM_MATH_DSP)
  58:DSP/Source/SupportFunctions/arm_copy_q31.c **** 
  59:DSP/Source/SupportFunctions/arm_copy_q31.c ****   /* Run the below code for Cortex-M4 and Cortex-M3 */
  60:DSP/Source/SupportFunctions/arm_copy_q31.c ****   q31_t in1, in2, in3, in4;
  36              		.loc 1 60 3 view .LVU2
  61:DSP/Source/SupportFunctions/arm_copy_q31.c **** 
  62:DSP/Source/SupportFunctions/arm_copy_q31.c ****   /*loop Unrolling */
  63:DSP/Source/SupportFunctions/arm_copy_q31.c ****   blkCnt = blockSize >> 2U;
  37              		.loc 1 63 3 view .LVU3
  38              		.loc 1 63 10 is_stmt 0 view .LVU4
  39 0000 9308     		lsrs	r3, r2, #2
  40              	.LVL1:
  64:DSP/Source/SupportFunctions/arm_copy_q31.c **** 
  65:DSP/Source/SupportFunctions/arm_copy_q31.c ****   /* First part of the processing with loop unrolling.  Compute 4 outputs at a time.
  66:DSP/Source/SupportFunctions/arm_copy_q31.c ****    ** a second loop below computes the remaining 1 to 3 samples. */
  67:DSP/Source/SupportFunctions/arm_copy_q31.c ****   while (blkCnt > 0U)
  41              		.loc 1 67 3 is_stmt 1 view .LVU5
  42              		.loc 1 67 17 view .LVU6
  43 0002 CBB1     		cbz	r3, .L12
  53:DSP/Source/SupportFunctions/arm_copy_q31.c ****   uint32_t blkCnt;                               /* loop counter */
  44              		.loc 1 53 1 is_stmt 0 view .LVU7
  45 0004 F0B4     		push	{r4, r5, r6, r7}
  46              	.LCFI0:
  47              		.cfi_def_cfa_offset 16
ARM GAS  /var/folders/ck/g3dcd5x55xs4107jgdl0snvr0000gn/T//cc62bpmh.s 			page 3


  48              		.cfi_offset 4, -16
  49              		.cfi_offset 5, -12
  50              		.cfi_offset 6, -8
  51              		.cfi_offset 7, -4
  52              	.L3:
  68:DSP/Source/SupportFunctions/arm_copy_q31.c ****   {
  69:DSP/Source/SupportFunctions/arm_copy_q31.c ****     /* C = A */
  70:DSP/Source/SupportFunctions/arm_copy_q31.c ****     /* Copy and then store the values in the destination buffer */
  71:DSP/Source/SupportFunctions/arm_copy_q31.c ****     in1 = *pSrc++;
  53              		.loc 1 71 5 is_stmt 1 view .LVU8
  54              	.LVL2:
  72:DSP/Source/SupportFunctions/arm_copy_q31.c ****     in2 = *pSrc++;
  55              		.loc 1 72 5 view .LVU9
  56              		.loc 1 72 9 is_stmt 0 view .LVU10
  57 0006 4668     		ldr	r6, [r0, #4]
  58              	.LVL3:
  73:DSP/Source/SupportFunctions/arm_copy_q31.c ****     in3 = *pSrc++;
  59              		.loc 1 73 5 is_stmt 1 view .LVU11
  60              		.loc 1 73 9 is_stmt 0 view .LVU12
  61 0008 8568     		ldr	r5, [r0, #8]
  62              	.LVL4:
  74:DSP/Source/SupportFunctions/arm_copy_q31.c ****     in4 = *pSrc++;
  63              		.loc 1 74 5 is_stmt 1 view .LVU13
  64              		.loc 1 74 9 is_stmt 0 view .LVU14
  65 000a C468     		ldr	r4, [r0, #12]
  66              	.LVL5:
  75:DSP/Source/SupportFunctions/arm_copy_q31.c **** 
  76:DSP/Source/SupportFunctions/arm_copy_q31.c ****     *pDst++ = in1;
  67              		.loc 1 76 5 is_stmt 1 view .LVU15
  68              		.loc 1 76 13 is_stmt 0 view .LVU16
  69 000c 0768     		ldr	r7, [r0]
  70 000e 0F60     		str	r7, [r1]
  71              	.LVL6:
  77:DSP/Source/SupportFunctions/arm_copy_q31.c ****     *pDst++ = in2;
  72              		.loc 1 77 5 is_stmt 1 view .LVU17
  73              		.loc 1 77 13 is_stmt 0 view .LVU18
  74 0010 4E60     		str	r6, [r1, #4]
  78:DSP/Source/SupportFunctions/arm_copy_q31.c ****     *pDst++ = in3;
  75              		.loc 1 78 5 is_stmt 1 view .LVU19
  76              	.LVL7:
  77              		.loc 1 78 13 is_stmt 0 view .LVU20
  78 0012 8D60     		str	r5, [r1, #8]
  79:DSP/Source/SupportFunctions/arm_copy_q31.c ****     *pDst++ = in4;
  79              		.loc 1 79 5 is_stmt 1 view .LVU21
  80              	.LVL8:
  81              		.loc 1 79 13 is_stmt 0 view .LVU22
  82 0014 CC60     		str	r4, [r1, #12]
  80:DSP/Source/SupportFunctions/arm_copy_q31.c **** 
  81:DSP/Source/SupportFunctions/arm_copy_q31.c ****     /* Decrement the loop counter */
  82:DSP/Source/SupportFunctions/arm_copy_q31.c ****     blkCnt--;
  83              		.loc 1 82 5 is_stmt 1 view .LVU23
  84              		.loc 1 82 11 is_stmt 0 view .LVU24
  85 0016 013B     		subs	r3, r3, #1
  86              	.LVL9:
  79:DSP/Source/SupportFunctions/arm_copy_q31.c ****     *pDst++ = in4;
  87              		.loc 1 79 10 view .LVU25
  88 0018 1031     		adds	r1, r1, #16
ARM GAS  /var/folders/ck/g3dcd5x55xs4107jgdl0snvr0000gn/T//cc62bpmh.s 			page 4


  89              	.LVL10:
  74:DSP/Source/SupportFunctions/arm_copy_q31.c **** 
  90              		.loc 1 74 16 view .LVU26
  91 001a 1030     		adds	r0, r0, #16
  92              	.LVL11:
  67:DSP/Source/SupportFunctions/arm_copy_q31.c ****   {
  93              		.loc 1 67 17 is_stmt 1 view .LVU27
  94 001c 002B     		cmp	r3, #0
  95 001e F2D1     		bne	.L3
  83:DSP/Source/SupportFunctions/arm_copy_q31.c ****   }
  84:DSP/Source/SupportFunctions/arm_copy_q31.c **** 
  85:DSP/Source/SupportFunctions/arm_copy_q31.c ****   /* If the blockSize is not a multiple of 4, compute any remaining output samples here.
  86:DSP/Source/SupportFunctions/arm_copy_q31.c ****    ** No loop unrolling is used. */
  87:DSP/Source/SupportFunctions/arm_copy_q31.c ****   blkCnt = blockSize % 0x4U;
  96              		.loc 1 87 3 view .LVU28
  97              		.loc 1 87 10 is_stmt 0 view .LVU29
  98 0020 02F00302 		and	r2, r2, #3
  99              	.LVL12:
  88:DSP/Source/SupportFunctions/arm_copy_q31.c **** 
  89:DSP/Source/SupportFunctions/arm_copy_q31.c **** #else
  90:DSP/Source/SupportFunctions/arm_copy_q31.c **** 
  91:DSP/Source/SupportFunctions/arm_copy_q31.c ****   /* Run the below code for Cortex-M0 */
  92:DSP/Source/SupportFunctions/arm_copy_q31.c **** 
  93:DSP/Source/SupportFunctions/arm_copy_q31.c ****   /* Loop over blockSize number of values */
  94:DSP/Source/SupportFunctions/arm_copy_q31.c ****   blkCnt = blockSize;
  95:DSP/Source/SupportFunctions/arm_copy_q31.c **** 
  96:DSP/Source/SupportFunctions/arm_copy_q31.c **** #endif /* #if defined (ARM_MATH_DSP) */
  97:DSP/Source/SupportFunctions/arm_copy_q31.c **** 
  98:DSP/Source/SupportFunctions/arm_copy_q31.c ****   while (blkCnt > 0U)
 100              		.loc 1 98 3 is_stmt 1 view .LVU30
 101              		.loc 1 98 9 is_stmt 0 view .LVU31
 102 0024 04E0     		b	.L4
 103              	.L5:
  99:DSP/Source/SupportFunctions/arm_copy_q31.c ****   {
 100:DSP/Source/SupportFunctions/arm_copy_q31.c ****     /* C = A */
 101:DSP/Source/SupportFunctions/arm_copy_q31.c ****     /* Copy and then store the value in the destination buffer */
 102:DSP/Source/SupportFunctions/arm_copy_q31.c ****     *pDst++ = *pSrc++;
 104              		.loc 1 102 5 is_stmt 1 view .LVU32
 105              	.LVL13:
 106              		.loc 1 102 15 is_stmt 0 view .LVU33
 107 0026 50F8043B 		ldr	r3, [r0], #4
 108              	.LVL14:
 109              		.loc 1 102 13 view .LVU34
 110 002a 41F8043B 		str	r3, [r1], #4
 111              	.LVL15:
 103:DSP/Source/SupportFunctions/arm_copy_q31.c **** 
 104:DSP/Source/SupportFunctions/arm_copy_q31.c ****     /* Decrement the loop counter */
 105:DSP/Source/SupportFunctions/arm_copy_q31.c ****     blkCnt--;
 112              		.loc 1 105 5 is_stmt 1 view .LVU35
 113              		.loc 1 105 11 is_stmt 0 view .LVU36
 114 002e 013A     		subs	r2, r2, #1
 115              	.LVL16:
 116              	.L4:
  98:DSP/Source/SupportFunctions/arm_copy_q31.c ****   {
 117              		.loc 1 98 17 is_stmt 1 view .LVU37
 118 0030 002A     		cmp	r2, #0
 119 0032 F8D1     		bne	.L5
ARM GAS  /var/folders/ck/g3dcd5x55xs4107jgdl0snvr0000gn/T//cc62bpmh.s 			page 5


 106:DSP/Source/SupportFunctions/arm_copy_q31.c ****   }
 107:DSP/Source/SupportFunctions/arm_copy_q31.c **** }
 120              		.loc 1 107 1 is_stmt 0 view .LVU38
 121 0034 F0BC     		pop	{r4, r5, r6, r7}
 122              	.LCFI1:
 123              		.cfi_restore 7
 124              		.cfi_restore 6
 125              		.cfi_restore 5
 126              		.cfi_restore 4
 127              		.cfi_def_cfa_offset 0
 128              	.LVL17:
 129              		.loc 1 107 1 view .LVU39
 130 0036 7047     		bx	lr
 131              	.LVL18:
 132              	.L12:
  87:DSP/Source/SupportFunctions/arm_copy_q31.c **** 
 133              		.loc 1 87 3 is_stmt 1 view .LVU40
  87:DSP/Source/SupportFunctions/arm_copy_q31.c **** 
 134              		.loc 1 87 10 is_stmt 0 view .LVU41
 135 0038 02F00302 		and	r2, r2, #3
 136              	.LVL19:
  98:DSP/Source/SupportFunctions/arm_copy_q31.c ****   {
 137              		.loc 1 98 3 is_stmt 1 view .LVU42
 138 003c 04E0     		b	.L9
 139              	.L10:
 102:DSP/Source/SupportFunctions/arm_copy_q31.c **** 
 140              		.loc 1 102 5 view .LVU43
 141              	.LVL20:
 102:DSP/Source/SupportFunctions/arm_copy_q31.c **** 
 142              		.loc 1 102 15 is_stmt 0 view .LVU44
 143 003e 50F8043B 		ldr	r3, [r0], #4
 144              	.LVL21:
 102:DSP/Source/SupportFunctions/arm_copy_q31.c **** 
 145              		.loc 1 102 13 view .LVU45
 146 0042 41F8043B 		str	r3, [r1], #4
 147              	.LVL22:
 105:DSP/Source/SupportFunctions/arm_copy_q31.c ****   }
 148              		.loc 1 105 5 is_stmt 1 view .LVU46
 105:DSP/Source/SupportFunctions/arm_copy_q31.c ****   }
 149              		.loc 1 105 11 is_stmt 0 view .LVU47
 150 0046 013A     		subs	r2, r2, #1
 151              	.LVL23:
 152              	.L9:
  98:DSP/Source/SupportFunctions/arm_copy_q31.c ****   {
 153              		.loc 1 98 17 is_stmt 1 view .LVU48
 154 0048 002A     		cmp	r2, #0
 155 004a F8D1     		bne	.L10
  98:DSP/Source/SupportFunctions/arm_copy_q31.c ****   {
 156              		.loc 1 98 17 is_stmt 0 view .LVU49
 157 004c 7047     		bx	lr
 158              		.cfi_endproc
 159              	.LFE139:
 161              		.text
 162              	.Letext0:
 163              		.file 2 "/Users/luban/.local/xPacks/arm-none-eabi-gcc/xpack-arm-none-eabi-gcc-13.2.1-1.1/arm-none-
 164              		.file 3 "/Users/luban/.local/xPacks/arm-none-eabi-gcc/xpack-arm-none-eabi-gcc-13.2.1-1.1/arm-none-
 165              		.file 4 "DSP/Inc/arm_math.h"
ARM GAS  /var/folders/ck/g3dcd5x55xs4107jgdl0snvr0000gn/T//cc62bpmh.s 			page 6


ARM GAS  /var/folders/ck/g3dcd5x55xs4107jgdl0snvr0000gn/T//cc62bpmh.s 			page 7

