ARM GAS  /var/folders/ck/g3dcd5x55xs4107jgdl0snvr0000gn/T//ccAzZy16.s 			page 1


   1              		.cpu cortex-m4
   2              		.arch armv7e-m
   3              		.fpu fpv4-sp-d16
   4              		.eabi_attribute 27, 1
   5              		.eabi_attribute 28, 1
   6              		.eabi_attribute 20, 1
   7              		.eabi_attribute 21, 1
   8              		.eabi_attribute 23, 3
   9              		.eabi_attribute 24, 1
  10              		.eabi_attribute 25, 1
  11              		.eabi_attribute 26, 1
  12              		.eabi_attribute 30, 1
  13              		.eabi_attribute 34, 1
  14              		.eabi_attribute 18, 4
  15              		.file	"arm_mat_inverse_f32.c"
  16              		.text
  17              	.Ltext0:
  18              		.cfi_sections	.debug_frame
  19              		.file 1 "DSP/Source/MatrixFunctions/arm_mat_inverse_f32.c"
  20              		.section	.text.arm_mat_inverse_f32,"ax",%progbits
  21              		.align	1
  22              		.global	arm_mat_inverse_f32
  23              		.syntax unified
  24              		.thumb
  25              		.thumb_func
  27              	arm_mat_inverse_f32:
  28              	.LVL0:
  29              	.LFB139:
   1:DSP/Source/MatrixFunctions/arm_mat_inverse_f32.c **** /* ----------------------------------------------------------------------
   2:DSP/Source/MatrixFunctions/arm_mat_inverse_f32.c ****  * Project:      CMSIS DSP Library
   3:DSP/Source/MatrixFunctions/arm_mat_inverse_f32.c ****  * Title:        arm_mat_inverse_f32.c
   4:DSP/Source/MatrixFunctions/arm_mat_inverse_f32.c ****  * Description:  Floating-point matrix inverse
   5:DSP/Source/MatrixFunctions/arm_mat_inverse_f32.c ****  *
   6:DSP/Source/MatrixFunctions/arm_mat_inverse_f32.c ****  * $Date:        27. January 2017
   7:DSP/Source/MatrixFunctions/arm_mat_inverse_f32.c ****  * $Revision:    V.1.5.1
   8:DSP/Source/MatrixFunctions/arm_mat_inverse_f32.c ****  *
   9:DSP/Source/MatrixFunctions/arm_mat_inverse_f32.c ****  * Target Processor: Cortex-M cores
  10:DSP/Source/MatrixFunctions/arm_mat_inverse_f32.c ****  * -------------------------------------------------------------------- */
  11:DSP/Source/MatrixFunctions/arm_mat_inverse_f32.c **** /*
  12:DSP/Source/MatrixFunctions/arm_mat_inverse_f32.c ****  * Copyright (C) 2010-2017 ARM Limited or its affiliates. All rights reserved.
  13:DSP/Source/MatrixFunctions/arm_mat_inverse_f32.c ****  *
  14:DSP/Source/MatrixFunctions/arm_mat_inverse_f32.c ****  * SPDX-License-Identifier: Apache-2.0
  15:DSP/Source/MatrixFunctions/arm_mat_inverse_f32.c ****  *
  16:DSP/Source/MatrixFunctions/arm_mat_inverse_f32.c ****  * Licensed under the Apache License, Version 2.0 (the License); you may
  17:DSP/Source/MatrixFunctions/arm_mat_inverse_f32.c ****  * not use this file except in compliance with the License.
  18:DSP/Source/MatrixFunctions/arm_mat_inverse_f32.c ****  * You may obtain a copy of the License at
  19:DSP/Source/MatrixFunctions/arm_mat_inverse_f32.c ****  *
  20:DSP/Source/MatrixFunctions/arm_mat_inverse_f32.c ****  * www.apache.org/licenses/LICENSE-2.0
  21:DSP/Source/MatrixFunctions/arm_mat_inverse_f32.c ****  *
  22:DSP/Source/MatrixFunctions/arm_mat_inverse_f32.c ****  * Unless required by applicable law or agreed to in writing, software
  23:DSP/Source/MatrixFunctions/arm_mat_inverse_f32.c ****  * distributed under the License is distributed on an AS IS BASIS, WITHOUT
  24:DSP/Source/MatrixFunctions/arm_mat_inverse_f32.c ****  * WARRANTIES OR CONDITIONS OF ANY KIND, either express or implied.
  25:DSP/Source/MatrixFunctions/arm_mat_inverse_f32.c ****  * See the License for the specific language governing permissions and
  26:DSP/Source/MatrixFunctions/arm_mat_inverse_f32.c ****  * limitations under the License.
  27:DSP/Source/MatrixFunctions/arm_mat_inverse_f32.c ****  */
  28:DSP/Source/MatrixFunctions/arm_mat_inverse_f32.c **** 
  29:DSP/Source/MatrixFunctions/arm_mat_inverse_f32.c **** #include "arm_math.h"
ARM GAS  /var/folders/ck/g3dcd5x55xs4107jgdl0snvr0000gn/T//ccAzZy16.s 			page 2


  30:DSP/Source/MatrixFunctions/arm_mat_inverse_f32.c **** 
  31:DSP/Source/MatrixFunctions/arm_mat_inverse_f32.c **** /**
  32:DSP/Source/MatrixFunctions/arm_mat_inverse_f32.c ****  * @ingroup groupMatrix
  33:DSP/Source/MatrixFunctions/arm_mat_inverse_f32.c ****  */
  34:DSP/Source/MatrixFunctions/arm_mat_inverse_f32.c **** 
  35:DSP/Source/MatrixFunctions/arm_mat_inverse_f32.c **** /**
  36:DSP/Source/MatrixFunctions/arm_mat_inverse_f32.c ****  * @defgroup MatrixInv Matrix Inverse
  37:DSP/Source/MatrixFunctions/arm_mat_inverse_f32.c ****  *
  38:DSP/Source/MatrixFunctions/arm_mat_inverse_f32.c ****  * Computes the inverse of a matrix.
  39:DSP/Source/MatrixFunctions/arm_mat_inverse_f32.c ****  *
  40:DSP/Source/MatrixFunctions/arm_mat_inverse_f32.c ****  * The inverse is defined only if the input matrix is square and non-singular (the determinant
  41:DSP/Source/MatrixFunctions/arm_mat_inverse_f32.c ****  * is non-zero). The function checks that the input and output matrices are square and of the
  42:DSP/Source/MatrixFunctions/arm_mat_inverse_f32.c ****  * same size.
  43:DSP/Source/MatrixFunctions/arm_mat_inverse_f32.c ****  *
  44:DSP/Source/MatrixFunctions/arm_mat_inverse_f32.c ****  * Matrix inversion is numerically sensitive and the CMSIS DSP library only supports matrix
  45:DSP/Source/MatrixFunctions/arm_mat_inverse_f32.c ****  * inversion of floating-point matrices.
  46:DSP/Source/MatrixFunctions/arm_mat_inverse_f32.c ****  *
  47:DSP/Source/MatrixFunctions/arm_mat_inverse_f32.c ****  * \par Algorithm
  48:DSP/Source/MatrixFunctions/arm_mat_inverse_f32.c ****  * The Gauss-Jordan method is used to find the inverse.
  49:DSP/Source/MatrixFunctions/arm_mat_inverse_f32.c ****  * The algorithm performs a sequence of elementary row-operations until it
  50:DSP/Source/MatrixFunctions/arm_mat_inverse_f32.c ****  * reduces the input matrix to an identity matrix. Applying the same sequence
  51:DSP/Source/MatrixFunctions/arm_mat_inverse_f32.c ****  * of elementary row-operations to an identity matrix yields the inverse matrix.
  52:DSP/Source/MatrixFunctions/arm_mat_inverse_f32.c ****  * If the input matrix is singular, then the algorithm terminates and returns error status
  53:DSP/Source/MatrixFunctions/arm_mat_inverse_f32.c ****  * <code>ARM_MATH_SINGULAR</code>.
  54:DSP/Source/MatrixFunctions/arm_mat_inverse_f32.c ****  * \image html MatrixInverse.gif "Matrix Inverse of a 3 x 3 matrix using Gauss-Jordan Method"
  55:DSP/Source/MatrixFunctions/arm_mat_inverse_f32.c ****  */
  56:DSP/Source/MatrixFunctions/arm_mat_inverse_f32.c **** 
  57:DSP/Source/MatrixFunctions/arm_mat_inverse_f32.c **** /**
  58:DSP/Source/MatrixFunctions/arm_mat_inverse_f32.c ****  * @addtogroup MatrixInv
  59:DSP/Source/MatrixFunctions/arm_mat_inverse_f32.c ****  * @{
  60:DSP/Source/MatrixFunctions/arm_mat_inverse_f32.c ****  */
  61:DSP/Source/MatrixFunctions/arm_mat_inverse_f32.c **** 
  62:DSP/Source/MatrixFunctions/arm_mat_inverse_f32.c **** /**
  63:DSP/Source/MatrixFunctions/arm_mat_inverse_f32.c ****  * @brief Floating-point matrix inverse.
  64:DSP/Source/MatrixFunctions/arm_mat_inverse_f32.c ****  * @param[in]       *pSrc points to input matrix structure
  65:DSP/Source/MatrixFunctions/arm_mat_inverse_f32.c ****  * @param[out]      *pDst points to output matrix structure
  66:DSP/Source/MatrixFunctions/arm_mat_inverse_f32.c ****  * @return     		The function returns
  67:DSP/Source/MatrixFunctions/arm_mat_inverse_f32.c ****  * <code>ARM_MATH_SIZE_MISMATCH</code> if the input matrix is not square or if the size
  68:DSP/Source/MatrixFunctions/arm_mat_inverse_f32.c ****  * of the output matrix does not match the size of the input matrix.
  69:DSP/Source/MatrixFunctions/arm_mat_inverse_f32.c ****  * If the input matrix is found to be singular (non-invertible), then the function returns
  70:DSP/Source/MatrixFunctions/arm_mat_inverse_f32.c ****  * <code>ARM_MATH_SINGULAR</code>.  Otherwise, the function returns <code>ARM_MATH_SUCCESS</code>.
  71:DSP/Source/MatrixFunctions/arm_mat_inverse_f32.c ****  */
  72:DSP/Source/MatrixFunctions/arm_mat_inverse_f32.c **** 
  73:DSP/Source/MatrixFunctions/arm_mat_inverse_f32.c **** arm_status arm_mat_inverse_f32(
  74:DSP/Source/MatrixFunctions/arm_mat_inverse_f32.c ****   const arm_matrix_instance_f32 * pSrc,
  75:DSP/Source/MatrixFunctions/arm_mat_inverse_f32.c ****   arm_matrix_instance_f32 * pDst)
  76:DSP/Source/MatrixFunctions/arm_mat_inverse_f32.c **** {
  30              		.loc 1 76 1 view -0
  31              		.cfi_startproc
  32              		@ args = 0, pretend = 0, frame = 8
  33              		@ frame_needed = 0, uses_anonymous_args = 0
  34              		.loc 1 76 1 is_stmt 0 view .LVU1
  35 0000 2DE9F04F 		push	{r4, r5, r6, r7, r8, r9, r10, fp, lr}
  36              	.LCFI0:
  37              		.cfi_def_cfa_offset 36
  38              		.cfi_offset 4, -36
  39              		.cfi_offset 5, -32
ARM GAS  /var/folders/ck/g3dcd5x55xs4107jgdl0snvr0000gn/T//ccAzZy16.s 			page 3


  40              		.cfi_offset 6, -28
  41              		.cfi_offset 7, -24
  42              		.cfi_offset 8, -20
  43              		.cfi_offset 9, -16
  44              		.cfi_offset 10, -12
  45              		.cfi_offset 11, -8
  46              		.cfi_offset 14, -4
  47 0004 83B0     		sub	sp, sp, #12
  48              	.LCFI1:
  49              		.cfi_def_cfa_offset 48
  77:DSP/Source/MatrixFunctions/arm_mat_inverse_f32.c ****   float32_t *pIn = pSrc->pData;                  /* input data matrix pointer */
  50              		.loc 1 77 3 is_stmt 1 view .LVU2
  51              		.loc 1 77 14 is_stmt 0 view .LVU3
  52 0006 D0F804A0 		ldr	r10, [r0, #4]
  53              	.LVL1:
  78:DSP/Source/MatrixFunctions/arm_mat_inverse_f32.c ****   float32_t *pOut = pDst->pData;                 /* output data matrix pointer */
  54              		.loc 1 78 3 is_stmt 1 view .LVU4
  55              		.loc 1 78 14 is_stmt 0 view .LVU5
  56 000a D1F804B0 		ldr	fp, [r1, #4]
  57              	.LVL2:
  79:DSP/Source/MatrixFunctions/arm_mat_inverse_f32.c ****   float32_t *pInT1, *pInT2;                      /* Temporary input data matrix pointer */
  58              		.loc 1 79 3 is_stmt 1 view .LVU6
  80:DSP/Source/MatrixFunctions/arm_mat_inverse_f32.c ****   float32_t *pOutT1, *pOutT2;                    /* Temporary output data matrix pointer */
  59              		.loc 1 80 3 view .LVU7
  81:DSP/Source/MatrixFunctions/arm_mat_inverse_f32.c ****   float32_t *pPivotRowIn, *pPRT_in, *pPivotRowDst, *pPRT_pDst;  /* Temporary input and output data 
  60              		.loc 1 81 3 view .LVU8
  82:DSP/Source/MatrixFunctions/arm_mat_inverse_f32.c ****   uint32_t numRows = pSrc->numRows;              /* Number of rows in the matrix  */
  61              		.loc 1 82 3 view .LVU9
  62              		.loc 1 82 26 is_stmt 0 view .LVU10
  63 000e B0F800E0 		ldrh	lr, [r0]
  64              	.LVL3:
  83:DSP/Source/MatrixFunctions/arm_mat_inverse_f32.c ****   uint32_t numCols = pSrc->numCols;              /* Number of Cols in the matrix  */
  65              		.loc 1 83 3 is_stmt 1 view .LVU11
  66              		.loc 1 83 26 is_stmt 0 view .LVU12
  67 0012 B0F802C0 		ldrh	ip, [r0, #2]
  68              	.LVL4:
  84:DSP/Source/MatrixFunctions/arm_mat_inverse_f32.c **** 
  85:DSP/Source/MatrixFunctions/arm_mat_inverse_f32.c **** #if defined (ARM_MATH_DSP)
  86:DSP/Source/MatrixFunctions/arm_mat_inverse_f32.c ****   float32_t maxC;                                /* maximum value in the column */
  69              		.loc 1 86 3 is_stmt 1 view .LVU13
  87:DSP/Source/MatrixFunctions/arm_mat_inverse_f32.c **** 
  88:DSP/Source/MatrixFunctions/arm_mat_inverse_f32.c ****   /* Run the below code for Cortex-M4 and Cortex-M3 */
  89:DSP/Source/MatrixFunctions/arm_mat_inverse_f32.c **** 
  90:DSP/Source/MatrixFunctions/arm_mat_inverse_f32.c ****   float32_t Xchg, in = 0.0f, in1;                /* Temporary input values  */
  70              		.loc 1 90 3 view .LVU14
  91:DSP/Source/MatrixFunctions/arm_mat_inverse_f32.c ****   uint32_t i, rowCnt, flag = 0U, j, loopCnt, k, l;      /* loop counters */
  71              		.loc 1 91 3 view .LVU15
  92:DSP/Source/MatrixFunctions/arm_mat_inverse_f32.c ****   arm_status status;                             /* status of matrix inverse */
  72              		.loc 1 92 3 view .LVU16
  93:DSP/Source/MatrixFunctions/arm_mat_inverse_f32.c **** 
  94:DSP/Source/MatrixFunctions/arm_mat_inverse_f32.c **** #ifdef ARM_MATH_MATRIX_CHECK
  95:DSP/Source/MatrixFunctions/arm_mat_inverse_f32.c **** 
  96:DSP/Source/MatrixFunctions/arm_mat_inverse_f32.c **** 
  97:DSP/Source/MatrixFunctions/arm_mat_inverse_f32.c ****   /* Check for matrix mismatch condition */
  98:DSP/Source/MatrixFunctions/arm_mat_inverse_f32.c ****   if ((pSrc->numRows != pSrc->numCols) || (pDst->numRows != pDst->numCols)
  73              		.loc 1 98 3 view .LVU17
  74              		.loc 1 98 6 is_stmt 0 view .LVU18
ARM GAS  /var/folders/ck/g3dcd5x55xs4107jgdl0snvr0000gn/T//ccAzZy16.s 			page 4


  75 0016 E645     		cmp	lr, ip
  76 0018 40F0E780 		bne	.L35
  77              		.loc 1 98 48 discriminator 1 view .LVU19
  78 001c 0B88     		ldrh	r3, [r1]
  79              		.loc 1 98 65 discriminator 1 view .LVU20
  80 001e 4A88     		ldrh	r2, [r1, #2]
  81              		.loc 1 98 40 discriminator 1 view .LVU21
  82 0020 9342     		cmp	r3, r2
  83 0022 40F0E580 		bne	.L36
  99:DSP/Source/MatrixFunctions/arm_mat_inverse_f32.c ****      || (pSrc->numRows != pDst->numRows))
  84              		.loc 1 99 6 view .LVU22
  85 0026 9E45     		cmp	lr, r3
  86 0028 40F0E580 		bne	.L37
 100:DSP/Source/MatrixFunctions/arm_mat_inverse_f32.c ****   {
 101:DSP/Source/MatrixFunctions/arm_mat_inverse_f32.c ****     /* Set status as ARM_MATH_SIZE_MISMATCH */
 102:DSP/Source/MatrixFunctions/arm_mat_inverse_f32.c ****     status = ARM_MATH_SIZE_MISMATCH;
 103:DSP/Source/MatrixFunctions/arm_mat_inverse_f32.c ****   }
 104:DSP/Source/MatrixFunctions/arm_mat_inverse_f32.c ****   else
 105:DSP/Source/MatrixFunctions/arm_mat_inverse_f32.c **** #endif /*    #ifdef ARM_MATH_MATRIX_CHECK    */
 106:DSP/Source/MatrixFunctions/arm_mat_inverse_f32.c **** 
 107:DSP/Source/MatrixFunctions/arm_mat_inverse_f32.c ****   {
 108:DSP/Source/MatrixFunctions/arm_mat_inverse_f32.c **** 
 109:DSP/Source/MatrixFunctions/arm_mat_inverse_f32.c ****     /*---------------------------------------------------------------------------------------------
 110:DSP/Source/MatrixFunctions/arm_mat_inverse_f32.c **** 	 * Matrix Inverse can be solved using elementary row operations.
 111:DSP/Source/MatrixFunctions/arm_mat_inverse_f32.c **** 	 *
 112:DSP/Source/MatrixFunctions/arm_mat_inverse_f32.c **** 	 *	Gauss-Jordan Method:
 113:DSP/Source/MatrixFunctions/arm_mat_inverse_f32.c **** 	 *
 114:DSP/Source/MatrixFunctions/arm_mat_inverse_f32.c **** 	 *	   1. First combine the identity matrix and the input matrix separated by a bar to form an
 115:DSP/Source/MatrixFunctions/arm_mat_inverse_f32.c **** 	 *        augmented matrix as follows:
 116:DSP/Source/MatrixFunctions/arm_mat_inverse_f32.c **** 	 *				        _ 	      	       _         _	       _
 117:DSP/Source/MatrixFunctions/arm_mat_inverse_f32.c **** 	 *					   |  a11  a12 | 1   0  |       |  X11 X12  |
 118:DSP/Source/MatrixFunctions/arm_mat_inverse_f32.c **** 	 *					   |           |        |   =   |           |
 119:DSP/Source/MatrixFunctions/arm_mat_inverse_f32.c **** 	 *					   |_ a21  a22 | 0   1 _|       |_ X21 X21 _|
 120:DSP/Source/MatrixFunctions/arm_mat_inverse_f32.c **** 	 *
 121:DSP/Source/MatrixFunctions/arm_mat_inverse_f32.c **** 	 *		2. In our implementation, pDst Matrix is used as identity matrix.
 122:DSP/Source/MatrixFunctions/arm_mat_inverse_f32.c **** 	 *
 123:DSP/Source/MatrixFunctions/arm_mat_inverse_f32.c **** 	 *		3. Begin with the first row. Let i = 1.
 124:DSP/Source/MatrixFunctions/arm_mat_inverse_f32.c **** 	 *
 125:DSP/Source/MatrixFunctions/arm_mat_inverse_f32.c **** 	 *	    4. Check to see if the pivot for column i is the greatest of the column.
 126:DSP/Source/MatrixFunctions/arm_mat_inverse_f32.c **** 	 *		   The pivot is the element of the main diagonal that is on the current row.
 127:DSP/Source/MatrixFunctions/arm_mat_inverse_f32.c **** 	 *		   For instance, if working with row i, then the pivot element is aii.
 128:DSP/Source/MatrixFunctions/arm_mat_inverse_f32.c **** 	 *		   If the pivot is not the most significant of the columns, exchange that row with a row
 129:DSP/Source/MatrixFunctions/arm_mat_inverse_f32.c **** 	 *		   below it that does contain the most significant value in column i. If the most
 130:DSP/Source/MatrixFunctions/arm_mat_inverse_f32.c **** 	 *         significant value of the column is zero, then an inverse to that matrix does not exist.
 131:DSP/Source/MatrixFunctions/arm_mat_inverse_f32.c **** 	 *		   The most significant value of the column is the absolute maximum.
 132:DSP/Source/MatrixFunctions/arm_mat_inverse_f32.c **** 	 *
 133:DSP/Source/MatrixFunctions/arm_mat_inverse_f32.c **** 	 *	    5. Divide every element of row i by the pivot.
 134:DSP/Source/MatrixFunctions/arm_mat_inverse_f32.c **** 	 *
 135:DSP/Source/MatrixFunctions/arm_mat_inverse_f32.c **** 	 *	    6. For every row below and  row i, replace that row with the sum of that row and
 136:DSP/Source/MatrixFunctions/arm_mat_inverse_f32.c **** 	 *		   a multiple of row i so that each new element in column i below row i is zero.
 137:DSP/Source/MatrixFunctions/arm_mat_inverse_f32.c **** 	 *
 138:DSP/Source/MatrixFunctions/arm_mat_inverse_f32.c **** 	 *	    7. Move to the next row and column and repeat steps 2 through 5 until you have zeros
 139:DSP/Source/MatrixFunctions/arm_mat_inverse_f32.c **** 	 *		   for every element below and above the main diagonal.
 140:DSP/Source/MatrixFunctions/arm_mat_inverse_f32.c **** 	 *
 141:DSP/Source/MatrixFunctions/arm_mat_inverse_f32.c **** 	 *		8. Now an identical matrix is formed to the left of the bar(input matrix, pSrc).
 142:DSP/Source/MatrixFunctions/arm_mat_inverse_f32.c **** 	 *		   Therefore, the matrix to the right of the bar is our solution(pDst matrix, pDst).
 143:DSP/Source/MatrixFunctions/arm_mat_inverse_f32.c **** 	 *------------------------------------------------------------------------------------------------
ARM GAS  /var/folders/ck/g3dcd5x55xs4107jgdl0snvr0000gn/T//ccAzZy16.s 			page 5


 144:DSP/Source/MatrixFunctions/arm_mat_inverse_f32.c **** 
 145:DSP/Source/MatrixFunctions/arm_mat_inverse_f32.c ****     /* Working pointer for destination matrix */
 146:DSP/Source/MatrixFunctions/arm_mat_inverse_f32.c ****     pOutT1 = pOut;
 147:DSP/Source/MatrixFunctions/arm_mat_inverse_f32.c **** 
 148:DSP/Source/MatrixFunctions/arm_mat_inverse_f32.c ****     /* Loop over the number of rows */
 149:DSP/Source/MatrixFunctions/arm_mat_inverse_f32.c ****     rowCnt = numRows;
  87              		.loc 1 149 12 view .LVU23
  88 002c 7546     		mov	r5, lr
 146:DSP/Source/MatrixFunctions/arm_mat_inverse_f32.c **** 
  89              		.loc 1 146 12 view .LVU24
  90 002e 5B46     		mov	r3, fp
  91 0030 12E0     		b	.L3
  92              	.LVL5:
  93              	.L5:
 150:DSP/Source/MatrixFunctions/arm_mat_inverse_f32.c **** 
 151:DSP/Source/MatrixFunctions/arm_mat_inverse_f32.c ****     /* Making the destination matrix as identity matrix */
 152:DSP/Source/MatrixFunctions/arm_mat_inverse_f32.c ****     while (rowCnt > 0U)
 153:DSP/Source/MatrixFunctions/arm_mat_inverse_f32.c ****     {
 154:DSP/Source/MatrixFunctions/arm_mat_inverse_f32.c ****       /* Writing all zeroes in lower triangle of the destination matrix */
 155:DSP/Source/MatrixFunctions/arm_mat_inverse_f32.c ****       j = numRows - rowCnt;
 156:DSP/Source/MatrixFunctions/arm_mat_inverse_f32.c ****       while (j > 0U)
 157:DSP/Source/MatrixFunctions/arm_mat_inverse_f32.c ****       {
 158:DSP/Source/MatrixFunctions/arm_mat_inverse_f32.c ****         *pOutT1++ = 0.0f;
  94              		.loc 1 158 9 is_stmt 1 view .LVU25
  95              		.loc 1 158 19 is_stmt 0 view .LVU26
  96 0032 0021     		movs	r1, #0
  97 0034 43F8041B 		str	r1, [r3], #4	@ float
  98              	.LVL6:
 159:DSP/Source/MatrixFunctions/arm_mat_inverse_f32.c ****         j--;
  99              		.loc 1 159 9 is_stmt 1 view .LVU27
 100              		.loc 1 159 10 is_stmt 0 view .LVU28
 101 0038 013A     		subs	r2, r2, #1
 102              	.LVL7:
 103              	.L4:
 156:DSP/Source/MatrixFunctions/arm_mat_inverse_f32.c ****       {
 104              		.loc 1 156 16 is_stmt 1 view .LVU29
 105 003a 002A     		cmp	r2, #0
 106 003c F9D1     		bne	.L5
 160:DSP/Source/MatrixFunctions/arm_mat_inverse_f32.c ****       }
 161:DSP/Source/MatrixFunctions/arm_mat_inverse_f32.c **** 
 162:DSP/Source/MatrixFunctions/arm_mat_inverse_f32.c ****       /* Writing all ones in the diagonal of the destination matrix */
 163:DSP/Source/MatrixFunctions/arm_mat_inverse_f32.c ****       *pOutT1++ = 1.0f;
 107              		.loc 1 163 7 view .LVU30
 108              	.LVL8:
 109              		.loc 1 163 17 is_stmt 0 view .LVU31
 110 003e 4FF07E52 		mov	r2, #1065353216
 111              	.LVL9:
 112              		.loc 1 163 17 view .LVU32
 113 0042 43F8042B 		str	r2, [r3], #4	@ float
 114              	.LVL10:
 164:DSP/Source/MatrixFunctions/arm_mat_inverse_f32.c **** 
 165:DSP/Source/MatrixFunctions/arm_mat_inverse_f32.c ****       /* Writing all zeroes in upper triangle of the destination matrix */
 166:DSP/Source/MatrixFunctions/arm_mat_inverse_f32.c ****       j = rowCnt - 1U;
 115              		.loc 1 166 7 is_stmt 1 view .LVU33
 116              		.loc 1 166 9 is_stmt 0 view .LVU34
 117 0046 013D     		subs	r5, r5, #1
 118              	.LVL11:
ARM GAS  /var/folders/ck/g3dcd5x55xs4107jgdl0snvr0000gn/T//ccAzZy16.s 			page 6


 167:DSP/Source/MatrixFunctions/arm_mat_inverse_f32.c ****       while (j > 0U)
 119              		.loc 1 167 7 is_stmt 1 view .LVU35
 166:DSP/Source/MatrixFunctions/arm_mat_inverse_f32.c ****       while (j > 0U)
 120              		.loc 1 166 9 is_stmt 0 view .LVU36
 121 0048 2A46     		mov	r2, r5
 122              		.loc 1 167 13 view .LVU37
 123 004a 03E0     		b	.L6
 124              	.LVL12:
 125              	.L7:
 168:DSP/Source/MatrixFunctions/arm_mat_inverse_f32.c ****       {
 169:DSP/Source/MatrixFunctions/arm_mat_inverse_f32.c ****         *pOutT1++ = 0.0f;
 126              		.loc 1 169 9 is_stmt 1 view .LVU38
 127              		.loc 1 169 19 is_stmt 0 view .LVU39
 128 004c 0021     		movs	r1, #0
 129 004e 43F8041B 		str	r1, [r3], #4	@ float
 130              	.LVL13:
 170:DSP/Source/MatrixFunctions/arm_mat_inverse_f32.c ****         j--;
 131              		.loc 1 170 9 is_stmt 1 view .LVU40
 132              		.loc 1 170 10 is_stmt 0 view .LVU41
 133 0052 013A     		subs	r2, r2, #1
 134              	.LVL14:
 135              	.L6:
 167:DSP/Source/MatrixFunctions/arm_mat_inverse_f32.c ****       {
 136              		.loc 1 167 16 is_stmt 1 view .LVU42
 137 0054 002A     		cmp	r2, #0
 138 0056 F9D1     		bne	.L7
 139              	.LVL15:
 140              	.L3:
 152:DSP/Source/MatrixFunctions/arm_mat_inverse_f32.c ****     {
 141              		.loc 1 152 19 view .LVU43
 142 0058 15B1     		cbz	r5, .L48
 155:DSP/Source/MatrixFunctions/arm_mat_inverse_f32.c ****       while (j > 0U)
 143              		.loc 1 155 7 view .LVU44
 155:DSP/Source/MatrixFunctions/arm_mat_inverse_f32.c ****       while (j > 0U)
 144              		.loc 1 155 9 is_stmt 0 view .LVU45
 145 005a AEEB0502 		sub	r2, lr, r5
 146              	.LVL16:
 156:DSP/Source/MatrixFunctions/arm_mat_inverse_f32.c ****       {
 147              		.loc 1 156 7 is_stmt 1 view .LVU46
 156:DSP/Source/MatrixFunctions/arm_mat_inverse_f32.c ****       {
 148              		.loc 1 156 13 is_stmt 0 view .LVU47
 149 005e ECE7     		b	.L4
 150              	.LVL17:
 151              	.L48:
 171:DSP/Source/MatrixFunctions/arm_mat_inverse_f32.c ****       }
 172:DSP/Source/MatrixFunctions/arm_mat_inverse_f32.c **** 
 173:DSP/Source/MatrixFunctions/arm_mat_inverse_f32.c ****       /* Decrement the loop counter */
 174:DSP/Source/MatrixFunctions/arm_mat_inverse_f32.c ****       rowCnt--;
 175:DSP/Source/MatrixFunctions/arm_mat_inverse_f32.c ****     }
 176:DSP/Source/MatrixFunctions/arm_mat_inverse_f32.c **** 
 177:DSP/Source/MatrixFunctions/arm_mat_inverse_f32.c ****     /* Loop over the number of columns of the input matrix.
 178:DSP/Source/MatrixFunctions/arm_mat_inverse_f32.c ****        All the elements in each column are processed by the row operations */
 179:DSP/Source/MatrixFunctions/arm_mat_inverse_f32.c ****     loopCnt = numCols;
 152              		.loc 1 179 13 view .LVU48
 153 0060 E146     		mov	r9, ip
  90:DSP/Source/MatrixFunctions/arm_mat_inverse_f32.c ****   uint32_t i, rowCnt, flag = 0U, j, loopCnt, k, l;      /* loop counters */
 154              		.loc 1 90 19 view .LVU49
ARM GAS  /var/folders/ck/g3dcd5x55xs4107jgdl0snvr0000gn/T//ccAzZy16.s 			page 7


 155 0062 DFED6D6A 		vldr.32	s13, .L56
 156 0066 D846     		mov	r8, fp
 157 0068 0190     		str	r0, [sp, #4]
 158 006a 93E0     		b	.L9
 159              	.LVL18:
 160              	.L46:
 180:DSP/Source/MatrixFunctions/arm_mat_inverse_f32.c **** 
 181:DSP/Source/MatrixFunctions/arm_mat_inverse_f32.c ****     /* Index modifier to navigate through the columns */
 182:DSP/Source/MatrixFunctions/arm_mat_inverse_f32.c ****     l = 0U;
 183:DSP/Source/MatrixFunctions/arm_mat_inverse_f32.c **** 
 184:DSP/Source/MatrixFunctions/arm_mat_inverse_f32.c ****     while (loopCnt > 0U)
 185:DSP/Source/MatrixFunctions/arm_mat_inverse_f32.c ****     {
 186:DSP/Source/MatrixFunctions/arm_mat_inverse_f32.c ****       /* Check if the pivot element is zero..
 187:DSP/Source/MatrixFunctions/arm_mat_inverse_f32.c ****        * If it is zero then interchange the row with non zero row below.
 188:DSP/Source/MatrixFunctions/arm_mat_inverse_f32.c ****        * If there is no non zero element to replace in the rows below,
 189:DSP/Source/MatrixFunctions/arm_mat_inverse_f32.c ****        * then the matrix is Singular. */
 190:DSP/Source/MatrixFunctions/arm_mat_inverse_f32.c **** 
 191:DSP/Source/MatrixFunctions/arm_mat_inverse_f32.c ****       /* Working pointer for the input matrix that points
 192:DSP/Source/MatrixFunctions/arm_mat_inverse_f32.c ****        * to the pivot element of the particular row  */
 193:DSP/Source/MatrixFunctions/arm_mat_inverse_f32.c ****       pInT1 = pIn + (l * numCols);
 194:DSP/Source/MatrixFunctions/arm_mat_inverse_f32.c **** 
 195:DSP/Source/MatrixFunctions/arm_mat_inverse_f32.c ****       /* Working pointer for the destination matrix that points
 196:DSP/Source/MatrixFunctions/arm_mat_inverse_f32.c ****        * to the pivot element of the particular row  */
 197:DSP/Source/MatrixFunctions/arm_mat_inverse_f32.c ****       pOutT1 = pOut + (l * numCols);
 198:DSP/Source/MatrixFunctions/arm_mat_inverse_f32.c **** 
 199:DSP/Source/MatrixFunctions/arm_mat_inverse_f32.c ****       /* Temporary variable to hold the pivot value */
 200:DSP/Source/MatrixFunctions/arm_mat_inverse_f32.c ****       in = *pInT1;
 201:DSP/Source/MatrixFunctions/arm_mat_inverse_f32.c **** 
 202:DSP/Source/MatrixFunctions/arm_mat_inverse_f32.c ****       /* Grab the most significant value from column l */
 203:DSP/Source/MatrixFunctions/arm_mat_inverse_f32.c ****       maxC = 0;
 204:DSP/Source/MatrixFunctions/arm_mat_inverse_f32.c ****       for (i = l; i < numRows; i++)
 205:DSP/Source/MatrixFunctions/arm_mat_inverse_f32.c ****       {
 206:DSP/Source/MatrixFunctions/arm_mat_inverse_f32.c ****         maxC = *pInT1 > 0 ? (*pInT1 > maxC ? *pInT1 : maxC) : (-*pInT1 > maxC ? -*pInT1 : maxC);
 161              		.loc 1 206 64 discriminator 2 view .LVU50
 162 006c F1EE677A 		vneg.f32	s15, s15
 163              		.loc 1 206 89 discriminator 2 view .LVU51
 164 0070 F4EEC77A 		vcmpe.f32	s15, s14
 165 0074 F1EE10FA 		vmrs	APSR_nzcv, FPSCR
 166 0078 13DC     		bgt	.L39
 167              	.LVL19:
 168              	.L13:
 207:DSP/Source/MatrixFunctions/arm_mat_inverse_f32.c ****         pInT1 += numCols;
 169              		.loc 1 207 9 is_stmt 1 view .LVU52
 170              		.loc 1 207 15 is_stmt 0 view .LVU53
 171 007a 02EB8C02 		add	r2, r2, ip, lsl #2
 172              	.LVL20:
 204:DSP/Source/MatrixFunctions/arm_mat_inverse_f32.c ****       {
 173              		.loc 1 204 33 is_stmt 1 discriminator 2 view .LVU54
 174 007e 0133     		adds	r3, r3, #1
 175              	.LVL21:
 176              	.L10:
 204:DSP/Source/MatrixFunctions/arm_mat_inverse_f32.c ****       {
 177              		.loc 1 204 21 discriminator 1 view .LVU55
 178 0080 7345     		cmp	r3, lr
 179 0082 11D2     		bcs	.L49
 206:DSP/Source/MatrixFunctions/arm_mat_inverse_f32.c ****         pInT1 += numCols;
 180              		.loc 1 206 9 view .LVU56
ARM GAS  /var/folders/ck/g3dcd5x55xs4107jgdl0snvr0000gn/T//ccAzZy16.s 			page 8


 206:DSP/Source/MatrixFunctions/arm_mat_inverse_f32.c ****         pInT1 += numCols;
 181              		.loc 1 206 16 is_stmt 0 view .LVU57
 182 0084 D2ED007A 		vldr.32	s15, [r2]
 206:DSP/Source/MatrixFunctions/arm_mat_inverse_f32.c ****         pInT1 += numCols;
 183              		.loc 1 206 61 view .LVU58
 184 0088 F5EEC07A 		vcmpe.f32	s15, #0
 185 008c F1EE10FA 		vmrs	APSR_nzcv, FPSCR
 186 0090 ECDD     		ble	.L46
 206:DSP/Source/MatrixFunctions/arm_mat_inverse_f32.c ****         pInT1 += numCols;
 187              		.loc 1 206 53 discriminator 1 view .LVU59
 188 0092 F4EEC77A 		vcmpe.f32	s15, s14
 189 0096 F1EE10FA 		vmrs	APSR_nzcv, FPSCR
 190 009a EEDD     		ble	.L13
 206:DSP/Source/MatrixFunctions/arm_mat_inverse_f32.c ****         pInT1 += numCols;
 191              		.loc 1 206 53 discriminator 3 view .LVU60
 192 009c B0EE677A 		vmov.f32	s14, s15
 193              	.LVL22:
 206:DSP/Source/MatrixFunctions/arm_mat_inverse_f32.c ****         pInT1 += numCols;
 194              		.loc 1 206 53 discriminator 3 view .LVU61
 195 00a0 EBE7     		b	.L13
 196              	.LVL23:
 197              	.L39:
 206:DSP/Source/MatrixFunctions/arm_mat_inverse_f32.c ****         pInT1 += numCols;
 198              		.loc 1 206 89 discriminator 8 view .LVU62
 199 00a2 B0EE677A 		vmov.f32	s14, s15
 200              	.LVL24:
 206:DSP/Source/MatrixFunctions/arm_mat_inverse_f32.c ****         pInT1 += numCols;
 201              		.loc 1 206 89 discriminator 8 view .LVU63
 202 00a6 E8E7     		b	.L13
 203              	.LVL25:
 204              	.L49:
 208:DSP/Source/MatrixFunctions/arm_mat_inverse_f32.c ****       }
 209:DSP/Source/MatrixFunctions/arm_mat_inverse_f32.c **** 
 210:DSP/Source/MatrixFunctions/arm_mat_inverse_f32.c ****       /* Update the status if the matrix is singular */
 211:DSP/Source/MatrixFunctions/arm_mat_inverse_f32.c ****       if (maxC == 0.0f)
 205              		.loc 1 211 7 is_stmt 1 view .LVU64
 206              		.loc 1 211 10 is_stmt 0 view .LVU65
 207 00a8 B5EE407A 		vcmp.f32	s14, #0
 208 00ac F1EE10FA 		vmrs	APSR_nzcv, FPSCR
 209 00b0 00F0A480 		beq	.L40
 212:DSP/Source/MatrixFunctions/arm_mat_inverse_f32.c ****       {
 213:DSP/Source/MatrixFunctions/arm_mat_inverse_f32.c ****         return ARM_MATH_SINGULAR;
 214:DSP/Source/MatrixFunctions/arm_mat_inverse_f32.c ****       }
 215:DSP/Source/MatrixFunctions/arm_mat_inverse_f32.c **** 
 216:DSP/Source/MatrixFunctions/arm_mat_inverse_f32.c ****       /* Restore pInT1  */
 217:DSP/Source/MatrixFunctions/arm_mat_inverse_f32.c ****       pInT1 = pIn;
 210              		.loc 1 217 7 is_stmt 1 view .LVU66
 211              	.LVL26:
 218:DSP/Source/MatrixFunctions/arm_mat_inverse_f32.c **** 
 219:DSP/Source/MatrixFunctions/arm_mat_inverse_f32.c ****       /* Destination pointer modifier */
 220:DSP/Source/MatrixFunctions/arm_mat_inverse_f32.c ****       k = 1U;
 212              		.loc 1 220 7 view .LVU67
 221:DSP/Source/MatrixFunctions/arm_mat_inverse_f32.c **** 
 222:DSP/Source/MatrixFunctions/arm_mat_inverse_f32.c ****       /* Check if the pivot element is the most significant of the column */
 223:DSP/Source/MatrixFunctions/arm_mat_inverse_f32.c ****       if ( (in > 0.0f ? in : -in) != maxC)
 213              		.loc 1 223 7 view .LVU68
 214              		.loc 1 223 28 is_stmt 0 view .LVU69
ARM GAS  /var/folders/ck/g3dcd5x55xs4107jgdl0snvr0000gn/T//ccAzZy16.s 			page 9


 215 00b4 F5EEC06A 		vcmpe.f32	s13, #0
 216 00b8 F1EE10FA 		vmrs	APSR_nzcv, FPSCR
 217 00bc 13DD     		ble	.L50
 218              		.loc 1 223 28 discriminator 1 view .LVU70
 219 00be F0EE667A 		vmov.f32	s15, s13
 220              	.L15:
 221              		.loc 1 223 10 discriminator 4 view .LVU71
 222 00c2 B4EE677A 		vcmp.f32	s14, s15
 223 00c6 F1EE10FA 		vmrs	APSR_nzcv, FPSCR
 224 00ca 0FD1     		bne	.L51
 225              	.LVL27:
 226              	.L16:
 224:DSP/Source/MatrixFunctions/arm_mat_inverse_f32.c ****       {
 225:DSP/Source/MatrixFunctions/arm_mat_inverse_f32.c ****         /* Loop over the number rows present below */
 226:DSP/Source/MatrixFunctions/arm_mat_inverse_f32.c ****         i = numRows - (l + 1U);
 227:DSP/Source/MatrixFunctions/arm_mat_inverse_f32.c **** 
 228:DSP/Source/MatrixFunctions/arm_mat_inverse_f32.c ****         while (i > 0U)
 229:DSP/Source/MatrixFunctions/arm_mat_inverse_f32.c ****         {
 230:DSP/Source/MatrixFunctions/arm_mat_inverse_f32.c ****           /* Update the input and destination pointers */
 231:DSP/Source/MatrixFunctions/arm_mat_inverse_f32.c ****           pInT2 = pInT1 + (numCols * l);
 232:DSP/Source/MatrixFunctions/arm_mat_inverse_f32.c ****           pOutT2 = pOutT1 + (numCols * k);
 233:DSP/Source/MatrixFunctions/arm_mat_inverse_f32.c **** 
 234:DSP/Source/MatrixFunctions/arm_mat_inverse_f32.c ****           /* Look for the most significant element to
 235:DSP/Source/MatrixFunctions/arm_mat_inverse_f32.c ****            * replace in the rows below */
 236:DSP/Source/MatrixFunctions/arm_mat_inverse_f32.c ****           if ((*pInT2 > 0.0f ? *pInT2: -*pInT2) == maxC)
 237:DSP/Source/MatrixFunctions/arm_mat_inverse_f32.c ****           {
 238:DSP/Source/MatrixFunctions/arm_mat_inverse_f32.c ****             /* Loop over number of columns
 239:DSP/Source/MatrixFunctions/arm_mat_inverse_f32.c ****              * to the right of the pilot element */
 240:DSP/Source/MatrixFunctions/arm_mat_inverse_f32.c ****             j = numCols - l;
 241:DSP/Source/MatrixFunctions/arm_mat_inverse_f32.c **** 
 242:DSP/Source/MatrixFunctions/arm_mat_inverse_f32.c ****             while (j > 0U)
 243:DSP/Source/MatrixFunctions/arm_mat_inverse_f32.c ****             {
 244:DSP/Source/MatrixFunctions/arm_mat_inverse_f32.c ****               /* Exchange the row elements of the input matrix */
 245:DSP/Source/MatrixFunctions/arm_mat_inverse_f32.c ****               Xchg = *pInT2;
 246:DSP/Source/MatrixFunctions/arm_mat_inverse_f32.c ****               *pInT2++ = *pInT1;
 247:DSP/Source/MatrixFunctions/arm_mat_inverse_f32.c ****               *pInT1++ = Xchg;
 248:DSP/Source/MatrixFunctions/arm_mat_inverse_f32.c **** 
 249:DSP/Source/MatrixFunctions/arm_mat_inverse_f32.c ****               /* Decrement the loop counter */
 250:DSP/Source/MatrixFunctions/arm_mat_inverse_f32.c ****               j--;
 251:DSP/Source/MatrixFunctions/arm_mat_inverse_f32.c ****             }
 252:DSP/Source/MatrixFunctions/arm_mat_inverse_f32.c **** 
 253:DSP/Source/MatrixFunctions/arm_mat_inverse_f32.c ****             /* Loop over number of columns of the destination matrix */
 254:DSP/Source/MatrixFunctions/arm_mat_inverse_f32.c ****             j = numCols;
 255:DSP/Source/MatrixFunctions/arm_mat_inverse_f32.c **** 
 256:DSP/Source/MatrixFunctions/arm_mat_inverse_f32.c ****             while (j > 0U)
 257:DSP/Source/MatrixFunctions/arm_mat_inverse_f32.c ****             {
 258:DSP/Source/MatrixFunctions/arm_mat_inverse_f32.c ****               /* Exchange the row elements of the destination matrix */
 259:DSP/Source/MatrixFunctions/arm_mat_inverse_f32.c ****               Xchg = *pOutT2;
 260:DSP/Source/MatrixFunctions/arm_mat_inverse_f32.c ****               *pOutT2++ = *pOutT1;
 261:DSP/Source/MatrixFunctions/arm_mat_inverse_f32.c ****               *pOutT1++ = Xchg;
 262:DSP/Source/MatrixFunctions/arm_mat_inverse_f32.c **** 
 263:DSP/Source/MatrixFunctions/arm_mat_inverse_f32.c ****               /* Decrement the loop counter */
 264:DSP/Source/MatrixFunctions/arm_mat_inverse_f32.c ****               j--;
 265:DSP/Source/MatrixFunctions/arm_mat_inverse_f32.c ****             }
 266:DSP/Source/MatrixFunctions/arm_mat_inverse_f32.c **** 
 267:DSP/Source/MatrixFunctions/arm_mat_inverse_f32.c ****             /* Flag to indicate whether exchange is done or not */
 268:DSP/Source/MatrixFunctions/arm_mat_inverse_f32.c ****             flag = 1U;
ARM GAS  /var/folders/ck/g3dcd5x55xs4107jgdl0snvr0000gn/T//ccAzZy16.s 			page 10


 269:DSP/Source/MatrixFunctions/arm_mat_inverse_f32.c **** 
 270:DSP/Source/MatrixFunctions/arm_mat_inverse_f32.c ****             /* Break after exchange is done */
 271:DSP/Source/MatrixFunctions/arm_mat_inverse_f32.c ****             break;
 272:DSP/Source/MatrixFunctions/arm_mat_inverse_f32.c ****           }
 273:DSP/Source/MatrixFunctions/arm_mat_inverse_f32.c **** 
 274:DSP/Source/MatrixFunctions/arm_mat_inverse_f32.c ****           /* Update the destination pointer modifier */
 275:DSP/Source/MatrixFunctions/arm_mat_inverse_f32.c ****           k++;
 276:DSP/Source/MatrixFunctions/arm_mat_inverse_f32.c **** 
 277:DSP/Source/MatrixFunctions/arm_mat_inverse_f32.c ****           /* Decrement the loop counter */
 278:DSP/Source/MatrixFunctions/arm_mat_inverse_f32.c ****           i--;
 279:DSP/Source/MatrixFunctions/arm_mat_inverse_f32.c ****         }
 280:DSP/Source/MatrixFunctions/arm_mat_inverse_f32.c ****       }
 281:DSP/Source/MatrixFunctions/arm_mat_inverse_f32.c **** 
 282:DSP/Source/MatrixFunctions/arm_mat_inverse_f32.c ****       /* Update the status if the matrix is singular */
 283:DSP/Source/MatrixFunctions/arm_mat_inverse_f32.c ****       if ((flag != 1U) && (in == 0.0f))
 227              		.loc 1 283 7 is_stmt 1 view .LVU72
 228              		.loc 1 283 24 is_stmt 0 discriminator 1 view .LVU73
 229 00cc F5EE406A 		vcmp.f32	s13, #0
 230 00d0 F1EE10FA 		vmrs	APSR_nzcv, FPSCR
 231 00d4 00F09780 		beq	.L42
 284:DSP/Source/MatrixFunctions/arm_mat_inverse_f32.c ****       {
 285:DSP/Source/MatrixFunctions/arm_mat_inverse_f32.c ****         return ARM_MATH_SINGULAR;
 286:DSP/Source/MatrixFunctions/arm_mat_inverse_f32.c ****       }
 287:DSP/Source/MatrixFunctions/arm_mat_inverse_f32.c **** 
 288:DSP/Source/MatrixFunctions/arm_mat_inverse_f32.c ****       /* Points to the pivot row of input and destination matrices */
 289:DSP/Source/MatrixFunctions/arm_mat_inverse_f32.c ****       pPivotRowIn = pIn + (l * numCols);
 232              		.loc 1 289 7 is_stmt 1 view .LVU74
 233              	.LVL28:
 290:DSP/Source/MatrixFunctions/arm_mat_inverse_f32.c ****       pPivotRowDst = pOut + (l * numCols);
 234              		.loc 1 290 7 view .LVU75
 291:DSP/Source/MatrixFunctions/arm_mat_inverse_f32.c **** 
 292:DSP/Source/MatrixFunctions/arm_mat_inverse_f32.c ****       /* Temporary pointers to the pivot row pointers */
 293:DSP/Source/MatrixFunctions/arm_mat_inverse_f32.c ****       pInT1 = pPivotRowIn;
 235              		.loc 1 293 7 view .LVU76
 294:DSP/Source/MatrixFunctions/arm_mat_inverse_f32.c ****       pInT2 = pPivotRowDst;
 236              		.loc 1 294 7 view .LVU77
 295:DSP/Source/MatrixFunctions/arm_mat_inverse_f32.c **** 
 296:DSP/Source/MatrixFunctions/arm_mat_inverse_f32.c ****       /* Pivot element of the row */
 297:DSP/Source/MatrixFunctions/arm_mat_inverse_f32.c ****       in = *pPivotRowIn;
 237              		.loc 1 297 7 view .LVU78
 238              		.loc 1 297 10 is_stmt 0 view .LVU79
 239 00d8 009B     		ldr	r3, [sp]
 240              	.LVL29:
 241              		.loc 1 297 10 view .LVU80
 242 00da D3ED006A 		vldr.32	s13, [r3]
 243              	.LVL30:
 298:DSP/Source/MatrixFunctions/arm_mat_inverse_f32.c **** 
 299:DSP/Source/MatrixFunctions/arm_mat_inverse_f32.c ****       /* Loop over number of columns
 300:DSP/Source/MatrixFunctions/arm_mat_inverse_f32.c ****        * to the right of the pilot element */
 301:DSP/Source/MatrixFunctions/arm_mat_inverse_f32.c ****       j = (numCols - l);
 244              		.loc 1 301 7 is_stmt 1 view .LVU81
 245              		.loc 1 301 9 is_stmt 0 view .LVU82
 246 00de ACEB0506 		sub	r6, ip, r5
 247              	.LVL31:
 302:DSP/Source/MatrixFunctions/arm_mat_inverse_f32.c **** 
 303:DSP/Source/MatrixFunctions/arm_mat_inverse_f32.c ****       while (j > 0U)
 248              		.loc 1 303 7 is_stmt 1 view .LVU83
ARM GAS  /var/folders/ck/g3dcd5x55xs4107jgdl0snvr0000gn/T//ccAzZy16.s 			page 11


 301:DSP/Source/MatrixFunctions/arm_mat_inverse_f32.c **** 
 249              		.loc 1 301 9 is_stmt 0 view .LVU84
 250 00e2 3246     		mov	r2, r6
 251              		.loc 1 303 13 view .LVU85
 252 00e4 11E0     		b	.L19
 253              	.LVL32:
 254              	.L50:
 223:DSP/Source/MatrixFunctions/arm_mat_inverse_f32.c ****       {
 255              		.loc 1 223 28 discriminator 2 view .LVU86
 256 00e6 F1EE667A 		vneg.f32	s15, s13
 257 00ea EAE7     		b	.L15
 258              	.L51:
 226:DSP/Source/MatrixFunctions/arm_mat_inverse_f32.c **** 
 259              		.loc 1 226 9 is_stmt 1 view .LVU87
 226:DSP/Source/MatrixFunctions/arm_mat_inverse_f32.c **** 
 260              		.loc 1 226 21 is_stmt 0 view .LVU88
 261 00ec AEEB0503 		sub	r3, lr, r5
 262              	.LVL33:
 226:DSP/Source/MatrixFunctions/arm_mat_inverse_f32.c **** 
 263              		.loc 1 226 11 view .LVU89
 264 00f0 013B     		subs	r3, r3, #1
 265              	.LVL34:
 228:DSP/Source/MatrixFunctions/arm_mat_inverse_f32.c ****         {
 266              		.loc 1 228 9 is_stmt 1 view .LVU90
 228:DSP/Source/MatrixFunctions/arm_mat_inverse_f32.c ****         {
 267              		.loc 1 228 15 is_stmt 0 view .LVU91
 268 00f2 00E0     		b	.L17
 269              	.LVL35:
 270              	.L18:
 231:DSP/Source/MatrixFunctions/arm_mat_inverse_f32.c ****           pOutT2 = pOutT1 + (numCols * k);
 271              		.loc 1 231 11 is_stmt 1 view .LVU92
 232:DSP/Source/MatrixFunctions/arm_mat_inverse_f32.c **** 
 272              		.loc 1 232 11 view .LVU93
 236:DSP/Source/MatrixFunctions/arm_mat_inverse_f32.c ****           {
 273              		.loc 1 236 11 view .LVU94
 275:DSP/Source/MatrixFunctions/arm_mat_inverse_f32.c **** 
 274              		.loc 1 275 11 view .LVU95
 278:DSP/Source/MatrixFunctions/arm_mat_inverse_f32.c ****         }
 275              		.loc 1 278 11 view .LVU96
 278:DSP/Source/MatrixFunctions/arm_mat_inverse_f32.c ****         }
 276              		.loc 1 278 12 is_stmt 0 view .LVU97
 277 00f4 013B     		subs	r3, r3, #1
 278              	.LVL36:
 279              	.L17:
 228:DSP/Source/MatrixFunctions/arm_mat_inverse_f32.c ****         {
 280              		.loc 1 228 18 is_stmt 1 view .LVU98
 281 00f6 002B     		cmp	r3, #0
 282 00f8 FCD1     		bne	.L18
 228:DSP/Source/MatrixFunctions/arm_mat_inverse_f32.c ****         {
 283              		.loc 1 228 18 is_stmt 0 view .LVU99
 284 00fa E7E7     		b	.L16
 285              	.LVL37:
 286              	.L20:
 304:DSP/Source/MatrixFunctions/arm_mat_inverse_f32.c ****       {
 305:DSP/Source/MatrixFunctions/arm_mat_inverse_f32.c ****         /* Divide each element of the row of the input matrix
 306:DSP/Source/MatrixFunctions/arm_mat_inverse_f32.c ****          * by the pivot element */
 307:DSP/Source/MatrixFunctions/arm_mat_inverse_f32.c ****         in1 = *pInT1;
ARM GAS  /var/folders/ck/g3dcd5x55xs4107jgdl0snvr0000gn/T//ccAzZy16.s 			page 12


 287              		.loc 1 307 9 is_stmt 1 view .LVU100
 288              		.loc 1 307 13 is_stmt 0 view .LVU101
 289 00fc 93ED007A 		vldr.32	s14, [r3]
 290              	.LVL38:
 308:DSP/Source/MatrixFunctions/arm_mat_inverse_f32.c ****         *pInT1++ = in1 / in;
 291              		.loc 1 308 9 is_stmt 1 view .LVU102
 292              		.loc 1 308 24 is_stmt 0 view .LVU103
 293 0100 C7EE267A 		vdiv.f32	s15, s14, s13
 294              		.loc 1 308 18 view .LVU104
 295 0104 E3EC017A 		vstmia.32	r3!, {s15}
 296              	.LVL39:
 309:DSP/Source/MatrixFunctions/arm_mat_inverse_f32.c **** 
 310:DSP/Source/MatrixFunctions/arm_mat_inverse_f32.c ****         /* Decrement the loop counter */
 311:DSP/Source/MatrixFunctions/arm_mat_inverse_f32.c ****         j--;
 297              		.loc 1 311 9 is_stmt 1 view .LVU105
 298              		.loc 1 311 10 is_stmt 0 view .LVU106
 299 0108 013A     		subs	r2, r2, #1
 300              	.LVL40:
 301              	.L19:
 303:DSP/Source/MatrixFunctions/arm_mat_inverse_f32.c ****       {
 302              		.loc 1 303 16 is_stmt 1 view .LVU107
 303 010a 002A     		cmp	r2, #0
 304 010c F6D1     		bne	.L20
 312:DSP/Source/MatrixFunctions/arm_mat_inverse_f32.c ****       }
 313:DSP/Source/MatrixFunctions/arm_mat_inverse_f32.c **** 
 314:DSP/Source/MatrixFunctions/arm_mat_inverse_f32.c ****       /* Loop over number of columns of the destination matrix */
 315:DSP/Source/MatrixFunctions/arm_mat_inverse_f32.c ****       j = numCols;
 305              		.loc 1 315 9 is_stmt 0 view .LVU108
 306 010e 6046     		mov	r0, ip
 294:DSP/Source/MatrixFunctions/arm_mat_inverse_f32.c **** 
 307              		.loc 1 294 13 view .LVU109
 308 0110 5B46     		mov	r3, fp
 309              	.LVL41:
 294:DSP/Source/MatrixFunctions/arm_mat_inverse_f32.c **** 
 310              		.loc 1 294 13 view .LVU110
 311 0112 06E0     		b	.L21
 312              	.LVL42:
 313              	.L22:
 316:DSP/Source/MatrixFunctions/arm_mat_inverse_f32.c **** 
 317:DSP/Source/MatrixFunctions/arm_mat_inverse_f32.c ****       while (j > 0U)
 318:DSP/Source/MatrixFunctions/arm_mat_inverse_f32.c ****       {
 319:DSP/Source/MatrixFunctions/arm_mat_inverse_f32.c ****         /* Divide each element of the row of the destination matrix
 320:DSP/Source/MatrixFunctions/arm_mat_inverse_f32.c ****          * by the pivot element */
 321:DSP/Source/MatrixFunctions/arm_mat_inverse_f32.c ****         in1 = *pInT2;
 314              		.loc 1 321 9 is_stmt 1 view .LVU111
 315              		.loc 1 321 13 is_stmt 0 view .LVU112
 316 0114 93ED007A 		vldr.32	s14, [r3]
 317              	.LVL43:
 322:DSP/Source/MatrixFunctions/arm_mat_inverse_f32.c ****         *pInT2++ = in1 / in;
 318              		.loc 1 322 9 is_stmt 1 view .LVU113
 319              		.loc 1 322 24 is_stmt 0 view .LVU114
 320 0118 C7EE267A 		vdiv.f32	s15, s14, s13
 321              		.loc 1 322 18 view .LVU115
 322 011c E3EC017A 		vstmia.32	r3!, {s15}
 323              	.LVL44:
 323:DSP/Source/MatrixFunctions/arm_mat_inverse_f32.c **** 
 324:DSP/Source/MatrixFunctions/arm_mat_inverse_f32.c ****         /* Decrement the loop counter */
ARM GAS  /var/folders/ck/g3dcd5x55xs4107jgdl0snvr0000gn/T//ccAzZy16.s 			page 13


 325:DSP/Source/MatrixFunctions/arm_mat_inverse_f32.c ****         j--;
 324              		.loc 1 325 9 is_stmt 1 view .LVU116
 325              		.loc 1 325 10 is_stmt 0 view .LVU117
 326 0120 0138     		subs	r0, r0, #1
 327              	.LVL45:
 328              	.L21:
 317:DSP/Source/MatrixFunctions/arm_mat_inverse_f32.c ****       {
 329              		.loc 1 317 16 is_stmt 1 view .LVU118
 330 0122 0028     		cmp	r0, #0
 331 0124 F6D1     		bne	.L22
 326:DSP/Source/MatrixFunctions/arm_mat_inverse_f32.c ****       }
 327:DSP/Source/MatrixFunctions/arm_mat_inverse_f32.c **** 
 328:DSP/Source/MatrixFunctions/arm_mat_inverse_f32.c ****       /* Replace the rows with the sum of that row and a multiple of row i
 329:DSP/Source/MatrixFunctions/arm_mat_inverse_f32.c ****        * so that each new element in column i above row i is zero.*/
 330:DSP/Source/MatrixFunctions/arm_mat_inverse_f32.c **** 
 331:DSP/Source/MatrixFunctions/arm_mat_inverse_f32.c ****       /* Temporary pointers for input and destination matrices */
 332:DSP/Source/MatrixFunctions/arm_mat_inverse_f32.c ****       pInT1 = pIn;
 333:DSP/Source/MatrixFunctions/arm_mat_inverse_f32.c ****       pInT2 = pOut;
 334:DSP/Source/MatrixFunctions/arm_mat_inverse_f32.c **** 
 335:DSP/Source/MatrixFunctions/arm_mat_inverse_f32.c ****       /* index used to check for pivot element */
 336:DSP/Source/MatrixFunctions/arm_mat_inverse_f32.c ****       i = 0U;
 337:DSP/Source/MatrixFunctions/arm_mat_inverse_f32.c **** 
 338:DSP/Source/MatrixFunctions/arm_mat_inverse_f32.c ****       /* Loop over number of rows */
 339:DSP/Source/MatrixFunctions/arm_mat_inverse_f32.c ****       /*  to be replaced by the sum of that row and a multiple of row i */
 340:DSP/Source/MatrixFunctions/arm_mat_inverse_f32.c ****       k = numRows;
 332              		.loc 1 340 9 is_stmt 0 view .LVU119
 333 0126 7446     		mov	r4, lr
 333:DSP/Source/MatrixFunctions/arm_mat_inverse_f32.c **** 
 334              		.loc 1 333 13 view .LVU120
 335 0128 4246     		mov	r2, r8
 332:DSP/Source/MatrixFunctions/arm_mat_inverse_f32.c ****       pInT2 = pOut;
 336              		.loc 1 332 13 view .LVU121
 337 012a 5346     		mov	r3, r10
 338              	.LVL46:
 332:DSP/Source/MatrixFunctions/arm_mat_inverse_f32.c ****       pInT2 = pOut;
 339              		.loc 1 332 13 view .LVU122
 340 012c 25E0     		b	.L23
 341              	.LVL47:
 342              	.L53:
 341:DSP/Source/MatrixFunctions/arm_mat_inverse_f32.c **** 
 342:DSP/Source/MatrixFunctions/arm_mat_inverse_f32.c ****       while (k > 0U)
 343:DSP/Source/MatrixFunctions/arm_mat_inverse_f32.c ****       {
 344:DSP/Source/MatrixFunctions/arm_mat_inverse_f32.c ****         /* Check for the pivot element */
 345:DSP/Source/MatrixFunctions/arm_mat_inverse_f32.c ****         if (i == l)
 346:DSP/Source/MatrixFunctions/arm_mat_inverse_f32.c ****         {
 347:DSP/Source/MatrixFunctions/arm_mat_inverse_f32.c ****           /* If the processing element is the pivot element,
 348:DSP/Source/MatrixFunctions/arm_mat_inverse_f32.c ****              only the columns to the right are to be processed */
 349:DSP/Source/MatrixFunctions/arm_mat_inverse_f32.c ****           pInT1 += numCols - l;
 343              		.loc 1 349 11 is_stmt 1 view .LVU123
 344              		.loc 1 349 17 is_stmt 0 view .LVU124
 345 012e 03EB8603 		add	r3, r3, r6, lsl #2
 346              	.LVL48:
 350:DSP/Source/MatrixFunctions/arm_mat_inverse_f32.c **** 
 351:DSP/Source/MatrixFunctions/arm_mat_inverse_f32.c ****           pInT2 += numCols;
 347              		.loc 1 351 11 is_stmt 1 view .LVU125
 348              		.loc 1 351 17 is_stmt 0 view .LVU126
 349 0132 02EB8C02 		add	r2, r2, ip, lsl #2
ARM GAS  /var/folders/ck/g3dcd5x55xs4107jgdl0snvr0000gn/T//ccAzZy16.s 			page 14


 350              	.LVL49:
 351              		.loc 1 351 17 view .LVU127
 352 0136 1CE0     		b	.L25
 353              	.LVL50:
 354              	.L27:
 352:DSP/Source/MatrixFunctions/arm_mat_inverse_f32.c ****         }
 353:DSP/Source/MatrixFunctions/arm_mat_inverse_f32.c ****         else
 354:DSP/Source/MatrixFunctions/arm_mat_inverse_f32.c ****         {
 355:DSP/Source/MatrixFunctions/arm_mat_inverse_f32.c ****           /* Element of the reference row */
 356:DSP/Source/MatrixFunctions/arm_mat_inverse_f32.c ****           in = *pInT1;
 357:DSP/Source/MatrixFunctions/arm_mat_inverse_f32.c **** 
 358:DSP/Source/MatrixFunctions/arm_mat_inverse_f32.c ****           /* Working pointers for input and destination pivot rows */
 359:DSP/Source/MatrixFunctions/arm_mat_inverse_f32.c ****           pPRT_in = pPivotRowIn;
 360:DSP/Source/MatrixFunctions/arm_mat_inverse_f32.c ****           pPRT_pDst = pPivotRowDst;
 361:DSP/Source/MatrixFunctions/arm_mat_inverse_f32.c **** 
 362:DSP/Source/MatrixFunctions/arm_mat_inverse_f32.c ****           /* Loop over the number of columns to the right of the pivot element,
 363:DSP/Source/MatrixFunctions/arm_mat_inverse_f32.c ****              to replace the elements in the input matrix */
 364:DSP/Source/MatrixFunctions/arm_mat_inverse_f32.c ****           j = (numCols - l);
 365:DSP/Source/MatrixFunctions/arm_mat_inverse_f32.c **** 
 366:DSP/Source/MatrixFunctions/arm_mat_inverse_f32.c ****           while (j > 0U)
 367:DSP/Source/MatrixFunctions/arm_mat_inverse_f32.c ****           {
 368:DSP/Source/MatrixFunctions/arm_mat_inverse_f32.c ****             /* Replace the element by the sum of that row
 369:DSP/Source/MatrixFunctions/arm_mat_inverse_f32.c ****                and a multiple of the reference row  */
 370:DSP/Source/MatrixFunctions/arm_mat_inverse_f32.c ****             in1 = *pInT1;
 355              		.loc 1 370 13 is_stmt 1 view .LVU128
 356              		.loc 1 370 17 is_stmt 0 view .LVU129
 357 0138 D3ED007A 		vldr.32	s15, [r3]
 358              	.LVL51:
 371:DSP/Source/MatrixFunctions/arm_mat_inverse_f32.c ****             *pInT1++ = in1 - (in * *pPRT_in++);
 359              		.loc 1 371 13 is_stmt 1 view .LVU130
 360              		.loc 1 371 36 is_stmt 0 view .LVU131
 361 013c B1EC017A 		vldmia.32	r1!, {s14}
 362              	.LVL52:
 363              		.loc 1 371 34 view .LVU132
 364 0140 27EE267A 		vmul.f32	s14, s14, s13
 365              	.LVL53:
 366              		.loc 1 371 28 view .LVU133
 367 0144 77EEC77A 		vsub.f32	s15, s15, s14
 368              	.LVL54:
 369              		.loc 1 371 22 view .LVU134
 370 0148 E3EC017A 		vstmia.32	r3!, {s15}
 371              	.LVL55:
 372:DSP/Source/MatrixFunctions/arm_mat_inverse_f32.c **** 
 373:DSP/Source/MatrixFunctions/arm_mat_inverse_f32.c ****             /* Decrement the loop counter */
 374:DSP/Source/MatrixFunctions/arm_mat_inverse_f32.c ****             j--;
 372              		.loc 1 374 13 is_stmt 1 view .LVU135
 373              		.loc 1 374 14 is_stmt 0 view .LVU136
 374 014c 013F     		subs	r7, r7, #1
 375              	.LVL56:
 376              	.L26:
 366:DSP/Source/MatrixFunctions/arm_mat_inverse_f32.c ****           {
 377              		.loc 1 366 20 is_stmt 1 view .LVU137
 378 014e 002F     		cmp	r7, #0
 379 0150 F2D1     		bne	.L27
 375:DSP/Source/MatrixFunctions/arm_mat_inverse_f32.c ****           }
 376:DSP/Source/MatrixFunctions/arm_mat_inverse_f32.c **** 
 377:DSP/Source/MatrixFunctions/arm_mat_inverse_f32.c ****           /* Loop over the number of columns to
ARM GAS  /var/folders/ck/g3dcd5x55xs4107jgdl0snvr0000gn/T//ccAzZy16.s 			page 15


 378:DSP/Source/MatrixFunctions/arm_mat_inverse_f32.c ****              replace the elements in the destination matrix */
 379:DSP/Source/MatrixFunctions/arm_mat_inverse_f32.c ****           j = numCols;
 380              		.loc 1 379 13 is_stmt 0 view .LVU138
 381 0152 6746     		mov	r7, ip
 382              	.LVL57:
 360:DSP/Source/MatrixFunctions/arm_mat_inverse_f32.c **** 
 383              		.loc 1 360 21 view .LVU139
 384 0154 5946     		mov	r1, fp
 385              	.LVL58:
 360:DSP/Source/MatrixFunctions/arm_mat_inverse_f32.c **** 
 386              		.loc 1 360 21 view .LVU140
 387 0156 0AE0     		b	.L28
 388              	.LVL59:
 389              	.L29:
 380:DSP/Source/MatrixFunctions/arm_mat_inverse_f32.c **** 
 381:DSP/Source/MatrixFunctions/arm_mat_inverse_f32.c ****           while (j > 0U)
 382:DSP/Source/MatrixFunctions/arm_mat_inverse_f32.c ****           {
 383:DSP/Source/MatrixFunctions/arm_mat_inverse_f32.c ****             /* Replace the element by the sum of that row
 384:DSP/Source/MatrixFunctions/arm_mat_inverse_f32.c ****                and a multiple of the reference row  */
 385:DSP/Source/MatrixFunctions/arm_mat_inverse_f32.c ****             in1 = *pInT2;
 390              		.loc 1 385 13 is_stmt 1 view .LVU141
 391              		.loc 1 385 17 is_stmt 0 view .LVU142
 392 0158 D2ED007A 		vldr.32	s15, [r2]
 393              	.LVL60:
 386:DSP/Source/MatrixFunctions/arm_mat_inverse_f32.c ****             *pInT2++ = in1 - (in * *pPRT_pDst++);
 394              		.loc 1 386 13 is_stmt 1 view .LVU143
 395              		.loc 1 386 36 is_stmt 0 view .LVU144
 396 015c B1EC017A 		vldmia.32	r1!, {s14}
 397              	.LVL61:
 398              		.loc 1 386 34 view .LVU145
 399 0160 27EE267A 		vmul.f32	s14, s14, s13
 400              	.LVL62:
 401              		.loc 1 386 28 view .LVU146
 402 0164 77EEC77A 		vsub.f32	s15, s15, s14
 403              	.LVL63:
 404              		.loc 1 386 22 view .LVU147
 405 0168 E2EC017A 		vstmia.32	r2!, {s15}
 406              	.LVL64:
 387:DSP/Source/MatrixFunctions/arm_mat_inverse_f32.c **** 
 388:DSP/Source/MatrixFunctions/arm_mat_inverse_f32.c ****             /* Decrement the loop counter */
 389:DSP/Source/MatrixFunctions/arm_mat_inverse_f32.c ****             j--;
 407              		.loc 1 389 13 is_stmt 1 view .LVU148
 408              		.loc 1 389 14 is_stmt 0 view .LVU149
 409 016c 013F     		subs	r7, r7, #1
 410              	.LVL65:
 411              	.L28:
 381:DSP/Source/MatrixFunctions/arm_mat_inverse_f32.c ****           {
 412              		.loc 1 381 20 is_stmt 1 view .LVU150
 413 016e 002F     		cmp	r7, #0
 414 0170 F2D1     		bne	.L29
 415              	.LVL66:
 416              	.L25:
 390:DSP/Source/MatrixFunctions/arm_mat_inverse_f32.c ****           }
 391:DSP/Source/MatrixFunctions/arm_mat_inverse_f32.c **** 
 392:DSP/Source/MatrixFunctions/arm_mat_inverse_f32.c ****         }
 393:DSP/Source/MatrixFunctions/arm_mat_inverse_f32.c **** 
 394:DSP/Source/MatrixFunctions/arm_mat_inverse_f32.c ****         /* Increment the temporary input pointer */
ARM GAS  /var/folders/ck/g3dcd5x55xs4107jgdl0snvr0000gn/T//ccAzZy16.s 			page 16


 395:DSP/Source/MatrixFunctions/arm_mat_inverse_f32.c ****         pInT1 = pInT1 + l;
 417              		.loc 1 395 9 view .LVU151
 418              		.loc 1 395 15 is_stmt 0 view .LVU152
 419 0172 03EB8503 		add	r3, r3, r5, lsl #2
 420              	.LVL67:
 396:DSP/Source/MatrixFunctions/arm_mat_inverse_f32.c **** 
 397:DSP/Source/MatrixFunctions/arm_mat_inverse_f32.c ****         /* Decrement the loop counter */
 398:DSP/Source/MatrixFunctions/arm_mat_inverse_f32.c ****         k--;
 421              		.loc 1 398 9 is_stmt 1 view .LVU153
 422              		.loc 1 398 10 is_stmt 0 view .LVU154
 423 0176 013C     		subs	r4, r4, #1
 424              	.LVL68:
 399:DSP/Source/MatrixFunctions/arm_mat_inverse_f32.c **** 
 400:DSP/Source/MatrixFunctions/arm_mat_inverse_f32.c ****         /* Increment the pivot index */
 401:DSP/Source/MatrixFunctions/arm_mat_inverse_f32.c ****         i++;
 425              		.loc 1 401 9 is_stmt 1 view .LVU155
 426              		.loc 1 401 10 is_stmt 0 view .LVU156
 427 0178 0130     		adds	r0, r0, #1
 428              	.LVL69:
 429              	.L23:
 342:DSP/Source/MatrixFunctions/arm_mat_inverse_f32.c ****       {
 430              		.loc 1 342 16 is_stmt 1 view .LVU157
 431 017a 34B1     		cbz	r4, .L52
 345:DSP/Source/MatrixFunctions/arm_mat_inverse_f32.c ****         {
 432              		.loc 1 345 9 view .LVU158
 345:DSP/Source/MatrixFunctions/arm_mat_inverse_f32.c ****         {
 433              		.loc 1 345 12 is_stmt 0 view .LVU159
 434 017c A842     		cmp	r0, r5
 435 017e D6D0     		beq	.L53
 356:DSP/Source/MatrixFunctions/arm_mat_inverse_f32.c **** 
 436              		.loc 1 356 11 is_stmt 1 view .LVU160
 356:DSP/Source/MatrixFunctions/arm_mat_inverse_f32.c **** 
 437              		.loc 1 356 14 is_stmt 0 view .LVU161
 438 0180 D3ED006A 		vldr.32	s13, [r3]
 439              	.LVL70:
 359:DSP/Source/MatrixFunctions/arm_mat_inverse_f32.c ****           pPRT_pDst = pPivotRowDst;
 440              		.loc 1 359 11 is_stmt 1 view .LVU162
 360:DSP/Source/MatrixFunctions/arm_mat_inverse_f32.c **** 
 441              		.loc 1 360 11 view .LVU163
 364:DSP/Source/MatrixFunctions/arm_mat_inverse_f32.c **** 
 442              		.loc 1 364 11 view .LVU164
 366:DSP/Source/MatrixFunctions/arm_mat_inverse_f32.c ****           {
 443              		.loc 1 366 11 view .LVU165
 364:DSP/Source/MatrixFunctions/arm_mat_inverse_f32.c **** 
 444              		.loc 1 364 13 is_stmt 0 view .LVU166
 445 0184 3746     		mov	r7, r6
 359:DSP/Source/MatrixFunctions/arm_mat_inverse_f32.c ****           pPRT_pDst = pPivotRowDst;
 446              		.loc 1 359 19 view .LVU167
 447 0186 0099     		ldr	r1, [sp]
 366:DSP/Source/MatrixFunctions/arm_mat_inverse_f32.c ****           {
 448              		.loc 1 366 17 view .LVU168
 449 0188 E1E7     		b	.L26
 450              	.LVL71:
 451              	.L52:
 402:DSP/Source/MatrixFunctions/arm_mat_inverse_f32.c ****       }
 403:DSP/Source/MatrixFunctions/arm_mat_inverse_f32.c **** 
 404:DSP/Source/MatrixFunctions/arm_mat_inverse_f32.c ****       /* Increment the input pointer */
ARM GAS  /var/folders/ck/g3dcd5x55xs4107jgdl0snvr0000gn/T//ccAzZy16.s 			page 17


 405:DSP/Source/MatrixFunctions/arm_mat_inverse_f32.c ****       pIn++;
 452              		.loc 1 405 7 is_stmt 1 view .LVU169
 453              		.loc 1 405 10 is_stmt 0 view .LVU170
 454 018a 0AF1040A 		add	r10, r10, #4
 455              	.LVL72:
 406:DSP/Source/MatrixFunctions/arm_mat_inverse_f32.c **** 
 407:DSP/Source/MatrixFunctions/arm_mat_inverse_f32.c ****       /* Decrement the loop counter */
 408:DSP/Source/MatrixFunctions/arm_mat_inverse_f32.c ****       loopCnt--;
 456              		.loc 1 408 7 is_stmt 1 view .LVU171
 457              		.loc 1 408 14 is_stmt 0 view .LVU172
 458 018e 09F1FF39 		add	r9, r9, #-1
 459              	.LVL73:
 409:DSP/Source/MatrixFunctions/arm_mat_inverse_f32.c **** 
 410:DSP/Source/MatrixFunctions/arm_mat_inverse_f32.c ****       /* Increment the index modifier */
 411:DSP/Source/MatrixFunctions/arm_mat_inverse_f32.c ****       l++;
 460              		.loc 1 411 7 is_stmt 1 view .LVU173
 461              		.loc 1 411 8 is_stmt 0 view .LVU174
 462 0192 0135     		adds	r5, r5, #1
 463              	.LVL74:
 464              	.L9:
 184:DSP/Source/MatrixFunctions/arm_mat_inverse_f32.c ****     {
 465              		.loc 1 184 20 is_stmt 1 view .LVU175
 466 0194 B9F1000F 		cmp	r9, #0
 467 0198 0CD0     		beq	.L54
 193:DSP/Source/MatrixFunctions/arm_mat_inverse_f32.c **** 
 468              		.loc 1 193 7 view .LVU176
 193:DSP/Source/MatrixFunctions/arm_mat_inverse_f32.c **** 
 469              		.loc 1 193 24 is_stmt 0 view .LVU177
 470 019a 0CFB05F3 		mul	r3, ip, r5
 193:DSP/Source/MatrixFunctions/arm_mat_inverse_f32.c **** 
 471              		.loc 1 193 13 view .LVU178
 472 019e 0AEB8302 		add	r2, r10, r3, lsl #2
 473 01a2 0092     		str	r2, [sp]
 474              	.LVL75:
 197:DSP/Source/MatrixFunctions/arm_mat_inverse_f32.c **** 
 475              		.loc 1 197 7 is_stmt 1 view .LVU179
 197:DSP/Source/MatrixFunctions/arm_mat_inverse_f32.c **** 
 476              		.loc 1 197 14 is_stmt 0 view .LVU180
 477 01a4 08EB830B 		add	fp, r8, r3, lsl #2
 478              	.LVL76:
 200:DSP/Source/MatrixFunctions/arm_mat_inverse_f32.c **** 
 479              		.loc 1 200 7 is_stmt 1 view .LVU181
 200:DSP/Source/MatrixFunctions/arm_mat_inverse_f32.c **** 
 480              		.loc 1 200 10 is_stmt 0 view .LVU182
 481 01a8 D2ED006A 		vldr.32	s13, [r2]
 482              	.LVL77:
 203:DSP/Source/MatrixFunctions/arm_mat_inverse_f32.c ****       for (i = l; i < numRows; i++)
 483              		.loc 1 203 7 is_stmt 1 view .LVU183
 204:DSP/Source/MatrixFunctions/arm_mat_inverse_f32.c ****       {
 484              		.loc 1 204 7 view .LVU184
 204:DSP/Source/MatrixFunctions/arm_mat_inverse_f32.c ****       {
 485              		.loc 1 204 14 is_stmt 0 view .LVU185
 486 01ac 2B46     		mov	r3, r5
 203:DSP/Source/MatrixFunctions/arm_mat_inverse_f32.c ****       for (i = l; i < numRows; i++)
 487              		.loc 1 203 12 view .LVU186
 488 01ae 9FED1A7A 		vldr.32	s14, .L56
 204:DSP/Source/MatrixFunctions/arm_mat_inverse_f32.c ****       {
ARM GAS  /var/folders/ck/g3dcd5x55xs4107jgdl0snvr0000gn/T//ccAzZy16.s 			page 18


 489              		.loc 1 204 7 view .LVU187
 490 01b2 65E7     		b	.L10
 491              	.LVL78:
 492              	.L54:
 412:DSP/Source/MatrixFunctions/arm_mat_inverse_f32.c ****     }
 413:DSP/Source/MatrixFunctions/arm_mat_inverse_f32.c **** 
 414:DSP/Source/MatrixFunctions/arm_mat_inverse_f32.c **** 
 415:DSP/Source/MatrixFunctions/arm_mat_inverse_f32.c **** #else
 416:DSP/Source/MatrixFunctions/arm_mat_inverse_f32.c **** 
 417:DSP/Source/MatrixFunctions/arm_mat_inverse_f32.c ****   /* Run the below code for Cortex-M0 */
 418:DSP/Source/MatrixFunctions/arm_mat_inverse_f32.c **** 
 419:DSP/Source/MatrixFunctions/arm_mat_inverse_f32.c ****   float32_t Xchg, in = 0.0f;                     /* Temporary input values  */
 420:DSP/Source/MatrixFunctions/arm_mat_inverse_f32.c ****   uint32_t i, rowCnt, flag = 0U, j, loopCnt, k, l;      /* loop counters */
 421:DSP/Source/MatrixFunctions/arm_mat_inverse_f32.c ****   arm_status status;                             /* status of matrix inverse */
 422:DSP/Source/MatrixFunctions/arm_mat_inverse_f32.c **** 
 423:DSP/Source/MatrixFunctions/arm_mat_inverse_f32.c **** #ifdef ARM_MATH_MATRIX_CHECK
 424:DSP/Source/MatrixFunctions/arm_mat_inverse_f32.c **** 
 425:DSP/Source/MatrixFunctions/arm_mat_inverse_f32.c ****   /* Check for matrix mismatch condition */
 426:DSP/Source/MatrixFunctions/arm_mat_inverse_f32.c ****   if ((pSrc->numRows != pSrc->numCols) || (pDst->numRows != pDst->numCols)
 427:DSP/Source/MatrixFunctions/arm_mat_inverse_f32.c ****      || (pSrc->numRows != pDst->numRows))
 428:DSP/Source/MatrixFunctions/arm_mat_inverse_f32.c ****   {
 429:DSP/Source/MatrixFunctions/arm_mat_inverse_f32.c ****     /* Set status as ARM_MATH_SIZE_MISMATCH */
 430:DSP/Source/MatrixFunctions/arm_mat_inverse_f32.c ****     status = ARM_MATH_SIZE_MISMATCH;
 431:DSP/Source/MatrixFunctions/arm_mat_inverse_f32.c ****   }
 432:DSP/Source/MatrixFunctions/arm_mat_inverse_f32.c ****   else
 433:DSP/Source/MatrixFunctions/arm_mat_inverse_f32.c **** #endif /*      #ifdef ARM_MATH_MATRIX_CHECK    */
 434:DSP/Source/MatrixFunctions/arm_mat_inverse_f32.c ****   {
 435:DSP/Source/MatrixFunctions/arm_mat_inverse_f32.c **** 
 436:DSP/Source/MatrixFunctions/arm_mat_inverse_f32.c ****     /*---------------------------------------------------------------------------------------------
 437:DSP/Source/MatrixFunctions/arm_mat_inverse_f32.c **** 	 * Matrix Inverse can be solved using elementary row operations.
 438:DSP/Source/MatrixFunctions/arm_mat_inverse_f32.c **** 	 *
 439:DSP/Source/MatrixFunctions/arm_mat_inverse_f32.c **** 	 *	Gauss-Jordan Method:
 440:DSP/Source/MatrixFunctions/arm_mat_inverse_f32.c **** 	 *
 441:DSP/Source/MatrixFunctions/arm_mat_inverse_f32.c **** 	 *	   1. First combine the identity matrix and the input matrix separated by a bar to form an
 442:DSP/Source/MatrixFunctions/arm_mat_inverse_f32.c **** 	 *        augmented matrix as follows:
 443:DSP/Source/MatrixFunctions/arm_mat_inverse_f32.c **** 	 *				        _  _	      _	    _	   _   _         _	       _
 444:DSP/Source/MatrixFunctions/arm_mat_inverse_f32.c **** 	 *					   |  |  a11  a12  | | | 1   0  |   |       |  X11 X12  |
 445:DSP/Source/MatrixFunctions/arm_mat_inverse_f32.c **** 	 *					   |  |            | | |        |   |   =   |           |
 446:DSP/Source/MatrixFunctions/arm_mat_inverse_f32.c **** 	 *					   |_ |_ a21  a22 _| | |_0   1 _|  _|       |_ X21 X21 _|
 447:DSP/Source/MatrixFunctions/arm_mat_inverse_f32.c **** 	 *
 448:DSP/Source/MatrixFunctions/arm_mat_inverse_f32.c **** 	 *		2. In our implementation, pDst Matrix is used as identity matrix.
 449:DSP/Source/MatrixFunctions/arm_mat_inverse_f32.c **** 	 *
 450:DSP/Source/MatrixFunctions/arm_mat_inverse_f32.c **** 	 *		3. Begin with the first row. Let i = 1.
 451:DSP/Source/MatrixFunctions/arm_mat_inverse_f32.c **** 	 *
 452:DSP/Source/MatrixFunctions/arm_mat_inverse_f32.c **** 	 *	    4. Check to see if the pivot for row i is zero.
 453:DSP/Source/MatrixFunctions/arm_mat_inverse_f32.c **** 	 *		   The pivot is the element of the main diagonal that is on the current row.
 454:DSP/Source/MatrixFunctions/arm_mat_inverse_f32.c **** 	 *		   For instance, if working with row i, then the pivot element is aii.
 455:DSP/Source/MatrixFunctions/arm_mat_inverse_f32.c **** 	 *		   If the pivot is zero, exchange that row with a row below it that does not
 456:DSP/Source/MatrixFunctions/arm_mat_inverse_f32.c **** 	 *		   contain a zero in column i. If this is not possible, then an inverse
 457:DSP/Source/MatrixFunctions/arm_mat_inverse_f32.c **** 	 *		   to that matrix does not exist.
 458:DSP/Source/MatrixFunctions/arm_mat_inverse_f32.c **** 	 *
 459:DSP/Source/MatrixFunctions/arm_mat_inverse_f32.c **** 	 *	    5. Divide every element of row i by the pivot.
 460:DSP/Source/MatrixFunctions/arm_mat_inverse_f32.c **** 	 *
 461:DSP/Source/MatrixFunctions/arm_mat_inverse_f32.c **** 	 *	    6. For every row below and  row i, replace that row with the sum of that row and
 462:DSP/Source/MatrixFunctions/arm_mat_inverse_f32.c **** 	 *		   a multiple of row i so that each new element in column i below row i is zero.
 463:DSP/Source/MatrixFunctions/arm_mat_inverse_f32.c **** 	 *
 464:DSP/Source/MatrixFunctions/arm_mat_inverse_f32.c **** 	 *	    7. Move to the next row and column and repeat steps 2 through 5 until you have zeros
ARM GAS  /var/folders/ck/g3dcd5x55xs4107jgdl0snvr0000gn/T//ccAzZy16.s 			page 19


 465:DSP/Source/MatrixFunctions/arm_mat_inverse_f32.c **** 	 *		   for every element below and above the main diagonal.
 466:DSP/Source/MatrixFunctions/arm_mat_inverse_f32.c **** 	 *
 467:DSP/Source/MatrixFunctions/arm_mat_inverse_f32.c **** 	 *		8. Now an identical matrix is formed to the left of the bar(input matrix, src).
 468:DSP/Source/MatrixFunctions/arm_mat_inverse_f32.c **** 	 *		   Therefore, the matrix to the right of the bar is our solution(dst matrix, dst).
 469:DSP/Source/MatrixFunctions/arm_mat_inverse_f32.c **** 	 *------------------------------------------------------------------------------------------------
 470:DSP/Source/MatrixFunctions/arm_mat_inverse_f32.c **** 
 471:DSP/Source/MatrixFunctions/arm_mat_inverse_f32.c ****     /* Working pointer for destination matrix */
 472:DSP/Source/MatrixFunctions/arm_mat_inverse_f32.c ****     pOutT1 = pOut;
 473:DSP/Source/MatrixFunctions/arm_mat_inverse_f32.c **** 
 474:DSP/Source/MatrixFunctions/arm_mat_inverse_f32.c ****     /* Loop over the number of rows */
 475:DSP/Source/MatrixFunctions/arm_mat_inverse_f32.c ****     rowCnt = numRows;
 476:DSP/Source/MatrixFunctions/arm_mat_inverse_f32.c **** 
 477:DSP/Source/MatrixFunctions/arm_mat_inverse_f32.c ****     /* Making the destination matrix as identity matrix */
 478:DSP/Source/MatrixFunctions/arm_mat_inverse_f32.c ****     while (rowCnt > 0U)
 479:DSP/Source/MatrixFunctions/arm_mat_inverse_f32.c ****     {
 480:DSP/Source/MatrixFunctions/arm_mat_inverse_f32.c ****       /* Writing all zeroes in lower triangle of the destination matrix */
 481:DSP/Source/MatrixFunctions/arm_mat_inverse_f32.c ****       j = numRows - rowCnt;
 482:DSP/Source/MatrixFunctions/arm_mat_inverse_f32.c ****       while (j > 0U)
 483:DSP/Source/MatrixFunctions/arm_mat_inverse_f32.c ****       {
 484:DSP/Source/MatrixFunctions/arm_mat_inverse_f32.c ****         *pOutT1++ = 0.0f;
 485:DSP/Source/MatrixFunctions/arm_mat_inverse_f32.c ****         j--;
 486:DSP/Source/MatrixFunctions/arm_mat_inverse_f32.c ****       }
 487:DSP/Source/MatrixFunctions/arm_mat_inverse_f32.c **** 
 488:DSP/Source/MatrixFunctions/arm_mat_inverse_f32.c ****       /* Writing all ones in the diagonal of the destination matrix */
 489:DSP/Source/MatrixFunctions/arm_mat_inverse_f32.c ****       *pOutT1++ = 1.0f;
 490:DSP/Source/MatrixFunctions/arm_mat_inverse_f32.c **** 
 491:DSP/Source/MatrixFunctions/arm_mat_inverse_f32.c ****       /* Writing all zeroes in upper triangle of the destination matrix */
 492:DSP/Source/MatrixFunctions/arm_mat_inverse_f32.c ****       j = rowCnt - 1U;
 493:DSP/Source/MatrixFunctions/arm_mat_inverse_f32.c ****       while (j > 0U)
 494:DSP/Source/MatrixFunctions/arm_mat_inverse_f32.c ****       {
 495:DSP/Source/MatrixFunctions/arm_mat_inverse_f32.c ****         *pOutT1++ = 0.0f;
 496:DSP/Source/MatrixFunctions/arm_mat_inverse_f32.c ****         j--;
 497:DSP/Source/MatrixFunctions/arm_mat_inverse_f32.c ****       }
 498:DSP/Source/MatrixFunctions/arm_mat_inverse_f32.c **** 
 499:DSP/Source/MatrixFunctions/arm_mat_inverse_f32.c ****       /* Decrement the loop counter */
 500:DSP/Source/MatrixFunctions/arm_mat_inverse_f32.c ****       rowCnt--;
 501:DSP/Source/MatrixFunctions/arm_mat_inverse_f32.c ****     }
 502:DSP/Source/MatrixFunctions/arm_mat_inverse_f32.c **** 
 503:DSP/Source/MatrixFunctions/arm_mat_inverse_f32.c ****     /* Loop over the number of columns of the input matrix.
 504:DSP/Source/MatrixFunctions/arm_mat_inverse_f32.c ****        All the elements in each column are processed by the row operations */
 505:DSP/Source/MatrixFunctions/arm_mat_inverse_f32.c ****     loopCnt = numCols;
 506:DSP/Source/MatrixFunctions/arm_mat_inverse_f32.c **** 
 507:DSP/Source/MatrixFunctions/arm_mat_inverse_f32.c ****     /* Index modifier to navigate through the columns */
 508:DSP/Source/MatrixFunctions/arm_mat_inverse_f32.c ****     l = 0U;
 509:DSP/Source/MatrixFunctions/arm_mat_inverse_f32.c ****     //for(loopCnt = 0U; loopCnt < numCols; loopCnt++)
 510:DSP/Source/MatrixFunctions/arm_mat_inverse_f32.c ****     while (loopCnt > 0U)
 511:DSP/Source/MatrixFunctions/arm_mat_inverse_f32.c ****     {
 512:DSP/Source/MatrixFunctions/arm_mat_inverse_f32.c ****       /* Check if the pivot element is zero..
 513:DSP/Source/MatrixFunctions/arm_mat_inverse_f32.c ****        * If it is zero then interchange the row with non zero row below.
 514:DSP/Source/MatrixFunctions/arm_mat_inverse_f32.c ****        * If there is no non zero element to replace in the rows below,
 515:DSP/Source/MatrixFunctions/arm_mat_inverse_f32.c ****        * then the matrix is Singular. */
 516:DSP/Source/MatrixFunctions/arm_mat_inverse_f32.c **** 
 517:DSP/Source/MatrixFunctions/arm_mat_inverse_f32.c ****       /* Working pointer for the input matrix that points
 518:DSP/Source/MatrixFunctions/arm_mat_inverse_f32.c ****        * to the pivot element of the particular row  */
 519:DSP/Source/MatrixFunctions/arm_mat_inverse_f32.c ****       pInT1 = pIn + (l * numCols);
 520:DSP/Source/MatrixFunctions/arm_mat_inverse_f32.c **** 
 521:DSP/Source/MatrixFunctions/arm_mat_inverse_f32.c ****       /* Working pointer for the destination matrix that points
ARM GAS  /var/folders/ck/g3dcd5x55xs4107jgdl0snvr0000gn/T//ccAzZy16.s 			page 20


 522:DSP/Source/MatrixFunctions/arm_mat_inverse_f32.c ****        * to the pivot element of the particular row  */
 523:DSP/Source/MatrixFunctions/arm_mat_inverse_f32.c ****       pOutT1 = pOut + (l * numCols);
 524:DSP/Source/MatrixFunctions/arm_mat_inverse_f32.c **** 
 525:DSP/Source/MatrixFunctions/arm_mat_inverse_f32.c ****       /* Temporary variable to hold the pivot value */
 526:DSP/Source/MatrixFunctions/arm_mat_inverse_f32.c ****       in = *pInT1;
 527:DSP/Source/MatrixFunctions/arm_mat_inverse_f32.c **** 
 528:DSP/Source/MatrixFunctions/arm_mat_inverse_f32.c ****       /* Destination pointer modifier */
 529:DSP/Source/MatrixFunctions/arm_mat_inverse_f32.c ****       k = 1U;
 530:DSP/Source/MatrixFunctions/arm_mat_inverse_f32.c **** 
 531:DSP/Source/MatrixFunctions/arm_mat_inverse_f32.c ****       /* Check if the pivot element is zero */
 532:DSP/Source/MatrixFunctions/arm_mat_inverse_f32.c ****       if (*pInT1 == 0.0f)
 533:DSP/Source/MatrixFunctions/arm_mat_inverse_f32.c ****       {
 534:DSP/Source/MatrixFunctions/arm_mat_inverse_f32.c ****         /* Loop over the number rows present below */
 535:DSP/Source/MatrixFunctions/arm_mat_inverse_f32.c ****         for (i = (l + 1U); i < numRows; i++)
 536:DSP/Source/MatrixFunctions/arm_mat_inverse_f32.c ****         {
 537:DSP/Source/MatrixFunctions/arm_mat_inverse_f32.c ****           /* Update the input and destination pointers */
 538:DSP/Source/MatrixFunctions/arm_mat_inverse_f32.c ****           pInT2 = pInT1 + (numCols * l);
 539:DSP/Source/MatrixFunctions/arm_mat_inverse_f32.c ****           pOutT2 = pOutT1 + (numCols * k);
 540:DSP/Source/MatrixFunctions/arm_mat_inverse_f32.c **** 
 541:DSP/Source/MatrixFunctions/arm_mat_inverse_f32.c ****           /* Check if there is a non zero pivot element to
 542:DSP/Source/MatrixFunctions/arm_mat_inverse_f32.c ****            * replace in the rows below */
 543:DSP/Source/MatrixFunctions/arm_mat_inverse_f32.c ****           if (*pInT2 != 0.0f)
 544:DSP/Source/MatrixFunctions/arm_mat_inverse_f32.c ****           {
 545:DSP/Source/MatrixFunctions/arm_mat_inverse_f32.c ****             /* Loop over number of columns
 546:DSP/Source/MatrixFunctions/arm_mat_inverse_f32.c ****              * to the right of the pilot element */
 547:DSP/Source/MatrixFunctions/arm_mat_inverse_f32.c ****             for (j = 0U; j < (numCols - l); j++)
 548:DSP/Source/MatrixFunctions/arm_mat_inverse_f32.c ****             {
 549:DSP/Source/MatrixFunctions/arm_mat_inverse_f32.c ****               /* Exchange the row elements of the input matrix */
 550:DSP/Source/MatrixFunctions/arm_mat_inverse_f32.c ****               Xchg = *pInT2;
 551:DSP/Source/MatrixFunctions/arm_mat_inverse_f32.c ****               *pInT2++ = *pInT1;
 552:DSP/Source/MatrixFunctions/arm_mat_inverse_f32.c ****               *pInT1++ = Xchg;
 553:DSP/Source/MatrixFunctions/arm_mat_inverse_f32.c ****             }
 554:DSP/Source/MatrixFunctions/arm_mat_inverse_f32.c **** 
 555:DSP/Source/MatrixFunctions/arm_mat_inverse_f32.c ****             for (j = 0U; j < numCols; j++)
 556:DSP/Source/MatrixFunctions/arm_mat_inverse_f32.c ****             {
 557:DSP/Source/MatrixFunctions/arm_mat_inverse_f32.c ****               Xchg = *pOutT2;
 558:DSP/Source/MatrixFunctions/arm_mat_inverse_f32.c ****               *pOutT2++ = *pOutT1;
 559:DSP/Source/MatrixFunctions/arm_mat_inverse_f32.c ****               *pOutT1++ = Xchg;
 560:DSP/Source/MatrixFunctions/arm_mat_inverse_f32.c ****             }
 561:DSP/Source/MatrixFunctions/arm_mat_inverse_f32.c **** 
 562:DSP/Source/MatrixFunctions/arm_mat_inverse_f32.c ****             /* Flag to indicate whether exchange is done or not */
 563:DSP/Source/MatrixFunctions/arm_mat_inverse_f32.c ****             flag = 1U;
 564:DSP/Source/MatrixFunctions/arm_mat_inverse_f32.c **** 
 565:DSP/Source/MatrixFunctions/arm_mat_inverse_f32.c ****             /* Break after exchange is done */
 566:DSP/Source/MatrixFunctions/arm_mat_inverse_f32.c ****             break;
 567:DSP/Source/MatrixFunctions/arm_mat_inverse_f32.c ****           }
 568:DSP/Source/MatrixFunctions/arm_mat_inverse_f32.c **** 
 569:DSP/Source/MatrixFunctions/arm_mat_inverse_f32.c ****           /* Update the destination pointer modifier */
 570:DSP/Source/MatrixFunctions/arm_mat_inverse_f32.c ****           k++;
 571:DSP/Source/MatrixFunctions/arm_mat_inverse_f32.c ****         }
 572:DSP/Source/MatrixFunctions/arm_mat_inverse_f32.c ****       }
 573:DSP/Source/MatrixFunctions/arm_mat_inverse_f32.c **** 
 574:DSP/Source/MatrixFunctions/arm_mat_inverse_f32.c ****       /* Update the status if the matrix is singular */
 575:DSP/Source/MatrixFunctions/arm_mat_inverse_f32.c ****       if ((flag != 1U) && (in == 0.0f))
 576:DSP/Source/MatrixFunctions/arm_mat_inverse_f32.c ****       {
 577:DSP/Source/MatrixFunctions/arm_mat_inverse_f32.c ****         return ARM_MATH_SINGULAR;
 578:DSP/Source/MatrixFunctions/arm_mat_inverse_f32.c ****       }
ARM GAS  /var/folders/ck/g3dcd5x55xs4107jgdl0snvr0000gn/T//ccAzZy16.s 			page 21


 579:DSP/Source/MatrixFunctions/arm_mat_inverse_f32.c **** 
 580:DSP/Source/MatrixFunctions/arm_mat_inverse_f32.c ****       /* Points to the pivot row of input and destination matrices */
 581:DSP/Source/MatrixFunctions/arm_mat_inverse_f32.c ****       pPivotRowIn = pIn + (l * numCols);
 582:DSP/Source/MatrixFunctions/arm_mat_inverse_f32.c ****       pPivotRowDst = pOut + (l * numCols);
 583:DSP/Source/MatrixFunctions/arm_mat_inverse_f32.c **** 
 584:DSP/Source/MatrixFunctions/arm_mat_inverse_f32.c ****       /* Temporary pointers to the pivot row pointers */
 585:DSP/Source/MatrixFunctions/arm_mat_inverse_f32.c ****       pInT1 = pPivotRowIn;
 586:DSP/Source/MatrixFunctions/arm_mat_inverse_f32.c ****       pOutT1 = pPivotRowDst;
 587:DSP/Source/MatrixFunctions/arm_mat_inverse_f32.c **** 
 588:DSP/Source/MatrixFunctions/arm_mat_inverse_f32.c ****       /* Pivot element of the row */
 589:DSP/Source/MatrixFunctions/arm_mat_inverse_f32.c ****       in = *(pIn + (l * numCols));
 590:DSP/Source/MatrixFunctions/arm_mat_inverse_f32.c **** 
 591:DSP/Source/MatrixFunctions/arm_mat_inverse_f32.c ****       /* Loop over number of columns
 592:DSP/Source/MatrixFunctions/arm_mat_inverse_f32.c ****        * to the right of the pilot element */
 593:DSP/Source/MatrixFunctions/arm_mat_inverse_f32.c ****       for (j = 0U; j < (numCols - l); j++)
 594:DSP/Source/MatrixFunctions/arm_mat_inverse_f32.c ****       {
 595:DSP/Source/MatrixFunctions/arm_mat_inverse_f32.c ****         /* Divide each element of the row of the input matrix
 596:DSP/Source/MatrixFunctions/arm_mat_inverse_f32.c ****          * by the pivot element */
 597:DSP/Source/MatrixFunctions/arm_mat_inverse_f32.c ****         *pInT1 = *pInT1 / in;
 598:DSP/Source/MatrixFunctions/arm_mat_inverse_f32.c ****         pInT1++;
 599:DSP/Source/MatrixFunctions/arm_mat_inverse_f32.c ****       }
 600:DSP/Source/MatrixFunctions/arm_mat_inverse_f32.c ****       for (j = 0U; j < numCols; j++)
 601:DSP/Source/MatrixFunctions/arm_mat_inverse_f32.c ****       {
 602:DSP/Source/MatrixFunctions/arm_mat_inverse_f32.c ****         /* Divide each element of the row of the destination matrix
 603:DSP/Source/MatrixFunctions/arm_mat_inverse_f32.c ****          * by the pivot element */
 604:DSP/Source/MatrixFunctions/arm_mat_inverse_f32.c ****         *pOutT1 = *pOutT1 / in;
 605:DSP/Source/MatrixFunctions/arm_mat_inverse_f32.c ****         pOutT1++;
 606:DSP/Source/MatrixFunctions/arm_mat_inverse_f32.c ****       }
 607:DSP/Source/MatrixFunctions/arm_mat_inverse_f32.c **** 
 608:DSP/Source/MatrixFunctions/arm_mat_inverse_f32.c ****       /* Replace the rows with the sum of that row and a multiple of row i
 609:DSP/Source/MatrixFunctions/arm_mat_inverse_f32.c ****        * so that each new element in column i above row i is zero.*/
 610:DSP/Source/MatrixFunctions/arm_mat_inverse_f32.c **** 
 611:DSP/Source/MatrixFunctions/arm_mat_inverse_f32.c ****       /* Temporary pointers for input and destination matrices */
 612:DSP/Source/MatrixFunctions/arm_mat_inverse_f32.c ****       pInT1 = pIn;
 613:DSP/Source/MatrixFunctions/arm_mat_inverse_f32.c ****       pOutT1 = pOut;
 614:DSP/Source/MatrixFunctions/arm_mat_inverse_f32.c **** 
 615:DSP/Source/MatrixFunctions/arm_mat_inverse_f32.c ****       for (i = 0U; i < numRows; i++)
 616:DSP/Source/MatrixFunctions/arm_mat_inverse_f32.c ****       {
 617:DSP/Source/MatrixFunctions/arm_mat_inverse_f32.c ****         /* Check for the pivot element */
 618:DSP/Source/MatrixFunctions/arm_mat_inverse_f32.c ****         if (i == l)
 619:DSP/Source/MatrixFunctions/arm_mat_inverse_f32.c ****         {
 620:DSP/Source/MatrixFunctions/arm_mat_inverse_f32.c ****           /* If the processing element is the pivot element,
 621:DSP/Source/MatrixFunctions/arm_mat_inverse_f32.c ****              only the columns to the right are to be processed */
 622:DSP/Source/MatrixFunctions/arm_mat_inverse_f32.c ****           pInT1 += numCols - l;
 623:DSP/Source/MatrixFunctions/arm_mat_inverse_f32.c ****           pOutT1 += numCols;
 624:DSP/Source/MatrixFunctions/arm_mat_inverse_f32.c ****         }
 625:DSP/Source/MatrixFunctions/arm_mat_inverse_f32.c ****         else
 626:DSP/Source/MatrixFunctions/arm_mat_inverse_f32.c ****         {
 627:DSP/Source/MatrixFunctions/arm_mat_inverse_f32.c ****           /* Element of the reference row */
 628:DSP/Source/MatrixFunctions/arm_mat_inverse_f32.c ****           in = *pInT1;
 629:DSP/Source/MatrixFunctions/arm_mat_inverse_f32.c **** 
 630:DSP/Source/MatrixFunctions/arm_mat_inverse_f32.c ****           /* Working pointers for input and destination pivot rows */
 631:DSP/Source/MatrixFunctions/arm_mat_inverse_f32.c ****           pPRT_in = pPivotRowIn;
 632:DSP/Source/MatrixFunctions/arm_mat_inverse_f32.c ****           pPRT_pDst = pPivotRowDst;
 633:DSP/Source/MatrixFunctions/arm_mat_inverse_f32.c **** 
 634:DSP/Source/MatrixFunctions/arm_mat_inverse_f32.c ****           /* Loop over the number of columns to the right of the pivot element,
 635:DSP/Source/MatrixFunctions/arm_mat_inverse_f32.c ****              to replace the elements in the input matrix */
ARM GAS  /var/folders/ck/g3dcd5x55xs4107jgdl0snvr0000gn/T//ccAzZy16.s 			page 22


 636:DSP/Source/MatrixFunctions/arm_mat_inverse_f32.c ****           for (j = 0U; j < (numCols - l); j++)
 637:DSP/Source/MatrixFunctions/arm_mat_inverse_f32.c ****           {
 638:DSP/Source/MatrixFunctions/arm_mat_inverse_f32.c ****             /* Replace the element by the sum of that row
 639:DSP/Source/MatrixFunctions/arm_mat_inverse_f32.c ****                and a multiple of the reference row  */
 640:DSP/Source/MatrixFunctions/arm_mat_inverse_f32.c ****             *pInT1 = *pInT1 - (in * *pPRT_in++);
 641:DSP/Source/MatrixFunctions/arm_mat_inverse_f32.c ****             pInT1++;
 642:DSP/Source/MatrixFunctions/arm_mat_inverse_f32.c ****           }
 643:DSP/Source/MatrixFunctions/arm_mat_inverse_f32.c ****           /* Loop over the number of columns to
 644:DSP/Source/MatrixFunctions/arm_mat_inverse_f32.c ****              replace the elements in the destination matrix */
 645:DSP/Source/MatrixFunctions/arm_mat_inverse_f32.c ****           for (j = 0U; j < numCols; j++)
 646:DSP/Source/MatrixFunctions/arm_mat_inverse_f32.c ****           {
 647:DSP/Source/MatrixFunctions/arm_mat_inverse_f32.c ****             /* Replace the element by the sum of that row
 648:DSP/Source/MatrixFunctions/arm_mat_inverse_f32.c ****                and a multiple of the reference row  */
 649:DSP/Source/MatrixFunctions/arm_mat_inverse_f32.c ****             *pOutT1 = *pOutT1 - (in * *pPRT_pDst++);
 650:DSP/Source/MatrixFunctions/arm_mat_inverse_f32.c ****             pOutT1++;
 651:DSP/Source/MatrixFunctions/arm_mat_inverse_f32.c ****           }
 652:DSP/Source/MatrixFunctions/arm_mat_inverse_f32.c **** 
 653:DSP/Source/MatrixFunctions/arm_mat_inverse_f32.c ****         }
 654:DSP/Source/MatrixFunctions/arm_mat_inverse_f32.c ****         /* Increment the temporary input pointer */
 655:DSP/Source/MatrixFunctions/arm_mat_inverse_f32.c ****         pInT1 = pInT1 + l;
 656:DSP/Source/MatrixFunctions/arm_mat_inverse_f32.c ****       }
 657:DSP/Source/MatrixFunctions/arm_mat_inverse_f32.c ****       /* Increment the input pointer */
 658:DSP/Source/MatrixFunctions/arm_mat_inverse_f32.c ****       pIn++;
 659:DSP/Source/MatrixFunctions/arm_mat_inverse_f32.c **** 
 660:DSP/Source/MatrixFunctions/arm_mat_inverse_f32.c ****       /* Decrement the loop counter */
 661:DSP/Source/MatrixFunctions/arm_mat_inverse_f32.c ****       loopCnt--;
 662:DSP/Source/MatrixFunctions/arm_mat_inverse_f32.c ****       /* Increment the index modifier */
 663:DSP/Source/MatrixFunctions/arm_mat_inverse_f32.c ****       l++;
 664:DSP/Source/MatrixFunctions/arm_mat_inverse_f32.c ****     }
 665:DSP/Source/MatrixFunctions/arm_mat_inverse_f32.c **** 
 666:DSP/Source/MatrixFunctions/arm_mat_inverse_f32.c **** 
 667:DSP/Source/MatrixFunctions/arm_mat_inverse_f32.c **** #endif /* #if defined (ARM_MATH_DSP) */
 668:DSP/Source/MatrixFunctions/arm_mat_inverse_f32.c **** 
 669:DSP/Source/MatrixFunctions/arm_mat_inverse_f32.c ****     /* Set status as ARM_MATH_SUCCESS */
 670:DSP/Source/MatrixFunctions/arm_mat_inverse_f32.c ****     status = ARM_MATH_SUCCESS;
 671:DSP/Source/MatrixFunctions/arm_mat_inverse_f32.c **** 
 672:DSP/Source/MatrixFunctions/arm_mat_inverse_f32.c ****     if ((flag != 1U) && (in == 0.0f))
 493              		.loc 1 672 22 discriminator 1 view .LVU188
 494 01b4 0198     		ldr	r0, [sp, #4]
 670:DSP/Source/MatrixFunctions/arm_mat_inverse_f32.c **** 
 495              		.loc 1 670 5 is_stmt 1 view .LVU189
 496              	.LVL79:
 497              		.loc 1 672 5 view .LVU190
 498              		.loc 1 672 22 is_stmt 0 discriminator 1 view .LVU191
 499 01b6 F5EE406A 		vcmp.f32	s13, #0
 500 01ba F1EE10FA 		vmrs	APSR_nzcv, FPSCR
 501 01be 25D1     		bne	.L43
 673:DSP/Source/MatrixFunctions/arm_mat_inverse_f32.c ****     {
 674:DSP/Source/MatrixFunctions/arm_mat_inverse_f32.c ****       pIn = pSrc->pData;
 502              		.loc 1 674 7 is_stmt 1 view .LVU192
 503              		.loc 1 674 11 is_stmt 0 view .LVU193
 504 01c0 4168     		ldr	r1, [r0, #4]
 505              	.LVL80:
 675:DSP/Source/MatrixFunctions/arm_mat_inverse_f32.c ****       for (i = 0; i < numRows * numCols; i++)
 506              		.loc 1 675 7 is_stmt 1 view .LVU194
 507              		.loc 1 675 7 is_stmt 0 view .LVU195
 508 01c2 01E0     		b	.L32
ARM GAS  /var/folders/ck/g3dcd5x55xs4107jgdl0snvr0000gn/T//ccAzZy16.s 			page 23


 509              	.LVL81:
 510              	.L55:
 511              		.loc 1 675 43 is_stmt 1 discriminator 2 view .LVU196
 512 01c4 09F10109 		add	r9, r9, #1
 513              	.LVL82:
 514              	.L32:
 515              		.loc 1 675 21 discriminator 1 view .LVU197
 516              		.loc 1 675 31 is_stmt 0 discriminator 1 view .LVU198
 517 01c8 0CFB0EF3 		mul	r3, ip, lr
 518              		.loc 1 675 21 discriminator 1 view .LVU199
 519 01cc 4B45     		cmp	r3, r9
 520 01ce 08D9     		bls	.L33
 676:DSP/Source/MatrixFunctions/arm_mat_inverse_f32.c ****       {
 677:DSP/Source/MatrixFunctions/arm_mat_inverse_f32.c ****         if (pIn[i] != 0.0f)
 521              		.loc 1 677 9 is_stmt 1 view .LVU200
 522              		.loc 1 677 16 is_stmt 0 view .LVU201
 523 01d0 01EB8902 		add	r2, r1, r9, lsl #2
 524 01d4 D2ED007A 		vldr.32	s15, [r2]
 525              		.loc 1 677 12 view .LVU202
 526 01d8 F5EE407A 		vcmp.f32	s15, #0
 527 01dc F1EE10FA 		vmrs	APSR_nzcv, FPSCR
 528 01e0 F0D0     		beq	.L55
 529              	.L33:
 678:DSP/Source/MatrixFunctions/arm_mat_inverse_f32.c ****             break;
 679:DSP/Source/MatrixFunctions/arm_mat_inverse_f32.c ****       }
 680:DSP/Source/MatrixFunctions/arm_mat_inverse_f32.c **** 
 681:DSP/Source/MatrixFunctions/arm_mat_inverse_f32.c ****       if (i == numRows * numCols)
 530              		.loc 1 681 7 is_stmt 1 view .LVU203
 531              		.loc 1 681 10 is_stmt 0 view .LVU204
 532 01e2 4B45     		cmp	r3, r9
 533 01e4 14D0     		beq	.L44
 670:DSP/Source/MatrixFunctions/arm_mat_inverse_f32.c **** 
 534              		.loc 1 670 12 view .LVU205
 535 01e6 0020     		movs	r0, #0
 536 01e8 0AE0     		b	.L2
 537              	.LVL83:
 538              	.L35:
 102:DSP/Source/MatrixFunctions/arm_mat_inverse_f32.c ****   }
 539              		.loc 1 102 12 view .LVU206
 540 01ea 6FF00200 		mvn	r0, #2
 541              	.LVL84:
 102:DSP/Source/MatrixFunctions/arm_mat_inverse_f32.c ****   }
 542              		.loc 1 102 12 view .LVU207
 543 01ee 07E0     		b	.L2
 544              	.LVL85:
 545              	.L36:
 102:DSP/Source/MatrixFunctions/arm_mat_inverse_f32.c ****   }
 546              		.loc 1 102 12 view .LVU208
 547 01f0 6FF00200 		mvn	r0, #2
 548              	.LVL86:
 102:DSP/Source/MatrixFunctions/arm_mat_inverse_f32.c ****   }
 549              		.loc 1 102 12 view .LVU209
 550 01f4 04E0     		b	.L2
 551              	.LVL87:
 552              	.L37:
 102:DSP/Source/MatrixFunctions/arm_mat_inverse_f32.c ****   }
 553              		.loc 1 102 12 view .LVU210
ARM GAS  /var/folders/ck/g3dcd5x55xs4107jgdl0snvr0000gn/T//ccAzZy16.s 			page 24


 554 01f6 6FF00200 		mvn	r0, #2
 555              	.LVL88:
 102:DSP/Source/MatrixFunctions/arm_mat_inverse_f32.c ****   }
 556              		.loc 1 102 12 view .LVU211
 557 01fa 01E0     		b	.L2
 558              	.LVL89:
 559              	.L40:
 213:DSP/Source/MatrixFunctions/arm_mat_inverse_f32.c ****       }
 560              		.loc 1 213 16 view .LVU212
 561 01fc 6FF00400 		mvn	r0, #4
 562              	.LVL90:
 563              	.L2:
 682:DSP/Source/MatrixFunctions/arm_mat_inverse_f32.c ****         status = ARM_MATH_SINGULAR;
 683:DSP/Source/MatrixFunctions/arm_mat_inverse_f32.c ****     }
 684:DSP/Source/MatrixFunctions/arm_mat_inverse_f32.c ****   }
 685:DSP/Source/MatrixFunctions/arm_mat_inverse_f32.c ****   /* Return to application */
 686:DSP/Source/MatrixFunctions/arm_mat_inverse_f32.c ****   return (status);
 687:DSP/Source/MatrixFunctions/arm_mat_inverse_f32.c **** }
 564              		.loc 1 687 1 view .LVU213
 565 0200 03B0     		add	sp, sp, #12
 566              	.LCFI2:
 567              		.cfi_remember_state
 568              		.cfi_def_cfa_offset 36
 569              		@ sp needed
 570 0202 BDE8F08F 		pop	{r4, r5, r6, r7, r8, r9, r10, fp, pc}
 571              	.LVL91:
 572              	.L42:
 573              	.LCFI3:
 574              		.cfi_restore_state
 285:DSP/Source/MatrixFunctions/arm_mat_inverse_f32.c ****       }
 575              		.loc 1 285 16 view .LVU214
 576 0206 6FF00400 		mvn	r0, #4
 577 020a F9E7     		b	.L2
 578              	.LVL92:
 579              	.L43:
 670:DSP/Source/MatrixFunctions/arm_mat_inverse_f32.c **** 
 580              		.loc 1 670 12 view .LVU215
 581 020c 0020     		movs	r0, #0
 582 020e F7E7     		b	.L2
 583              	.LVL93:
 584              	.L44:
 682:DSP/Source/MatrixFunctions/arm_mat_inverse_f32.c ****         status = ARM_MATH_SINGULAR;
 585              		.loc 1 682 16 view .LVU216
 586 0210 6FF00400 		mvn	r0, #4
 587 0214 F4E7     		b	.L2
 588              	.L57:
 589 0216 00BF     		.align	2
 590              	.L56:
 591 0218 00000000 		.word	0
 592              		.cfi_endproc
 593              	.LFE139:
 595              		.text
 596              	.Letext0:
 597              		.file 2 "/Users/luban/.local/xPacks/arm-none-eabi-gcc/xpack-arm-none-eabi-gcc-13.2.1-1.1/arm-none-
 598              		.file 3 "/Users/luban/.local/xPacks/arm-none-eabi-gcc/xpack-arm-none-eabi-gcc-13.2.1-1.1/arm-none-
 599              		.file 4 "DSP/Inc/arm_math.h"
ARM GAS  /var/folders/ck/g3dcd5x55xs4107jgdl0snvr0000gn/T//ccAzZy16.s 			page 25

