ARM GAS  /var/folders/ck/g3dcd5x55xs4107jgdl0snvr0000gn/T//ccMjwaiP.s 			page 1


   1              		.cpu cortex-m4
   2              		.arch armv7e-m
   3              		.fpu fpv4-sp-d16
   4              		.eabi_attribute 27, 1
   5              		.eabi_attribute 28, 1
   6              		.eabi_attribute 20, 1
   7              		.eabi_attribute 21, 1
   8              		.eabi_attribute 23, 3
   9              		.eabi_attribute 24, 1
  10              		.eabi_attribute 25, 1
  11              		.eabi_attribute 26, 1
  12              		.eabi_attribute 30, 1
  13              		.eabi_attribute 34, 1
  14              		.eabi_attribute 18, 4
  15              		.file	"arm_fill_q7.c"
  16              		.text
  17              	.Ltext0:
  18              		.cfi_sections	.debug_frame
  19              		.file 1 "DSP/Source/SupportFunctions/arm_fill_q7.c"
  20              		.section	.text.arm_fill_q7,"ax",%progbits
  21              		.align	1
  22              		.global	arm_fill_q7
  23              		.syntax unified
  24              		.thumb
  25              		.thumb_func
  27              	arm_fill_q7:
  28              	.LVL0:
  29              	.LFB139:
   1:DSP/Source/SupportFunctions/arm_fill_q7.c **** /* ----------------------------------------------------------------------
   2:DSP/Source/SupportFunctions/arm_fill_q7.c ****  * Project:      CMSIS DSP Library
   3:DSP/Source/SupportFunctions/arm_fill_q7.c ****  * Title:        arm_fill_q7.c
   4:DSP/Source/SupportFunctions/arm_fill_q7.c ****  * Description:  Fills a constant value into a Q7 vector
   5:DSP/Source/SupportFunctions/arm_fill_q7.c ****  *
   6:DSP/Source/SupportFunctions/arm_fill_q7.c ****  * $Date:        27. January 2017
   7:DSP/Source/SupportFunctions/arm_fill_q7.c ****  * $Revision:    V.1.5.1
   8:DSP/Source/SupportFunctions/arm_fill_q7.c ****  *
   9:DSP/Source/SupportFunctions/arm_fill_q7.c ****  * Target Processor: Cortex-M cores
  10:DSP/Source/SupportFunctions/arm_fill_q7.c ****  * -------------------------------------------------------------------- */
  11:DSP/Source/SupportFunctions/arm_fill_q7.c **** /*
  12:DSP/Source/SupportFunctions/arm_fill_q7.c ****  * Copyright (C) 2010-2017 ARM Limited or its affiliates. All rights reserved.
  13:DSP/Source/SupportFunctions/arm_fill_q7.c ****  *
  14:DSP/Source/SupportFunctions/arm_fill_q7.c ****  * SPDX-License-Identifier: Apache-2.0
  15:DSP/Source/SupportFunctions/arm_fill_q7.c ****  *
  16:DSP/Source/SupportFunctions/arm_fill_q7.c ****  * Licensed under the Apache License, Version 2.0 (the License); you may
  17:DSP/Source/SupportFunctions/arm_fill_q7.c ****  * not use this file except in compliance with the License.
  18:DSP/Source/SupportFunctions/arm_fill_q7.c ****  * You may obtain a copy of the License at
  19:DSP/Source/SupportFunctions/arm_fill_q7.c ****  *
  20:DSP/Source/SupportFunctions/arm_fill_q7.c ****  * www.apache.org/licenses/LICENSE-2.0
  21:DSP/Source/SupportFunctions/arm_fill_q7.c ****  *
  22:DSP/Source/SupportFunctions/arm_fill_q7.c ****  * Unless required by applicable law or agreed to in writing, software
  23:DSP/Source/SupportFunctions/arm_fill_q7.c ****  * distributed under the License is distributed on an AS IS BASIS, WITHOUT
  24:DSP/Source/SupportFunctions/arm_fill_q7.c ****  * WARRANTIES OR CONDITIONS OF ANY KIND, either express or implied.
  25:DSP/Source/SupportFunctions/arm_fill_q7.c ****  * See the License for the specific language governing permissions and
  26:DSP/Source/SupportFunctions/arm_fill_q7.c ****  * limitations under the License.
  27:DSP/Source/SupportFunctions/arm_fill_q7.c ****  */
  28:DSP/Source/SupportFunctions/arm_fill_q7.c **** 
  29:DSP/Source/SupportFunctions/arm_fill_q7.c **** #include "arm_math.h"
ARM GAS  /var/folders/ck/g3dcd5x55xs4107jgdl0snvr0000gn/T//ccMjwaiP.s 			page 2


  30:DSP/Source/SupportFunctions/arm_fill_q7.c **** 
  31:DSP/Source/SupportFunctions/arm_fill_q7.c **** /**
  32:DSP/Source/SupportFunctions/arm_fill_q7.c ****  * @ingroup groupSupport
  33:DSP/Source/SupportFunctions/arm_fill_q7.c ****  */
  34:DSP/Source/SupportFunctions/arm_fill_q7.c **** 
  35:DSP/Source/SupportFunctions/arm_fill_q7.c **** /**
  36:DSP/Source/SupportFunctions/arm_fill_q7.c ****  * @addtogroup Fill
  37:DSP/Source/SupportFunctions/arm_fill_q7.c ****  * @{
  38:DSP/Source/SupportFunctions/arm_fill_q7.c ****  */
  39:DSP/Source/SupportFunctions/arm_fill_q7.c **** 
  40:DSP/Source/SupportFunctions/arm_fill_q7.c **** /**
  41:DSP/Source/SupportFunctions/arm_fill_q7.c ****  * @brief Fills a constant value into a Q7 vector.
  42:DSP/Source/SupportFunctions/arm_fill_q7.c ****  * @param[in]       value input value to be filled
  43:DSP/Source/SupportFunctions/arm_fill_q7.c ****  * @param[out]      *pDst points to output vector
  44:DSP/Source/SupportFunctions/arm_fill_q7.c ****  * @param[in]       blockSize length of the output vector
  45:DSP/Source/SupportFunctions/arm_fill_q7.c ****  * @return none.
  46:DSP/Source/SupportFunctions/arm_fill_q7.c ****  *
  47:DSP/Source/SupportFunctions/arm_fill_q7.c ****  */
  48:DSP/Source/SupportFunctions/arm_fill_q7.c **** 
  49:DSP/Source/SupportFunctions/arm_fill_q7.c **** void arm_fill_q7(
  50:DSP/Source/SupportFunctions/arm_fill_q7.c ****   q7_t value,
  51:DSP/Source/SupportFunctions/arm_fill_q7.c ****   q7_t * pDst,
  52:DSP/Source/SupportFunctions/arm_fill_q7.c ****   uint32_t blockSize)
  53:DSP/Source/SupportFunctions/arm_fill_q7.c **** {
  30              		.loc 1 53 1 view -0
  31              		.cfi_startproc
  32              		@ args = 0, pretend = 0, frame = 0
  33              		@ frame_needed = 0, uses_anonymous_args = 0
  34              		@ link register save eliminated.
  35              		.loc 1 53 1 is_stmt 0 view .LVU1
  36 0000 10B4     		push	{r4}
  37              	.LCFI0:
  38              		.cfi_def_cfa_offset 4
  39              		.cfi_offset 4, -4
  54:DSP/Source/SupportFunctions/arm_fill_q7.c ****   uint32_t blkCnt;                               /* loop counter */
  40              		.loc 1 54 3 is_stmt 1 view .LVU2
  55:DSP/Source/SupportFunctions/arm_fill_q7.c **** 
  56:DSP/Source/SupportFunctions/arm_fill_q7.c **** #if defined (ARM_MATH_DSP)
  57:DSP/Source/SupportFunctions/arm_fill_q7.c **** 
  58:DSP/Source/SupportFunctions/arm_fill_q7.c ****   /* Run the below code for Cortex-M4 and Cortex-M3 */
  59:DSP/Source/SupportFunctions/arm_fill_q7.c **** 
  60:DSP/Source/SupportFunctions/arm_fill_q7.c ****   q31_t packedValue;                             /* value packed to 32 bits */
  41              		.loc 1 60 3 view .LVU3
  61:DSP/Source/SupportFunctions/arm_fill_q7.c **** 
  62:DSP/Source/SupportFunctions/arm_fill_q7.c ****   /*loop Unrolling */
  63:DSP/Source/SupportFunctions/arm_fill_q7.c ****   blkCnt = blockSize >> 2U;
  42              		.loc 1 63 3 view .LVU4
  43              		.loc 1 63 10 is_stmt 0 view .LVU5
  44 0002 9308     		lsrs	r3, r2, #2
  45              	.LVL1:
  64:DSP/Source/SupportFunctions/arm_fill_q7.c **** 
  65:DSP/Source/SupportFunctions/arm_fill_q7.c ****   /* Packing four 8 bit values to 32 bit value in order to use SIMD */
  66:DSP/Source/SupportFunctions/arm_fill_q7.c ****   packedValue = __PACKq7(value, value, value, value);
  46              		.loc 1 66 3 is_stmt 1 view .LVU6
  47              		.loc 1 66 17 is_stmt 0 view .LVU7
  48 0004 C4B2     		uxtb	r4, r0
  49 0006 4FEA002C 		lsl	ip, r0, #8
ARM GAS  /var/folders/ck/g3dcd5x55xs4107jgdl0snvr0000gn/T//ccMjwaiP.s 			page 3


  50 000a 1FFA8CFC 		uxth	ip, ip
  51 000e 44EA0C04 		orr	r4, r4, ip
  52 0012 4FEA004C 		lsl	ip, r0, #16
  53 0016 0CF47F0C 		and	ip, ip, #16711680
  54 001a 44EA0C04 		orr	r4, r4, ip
  55              		.loc 1 66 15 view .LVU8
  56 001e 44EA0064 		orr	r4, r4, r0, lsl #24
  57              	.LVL2:
  67:DSP/Source/SupportFunctions/arm_fill_q7.c **** 
  68:DSP/Source/SupportFunctions/arm_fill_q7.c ****   /* First part of the processing with loop unrolling.  Compute 4 outputs at a time.
  69:DSP/Source/SupportFunctions/arm_fill_q7.c ****    ** a second loop below computes the remaining 1 to 3 samples. */
  70:DSP/Source/SupportFunctions/arm_fill_q7.c ****   while (blkCnt > 0U)
  58              		.loc 1 70 3 is_stmt 1 view .LVU9
  59              		.loc 1 70 9 is_stmt 0 view .LVU10
  60 0022 02E0     		b	.L2
  61              	.L3:
  71:DSP/Source/SupportFunctions/arm_fill_q7.c ****   {
  72:DSP/Source/SupportFunctions/arm_fill_q7.c ****     /* C = value */
  73:DSP/Source/SupportFunctions/arm_fill_q7.c ****     /* Fill the value in the destination buffer */
  74:DSP/Source/SupportFunctions/arm_fill_q7.c ****     *__SIMD32(pDst)++ = packedValue;
  62              		.loc 1 74 5 is_stmt 1 view .LVU11
  63              	.LVL3:
  64              		.loc 1 74 23 is_stmt 0 view .LVU12
  65 0024 41F8044B 		str	r4, [r1], #4
  66              	.LVL4:
  75:DSP/Source/SupportFunctions/arm_fill_q7.c **** 
  76:DSP/Source/SupportFunctions/arm_fill_q7.c ****     /* Decrement the loop counter */
  77:DSP/Source/SupportFunctions/arm_fill_q7.c ****     blkCnt--;
  67              		.loc 1 77 5 is_stmt 1 view .LVU13
  68              		.loc 1 77 11 is_stmt 0 view .LVU14
  69 0028 013B     		subs	r3, r3, #1
  70              	.LVL5:
  71              	.L2:
  70:DSP/Source/SupportFunctions/arm_fill_q7.c ****   {
  72              		.loc 1 70 17 is_stmt 1 view .LVU15
  73 002a 002B     		cmp	r3, #0
  74 002c FAD1     		bne	.L3
  78:DSP/Source/SupportFunctions/arm_fill_q7.c ****   }
  79:DSP/Source/SupportFunctions/arm_fill_q7.c **** 
  80:DSP/Source/SupportFunctions/arm_fill_q7.c ****   /* If the blockSize is not a multiple of 4, compute any remaining output samples here.
  81:DSP/Source/SupportFunctions/arm_fill_q7.c ****    ** No loop unrolling is used. */
  82:DSP/Source/SupportFunctions/arm_fill_q7.c ****   blkCnt = blockSize % 0x4U;
  75              		.loc 1 82 3 view .LVU16
  76              		.loc 1 82 10 is_stmt 0 view .LVU17
  77 002e 02F00302 		and	r2, r2, #3
  78              	.LVL6:
  83:DSP/Source/SupportFunctions/arm_fill_q7.c **** 
  84:DSP/Source/SupportFunctions/arm_fill_q7.c **** #else
  85:DSP/Source/SupportFunctions/arm_fill_q7.c **** 
  86:DSP/Source/SupportFunctions/arm_fill_q7.c ****   /* Run the below code for Cortex-M0 */
  87:DSP/Source/SupportFunctions/arm_fill_q7.c **** 
  88:DSP/Source/SupportFunctions/arm_fill_q7.c ****   /* Loop over blockSize number of values */
  89:DSP/Source/SupportFunctions/arm_fill_q7.c ****   blkCnt = blockSize;
  90:DSP/Source/SupportFunctions/arm_fill_q7.c **** 
  91:DSP/Source/SupportFunctions/arm_fill_q7.c **** #endif /* #if defined (ARM_MATH_DSP) */
  92:DSP/Source/SupportFunctions/arm_fill_q7.c **** 
  93:DSP/Source/SupportFunctions/arm_fill_q7.c ****   while (blkCnt > 0U)
ARM GAS  /var/folders/ck/g3dcd5x55xs4107jgdl0snvr0000gn/T//ccMjwaiP.s 			page 4


  79              		.loc 1 93 3 is_stmt 1 view .LVU18
  80              		.loc 1 93 9 is_stmt 0 view .LVU19
  81 0032 02E0     		b	.L4
  82              	.L5:
  94:DSP/Source/SupportFunctions/arm_fill_q7.c ****   {
  95:DSP/Source/SupportFunctions/arm_fill_q7.c ****     /* C = value */
  96:DSP/Source/SupportFunctions/arm_fill_q7.c ****     /* Fill the value in the destination buffer */
  97:DSP/Source/SupportFunctions/arm_fill_q7.c ****     *pDst++ = value;
  83              		.loc 1 97 5 is_stmt 1 view .LVU20
  84              	.LVL7:
  85              		.loc 1 97 13 is_stmt 0 view .LVU21
  86 0034 01F8010B 		strb	r0, [r1], #1
  87              	.LVL8:
  98:DSP/Source/SupportFunctions/arm_fill_q7.c **** 
  99:DSP/Source/SupportFunctions/arm_fill_q7.c ****     /* Decrement the loop counter */
 100:DSP/Source/SupportFunctions/arm_fill_q7.c ****     blkCnt--;
  88              		.loc 1 100 5 is_stmt 1 view .LVU22
  89              		.loc 1 100 11 is_stmt 0 view .LVU23
  90 0038 013A     		subs	r2, r2, #1
  91              	.LVL9:
  92              	.L4:
  93:DSP/Source/SupportFunctions/arm_fill_q7.c ****   {
  93              		.loc 1 93 17 is_stmt 1 view .LVU24
  94 003a 002A     		cmp	r2, #0
  95 003c FAD1     		bne	.L5
 101:DSP/Source/SupportFunctions/arm_fill_q7.c ****   }
 102:DSP/Source/SupportFunctions/arm_fill_q7.c **** }
  96              		.loc 1 102 1 is_stmt 0 view .LVU25
  97 003e 5DF8044B 		ldr	r4, [sp], #4
  98              	.LCFI1:
  99              		.cfi_restore 4
 100              		.cfi_def_cfa_offset 0
 101              	.LVL10:
 102              		.loc 1 102 1 view .LVU26
 103 0042 7047     		bx	lr
 104              		.cfi_endproc
 105              	.LFE139:
 107              		.text
 108              	.Letext0:
 109              		.file 2 "/Users/luban/.local/xPacks/arm-none-eabi-gcc/xpack-arm-none-eabi-gcc-13.2.1-1.1/arm-none-
 110              		.file 3 "/Users/luban/.local/xPacks/arm-none-eabi-gcc/xpack-arm-none-eabi-gcc-13.2.1-1.1/arm-none-
 111              		.file 4 "DSP/Inc/arm_math.h"
ARM GAS  /var/folders/ck/g3dcd5x55xs4107jgdl0snvr0000gn/T//ccMjwaiP.s 			page 5


DEFINED SYMBOLS
                            *ABS*:00000000 arm_fill_q7.c
/var/folders/ck/g3dcd5x55xs4107jgdl0snvr0000gn/T//ccMjwaiP.s:21     .text.arm_fill_q7:00000000 $t
/var/folders/ck/g3dcd5x55xs4107jgdl0snvr0000gn/T//ccMjwaiP.s:27     .text.arm_fill_q7:00000000 arm_fill_q7

NO UNDEFINED SYMBOLS
