ARM GAS  /var/folders/ck/g3dcd5x55xs4107jgdl0snvr0000gn/T//ccc9qdkE.s 			page 1


   1              		.cpu cortex-m4
   2              		.arch armv7e-m
   3              		.fpu fpv4-sp-d16
   4              		.eabi_attribute 27, 1
   5              		.eabi_attribute 28, 1
   6              		.eabi_attribute 20, 1
   7              		.eabi_attribute 21, 1
   8              		.eabi_attribute 23, 3
   9              		.eabi_attribute 24, 1
  10              		.eabi_attribute 25, 1
  11              		.eabi_attribute 26, 1
  12              		.eabi_attribute 30, 1
  13              		.eabi_attribute 34, 1
  14              		.eabi_attribute 18, 4
  15              		.file	"arm_fir_decimate_init_q31.c"
  16              		.text
  17              	.Ltext0:
  18              		.cfi_sections	.debug_frame
  19              		.file 1 "DSP/Source/FilteringFunctions/arm_fir_decimate_init_q31.c"
  20              		.section	.text.arm_fir_decimate_init_q31,"ax",%progbits
  21              		.align	1
  22              		.global	arm_fir_decimate_init_q31
  23              		.syntax unified
  24              		.thumb
  25              		.thumb_func
  27              	arm_fir_decimate_init_q31:
  28              	.LVL0:
  29              	.LFB139:
   1:DSP/Source/FilteringFunctions/arm_fir_decimate_init_q31.c **** /* ----------------------------------------------------------------------
   2:DSP/Source/FilteringFunctions/arm_fir_decimate_init_q31.c ****  * Project:      CMSIS DSP Library
   3:DSP/Source/FilteringFunctions/arm_fir_decimate_init_q31.c ****  * Title:        arm_fir_decimate_init_q31.c
   4:DSP/Source/FilteringFunctions/arm_fir_decimate_init_q31.c ****  * Description:  Initialization function for Q31 FIR Decimation filter
   5:DSP/Source/FilteringFunctions/arm_fir_decimate_init_q31.c ****  *
   6:DSP/Source/FilteringFunctions/arm_fir_decimate_init_q31.c ****  * $Date:        27. January 2017
   7:DSP/Source/FilteringFunctions/arm_fir_decimate_init_q31.c ****  * $Revision:    V.1.5.1
   8:DSP/Source/FilteringFunctions/arm_fir_decimate_init_q31.c ****  *
   9:DSP/Source/FilteringFunctions/arm_fir_decimate_init_q31.c ****  * Target Processor: Cortex-M cores
  10:DSP/Source/FilteringFunctions/arm_fir_decimate_init_q31.c ****  * -------------------------------------------------------------------- */
  11:DSP/Source/FilteringFunctions/arm_fir_decimate_init_q31.c **** /*
  12:DSP/Source/FilteringFunctions/arm_fir_decimate_init_q31.c ****  * Copyright (C) 2010-2017 ARM Limited or its affiliates. All rights reserved.
  13:DSP/Source/FilteringFunctions/arm_fir_decimate_init_q31.c ****  *
  14:DSP/Source/FilteringFunctions/arm_fir_decimate_init_q31.c ****  * SPDX-License-Identifier: Apache-2.0
  15:DSP/Source/FilteringFunctions/arm_fir_decimate_init_q31.c ****  *
  16:DSP/Source/FilteringFunctions/arm_fir_decimate_init_q31.c ****  * Licensed under the Apache License, Version 2.0 (the License); you may
  17:DSP/Source/FilteringFunctions/arm_fir_decimate_init_q31.c ****  * not use this file except in compliance with the License.
  18:DSP/Source/FilteringFunctions/arm_fir_decimate_init_q31.c ****  * You may obtain a copy of the License at
  19:DSP/Source/FilteringFunctions/arm_fir_decimate_init_q31.c ****  *
  20:DSP/Source/FilteringFunctions/arm_fir_decimate_init_q31.c ****  * www.apache.org/licenses/LICENSE-2.0
  21:DSP/Source/FilteringFunctions/arm_fir_decimate_init_q31.c ****  *
  22:DSP/Source/FilteringFunctions/arm_fir_decimate_init_q31.c ****  * Unless required by applicable law or agreed to in writing, software
  23:DSP/Source/FilteringFunctions/arm_fir_decimate_init_q31.c ****  * distributed under the License is distributed on an AS IS BASIS, WITHOUT
  24:DSP/Source/FilteringFunctions/arm_fir_decimate_init_q31.c ****  * WARRANTIES OR CONDITIONS OF ANY KIND, either express or implied.
  25:DSP/Source/FilteringFunctions/arm_fir_decimate_init_q31.c ****  * See the License for the specific language governing permissions and
  26:DSP/Source/FilteringFunctions/arm_fir_decimate_init_q31.c ****  * limitations under the License.
  27:DSP/Source/FilteringFunctions/arm_fir_decimate_init_q31.c ****  */
  28:DSP/Source/FilteringFunctions/arm_fir_decimate_init_q31.c **** 
  29:DSP/Source/FilteringFunctions/arm_fir_decimate_init_q31.c **** #include "arm_math.h"
ARM GAS  /var/folders/ck/g3dcd5x55xs4107jgdl0snvr0000gn/T//ccc9qdkE.s 			page 2


  30:DSP/Source/FilteringFunctions/arm_fir_decimate_init_q31.c **** 
  31:DSP/Source/FilteringFunctions/arm_fir_decimate_init_q31.c **** /**
  32:DSP/Source/FilteringFunctions/arm_fir_decimate_init_q31.c ****  * @ingroup groupFilters
  33:DSP/Source/FilteringFunctions/arm_fir_decimate_init_q31.c ****  */
  34:DSP/Source/FilteringFunctions/arm_fir_decimate_init_q31.c **** 
  35:DSP/Source/FilteringFunctions/arm_fir_decimate_init_q31.c **** /**
  36:DSP/Source/FilteringFunctions/arm_fir_decimate_init_q31.c ****  * @addtogroup FIR_decimate
  37:DSP/Source/FilteringFunctions/arm_fir_decimate_init_q31.c ****  * @{
  38:DSP/Source/FilteringFunctions/arm_fir_decimate_init_q31.c ****  */
  39:DSP/Source/FilteringFunctions/arm_fir_decimate_init_q31.c **** 
  40:DSP/Source/FilteringFunctions/arm_fir_decimate_init_q31.c **** /**
  41:DSP/Source/FilteringFunctions/arm_fir_decimate_init_q31.c ****  * @brief  Initialization function for the Q31 FIR decimator.
  42:DSP/Source/FilteringFunctions/arm_fir_decimate_init_q31.c ****  * @param[in,out] *S points to an instance of the Q31 FIR decimator structure.
  43:DSP/Source/FilteringFunctions/arm_fir_decimate_init_q31.c ****  * @param[in] numTaps  number of coefficients in the filter.
  44:DSP/Source/FilteringFunctions/arm_fir_decimate_init_q31.c ****  * @param[in] M  decimation factor.
  45:DSP/Source/FilteringFunctions/arm_fir_decimate_init_q31.c ****  * @param[in] *pCoeffs points to the filter coefficients.
  46:DSP/Source/FilteringFunctions/arm_fir_decimate_init_q31.c ****  * @param[in] *pState points to the state buffer.
  47:DSP/Source/FilteringFunctions/arm_fir_decimate_init_q31.c ****  * @param[in] blockSize number of input samples to process per call.
  48:DSP/Source/FilteringFunctions/arm_fir_decimate_init_q31.c ****  * @return    The function returns ARM_MATH_SUCCESS if initialization was successful or ARM_MATH_LE
  49:DSP/Source/FilteringFunctions/arm_fir_decimate_init_q31.c ****  * <code>blockSize</code> is not a multiple of <code>M</code>.
  50:DSP/Source/FilteringFunctions/arm_fir_decimate_init_q31.c ****  *
  51:DSP/Source/FilteringFunctions/arm_fir_decimate_init_q31.c ****  * <b>Description:</b>
  52:DSP/Source/FilteringFunctions/arm_fir_decimate_init_q31.c ****  * \par
  53:DSP/Source/FilteringFunctions/arm_fir_decimate_init_q31.c ****  * <code>pCoeffs</code> points to the array of filter coefficients stored in time reversed order:
  54:DSP/Source/FilteringFunctions/arm_fir_decimate_init_q31.c ****  * <pre>
  55:DSP/Source/FilteringFunctions/arm_fir_decimate_init_q31.c ****  *    {b[numTaps-1], b[numTaps-2], b[N-2], ..., b[1], b[0]}
  56:DSP/Source/FilteringFunctions/arm_fir_decimate_init_q31.c ****  * </pre>
  57:DSP/Source/FilteringFunctions/arm_fir_decimate_init_q31.c ****  * \par
  58:DSP/Source/FilteringFunctions/arm_fir_decimate_init_q31.c ****  * <code>pState</code> points to the array of state variables.
  59:DSP/Source/FilteringFunctions/arm_fir_decimate_init_q31.c ****  * <code>pState</code> is of length <code>numTaps+blockSize-1</code> words where <code>blockSize</c
  60:DSP/Source/FilteringFunctions/arm_fir_decimate_init_q31.c ****  * <code>M</code> is the decimation factor.
  61:DSP/Source/FilteringFunctions/arm_fir_decimate_init_q31.c ****  */
  62:DSP/Source/FilteringFunctions/arm_fir_decimate_init_q31.c **** 
  63:DSP/Source/FilteringFunctions/arm_fir_decimate_init_q31.c **** arm_status arm_fir_decimate_init_q31(
  64:DSP/Source/FilteringFunctions/arm_fir_decimate_init_q31.c ****   arm_fir_decimate_instance_q31 * S,
  65:DSP/Source/FilteringFunctions/arm_fir_decimate_init_q31.c ****   uint16_t numTaps,
  66:DSP/Source/FilteringFunctions/arm_fir_decimate_init_q31.c ****   uint8_t M,
  67:DSP/Source/FilteringFunctions/arm_fir_decimate_init_q31.c ****   q31_t * pCoeffs,
  68:DSP/Source/FilteringFunctions/arm_fir_decimate_init_q31.c ****   q31_t * pState,
  69:DSP/Source/FilteringFunctions/arm_fir_decimate_init_q31.c ****   uint32_t blockSize)
  70:DSP/Source/FilteringFunctions/arm_fir_decimate_init_q31.c **** {
  30              		.loc 1 70 1 view -0
  31              		.cfi_startproc
  32              		@ args = 8, pretend = 0, frame = 0
  33              		@ frame_needed = 0, uses_anonymous_args = 0
  34              		.loc 1 70 1 is_stmt 0 view .LVU1
  35 0000 70B5     		push	{r4, r5, r6, lr}
  36              	.LCFI0:
  37              		.cfi_def_cfa_offset 16
  38              		.cfi_offset 4, -16
  39              		.cfi_offset 5, -12
  40              		.cfi_offset 6, -8
  41              		.cfi_offset 14, -4
  42 0002 0446     		mov	r4, r0
  43 0004 1546     		mov	r5, r2
  44 0006 049E     		ldr	r6, [sp, #16]
  45 0008 0598     		ldr	r0, [sp, #20]
ARM GAS  /var/folders/ck/g3dcd5x55xs4107jgdl0snvr0000gn/T//ccc9qdkE.s 			page 3


  46              	.LVL1:
  71:DSP/Source/FilteringFunctions/arm_fir_decimate_init_q31.c ****   arm_status status;
  47              		.loc 1 71 3 is_stmt 1 view .LVU2
  72:DSP/Source/FilteringFunctions/arm_fir_decimate_init_q31.c **** 
  73:DSP/Source/FilteringFunctions/arm_fir_decimate_init_q31.c ****   /* The size of the input block must be a multiple of the decimation factor */
  74:DSP/Source/FilteringFunctions/arm_fir_decimate_init_q31.c ****   if ((blockSize % M) != 0U)
  48              		.loc 1 74 3 view .LVU3
  49              		.loc 1 74 18 is_stmt 0 view .LVU4
  50 000a B0FBF2F2 		udiv	r2, r0, r2
  51              	.LVL2:
  52              		.loc 1 74 18 view .LVU5
  53 000e 05FB1202 		mls	r2, r5, r2, r0
  54              		.loc 1 74 6 view .LVU6
  55 0012 62B9     		cbnz	r2, .L3
  75:DSP/Source/FilteringFunctions/arm_fir_decimate_init_q31.c ****   {
  76:DSP/Source/FilteringFunctions/arm_fir_decimate_init_q31.c ****     /* Set status as ARM_MATH_LENGTH_ERROR */
  77:DSP/Source/FilteringFunctions/arm_fir_decimate_init_q31.c ****     status = ARM_MATH_LENGTH_ERROR;
  78:DSP/Source/FilteringFunctions/arm_fir_decimate_init_q31.c ****   }
  79:DSP/Source/FilteringFunctions/arm_fir_decimate_init_q31.c ****   else
  80:DSP/Source/FilteringFunctions/arm_fir_decimate_init_q31.c ****   {
  81:DSP/Source/FilteringFunctions/arm_fir_decimate_init_q31.c ****     /* Assign filter taps */
  82:DSP/Source/FilteringFunctions/arm_fir_decimate_init_q31.c ****     S->numTaps = numTaps;
  56              		.loc 1 82 5 is_stmt 1 view .LVU7
  57              		.loc 1 82 16 is_stmt 0 view .LVU8
  58 0014 6180     		strh	r1, [r4, #2]	@ movhi
  83:DSP/Source/FilteringFunctions/arm_fir_decimate_init_q31.c **** 
  84:DSP/Source/FilteringFunctions/arm_fir_decimate_init_q31.c ****     /* Assign coefficient pointer */
  85:DSP/Source/FilteringFunctions/arm_fir_decimate_init_q31.c ****     S->pCoeffs = pCoeffs;
  59              		.loc 1 85 5 is_stmt 1 view .LVU9
  60              		.loc 1 85 16 is_stmt 0 view .LVU10
  61 0016 6360     		str	r3, [r4, #4]
  86:DSP/Source/FilteringFunctions/arm_fir_decimate_init_q31.c **** 
  87:DSP/Source/FilteringFunctions/arm_fir_decimate_init_q31.c ****     /* Clear the state buffer.  The size is always (blockSize + numTaps - 1) */
  88:DSP/Source/FilteringFunctions/arm_fir_decimate_init_q31.c ****     memset(pState, 0, (numTaps + (blockSize - 1)) * sizeof(q31_t));
  62              		.loc 1 88 5 is_stmt 1 view .LVU11
  63              		.loc 1 88 32 is_stmt 0 view .LVU12
  64 0018 0144     		add	r1, r1, r0
  65              	.LVL3:
  66              		.loc 1 88 32 view .LVU13
  67 001a 0139     		subs	r1, r1, #1
  68              		.loc 1 88 5 view .LVU14
  69 001c 8A00     		lsls	r2, r1, #2
  70 001e 0021     		movs	r1, #0
  71 0020 3046     		mov	r0, r6
  72 0022 FFF7FEFF 		bl	memset
  73              	.LVL4:
  89:DSP/Source/FilteringFunctions/arm_fir_decimate_init_q31.c **** 
  90:DSP/Source/FilteringFunctions/arm_fir_decimate_init_q31.c ****     /* Assign state pointer */
  91:DSP/Source/FilteringFunctions/arm_fir_decimate_init_q31.c ****     S->pState = pState;
  74              		.loc 1 91 5 is_stmt 1 view .LVU15
  75              		.loc 1 91 15 is_stmt 0 view .LVU16
  76 0026 A660     		str	r6, [r4, #8]
  92:DSP/Source/FilteringFunctions/arm_fir_decimate_init_q31.c **** 
  93:DSP/Source/FilteringFunctions/arm_fir_decimate_init_q31.c ****     /* Assign Decimation factor */
  94:DSP/Source/FilteringFunctions/arm_fir_decimate_init_q31.c ****     S->M = M;
  77              		.loc 1 94 5 is_stmt 1 view .LVU17
  78              		.loc 1 94 10 is_stmt 0 view .LVU18
ARM GAS  /var/folders/ck/g3dcd5x55xs4107jgdl0snvr0000gn/T//ccc9qdkE.s 			page 4


  79 0028 2570     		strb	r5, [r4]
  95:DSP/Source/FilteringFunctions/arm_fir_decimate_init_q31.c **** 
  96:DSP/Source/FilteringFunctions/arm_fir_decimate_init_q31.c ****     status = ARM_MATH_SUCCESS;
  80              		.loc 1 96 5 is_stmt 1 view .LVU19
  81              	.LVL5:
  82              		.loc 1 96 12 is_stmt 0 view .LVU20
  83 002a 0020     		movs	r0, #0
  84              	.LVL6:
  85              	.L2:
  97:DSP/Source/FilteringFunctions/arm_fir_decimate_init_q31.c ****   }
  98:DSP/Source/FilteringFunctions/arm_fir_decimate_init_q31.c **** 
  99:DSP/Source/FilteringFunctions/arm_fir_decimate_init_q31.c ****   return (status);
  86              		.loc 1 99 3 is_stmt 1 view .LVU21
 100:DSP/Source/FilteringFunctions/arm_fir_decimate_init_q31.c **** 
 101:DSP/Source/FilteringFunctions/arm_fir_decimate_init_q31.c **** }
  87              		.loc 1 101 1 is_stmt 0 view .LVU22
  88 002c 70BD     		pop	{r4, r5, r6, pc}
  89              	.LVL7:
  90              	.L3:
  77:DSP/Source/FilteringFunctions/arm_fir_decimate_init_q31.c ****   }
  91              		.loc 1 77 12 view .LVU23
  92 002e 6FF00100 		mvn	r0, #1
  93 0032 FBE7     		b	.L2
  94              		.cfi_endproc
  95              	.LFE139:
  97              		.text
  98              	.Letext0:
  99              		.file 2 "/Users/luban/.local/xPacks/arm-none-eabi-gcc/xpack-arm-none-eabi-gcc-13.2.1-1.1/arm-none-
 100              		.file 3 "/Users/luban/.local/xPacks/arm-none-eabi-gcc/xpack-arm-none-eabi-gcc-13.2.1-1.1/arm-none-
 101              		.file 4 "/Users/luban/.local/xPacks/arm-none-eabi-gcc/xpack-arm-none-eabi-gcc-13.2.1-1.1/lib/gcc/a
 102              		.file 5 "DSP/Inc/arm_math.h"
 103              		.file 6 "/Users/luban/.local/xPacks/arm-none-eabi-gcc/xpack-arm-none-eabi-gcc-13.2.1-1.1/arm-none-
 104              		.file 7 "<built-in>"
ARM GAS  /var/folders/ck/g3dcd5x55xs4107jgdl0snvr0000gn/T//ccc9qdkE.s 			page 5

