ARM GAS  /var/folders/ck/g3dcd5x55xs4107jgdl0snvr0000gn/T//ccg04qww.s 			page 1


   1              		.cpu cortex-m4
   2              		.arch armv7e-m
   3              		.fpu fpv4-sp-d16
   4              		.eabi_attribute 27, 1
   5              		.eabi_attribute 28, 1
   6              		.eabi_attribute 20, 1
   7              		.eabi_attribute 21, 1
   8              		.eabi_attribute 23, 3
   9              		.eabi_attribute 24, 1
  10              		.eabi_attribute 25, 1
  11              		.eabi_attribute 26, 1
  12              		.eabi_attribute 30, 1
  13              		.eabi_attribute 34, 1
  14              		.eabi_attribute 18, 4
  15              		.file	"arm_cfft_radix2_init_q15.c"
  16              		.text
  17              	.Ltext0:
  18              		.cfi_sections	.debug_frame
  19              		.file 1 "DSP/Source/TransformFunctions/arm_cfft_radix2_init_q15.c"
  20              		.section	.text.arm_cfft_radix2_init_q15,"ax",%progbits
  21              		.align	1
  22              		.global	arm_cfft_radix2_init_q15
  23              		.syntax unified
  24              		.thumb
  25              		.thumb_func
  27              	arm_cfft_radix2_init_q15:
  28              	.LVL0:
  29              	.LFB139:
   1:DSP/Source/TransformFunctions/arm_cfft_radix2_init_q15.c **** /* ----------------------------------------------------------------------
   2:DSP/Source/TransformFunctions/arm_cfft_radix2_init_q15.c ****  * Project:      CMSIS DSP Library
   3:DSP/Source/TransformFunctions/arm_cfft_radix2_init_q15.c ****  * Title:        arm_cfft_radix2_init_q15.c
   4:DSP/Source/TransformFunctions/arm_cfft_radix2_init_q15.c ****  * Description:  Radix-2 Decimation in Frequency Q15 FFT & IFFT initialization function
   5:DSP/Source/TransformFunctions/arm_cfft_radix2_init_q15.c ****  *
   6:DSP/Source/TransformFunctions/arm_cfft_radix2_init_q15.c ****  * $Date:        27. January 2017
   7:DSP/Source/TransformFunctions/arm_cfft_radix2_init_q15.c ****  * $Revision:    V.1.5.1
   8:DSP/Source/TransformFunctions/arm_cfft_radix2_init_q15.c ****  *
   9:DSP/Source/TransformFunctions/arm_cfft_radix2_init_q15.c ****  * Target Processor: Cortex-M cores
  10:DSP/Source/TransformFunctions/arm_cfft_radix2_init_q15.c ****  * -------------------------------------------------------------------- */
  11:DSP/Source/TransformFunctions/arm_cfft_radix2_init_q15.c **** /*
  12:DSP/Source/TransformFunctions/arm_cfft_radix2_init_q15.c ****  * Copyright (C) 2010-2017 ARM Limited or its affiliates. All rights reserved.
  13:DSP/Source/TransformFunctions/arm_cfft_radix2_init_q15.c ****  *
  14:DSP/Source/TransformFunctions/arm_cfft_radix2_init_q15.c ****  * SPDX-License-Identifier: Apache-2.0
  15:DSP/Source/TransformFunctions/arm_cfft_radix2_init_q15.c ****  *
  16:DSP/Source/TransformFunctions/arm_cfft_radix2_init_q15.c ****  * Licensed under the Apache License, Version 2.0 (the License); you may
  17:DSP/Source/TransformFunctions/arm_cfft_radix2_init_q15.c ****  * not use this file except in compliance with the License.
  18:DSP/Source/TransformFunctions/arm_cfft_radix2_init_q15.c ****  * You may obtain a copy of the License at
  19:DSP/Source/TransformFunctions/arm_cfft_radix2_init_q15.c ****  *
  20:DSP/Source/TransformFunctions/arm_cfft_radix2_init_q15.c ****  * www.apache.org/licenses/LICENSE-2.0
  21:DSP/Source/TransformFunctions/arm_cfft_radix2_init_q15.c ****  *
  22:DSP/Source/TransformFunctions/arm_cfft_radix2_init_q15.c ****  * Unless required by applicable law or agreed to in writing, software
  23:DSP/Source/TransformFunctions/arm_cfft_radix2_init_q15.c ****  * distributed under the License is distributed on an AS IS BASIS, WITHOUT
  24:DSP/Source/TransformFunctions/arm_cfft_radix2_init_q15.c ****  * WARRANTIES OR CONDITIONS OF ANY KIND, either express or implied.
  25:DSP/Source/TransformFunctions/arm_cfft_radix2_init_q15.c ****  * See the License for the specific language governing permissions and
  26:DSP/Source/TransformFunctions/arm_cfft_radix2_init_q15.c ****  * limitations under the License.
  27:DSP/Source/TransformFunctions/arm_cfft_radix2_init_q15.c ****  */
  28:DSP/Source/TransformFunctions/arm_cfft_radix2_init_q15.c **** 
  29:DSP/Source/TransformFunctions/arm_cfft_radix2_init_q15.c **** #include "arm_math.h"
ARM GAS  /var/folders/ck/g3dcd5x55xs4107jgdl0snvr0000gn/T//ccg04qww.s 			page 2


  30:DSP/Source/TransformFunctions/arm_cfft_radix2_init_q15.c **** #include "arm_common_tables.h"
  31:DSP/Source/TransformFunctions/arm_cfft_radix2_init_q15.c **** 
  32:DSP/Source/TransformFunctions/arm_cfft_radix2_init_q15.c **** /**
  33:DSP/Source/TransformFunctions/arm_cfft_radix2_init_q15.c ****  * @ingroup groupTransforms
  34:DSP/Source/TransformFunctions/arm_cfft_radix2_init_q15.c ****  */
  35:DSP/Source/TransformFunctions/arm_cfft_radix2_init_q15.c **** 
  36:DSP/Source/TransformFunctions/arm_cfft_radix2_init_q15.c **** 
  37:DSP/Source/TransformFunctions/arm_cfft_radix2_init_q15.c **** /**
  38:DSP/Source/TransformFunctions/arm_cfft_radix2_init_q15.c ****  * @addtogroup ComplexFFT
  39:DSP/Source/TransformFunctions/arm_cfft_radix2_init_q15.c ****  * @{
  40:DSP/Source/TransformFunctions/arm_cfft_radix2_init_q15.c ****  */
  41:DSP/Source/TransformFunctions/arm_cfft_radix2_init_q15.c **** 
  42:DSP/Source/TransformFunctions/arm_cfft_radix2_init_q15.c **** /**
  43:DSP/Source/TransformFunctions/arm_cfft_radix2_init_q15.c **** * @brief Initialization function for the Q15 CFFT/CIFFT.
  44:DSP/Source/TransformFunctions/arm_cfft_radix2_init_q15.c **** * @deprecated Do not use this function.  It has been superseded by \ref arm_cfft_q15 and will be re
  45:DSP/Source/TransformFunctions/arm_cfft_radix2_init_q15.c **** * @param[in,out] *S             points to an instance of the Q15 CFFT/CIFFT structure.
  46:DSP/Source/TransformFunctions/arm_cfft_radix2_init_q15.c **** * @param[in]     fftLen         length of the FFT.
  47:DSP/Source/TransformFunctions/arm_cfft_radix2_init_q15.c **** * @param[in]     ifftFlag       flag that selects forward (ifftFlag=0) or inverse (ifftFlag=1) tran
  48:DSP/Source/TransformFunctions/arm_cfft_radix2_init_q15.c **** * @param[in]     bitReverseFlag flag that enables (bitReverseFlag=1) or disables (bitReverseFlag=0)
  49:DSP/Source/TransformFunctions/arm_cfft_radix2_init_q15.c **** * @return        The function returns ARM_MATH_SUCCESS if initialization is successful or ARM_MATH_
  50:DSP/Source/TransformFunctions/arm_cfft_radix2_init_q15.c **** *
  51:DSP/Source/TransformFunctions/arm_cfft_radix2_init_q15.c **** * \par Description:
  52:DSP/Source/TransformFunctions/arm_cfft_radix2_init_q15.c **** * \par
  53:DSP/Source/TransformFunctions/arm_cfft_radix2_init_q15.c **** * The parameter <code>ifftFlag</code> controls whether a forward or inverse transform is computed.
  54:DSP/Source/TransformFunctions/arm_cfft_radix2_init_q15.c **** * Set(=1) ifftFlag for calculation of CIFFT otherwise  CFFT is calculated
  55:DSP/Source/TransformFunctions/arm_cfft_radix2_init_q15.c **** * \par
  56:DSP/Source/TransformFunctions/arm_cfft_radix2_init_q15.c **** * The parameter <code>bitReverseFlag</code> controls whether output is in normal order or bit rever
  57:DSP/Source/TransformFunctions/arm_cfft_radix2_init_q15.c **** * Set(=1) bitReverseFlag for output to be in normal order otherwise output is in bit reversed order
  58:DSP/Source/TransformFunctions/arm_cfft_radix2_init_q15.c **** * \par
  59:DSP/Source/TransformFunctions/arm_cfft_radix2_init_q15.c **** * The parameter <code>fftLen</code>	Specifies length of CFFT/CIFFT process. Supported FFT Lengths a
  60:DSP/Source/TransformFunctions/arm_cfft_radix2_init_q15.c **** * \par
  61:DSP/Source/TransformFunctions/arm_cfft_radix2_init_q15.c **** * This Function also initializes Twiddle factor table pointer and Bit reversal table pointer.
  62:DSP/Source/TransformFunctions/arm_cfft_radix2_init_q15.c **** */
  63:DSP/Source/TransformFunctions/arm_cfft_radix2_init_q15.c **** 
  64:DSP/Source/TransformFunctions/arm_cfft_radix2_init_q15.c **** arm_status arm_cfft_radix2_init_q15(
  65:DSP/Source/TransformFunctions/arm_cfft_radix2_init_q15.c ****   arm_cfft_radix2_instance_q15 * S,
  66:DSP/Source/TransformFunctions/arm_cfft_radix2_init_q15.c ****   uint16_t fftLen,
  67:DSP/Source/TransformFunctions/arm_cfft_radix2_init_q15.c ****   uint8_t ifftFlag,
  68:DSP/Source/TransformFunctions/arm_cfft_radix2_init_q15.c ****   uint8_t bitReverseFlag)
  69:DSP/Source/TransformFunctions/arm_cfft_radix2_init_q15.c **** {
  30              		.loc 1 69 1 view -0
  31              		.cfi_startproc
  32              		@ args = 0, pretend = 0, frame = 0
  33              		@ frame_needed = 0, uses_anonymous_args = 0
  34              		@ link register save eliminated.
  35              		.loc 1 69 1 is_stmt 0 view .LVU1
  36 0000 10B4     		push	{r4}
  37              	.LCFI0:
  38              		.cfi_def_cfa_offset 4
  39              		.cfi_offset 4, -4
  70:DSP/Source/TransformFunctions/arm_cfft_radix2_init_q15.c ****   /*  Initialise the default arm status */
  71:DSP/Source/TransformFunctions/arm_cfft_radix2_init_q15.c ****   arm_status status = ARM_MATH_SUCCESS;
  40              		.loc 1 71 3 is_stmt 1 view .LVU2
  41              	.LVL1:
  72:DSP/Source/TransformFunctions/arm_cfft_radix2_init_q15.c **** 
  73:DSP/Source/TransformFunctions/arm_cfft_radix2_init_q15.c ****   /*  Initialise the FFT length */
  74:DSP/Source/TransformFunctions/arm_cfft_radix2_init_q15.c ****   S->fftLen = fftLen;
ARM GAS  /var/folders/ck/g3dcd5x55xs4107jgdl0snvr0000gn/T//ccg04qww.s 			page 3


  42              		.loc 1 74 3 view .LVU3
  43              		.loc 1 74 13 is_stmt 0 view .LVU4
  44 0002 0180     		strh	r1, [r0]	@ movhi
  75:DSP/Source/TransformFunctions/arm_cfft_radix2_init_q15.c **** 
  76:DSP/Source/TransformFunctions/arm_cfft_radix2_init_q15.c ****   /*  Initialise the Twiddle coefficient pointer */
  77:DSP/Source/TransformFunctions/arm_cfft_radix2_init_q15.c ****   S->pTwiddle = (q15_t *) twiddleCoef_4096_q15;
  45              		.loc 1 77 3 is_stmt 1 view .LVU5
  46              		.loc 1 77 15 is_stmt 0 view .LVU6
  47 0004 354C     		ldr	r4, .L20
  48 0006 4460     		str	r4, [r0, #4]
  78:DSP/Source/TransformFunctions/arm_cfft_radix2_init_q15.c ****   /*  Initialise the Flag for selection of CFFT or CIFFT */
  79:DSP/Source/TransformFunctions/arm_cfft_radix2_init_q15.c ****   S->ifftFlag = ifftFlag;
  49              		.loc 1 79 3 is_stmt 1 view .LVU7
  50              		.loc 1 79 15 is_stmt 0 view .LVU8
  51 0008 8270     		strb	r2, [r0, #2]
  80:DSP/Source/TransformFunctions/arm_cfft_radix2_init_q15.c ****   /*  Initialise the Flag for calculation Bit reversal or not */
  81:DSP/Source/TransformFunctions/arm_cfft_radix2_init_q15.c ****   S->bitReverseFlag = bitReverseFlag;
  52              		.loc 1 81 3 is_stmt 1 view .LVU9
  53              		.loc 1 81 21 is_stmt 0 view .LVU10
  54 000a C370     		strb	r3, [r0, #3]
  82:DSP/Source/TransformFunctions/arm_cfft_radix2_init_q15.c **** 
  83:DSP/Source/TransformFunctions/arm_cfft_radix2_init_q15.c ****   /*  Initializations of structure parameters depending on the FFT length */
  84:DSP/Source/TransformFunctions/arm_cfft_radix2_init_q15.c ****   switch (S->fftLen)
  55              		.loc 1 84 3 is_stmt 1 view .LVU11
  56 000c B1F5807F 		cmp	r1, #256
  57 0010 4BD0     		beq	.L2
  58 0012 10D9     		bls	.L16
  59 0014 B1F5006F 		cmp	r1, #2048
  60 0018 39D0     		beq	.L10
  61 001a 2CD8     		bhi	.L11
  62 001c B1F5007F 		cmp	r1, #512
  63 0020 3CD0     		beq	.L12
  64 0022 B1F5806F 		cmp	r1, #1024
  65 0026 23D1     		bne	.L17
  85:DSP/Source/TransformFunctions/arm_cfft_radix2_init_q15.c ****   {
  86:DSP/Source/TransformFunctions/arm_cfft_radix2_init_q15.c ****   case 4096U:
  87:DSP/Source/TransformFunctions/arm_cfft_radix2_init_q15.c ****     /*  Initializations of structure parameters for 4096 point FFT */
  88:DSP/Source/TransformFunctions/arm_cfft_radix2_init_q15.c **** 
  89:DSP/Source/TransformFunctions/arm_cfft_radix2_init_q15.c ****     /*  Initialise the twiddle coef modifier value */
  90:DSP/Source/TransformFunctions/arm_cfft_radix2_init_q15.c ****     S->twidCoefModifier = 1U;
  91:DSP/Source/TransformFunctions/arm_cfft_radix2_init_q15.c ****     /*  Initialise the bit reversal table modifier */
  92:DSP/Source/TransformFunctions/arm_cfft_radix2_init_q15.c ****     S->bitRevFactor = 1U;
  93:DSP/Source/TransformFunctions/arm_cfft_radix2_init_q15.c ****     /*  Initialise the bit reversal table pointer */
  94:DSP/Source/TransformFunctions/arm_cfft_radix2_init_q15.c ****     S->pBitRevTable = (uint16_t *) armBitRevTable;
  95:DSP/Source/TransformFunctions/arm_cfft_radix2_init_q15.c **** 
  96:DSP/Source/TransformFunctions/arm_cfft_radix2_init_q15.c ****     break;
  97:DSP/Source/TransformFunctions/arm_cfft_radix2_init_q15.c **** 
  98:DSP/Source/TransformFunctions/arm_cfft_radix2_init_q15.c ****   case 2048U:
  99:DSP/Source/TransformFunctions/arm_cfft_radix2_init_q15.c ****     /*  Initializations of structure parameters for 2048 point FFT */
 100:DSP/Source/TransformFunctions/arm_cfft_radix2_init_q15.c **** 
 101:DSP/Source/TransformFunctions/arm_cfft_radix2_init_q15.c ****     /*  Initialise the twiddle coef modifier value */
 102:DSP/Source/TransformFunctions/arm_cfft_radix2_init_q15.c ****     S->twidCoefModifier = 2U;
 103:DSP/Source/TransformFunctions/arm_cfft_radix2_init_q15.c ****     /*  Initialise the bit reversal table modifier */
 104:DSP/Source/TransformFunctions/arm_cfft_radix2_init_q15.c ****     S->bitRevFactor = 2U;
 105:DSP/Source/TransformFunctions/arm_cfft_radix2_init_q15.c ****     /*  Initialise the bit reversal table pointer */
 106:DSP/Source/TransformFunctions/arm_cfft_radix2_init_q15.c ****     S->pBitRevTable = (uint16_t *) & armBitRevTable[1];
 107:DSP/Source/TransformFunctions/arm_cfft_radix2_init_q15.c **** 
ARM GAS  /var/folders/ck/g3dcd5x55xs4107jgdl0snvr0000gn/T//ccg04qww.s 			page 4


 108:DSP/Source/TransformFunctions/arm_cfft_radix2_init_q15.c ****     break;
 109:DSP/Source/TransformFunctions/arm_cfft_radix2_init_q15.c **** 
 110:DSP/Source/TransformFunctions/arm_cfft_radix2_init_q15.c ****   case 1024U:
 111:DSP/Source/TransformFunctions/arm_cfft_radix2_init_q15.c ****     /*  Initializations of structure parameters for 1024 point FFT */
 112:DSP/Source/TransformFunctions/arm_cfft_radix2_init_q15.c ****     S->twidCoefModifier = 4U;
  66              		.loc 1 112 5 view .LVU12
  67              		.loc 1 112 25 is_stmt 0 view .LVU13
  68 0028 0423     		movs	r3, #4
  69              	.LVL2:
  70              		.loc 1 112 25 view .LVU14
  71 002a 8381     		strh	r3, [r0, #12]	@ movhi
 113:DSP/Source/TransformFunctions/arm_cfft_radix2_init_q15.c ****     S->bitRevFactor = 4U;
  72              		.loc 1 113 5 is_stmt 1 view .LVU15
  73              		.loc 1 113 21 is_stmt 0 view .LVU16
  74 002c C381     		strh	r3, [r0, #14]	@ movhi
 114:DSP/Source/TransformFunctions/arm_cfft_radix2_init_q15.c ****     S->pBitRevTable = (uint16_t *) & armBitRevTable[3];
  75              		.loc 1 114 5 is_stmt 1 view .LVU17
  76              		.loc 1 114 21 is_stmt 0 view .LVU18
  77 002e 2C4B     		ldr	r3, .L20+4
  78 0030 8360     		str	r3, [r0, #8]
 115:DSP/Source/TransformFunctions/arm_cfft_radix2_init_q15.c **** 
 116:DSP/Source/TransformFunctions/arm_cfft_radix2_init_q15.c ****     break;
  79              		.loc 1 116 5 is_stmt 1 view .LVU19
  71:DSP/Source/TransformFunctions/arm_cfft_radix2_init_q15.c **** 
  80              		.loc 1 71 14 is_stmt 0 view .LVU20
  81 0032 0020     		movs	r0, #0
  82              	.LVL3:
  83              		.loc 1 116 5 view .LVU21
  84 0034 28E0     		b	.L8
  85              	.LVL4:
  86              	.L16:
  84:DSP/Source/TransformFunctions/arm_cfft_radix2_init_q15.c ****   {
  87              		.loc 1 84 3 view .LVU22
  88 0036 4029     		cmp	r1, #64
  89 0038 3ED0     		beq	.L4
  90 003a 0DD8     		bhi	.L5
  91 003c 1029     		cmp	r1, #16
  92 003e 42D0     		beq	.L6
  93 0040 2029     		cmp	r1, #32
  94 0042 06D1     		bne	.L18
 117:DSP/Source/TransformFunctions/arm_cfft_radix2_init_q15.c **** 
 118:DSP/Source/TransformFunctions/arm_cfft_radix2_init_q15.c ****   case 512U:
 119:DSP/Source/TransformFunctions/arm_cfft_radix2_init_q15.c ****     /*  Initializations of structure parameters for 512 point FFT */
 120:DSP/Source/TransformFunctions/arm_cfft_radix2_init_q15.c ****     S->twidCoefModifier = 8U;
 121:DSP/Source/TransformFunctions/arm_cfft_radix2_init_q15.c ****     S->bitRevFactor = 8U;
 122:DSP/Source/TransformFunctions/arm_cfft_radix2_init_q15.c ****     S->pBitRevTable = (uint16_t *) & armBitRevTable[7];
 123:DSP/Source/TransformFunctions/arm_cfft_radix2_init_q15.c **** 
 124:DSP/Source/TransformFunctions/arm_cfft_radix2_init_q15.c ****     break;
 125:DSP/Source/TransformFunctions/arm_cfft_radix2_init_q15.c **** 
 126:DSP/Source/TransformFunctions/arm_cfft_radix2_init_q15.c ****   case 256U:
 127:DSP/Source/TransformFunctions/arm_cfft_radix2_init_q15.c ****     /*  Initializations of structure parameters for 256 point FFT */
 128:DSP/Source/TransformFunctions/arm_cfft_radix2_init_q15.c ****     S->twidCoefModifier = 16U;
 129:DSP/Source/TransformFunctions/arm_cfft_radix2_init_q15.c ****     S->bitRevFactor = 16U;
 130:DSP/Source/TransformFunctions/arm_cfft_radix2_init_q15.c ****     S->pBitRevTable = (uint16_t *) & armBitRevTable[15];
 131:DSP/Source/TransformFunctions/arm_cfft_radix2_init_q15.c **** 
 132:DSP/Source/TransformFunctions/arm_cfft_radix2_init_q15.c ****     break;
 133:DSP/Source/TransformFunctions/arm_cfft_radix2_init_q15.c **** 
ARM GAS  /var/folders/ck/g3dcd5x55xs4107jgdl0snvr0000gn/T//ccg04qww.s 			page 5


 134:DSP/Source/TransformFunctions/arm_cfft_radix2_init_q15.c ****   case 128U:
 135:DSP/Source/TransformFunctions/arm_cfft_radix2_init_q15.c ****     /*  Initializations of structure parameters for 128 point FFT */
 136:DSP/Source/TransformFunctions/arm_cfft_radix2_init_q15.c ****     S->twidCoefModifier = 32U;
 137:DSP/Source/TransformFunctions/arm_cfft_radix2_init_q15.c ****     S->bitRevFactor = 32U;
 138:DSP/Source/TransformFunctions/arm_cfft_radix2_init_q15.c ****     S->pBitRevTable = (uint16_t *) & armBitRevTable[31];
 139:DSP/Source/TransformFunctions/arm_cfft_radix2_init_q15.c **** 
 140:DSP/Source/TransformFunctions/arm_cfft_radix2_init_q15.c ****     break;
 141:DSP/Source/TransformFunctions/arm_cfft_radix2_init_q15.c **** 
 142:DSP/Source/TransformFunctions/arm_cfft_radix2_init_q15.c ****   case 64U:
 143:DSP/Source/TransformFunctions/arm_cfft_radix2_init_q15.c ****     /*  Initializations of structure parameters for 64 point FFT */
 144:DSP/Source/TransformFunctions/arm_cfft_radix2_init_q15.c ****     S->twidCoefModifier = 64U;
 145:DSP/Source/TransformFunctions/arm_cfft_radix2_init_q15.c ****     S->bitRevFactor = 64U;
 146:DSP/Source/TransformFunctions/arm_cfft_radix2_init_q15.c ****     S->pBitRevTable = (uint16_t *) & armBitRevTable[63];
 147:DSP/Source/TransformFunctions/arm_cfft_radix2_init_q15.c **** 
 148:DSP/Source/TransformFunctions/arm_cfft_radix2_init_q15.c ****     break;
 149:DSP/Source/TransformFunctions/arm_cfft_radix2_init_q15.c **** 
 150:DSP/Source/TransformFunctions/arm_cfft_radix2_init_q15.c ****   case 32U:
 151:DSP/Source/TransformFunctions/arm_cfft_radix2_init_q15.c ****     /*  Initializations of structure parameters for 32 point FFT */
 152:DSP/Source/TransformFunctions/arm_cfft_radix2_init_q15.c ****     S->twidCoefModifier = 128U;
  95              		.loc 1 152 5 is_stmt 1 view .LVU23
  96              		.loc 1 152 25 is_stmt 0 view .LVU24
  97 0044 8023     		movs	r3, #128
  98              	.LVL5:
  99              		.loc 1 152 25 view .LVU25
 100 0046 8381     		strh	r3, [r0, #12]	@ movhi
 153:DSP/Source/TransformFunctions/arm_cfft_radix2_init_q15.c ****     S->bitRevFactor = 128U;
 101              		.loc 1 153 5 is_stmt 1 view .LVU26
 102              		.loc 1 153 21 is_stmt 0 view .LVU27
 103 0048 C381     		strh	r3, [r0, #14]	@ movhi
 154:DSP/Source/TransformFunctions/arm_cfft_radix2_init_q15.c ****     S->pBitRevTable = (uint16_t *) & armBitRevTable[127];
 104              		.loc 1 154 5 is_stmt 1 view .LVU28
 105              		.loc 1 154 21 is_stmt 0 view .LVU29
 106 004a 264B     		ldr	r3, .L20+8
 107 004c 8360     		str	r3, [r0, #8]
 155:DSP/Source/TransformFunctions/arm_cfft_radix2_init_q15.c **** 
 156:DSP/Source/TransformFunctions/arm_cfft_radix2_init_q15.c ****     break;
 108              		.loc 1 156 5 is_stmt 1 view .LVU30
  71:DSP/Source/TransformFunctions/arm_cfft_radix2_init_q15.c **** 
 109              		.loc 1 71 14 is_stmt 0 view .LVU31
 110 004e 0020     		movs	r0, #0
 111              	.LVL6:
 112              		.loc 1 156 5 view .LVU32
 113 0050 1AE0     		b	.L8
 114              	.LVL7:
 115              	.L18:
  84:DSP/Source/TransformFunctions/arm_cfft_radix2_init_q15.c ****   {
 116              		.loc 1 84 3 view .LVU33
 117 0052 4FF0FF30 		mov	r0, #-1
 118              	.LVL8:
  84:DSP/Source/TransformFunctions/arm_cfft_radix2_init_q15.c ****   {
 119              		.loc 1 84 3 view .LVU34
 120 0056 17E0     		b	.L8
 121              	.LVL9:
 122              	.L5:
  84:DSP/Source/TransformFunctions/arm_cfft_radix2_init_q15.c ****   {
 123              		.loc 1 84 3 view .LVU35
 124 0058 8029     		cmp	r1, #128
ARM GAS  /var/folders/ck/g3dcd5x55xs4107jgdl0snvr0000gn/T//ccg04qww.s 			page 6


 125 005a 06D1     		bne	.L19
 136:DSP/Source/TransformFunctions/arm_cfft_radix2_init_q15.c ****     S->bitRevFactor = 32U;
 126              		.loc 1 136 5 is_stmt 1 view .LVU36
 136:DSP/Source/TransformFunctions/arm_cfft_radix2_init_q15.c ****     S->bitRevFactor = 32U;
 127              		.loc 1 136 25 is_stmt 0 view .LVU37
 128 005c 2023     		movs	r3, #32
 129              	.LVL10:
 136:DSP/Source/TransformFunctions/arm_cfft_radix2_init_q15.c ****     S->bitRevFactor = 32U;
 130              		.loc 1 136 25 view .LVU38
 131 005e 8381     		strh	r3, [r0, #12]	@ movhi
 137:DSP/Source/TransformFunctions/arm_cfft_radix2_init_q15.c ****     S->pBitRevTable = (uint16_t *) & armBitRevTable[31];
 132              		.loc 1 137 5 is_stmt 1 view .LVU39
 137:DSP/Source/TransformFunctions/arm_cfft_radix2_init_q15.c ****     S->pBitRevTable = (uint16_t *) & armBitRevTable[31];
 133              		.loc 1 137 21 is_stmt 0 view .LVU40
 134 0060 C381     		strh	r3, [r0, #14]	@ movhi
 138:DSP/Source/TransformFunctions/arm_cfft_radix2_init_q15.c **** 
 135              		.loc 1 138 5 is_stmt 1 view .LVU41
 138:DSP/Source/TransformFunctions/arm_cfft_radix2_init_q15.c **** 
 136              		.loc 1 138 21 is_stmt 0 view .LVU42
 137 0062 214B     		ldr	r3, .L20+12
 138 0064 8360     		str	r3, [r0, #8]
 140:DSP/Source/TransformFunctions/arm_cfft_radix2_init_q15.c **** 
 139              		.loc 1 140 5 is_stmt 1 view .LVU43
  71:DSP/Source/TransformFunctions/arm_cfft_radix2_init_q15.c **** 
 140              		.loc 1 71 14 is_stmt 0 view .LVU44
 141 0066 0020     		movs	r0, #0
 142              	.LVL11:
 140:DSP/Source/TransformFunctions/arm_cfft_radix2_init_q15.c **** 
 143              		.loc 1 140 5 view .LVU45
 144 0068 0EE0     		b	.L8
 145              	.LVL12:
 146              	.L19:
  84:DSP/Source/TransformFunctions/arm_cfft_radix2_init_q15.c ****   {
 147              		.loc 1 84 3 view .LVU46
 148 006a 4FF0FF30 		mov	r0, #-1
 149              	.LVL13:
  84:DSP/Source/TransformFunctions/arm_cfft_radix2_init_q15.c ****   {
 150              		.loc 1 84 3 view .LVU47
 151 006e 0BE0     		b	.L8
 152              	.LVL14:
 153              	.L17:
  84:DSP/Source/TransformFunctions/arm_cfft_radix2_init_q15.c ****   {
 154              		.loc 1 84 3 view .LVU48
 155 0070 4FF0FF30 		mov	r0, #-1
 156              	.LVL15:
  84:DSP/Source/TransformFunctions/arm_cfft_radix2_init_q15.c ****   {
 157              		.loc 1 84 3 view .LVU49
 158 0074 08E0     		b	.L8
 159              	.LVL16:
 160              	.L11:
  84:DSP/Source/TransformFunctions/arm_cfft_radix2_init_q15.c ****   {
 161              		.loc 1 84 3 view .LVU50
 162 0076 B1F5805F 		cmp	r1, #4096
 163 007a 2CD1     		bne	.L14
  90:DSP/Source/TransformFunctions/arm_cfft_radix2_init_q15.c ****     /*  Initialise the bit reversal table modifier */
 164              		.loc 1 90 5 is_stmt 1 view .LVU51
  90:DSP/Source/TransformFunctions/arm_cfft_radix2_init_q15.c ****     /*  Initialise the bit reversal table modifier */
ARM GAS  /var/folders/ck/g3dcd5x55xs4107jgdl0snvr0000gn/T//ccg04qww.s 			page 7


 165              		.loc 1 90 25 is_stmt 0 view .LVU52
 166 007c 0123     		movs	r3, #1
 167              	.LVL17:
  90:DSP/Source/TransformFunctions/arm_cfft_radix2_init_q15.c ****     /*  Initialise the bit reversal table modifier */
 168              		.loc 1 90 25 view .LVU53
 169 007e 8381     		strh	r3, [r0, #12]	@ movhi
  92:DSP/Source/TransformFunctions/arm_cfft_radix2_init_q15.c ****     /*  Initialise the bit reversal table pointer */
 170              		.loc 1 92 5 is_stmt 1 view .LVU54
  92:DSP/Source/TransformFunctions/arm_cfft_radix2_init_q15.c ****     /*  Initialise the bit reversal table pointer */
 171              		.loc 1 92 21 is_stmt 0 view .LVU55
 172 0080 C381     		strh	r3, [r0, #14]	@ movhi
  94:DSP/Source/TransformFunctions/arm_cfft_radix2_init_q15.c **** 
 173              		.loc 1 94 5 is_stmt 1 view .LVU56
  94:DSP/Source/TransformFunctions/arm_cfft_radix2_init_q15.c **** 
 174              		.loc 1 94 21 is_stmt 0 view .LVU57
 175 0082 1A4B     		ldr	r3, .L20+16
 176 0084 8360     		str	r3, [r0, #8]
  96:DSP/Source/TransformFunctions/arm_cfft_radix2_init_q15.c **** 
 177              		.loc 1 96 5 is_stmt 1 view .LVU58
  71:DSP/Source/TransformFunctions/arm_cfft_radix2_init_q15.c **** 
 178              		.loc 1 71 14 is_stmt 0 view .LVU59
 179 0086 0020     		movs	r0, #0
 180              	.LVL18:
 181              	.L8:
 157:DSP/Source/TransformFunctions/arm_cfft_radix2_init_q15.c **** 
 158:DSP/Source/TransformFunctions/arm_cfft_radix2_init_q15.c ****   case 16U:
 159:DSP/Source/TransformFunctions/arm_cfft_radix2_init_q15.c ****     /*  Initializations of structure parameters for 16 point FFT */
 160:DSP/Source/TransformFunctions/arm_cfft_radix2_init_q15.c ****     S->twidCoefModifier = 256U;
 161:DSP/Source/TransformFunctions/arm_cfft_radix2_init_q15.c ****     S->bitRevFactor = 256U;
 162:DSP/Source/TransformFunctions/arm_cfft_radix2_init_q15.c ****     S->pBitRevTable = (uint16_t *) & armBitRevTable[255];
 163:DSP/Source/TransformFunctions/arm_cfft_radix2_init_q15.c **** 
 164:DSP/Source/TransformFunctions/arm_cfft_radix2_init_q15.c ****     break;
 165:DSP/Source/TransformFunctions/arm_cfft_radix2_init_q15.c **** 
 166:DSP/Source/TransformFunctions/arm_cfft_radix2_init_q15.c ****   default:
 167:DSP/Source/TransformFunctions/arm_cfft_radix2_init_q15.c ****     /*  Reporting argument error if fftSize is not valid value */
 168:DSP/Source/TransformFunctions/arm_cfft_radix2_init_q15.c ****     status = ARM_MATH_ARGUMENT_ERROR;
 169:DSP/Source/TransformFunctions/arm_cfft_radix2_init_q15.c ****     break;
 170:DSP/Source/TransformFunctions/arm_cfft_radix2_init_q15.c ****   }
 171:DSP/Source/TransformFunctions/arm_cfft_radix2_init_q15.c **** 
 172:DSP/Source/TransformFunctions/arm_cfft_radix2_init_q15.c ****   return (status);
 182              		.loc 1 172 3 is_stmt 1 view .LVU60
 173:DSP/Source/TransformFunctions/arm_cfft_radix2_init_q15.c **** }
 183              		.loc 1 173 1 is_stmt 0 view .LVU61
 184 0088 5DF8044B 		ldr	r4, [sp], #4
 185              	.LCFI1:
 186              		.cfi_remember_state
 187              		.cfi_restore 4
 188              		.cfi_def_cfa_offset 0
 189 008c 7047     		bx	lr
 190              	.LVL19:
 191              	.L10:
 192              	.LCFI2:
 193              		.cfi_restore_state
 102:DSP/Source/TransformFunctions/arm_cfft_radix2_init_q15.c ****     /*  Initialise the bit reversal table modifier */
 194              		.loc 1 102 5 is_stmt 1 view .LVU62
 102:DSP/Source/TransformFunctions/arm_cfft_radix2_init_q15.c ****     /*  Initialise the bit reversal table modifier */
 195              		.loc 1 102 25 is_stmt 0 view .LVU63
ARM GAS  /var/folders/ck/g3dcd5x55xs4107jgdl0snvr0000gn/T//ccg04qww.s 			page 8


 196 008e 0223     		movs	r3, #2
 197              	.LVL20:
 102:DSP/Source/TransformFunctions/arm_cfft_radix2_init_q15.c ****     /*  Initialise the bit reversal table modifier */
 198              		.loc 1 102 25 view .LVU64
 199 0090 8381     		strh	r3, [r0, #12]	@ movhi
 104:DSP/Source/TransformFunctions/arm_cfft_radix2_init_q15.c ****     /*  Initialise the bit reversal table pointer */
 200              		.loc 1 104 5 is_stmt 1 view .LVU65
 104:DSP/Source/TransformFunctions/arm_cfft_radix2_init_q15.c ****     /*  Initialise the bit reversal table pointer */
 201              		.loc 1 104 21 is_stmt 0 view .LVU66
 202 0092 C381     		strh	r3, [r0, #14]	@ movhi
 106:DSP/Source/TransformFunctions/arm_cfft_radix2_init_q15.c **** 
 203              		.loc 1 106 5 is_stmt 1 view .LVU67
 106:DSP/Source/TransformFunctions/arm_cfft_radix2_init_q15.c **** 
 204              		.loc 1 106 21 is_stmt 0 view .LVU68
 205 0094 164B     		ldr	r3, .L20+20
 206 0096 8360     		str	r3, [r0, #8]
 108:DSP/Source/TransformFunctions/arm_cfft_radix2_init_q15.c **** 
 207              		.loc 1 108 5 is_stmt 1 view .LVU69
  71:DSP/Source/TransformFunctions/arm_cfft_radix2_init_q15.c **** 
 208              		.loc 1 71 14 is_stmt 0 view .LVU70
 209 0098 0020     		movs	r0, #0
 210              	.LVL21:
 108:DSP/Source/TransformFunctions/arm_cfft_radix2_init_q15.c **** 
 211              		.loc 1 108 5 view .LVU71
 212 009a F5E7     		b	.L8
 213              	.LVL22:
 214              	.L12:
 120:DSP/Source/TransformFunctions/arm_cfft_radix2_init_q15.c ****     S->bitRevFactor = 8U;
 215              		.loc 1 120 5 is_stmt 1 view .LVU72
 120:DSP/Source/TransformFunctions/arm_cfft_radix2_init_q15.c ****     S->bitRevFactor = 8U;
 216              		.loc 1 120 25 is_stmt 0 view .LVU73
 217 009c 0823     		movs	r3, #8
 218              	.LVL23:
 120:DSP/Source/TransformFunctions/arm_cfft_radix2_init_q15.c ****     S->bitRevFactor = 8U;
 219              		.loc 1 120 25 view .LVU74
 220 009e 8381     		strh	r3, [r0, #12]	@ movhi
 121:DSP/Source/TransformFunctions/arm_cfft_radix2_init_q15.c ****     S->pBitRevTable = (uint16_t *) & armBitRevTable[7];
 221              		.loc 1 121 5 is_stmt 1 view .LVU75
 121:DSP/Source/TransformFunctions/arm_cfft_radix2_init_q15.c ****     S->pBitRevTable = (uint16_t *) & armBitRevTable[7];
 222              		.loc 1 121 21 is_stmt 0 view .LVU76
 223 00a0 C381     		strh	r3, [r0, #14]	@ movhi
 122:DSP/Source/TransformFunctions/arm_cfft_radix2_init_q15.c **** 
 224              		.loc 1 122 5 is_stmt 1 view .LVU77
 122:DSP/Source/TransformFunctions/arm_cfft_radix2_init_q15.c **** 
 225              		.loc 1 122 21 is_stmt 0 view .LVU78
 226 00a2 144B     		ldr	r3, .L20+24
 227 00a4 8360     		str	r3, [r0, #8]
 124:DSP/Source/TransformFunctions/arm_cfft_radix2_init_q15.c **** 
 228              		.loc 1 124 5 is_stmt 1 view .LVU79
  71:DSP/Source/TransformFunctions/arm_cfft_radix2_init_q15.c **** 
 229              		.loc 1 71 14 is_stmt 0 view .LVU80
 230 00a6 0020     		movs	r0, #0
 231              	.LVL24:
 124:DSP/Source/TransformFunctions/arm_cfft_radix2_init_q15.c **** 
 232              		.loc 1 124 5 view .LVU81
 233 00a8 EEE7     		b	.L8
 234              	.LVL25:
ARM GAS  /var/folders/ck/g3dcd5x55xs4107jgdl0snvr0000gn/T//ccg04qww.s 			page 9


 235              	.L2:
 128:DSP/Source/TransformFunctions/arm_cfft_radix2_init_q15.c ****     S->bitRevFactor = 16U;
 236              		.loc 1 128 5 is_stmt 1 view .LVU82
 128:DSP/Source/TransformFunctions/arm_cfft_radix2_init_q15.c ****     S->bitRevFactor = 16U;
 237              		.loc 1 128 25 is_stmt 0 view .LVU83
 238 00aa 1023     		movs	r3, #16
 239              	.LVL26:
 128:DSP/Source/TransformFunctions/arm_cfft_radix2_init_q15.c ****     S->bitRevFactor = 16U;
 240              		.loc 1 128 25 view .LVU84
 241 00ac 8381     		strh	r3, [r0, #12]	@ movhi
 129:DSP/Source/TransformFunctions/arm_cfft_radix2_init_q15.c ****     S->pBitRevTable = (uint16_t *) & armBitRevTable[15];
 242              		.loc 1 129 5 is_stmt 1 view .LVU85
 129:DSP/Source/TransformFunctions/arm_cfft_radix2_init_q15.c ****     S->pBitRevTable = (uint16_t *) & armBitRevTable[15];
 243              		.loc 1 129 21 is_stmt 0 view .LVU86
 244 00ae C381     		strh	r3, [r0, #14]	@ movhi
 130:DSP/Source/TransformFunctions/arm_cfft_radix2_init_q15.c **** 
 245              		.loc 1 130 5 is_stmt 1 view .LVU87
 130:DSP/Source/TransformFunctions/arm_cfft_radix2_init_q15.c **** 
 246              		.loc 1 130 21 is_stmt 0 view .LVU88
 247 00b0 114B     		ldr	r3, .L20+28
 248 00b2 8360     		str	r3, [r0, #8]
 132:DSP/Source/TransformFunctions/arm_cfft_radix2_init_q15.c **** 
 249              		.loc 1 132 5 is_stmt 1 view .LVU89
  71:DSP/Source/TransformFunctions/arm_cfft_radix2_init_q15.c **** 
 250              		.loc 1 71 14 is_stmt 0 view .LVU90
 251 00b4 0020     		movs	r0, #0
 252              	.LVL27:
 132:DSP/Source/TransformFunctions/arm_cfft_radix2_init_q15.c **** 
 253              		.loc 1 132 5 view .LVU91
 254 00b6 E7E7     		b	.L8
 255              	.LVL28:
 256              	.L4:
 144:DSP/Source/TransformFunctions/arm_cfft_radix2_init_q15.c ****     S->bitRevFactor = 64U;
 257              		.loc 1 144 5 is_stmt 1 view .LVU92
 144:DSP/Source/TransformFunctions/arm_cfft_radix2_init_q15.c ****     S->bitRevFactor = 64U;
 258              		.loc 1 144 25 is_stmt 0 view .LVU93
 259 00b8 4023     		movs	r3, #64
 260              	.LVL29:
 144:DSP/Source/TransformFunctions/arm_cfft_radix2_init_q15.c ****     S->bitRevFactor = 64U;
 261              		.loc 1 144 25 view .LVU94
 262 00ba 8381     		strh	r3, [r0, #12]	@ movhi
 145:DSP/Source/TransformFunctions/arm_cfft_radix2_init_q15.c ****     S->pBitRevTable = (uint16_t *) & armBitRevTable[63];
 263              		.loc 1 145 5 is_stmt 1 view .LVU95
 145:DSP/Source/TransformFunctions/arm_cfft_radix2_init_q15.c ****     S->pBitRevTable = (uint16_t *) & armBitRevTable[63];
 264              		.loc 1 145 21 is_stmt 0 view .LVU96
 265 00bc C381     		strh	r3, [r0, #14]	@ movhi
 146:DSP/Source/TransformFunctions/arm_cfft_radix2_init_q15.c **** 
 266              		.loc 1 146 5 is_stmt 1 view .LVU97
 146:DSP/Source/TransformFunctions/arm_cfft_radix2_init_q15.c **** 
 267              		.loc 1 146 21 is_stmt 0 view .LVU98
 268 00be 0F4B     		ldr	r3, .L20+32
 269 00c0 8360     		str	r3, [r0, #8]
 148:DSP/Source/TransformFunctions/arm_cfft_radix2_init_q15.c **** 
 270              		.loc 1 148 5 is_stmt 1 view .LVU99
  71:DSP/Source/TransformFunctions/arm_cfft_radix2_init_q15.c **** 
 271              		.loc 1 71 14 is_stmt 0 view .LVU100
 272 00c2 0020     		movs	r0, #0
ARM GAS  /var/folders/ck/g3dcd5x55xs4107jgdl0snvr0000gn/T//ccg04qww.s 			page 10


 273              	.LVL30:
 148:DSP/Source/TransformFunctions/arm_cfft_radix2_init_q15.c **** 
 274              		.loc 1 148 5 view .LVU101
 275 00c4 E0E7     		b	.L8
 276              	.LVL31:
 277              	.L6:
 160:DSP/Source/TransformFunctions/arm_cfft_radix2_init_q15.c ****     S->bitRevFactor = 256U;
 278              		.loc 1 160 5 is_stmt 1 view .LVU102
 160:DSP/Source/TransformFunctions/arm_cfft_radix2_init_q15.c ****     S->bitRevFactor = 256U;
 279              		.loc 1 160 25 is_stmt 0 view .LVU103
 280 00c6 4FF48073 		mov	r3, #256
 281              	.LVL32:
 160:DSP/Source/TransformFunctions/arm_cfft_radix2_init_q15.c ****     S->bitRevFactor = 256U;
 282              		.loc 1 160 25 view .LVU104
 283 00ca 8381     		strh	r3, [r0, #12]	@ movhi
 161:DSP/Source/TransformFunctions/arm_cfft_radix2_init_q15.c ****     S->pBitRevTable = (uint16_t *) & armBitRevTable[255];
 284              		.loc 1 161 5 is_stmt 1 view .LVU105
 161:DSP/Source/TransformFunctions/arm_cfft_radix2_init_q15.c ****     S->pBitRevTable = (uint16_t *) & armBitRevTable[255];
 285              		.loc 1 161 21 is_stmt 0 view .LVU106
 286 00cc C381     		strh	r3, [r0, #14]	@ movhi
 162:DSP/Source/TransformFunctions/arm_cfft_radix2_init_q15.c **** 
 287              		.loc 1 162 5 is_stmt 1 view .LVU107
 162:DSP/Source/TransformFunctions/arm_cfft_radix2_init_q15.c **** 
 288              		.loc 1 162 21 is_stmt 0 view .LVU108
 289 00ce 0C4B     		ldr	r3, .L20+36
 290 00d0 8360     		str	r3, [r0, #8]
 164:DSP/Source/TransformFunctions/arm_cfft_radix2_init_q15.c **** 
 291              		.loc 1 164 5 is_stmt 1 view .LVU109
  71:DSP/Source/TransformFunctions/arm_cfft_radix2_init_q15.c **** 
 292              		.loc 1 71 14 is_stmt 0 view .LVU110
 293 00d2 0020     		movs	r0, #0
 294              	.LVL33:
 164:DSP/Source/TransformFunctions/arm_cfft_radix2_init_q15.c **** 
 295              		.loc 1 164 5 view .LVU111
 296 00d4 D8E7     		b	.L8
 297              	.LVL34:
 298              	.L14:
  84:DSP/Source/TransformFunctions/arm_cfft_radix2_init_q15.c ****   {
 299              		.loc 1 84 3 view .LVU112
 300 00d6 4FF0FF30 		mov	r0, #-1
 301              	.LVL35:
  84:DSP/Source/TransformFunctions/arm_cfft_radix2_init_q15.c ****   {
 302              		.loc 1 84 3 view .LVU113
 303 00da D5E7     		b	.L8
 304              	.L21:
 305              		.align	2
 306              	.L20:
 307 00dc 00000000 		.word	twiddleCoef_4096_q15
 308 00e0 06000000 		.word	armBitRevTable+6
 309 00e4 FE000000 		.word	armBitRevTable+254
 310 00e8 3E000000 		.word	armBitRevTable+62
 311 00ec 00000000 		.word	armBitRevTable
 312 00f0 02000000 		.word	armBitRevTable+2
 313 00f4 0E000000 		.word	armBitRevTable+14
 314 00f8 1E000000 		.word	armBitRevTable+30
 315 00fc 7E000000 		.word	armBitRevTable+126
 316 0100 FE010000 		.word	armBitRevTable+510
ARM GAS  /var/folders/ck/g3dcd5x55xs4107jgdl0snvr0000gn/T//ccg04qww.s 			page 11


 317              		.cfi_endproc
 318              	.LFE139:
 320              		.text
 321              	.Letext0:
 322              		.file 2 "/Users/luban/.local/xPacks/arm-none-eabi-gcc/xpack-arm-none-eabi-gcc-13.2.1-1.1/arm-none-
 323              		.file 3 "/Users/luban/.local/xPacks/arm-none-eabi-gcc/xpack-arm-none-eabi-gcc-13.2.1-1.1/arm-none-
 324              		.file 4 "DSP/Inc/arm_math.h"
 325              		.file 5 "DSP/Inc/arm_common_tables.h"
ARM GAS  /var/folders/ck/g3dcd5x55xs4107jgdl0snvr0000gn/T//ccg04qww.s 			page 12

