ARM GAS  /var/folders/ck/g3dcd5x55xs4107jgdl0snvr0000gn/T//ccD2ZXvQ.s 			page 1


   1              		.cpu cortex-m4
   2              		.arch armv7e-m
   3              		.fpu fpv4-sp-d16
   4              		.eabi_attribute 27, 1
   5              		.eabi_attribute 28, 1
   6              		.eabi_attribute 20, 1
   7              		.eabi_attribute 21, 1
   8              		.eabi_attribute 23, 3
   9              		.eabi_attribute 24, 1
  10              		.eabi_attribute 25, 1
  11              		.eabi_attribute 26, 1
  12              		.eabi_attribute 30, 1
  13              		.eabi_attribute 34, 1
  14              		.eabi_attribute 18, 4
  15              		.file	"arm_correlate_fast_q31.c"
  16              		.text
  17              	.Ltext0:
  18              		.cfi_sections	.debug_frame
  19              		.file 1 "DSP/Source/FilteringFunctions/arm_correlate_fast_q31.c"
  20              		.section	.text.arm_correlate_fast_q31,"ax",%progbits
  21              		.align	1
  22              		.global	arm_correlate_fast_q31
  23              		.syntax unified
  24              		.thumb
  25              		.thumb_func
  27              	arm_correlate_fast_q31:
  28              	.LVL0:
  29              	.LFB139:
   1:DSP/Source/FilteringFunctions/arm_correlate_fast_q31.c **** /* ----------------------------------------------------------------------
   2:DSP/Source/FilteringFunctions/arm_correlate_fast_q31.c ****  * Project:      CMSIS DSP Library
   3:DSP/Source/FilteringFunctions/arm_correlate_fast_q31.c ****  * Title:        arm_correlate_fast_q31.c
   4:DSP/Source/FilteringFunctions/arm_correlate_fast_q31.c ****  * Description:  Fast Q31 Correlation
   5:DSP/Source/FilteringFunctions/arm_correlate_fast_q31.c ****  *
   6:DSP/Source/FilteringFunctions/arm_correlate_fast_q31.c ****  * $Date:        27. January 2017
   7:DSP/Source/FilteringFunctions/arm_correlate_fast_q31.c ****  * $Revision:    V.1.5.1
   8:DSP/Source/FilteringFunctions/arm_correlate_fast_q31.c ****  *
   9:DSP/Source/FilteringFunctions/arm_correlate_fast_q31.c ****  * Target Processor: Cortex-M cores
  10:DSP/Source/FilteringFunctions/arm_correlate_fast_q31.c ****  * -------------------------------------------------------------------- */
  11:DSP/Source/FilteringFunctions/arm_correlate_fast_q31.c **** /*
  12:DSP/Source/FilteringFunctions/arm_correlate_fast_q31.c ****  * Copyright (C) 2010-2017 ARM Limited or its affiliates. All rights reserved.
  13:DSP/Source/FilteringFunctions/arm_correlate_fast_q31.c ****  *
  14:DSP/Source/FilteringFunctions/arm_correlate_fast_q31.c ****  * SPDX-License-Identifier: Apache-2.0
  15:DSP/Source/FilteringFunctions/arm_correlate_fast_q31.c ****  *
  16:DSP/Source/FilteringFunctions/arm_correlate_fast_q31.c ****  * Licensed under the Apache License, Version 2.0 (the License); you may
  17:DSP/Source/FilteringFunctions/arm_correlate_fast_q31.c ****  * not use this file except in compliance with the License.
  18:DSP/Source/FilteringFunctions/arm_correlate_fast_q31.c ****  * You may obtain a copy of the License at
  19:DSP/Source/FilteringFunctions/arm_correlate_fast_q31.c ****  *
  20:DSP/Source/FilteringFunctions/arm_correlate_fast_q31.c ****  * www.apache.org/licenses/LICENSE-2.0
  21:DSP/Source/FilteringFunctions/arm_correlate_fast_q31.c ****  *
  22:DSP/Source/FilteringFunctions/arm_correlate_fast_q31.c ****  * Unless required by applicable law or agreed to in writing, software
  23:DSP/Source/FilteringFunctions/arm_correlate_fast_q31.c ****  * distributed under the License is distributed on an AS IS BASIS, WITHOUT
  24:DSP/Source/FilteringFunctions/arm_correlate_fast_q31.c ****  * WARRANTIES OR CONDITIONS OF ANY KIND, either express or implied.
  25:DSP/Source/FilteringFunctions/arm_correlate_fast_q31.c ****  * See the License for the specific language governing permissions and
  26:DSP/Source/FilteringFunctions/arm_correlate_fast_q31.c ****  * limitations under the License.
  27:DSP/Source/FilteringFunctions/arm_correlate_fast_q31.c ****  */
  28:DSP/Source/FilteringFunctions/arm_correlate_fast_q31.c **** 
  29:DSP/Source/FilteringFunctions/arm_correlate_fast_q31.c **** #include "arm_math.h"
ARM GAS  /var/folders/ck/g3dcd5x55xs4107jgdl0snvr0000gn/T//ccD2ZXvQ.s 			page 2


  30:DSP/Source/FilteringFunctions/arm_correlate_fast_q31.c **** 
  31:DSP/Source/FilteringFunctions/arm_correlate_fast_q31.c **** /**
  32:DSP/Source/FilteringFunctions/arm_correlate_fast_q31.c ****  * @ingroup groupFilters
  33:DSP/Source/FilteringFunctions/arm_correlate_fast_q31.c ****  */
  34:DSP/Source/FilteringFunctions/arm_correlate_fast_q31.c **** 
  35:DSP/Source/FilteringFunctions/arm_correlate_fast_q31.c **** /**
  36:DSP/Source/FilteringFunctions/arm_correlate_fast_q31.c ****  * @addtogroup Corr
  37:DSP/Source/FilteringFunctions/arm_correlate_fast_q31.c ****  * @{
  38:DSP/Source/FilteringFunctions/arm_correlate_fast_q31.c ****  */
  39:DSP/Source/FilteringFunctions/arm_correlate_fast_q31.c **** 
  40:DSP/Source/FilteringFunctions/arm_correlate_fast_q31.c **** /**
  41:DSP/Source/FilteringFunctions/arm_correlate_fast_q31.c ****  * @brief Correlation of Q31 sequences (fast version) for Cortex-M3 and Cortex-M4.
  42:DSP/Source/FilteringFunctions/arm_correlate_fast_q31.c ****  * @param[in] *pSrcA points to the first input sequence.
  43:DSP/Source/FilteringFunctions/arm_correlate_fast_q31.c ****  * @param[in] srcALen length of the first input sequence.
  44:DSP/Source/FilteringFunctions/arm_correlate_fast_q31.c ****  * @param[in] *pSrcB points to the second input sequence.
  45:DSP/Source/FilteringFunctions/arm_correlate_fast_q31.c ****  * @param[in] srcBLen length of the second input sequence.
  46:DSP/Source/FilteringFunctions/arm_correlate_fast_q31.c ****  * @param[out] *pDst points to the location where the output result is written.  Length 2 * max(src
  47:DSP/Source/FilteringFunctions/arm_correlate_fast_q31.c ****  * @return none.
  48:DSP/Source/FilteringFunctions/arm_correlate_fast_q31.c ****  *
  49:DSP/Source/FilteringFunctions/arm_correlate_fast_q31.c ****  * @details
  50:DSP/Source/FilteringFunctions/arm_correlate_fast_q31.c ****  * <b>Scaling and Overflow Behavior:</b>
  51:DSP/Source/FilteringFunctions/arm_correlate_fast_q31.c ****  *
  52:DSP/Source/FilteringFunctions/arm_correlate_fast_q31.c ****  * \par
  53:DSP/Source/FilteringFunctions/arm_correlate_fast_q31.c ****  * This function is optimized for speed at the expense of fixed-point precision and overflow protec
  54:DSP/Source/FilteringFunctions/arm_correlate_fast_q31.c ****  * The result of each 1.31 x 1.31 multiplication is truncated to 2.30 format.
  55:DSP/Source/FilteringFunctions/arm_correlate_fast_q31.c ****  * These intermediate results are accumulated in a 32-bit register in 2.30 format.
  56:DSP/Source/FilteringFunctions/arm_correlate_fast_q31.c ****  * Finally, the accumulator is saturated and converted to a 1.31 result.
  57:DSP/Source/FilteringFunctions/arm_correlate_fast_q31.c ****  *
  58:DSP/Source/FilteringFunctions/arm_correlate_fast_q31.c ****  * \par
  59:DSP/Source/FilteringFunctions/arm_correlate_fast_q31.c ****  * The fast version has the same overflow behavior as the standard version but provides less precis
  60:DSP/Source/FilteringFunctions/arm_correlate_fast_q31.c ****  * In order to avoid overflows completely the input signals must be scaled down.
  61:DSP/Source/FilteringFunctions/arm_correlate_fast_q31.c ****  * The input signals should be scaled down to avoid intermediate overflows.
  62:DSP/Source/FilteringFunctions/arm_correlate_fast_q31.c ****  * Scale down one of the inputs by 1/min(srcALen, srcBLen)to avoid overflows since a
  63:DSP/Source/FilteringFunctions/arm_correlate_fast_q31.c ****  * maximum of min(srcALen, srcBLen) number of additions is carried internally.
  64:DSP/Source/FilteringFunctions/arm_correlate_fast_q31.c ****  *
  65:DSP/Source/FilteringFunctions/arm_correlate_fast_q31.c ****  * \par
  66:DSP/Source/FilteringFunctions/arm_correlate_fast_q31.c ****  * See <code>arm_correlate_q31()</code> for a slower implementation of this function which uses 64-
  67:DSP/Source/FilteringFunctions/arm_correlate_fast_q31.c ****  */
  68:DSP/Source/FilteringFunctions/arm_correlate_fast_q31.c **** 
  69:DSP/Source/FilteringFunctions/arm_correlate_fast_q31.c **** void arm_correlate_fast_q31(
  70:DSP/Source/FilteringFunctions/arm_correlate_fast_q31.c ****   q31_t * pSrcA,
  71:DSP/Source/FilteringFunctions/arm_correlate_fast_q31.c ****   uint32_t srcALen,
  72:DSP/Source/FilteringFunctions/arm_correlate_fast_q31.c ****   q31_t * pSrcB,
  73:DSP/Source/FilteringFunctions/arm_correlate_fast_q31.c ****   uint32_t srcBLen,
  74:DSP/Source/FilteringFunctions/arm_correlate_fast_q31.c ****   q31_t * pDst)
  75:DSP/Source/FilteringFunctions/arm_correlate_fast_q31.c **** {
  30              		.loc 1 75 1 view -0
  31              		.cfi_startproc
  32              		@ args = 4, pretend = 0, frame = 48
  33              		@ frame_needed = 0, uses_anonymous_args = 0
  34              		.loc 1 75 1 is_stmt 0 view .LVU1
  35 0000 2DE9F04F 		push	{r4, r5, r6, r7, r8, r9, r10, fp, lr}
  36              	.LCFI0:
  37              		.cfi_def_cfa_offset 36
  38              		.cfi_offset 4, -36
  39              		.cfi_offset 5, -32
  40              		.cfi_offset 6, -28
ARM GAS  /var/folders/ck/g3dcd5x55xs4107jgdl0snvr0000gn/T//ccD2ZXvQ.s 			page 3


  41              		.cfi_offset 7, -24
  42              		.cfi_offset 8, -20
  43              		.cfi_offset 9, -16
  44              		.cfi_offset 10, -12
  45              		.cfi_offset 11, -8
  46              		.cfi_offset 14, -4
  47 0004 8DB0     		sub	sp, sp, #52
  48              	.LCFI1:
  49              		.cfi_def_cfa_offset 88
  50 0006 0490     		str	r0, [sp, #16]
  51 0008 0392     		str	r2, [sp, #12]
  52 000a 9B46     		mov	fp, r3
  76:DSP/Source/FilteringFunctions/arm_correlate_fast_q31.c ****   q31_t *pIn1;                                   /* inputA pointer               */
  53              		.loc 1 76 3 is_stmt 1 view .LVU2
  77:DSP/Source/FilteringFunctions/arm_correlate_fast_q31.c ****   q31_t *pIn2;                                   /* inputB pointer               */
  54              		.loc 1 77 3 view .LVU3
  78:DSP/Source/FilteringFunctions/arm_correlate_fast_q31.c ****   q31_t *pOut = pDst;                            /* output pointer               */
  55              		.loc 1 78 3 view .LVU4
  56              	.LVL1:
  79:DSP/Source/FilteringFunctions/arm_correlate_fast_q31.c ****   q31_t *px;                                     /* Intermediate inputA pointer  */
  57              		.loc 1 79 3 view .LVU5
  80:DSP/Source/FilteringFunctions/arm_correlate_fast_q31.c ****   q31_t *py;                                     /* Intermediate inputB pointer  */
  58              		.loc 1 80 3 view .LVU6
  81:DSP/Source/FilteringFunctions/arm_correlate_fast_q31.c ****   q31_t *pSrc1;                                  /* Intermediate pointers        */
  59              		.loc 1 81 3 view .LVU7
  82:DSP/Source/FilteringFunctions/arm_correlate_fast_q31.c ****   q31_t sum, acc0, acc1, acc2, acc3;             /* Accumulators                  */
  60              		.loc 1 82 3 view .LVU8
  83:DSP/Source/FilteringFunctions/arm_correlate_fast_q31.c ****   q31_t x0, x1, x2, x3, c0;                      /* temporary variables for holding input and coeff
  61              		.loc 1 83 3 view .LVU9
  84:DSP/Source/FilteringFunctions/arm_correlate_fast_q31.c ****   uint32_t j, k = 0U, count, blkCnt, outBlockSize, blockSize1, blockSize2, blockSize3;  /* loop cou
  62              		.loc 1 84 3 view .LVU10
  85:DSP/Source/FilteringFunctions/arm_correlate_fast_q31.c ****   int32_t inc = 1;                               /* Destination address modifier */
  63              		.loc 1 85 3 view .LVU11
  86:DSP/Source/FilteringFunctions/arm_correlate_fast_q31.c **** 
  87:DSP/Source/FilteringFunctions/arm_correlate_fast_q31.c **** 
  88:DSP/Source/FilteringFunctions/arm_correlate_fast_q31.c ****   /* The algorithm implementation is based on the lengths of the inputs. */
  89:DSP/Source/FilteringFunctions/arm_correlate_fast_q31.c ****   /* srcB is always made to slide across srcA. */
  90:DSP/Source/FilteringFunctions/arm_correlate_fast_q31.c ****   /* So srcBLen is always considered as shorter or equal to srcALen */
  91:DSP/Source/FilteringFunctions/arm_correlate_fast_q31.c ****   if (srcALen >= srcBLen)
  64              		.loc 1 91 3 view .LVU12
  65              		.loc 1 91 6 is_stmt 0 view .LVU13
  66 000c 9942     		cmp	r1, r3
  67 000e 1ED3     		bcc	.L2
  92:DSP/Source/FilteringFunctions/arm_correlate_fast_q31.c ****   {
  93:DSP/Source/FilteringFunctions/arm_correlate_fast_q31.c ****     /* Initialization of inputA pointer */
  94:DSP/Source/FilteringFunctions/arm_correlate_fast_q31.c ****     pIn1 = (pSrcA);
  68              		.loc 1 94 5 is_stmt 1 view .LVU14
  69              	.LVL2:
  95:DSP/Source/FilteringFunctions/arm_correlate_fast_q31.c **** 
  96:DSP/Source/FilteringFunctions/arm_correlate_fast_q31.c ****     /* Initialization of inputB pointer */
  97:DSP/Source/FilteringFunctions/arm_correlate_fast_q31.c ****     pIn2 = (pSrcB);
  70              		.loc 1 97 5 view .LVU15
  98:DSP/Source/FilteringFunctions/arm_correlate_fast_q31.c **** 
  99:DSP/Source/FilteringFunctions/arm_correlate_fast_q31.c ****     /* Number of output samples is calculated */
 100:DSP/Source/FilteringFunctions/arm_correlate_fast_q31.c ****     outBlockSize = (2U * srcALen) - 1U;
  71              		.loc 1 100 5 view .LVU16
  72              		.loc 1 100 24 is_stmt 0 view .LVU17
ARM GAS  /var/folders/ck/g3dcd5x55xs4107jgdl0snvr0000gn/T//ccD2ZXvQ.s 			page 4


  73 0010 4B00     		lsls	r3, r1, #1
  74              	.LVL3:
  75              		.loc 1 100 18 view .LVU18
  76 0012 013B     		subs	r3, r3, #1
  77              	.LVL4:
 101:DSP/Source/FilteringFunctions/arm_correlate_fast_q31.c **** 
 102:DSP/Source/FilteringFunctions/arm_correlate_fast_q31.c ****     /* When srcALen > srcBLen, zero padding is done to srcB
 103:DSP/Source/FilteringFunctions/arm_correlate_fast_q31.c ****      * to make their lengths equal.
 104:DSP/Source/FilteringFunctions/arm_correlate_fast_q31.c ****      * Instead, (outBlockSize - (srcALen + srcBLen - 1))
 105:DSP/Source/FilteringFunctions/arm_correlate_fast_q31.c ****      * number of output samples are made zero */
 106:DSP/Source/FilteringFunctions/arm_correlate_fast_q31.c ****     j = outBlockSize - (srcALen + (srcBLen - 1U));
  78              		.loc 1 106 5 is_stmt 1 view .LVU19
  79              		.loc 1 106 33 is_stmt 0 view .LVU20
  80 0014 01EB0B02 		add	r2, r1, fp
  81              	.LVL5:
  82              		.loc 1 106 22 view .LVU21
  83 0018 9B1A     		subs	r3, r3, r2
  84              	.LVL6:
  85              		.loc 1 106 7 view .LVU22
  86 001a 0133     		adds	r3, r3, #1
  87              	.LVL7:
 107:DSP/Source/FilteringFunctions/arm_correlate_fast_q31.c **** 
 108:DSP/Source/FilteringFunctions/arm_correlate_fast_q31.c ****     /* Updating the pointer position to non zero value */
 109:DSP/Source/FilteringFunctions/arm_correlate_fast_q31.c ****     pOut += j;
  88              		.loc 1 109 5 is_stmt 1 view .LVU23
  89              		.loc 1 109 10 is_stmt 0 view .LVU24
  90 001c 169A     		ldr	r2, [sp, #88]
  91 001e 02EB830A 		add	r10, r2, r3, lsl #2
  92              	.LVL8:
  85:DSP/Source/FilteringFunctions/arm_correlate_fast_q31.c **** 
  93              		.loc 1 85 11 view .LVU25
  94 0022 0124     		movs	r4, #1
  95              	.LVL9:
  96              	.L3:
 110:DSP/Source/FilteringFunctions/arm_correlate_fast_q31.c **** 
 111:DSP/Source/FilteringFunctions/arm_correlate_fast_q31.c ****   }
 112:DSP/Source/FilteringFunctions/arm_correlate_fast_q31.c ****   else
 113:DSP/Source/FilteringFunctions/arm_correlate_fast_q31.c ****   {
 114:DSP/Source/FilteringFunctions/arm_correlate_fast_q31.c ****     /* Initialization of inputA pointer */
 115:DSP/Source/FilteringFunctions/arm_correlate_fast_q31.c ****     pIn1 = (pSrcB);
 116:DSP/Source/FilteringFunctions/arm_correlate_fast_q31.c **** 
 117:DSP/Source/FilteringFunctions/arm_correlate_fast_q31.c ****     /* Initialization of inputB pointer */
 118:DSP/Source/FilteringFunctions/arm_correlate_fast_q31.c ****     pIn2 = (pSrcA);
 119:DSP/Source/FilteringFunctions/arm_correlate_fast_q31.c **** 
 120:DSP/Source/FilteringFunctions/arm_correlate_fast_q31.c ****     /* srcBLen is always considered as shorter or equal to srcALen */
 121:DSP/Source/FilteringFunctions/arm_correlate_fast_q31.c ****     j = srcBLen;
 122:DSP/Source/FilteringFunctions/arm_correlate_fast_q31.c ****     srcBLen = srcALen;
 123:DSP/Source/FilteringFunctions/arm_correlate_fast_q31.c ****     srcALen = j;
 124:DSP/Source/FilteringFunctions/arm_correlate_fast_q31.c **** 
 125:DSP/Source/FilteringFunctions/arm_correlate_fast_q31.c ****     /* CORR(x, y) = Reverse order(CORR(y, x)) */
 126:DSP/Source/FilteringFunctions/arm_correlate_fast_q31.c ****     /* Hence set the destination pointer to point to the last output sample */
 127:DSP/Source/FilteringFunctions/arm_correlate_fast_q31.c ****     pOut = pDst + ((srcALen + srcBLen) - 2U);
 128:DSP/Source/FilteringFunctions/arm_correlate_fast_q31.c **** 
 129:DSP/Source/FilteringFunctions/arm_correlate_fast_q31.c ****     /* Destination address modifier is set to -1 */
 130:DSP/Source/FilteringFunctions/arm_correlate_fast_q31.c ****     inc = -1;
 131:DSP/Source/FilteringFunctions/arm_correlate_fast_q31.c **** 
 132:DSP/Source/FilteringFunctions/arm_correlate_fast_q31.c ****   }
ARM GAS  /var/folders/ck/g3dcd5x55xs4107jgdl0snvr0000gn/T//ccD2ZXvQ.s 			page 5


 133:DSP/Source/FilteringFunctions/arm_correlate_fast_q31.c **** 
 134:DSP/Source/FilteringFunctions/arm_correlate_fast_q31.c ****   /* The function is internally
 135:DSP/Source/FilteringFunctions/arm_correlate_fast_q31.c ****    * divided into three parts according to the number of multiplications that has to be
 136:DSP/Source/FilteringFunctions/arm_correlate_fast_q31.c ****    * taken place between inputA samples and inputB samples. In the first part of the
 137:DSP/Source/FilteringFunctions/arm_correlate_fast_q31.c ****    * algorithm, the multiplications increase by one for every iteration.
 138:DSP/Source/FilteringFunctions/arm_correlate_fast_q31.c ****    * In the second part of the algorithm, srcBLen number of multiplications are done.
 139:DSP/Source/FilteringFunctions/arm_correlate_fast_q31.c ****    * In the third part of the algorithm, the multiplications decrease by one
 140:DSP/Source/FilteringFunctions/arm_correlate_fast_q31.c ****    * for every iteration.*/
 141:DSP/Source/FilteringFunctions/arm_correlate_fast_q31.c ****   /* The algorithm is implemented in three stages.
 142:DSP/Source/FilteringFunctions/arm_correlate_fast_q31.c ****    * The loop counters of each stage is initiated here. */
 143:DSP/Source/FilteringFunctions/arm_correlate_fast_q31.c ****   blockSize1 = srcBLen - 1U;
  97              		.loc 1 143 3 is_stmt 1 view .LVU26
  98              		.loc 1 143 14 is_stmt 0 view .LVU27
  99 0024 0BF1FF33 		add	r3, fp, #-1
 100              	.LVL10:
 144:DSP/Source/FilteringFunctions/arm_correlate_fast_q31.c ****   blockSize2 = srcALen - (srcBLen - 1U);
 101              		.loc 1 144 3 is_stmt 1 view .LVU28
 102              		.loc 1 144 24 is_stmt 0 view .LVU29
 103 0028 A1EB0B01 		sub	r1, r1, fp
 104              	.LVL11:
 105              		.loc 1 144 14 view .LVU30
 106 002c 01F10109 		add	r9, r1, #1
 107              	.LVL12:
 145:DSP/Source/FilteringFunctions/arm_correlate_fast_q31.c ****   blockSize3 = blockSize1;
 108              		.loc 1 145 3 is_stmt 1 view .LVU31
 146:DSP/Source/FilteringFunctions/arm_correlate_fast_q31.c **** 
 147:DSP/Source/FilteringFunctions/arm_correlate_fast_q31.c ****   /* --------------------------
 148:DSP/Source/FilteringFunctions/arm_correlate_fast_q31.c ****    * Initializations of stage1
 149:DSP/Source/FilteringFunctions/arm_correlate_fast_q31.c ****    * -------------------------*/
 150:DSP/Source/FilteringFunctions/arm_correlate_fast_q31.c **** 
 151:DSP/Source/FilteringFunctions/arm_correlate_fast_q31.c ****   /* sum = x[0] * y[srcBlen - 1]
 152:DSP/Source/FilteringFunctions/arm_correlate_fast_q31.c ****    * sum = x[0] * y[srcBlen - 2] + x[1] * y[srcBlen - 1]
 153:DSP/Source/FilteringFunctions/arm_correlate_fast_q31.c ****    * ....
 154:DSP/Source/FilteringFunctions/arm_correlate_fast_q31.c ****    * sum = x[0] * y[0] + x[1] * y[1] +...+ x[srcBLen - 1] * y[srcBLen - 1]
 155:DSP/Source/FilteringFunctions/arm_correlate_fast_q31.c ****    */
 156:DSP/Source/FilteringFunctions/arm_correlate_fast_q31.c **** 
 157:DSP/Source/FilteringFunctions/arm_correlate_fast_q31.c ****   /* In this stage the MAC operations are increased by 1 for every iteration.
 158:DSP/Source/FilteringFunctions/arm_correlate_fast_q31.c ****      The count variable holds the number of MAC operations performed */
 159:DSP/Source/FilteringFunctions/arm_correlate_fast_q31.c ****   count = 1U;
 109              		.loc 1 159 3 view .LVU32
 160:DSP/Source/FilteringFunctions/arm_correlate_fast_q31.c **** 
 161:DSP/Source/FilteringFunctions/arm_correlate_fast_q31.c ****   /* Working pointer of inputA */
 162:DSP/Source/FilteringFunctions/arm_correlate_fast_q31.c ****   px = pIn1;
 110              		.loc 1 162 3 view .LVU33
 163:DSP/Source/FilteringFunctions/arm_correlate_fast_q31.c **** 
 164:DSP/Source/FilteringFunctions/arm_correlate_fast_q31.c ****   /* Working pointer of inputB */
 165:DSP/Source/FilteringFunctions/arm_correlate_fast_q31.c ****   pSrc1 = pIn2 + (srcBLen - 1U);
 111              		.loc 1 165 3 view .LVU34
 112              		.loc 1 165 16 is_stmt 0 view .LVU35
 113 0030 0BF1804C 		add	ip, fp, #1073741824
 114 0034 0CF1FF3C 		add	ip, ip, #-1
 115              		.loc 1 165 9 view .LVU36
 116 0038 039A     		ldr	r2, [sp, #12]
 117 003a 02EB8C0C 		add	ip, r2, ip, lsl #2
 118              	.LVL13:
 166:DSP/Source/FilteringFunctions/arm_correlate_fast_q31.c ****   py = pSrc1;
 119              		.loc 1 166 3 is_stmt 1 view .LVU37
ARM GAS  /var/folders/ck/g3dcd5x55xs4107jgdl0snvr0000gn/T//ccD2ZXvQ.s 			page 6


 167:DSP/Source/FilteringFunctions/arm_correlate_fast_q31.c **** 
 168:DSP/Source/FilteringFunctions/arm_correlate_fast_q31.c ****   /* ------------------------
 169:DSP/Source/FilteringFunctions/arm_correlate_fast_q31.c ****    * Stage1 process
 170:DSP/Source/FilteringFunctions/arm_correlate_fast_q31.c ****    * ----------------------*/
 171:DSP/Source/FilteringFunctions/arm_correlate_fast_q31.c **** 
 172:DSP/Source/FilteringFunctions/arm_correlate_fast_q31.c ****   /* The first stage starts here */
 173:DSP/Source/FilteringFunctions/arm_correlate_fast_q31.c ****   while (blockSize1 > 0U)
 120              		.loc 1 173 3 view .LVU38
 143:DSP/Source/FilteringFunctions/arm_correlate_fast_q31.c ****   blockSize2 = srcALen - (srcBLen - 1U);
 121              		.loc 1 143 14 is_stmt 0 view .LVU39
 122 003e 1846     		mov	r0, r3
 123              	.LVL14:
 166:DSP/Source/FilteringFunctions/arm_correlate_fast_q31.c ****   py = pSrc1;
 124              		.loc 1 166 6 view .LVU40
 125 0040 6146     		mov	r1, ip
 159:DSP/Source/FilteringFunctions/arm_correlate_fast_q31.c **** 
 126              		.loc 1 159 9 view .LVU41
 127 0042 0127     		movs	r7, #1
 128 0044 CDF800A0 		str	r10, [sp]
 129 0048 9E46     		mov	lr, r3
 130 004a A046     		mov	r8, r4
 131              		.loc 1 173 9 view .LVU42
 132 004c 6AE0     		b	.L4
 133              	.LVL15:
 134              	.L2:
 115:DSP/Source/FilteringFunctions/arm_correlate_fast_q31.c **** 
 135              		.loc 1 115 5 is_stmt 1 view .LVU43
 118:DSP/Source/FilteringFunctions/arm_correlate_fast_q31.c **** 
 136              		.loc 1 118 5 view .LVU44
 121:DSP/Source/FilteringFunctions/arm_correlate_fast_q31.c ****     srcBLen = srcALen;
 137              		.loc 1 121 5 view .LVU45
 122:DSP/Source/FilteringFunctions/arm_correlate_fast_q31.c ****     srcALen = j;
 138              		.loc 1 122 5 view .LVU46
 123:DSP/Source/FilteringFunctions/arm_correlate_fast_q31.c **** 
 139              		.loc 1 123 5 view .LVU47
 127:DSP/Source/FilteringFunctions/arm_correlate_fast_q31.c **** 
 140              		.loc 1 127 5 view .LVU48
 127:DSP/Source/FilteringFunctions/arm_correlate_fast_q31.c **** 
 141              		.loc 1 127 29 is_stmt 0 view .LVU49
 142 004e CB18     		adds	r3, r1, r3
 143              	.LVL16:
 127:DSP/Source/FilteringFunctions/arm_correlate_fast_q31.c **** 
 144              		.loc 1 127 17 view .LVU50
 145 0050 03F18043 		add	r3, r3, #1073741824
 146 0054 023B     		subs	r3, r3, #2
 127:DSP/Source/FilteringFunctions/arm_correlate_fast_q31.c **** 
 147              		.loc 1 127 10 view .LVU51
 148 0056 169A     		ldr	r2, [sp, #88]
 149              	.LVL17:
 127:DSP/Source/FilteringFunctions/arm_correlate_fast_q31.c **** 
 150              		.loc 1 127 10 view .LVU52
 151 0058 02EB830A 		add	r10, r2, r3, lsl #2
 152              	.LVL18:
 130:DSP/Source/FilteringFunctions/arm_correlate_fast_q31.c **** 
 153              		.loc 1 130 5 is_stmt 1 view .LVU53
 127:DSP/Source/FilteringFunctions/arm_correlate_fast_q31.c **** 
 154              		.loc 1 127 10 is_stmt 0 view .LVU54
ARM GAS  /var/folders/ck/g3dcd5x55xs4107jgdl0snvr0000gn/T//ccD2ZXvQ.s 			page 7


 155 005c 049B     		ldr	r3, [sp, #16]
 115:DSP/Source/FilteringFunctions/arm_correlate_fast_q31.c **** 
 156              		.loc 1 115 10 view .LVU55
 157 005e 039A     		ldr	r2, [sp, #12]
 158 0060 0492     		str	r2, [sp, #16]
 159              	.LVL19:
 118:DSP/Source/FilteringFunctions/arm_correlate_fast_q31.c **** 
 160              		.loc 1 118 10 view .LVU56
 161 0062 0393     		str	r3, [sp, #12]
 162              	.LVL20:
 127:DSP/Source/FilteringFunctions/arm_correlate_fast_q31.c **** 
 163              		.loc 1 127 10 view .LVU57
 164 0064 0B46     		mov	r3, r1
 165              	.LVL21:
 123:DSP/Source/FilteringFunctions/arm_correlate_fast_q31.c **** 
 166              		.loc 1 123 13 view .LVU58
 167 0066 5946     		mov	r1, fp
 168              	.LVL22:
 122:DSP/Source/FilteringFunctions/arm_correlate_fast_q31.c ****     srcALen = j;
 169              		.loc 1 122 13 view .LVU59
 170 0068 9B46     		mov	fp, r3
 171              	.LVL23:
 130:DSP/Source/FilteringFunctions/arm_correlate_fast_q31.c **** 
 172              		.loc 1 130 9 view .LVU60
 173 006a 4FF0FF34 		mov	r4, #-1
 174 006e D9E7     		b	.L3
 175              	.LVL24:
 176              	.L6:
 174:DSP/Source/FilteringFunctions/arm_correlate_fast_q31.c ****   {
 175:DSP/Source/FilteringFunctions/arm_correlate_fast_q31.c ****     /* Accumulator is made zero for every iteration */
 176:DSP/Source/FilteringFunctions/arm_correlate_fast_q31.c ****     sum = 0;
 177:DSP/Source/FilteringFunctions/arm_correlate_fast_q31.c **** 
 178:DSP/Source/FilteringFunctions/arm_correlate_fast_q31.c ****     /* Apply loop unrolling and compute 4 MACs simultaneously. */
 179:DSP/Source/FilteringFunctions/arm_correlate_fast_q31.c ****     k = count >> 2;
 180:DSP/Source/FilteringFunctions/arm_correlate_fast_q31.c **** 
 181:DSP/Source/FilteringFunctions/arm_correlate_fast_q31.c ****     /* First part of the processing with loop unrolling.  Compute 4 MACs at a time.
 182:DSP/Source/FilteringFunctions/arm_correlate_fast_q31.c ****      ** a second loop below computes MACs for the remaining 1 to 3 samples. */
 183:DSP/Source/FilteringFunctions/arm_correlate_fast_q31.c ****     while (k > 0U)
 184:DSP/Source/FilteringFunctions/arm_correlate_fast_q31.c ****     {
 185:DSP/Source/FilteringFunctions/arm_correlate_fast_q31.c ****       /* x[0] * y[srcBLen - 4] */
 186:DSP/Source/FilteringFunctions/arm_correlate_fast_q31.c ****       sum = (q31_t) ((((q63_t) sum << 32) +
 177              		.loc 1 186 7 is_stmt 1 view .LVU61
 187:DSP/Source/FilteringFunctions/arm_correlate_fast_q31.c ****                       ((q63_t) * px++ * (*py++))) >> 32);
 178              		.loc 1 187 32 is_stmt 0 view .LVU62
 179 0070 1768     		ldr	r7, [r2]
 180              		.loc 1 187 24 view .LVU63
 181 0072 4FEAE77A 		asr	r10, r7, #31
 182              	.LVL25:
 183              		.loc 1 187 42 view .LVU64
 184 0076 0D68     		ldr	r5, [r1]
 185 0078 EC17     		asrs	r4, r5, #31
 186              		.loc 1 187 39 view .LVU65
 187 007a 07FB04F4 		mul	r4, r7, r4
 188 007e 05FB0A44 		mla	r4, r5, r10, r4
 189 0082 A7FB0575 		umull	r7, r5, r7, r5
 190 0086 2C44     		add	r4, r4, r5
 186:DSP/Source/FilteringFunctions/arm_correlate_fast_q31.c ****                       ((q63_t) * px++ * (*py++))) >> 32);
ARM GAS  /var/folders/ck/g3dcd5x55xs4107jgdl0snvr0000gn/T//ccD2ZXvQ.s 			page 8


 191              		.loc 1 186 43 view .LVU66
 192 0088 2344     		add	r3, r3, r4
 193              	.LVL26:
 188:DSP/Source/FilteringFunctions/arm_correlate_fast_q31.c ****       /* x[1] * y[srcBLen - 3] */
 189:DSP/Source/FilteringFunctions/arm_correlate_fast_q31.c ****       sum = (q31_t) ((((q63_t) sum << 32) +
 194              		.loc 1 189 7 is_stmt 1 view .LVU67
 190:DSP/Source/FilteringFunctions/arm_correlate_fast_q31.c ****                       ((q63_t) * px++ * (*py++))) >> 32);
 195              		.loc 1 190 32 is_stmt 0 view .LVU68
 196 008a 5768     		ldr	r7, [r2, #4]
 197              		.loc 1 190 24 view .LVU69
 198 008c 4FEAE77A 		asr	r10, r7, #31
 199              	.LVL27:
 200              		.loc 1 190 42 view .LVU70
 201 0090 4D68     		ldr	r5, [r1, #4]
 202 0092 EC17     		asrs	r4, r5, #31
 203              		.loc 1 190 39 view .LVU71
 204 0094 07FB04F4 		mul	r4, r7, r4
 205 0098 05FB0A44 		mla	r4, r5, r10, r4
 206 009c A7FB0575 		umull	r7, r5, r7, r5
 207 00a0 2C44     		add	r4, r4, r5
 189:DSP/Source/FilteringFunctions/arm_correlate_fast_q31.c ****                       ((q63_t) * px++ * (*py++))) >> 32);
 208              		.loc 1 189 43 view .LVU72
 209 00a2 2344     		add	r3, r3, r4
 191:DSP/Source/FilteringFunctions/arm_correlate_fast_q31.c ****       /* x[2] * y[srcBLen - 2] */
 192:DSP/Source/FilteringFunctions/arm_correlate_fast_q31.c ****       sum = (q31_t) ((((q63_t) sum << 32) +
 210              		.loc 1 192 7 is_stmt 1 view .LVU73
 211              	.LVL28:
 193:DSP/Source/FilteringFunctions/arm_correlate_fast_q31.c ****                       ((q63_t) * px++ * (*py++))) >> 32);
 212              		.loc 1 193 32 is_stmt 0 view .LVU74
 213 00a4 9768     		ldr	r7, [r2, #8]
 214              		.loc 1 193 24 view .LVU75
 215 00a6 4FEAE77A 		asr	r10, r7, #31
 216              	.LVL29:
 217              		.loc 1 193 42 view .LVU76
 218 00aa 8D68     		ldr	r5, [r1, #8]
 219 00ac EC17     		asrs	r4, r5, #31
 220              		.loc 1 193 39 view .LVU77
 221 00ae 07FB04F4 		mul	r4, r7, r4
 222 00b2 05FB0A44 		mla	r4, r5, r10, r4
 223 00b6 A7FB0575 		umull	r7, r5, r7, r5
 224 00ba 2C44     		add	r4, r4, r5
 192:DSP/Source/FilteringFunctions/arm_correlate_fast_q31.c ****                       ((q63_t) * px++ * (*py++))) >> 32);
 225              		.loc 1 192 43 view .LVU78
 226 00bc 1C44     		add	r4, r4, r3
 194:DSP/Source/FilteringFunctions/arm_correlate_fast_q31.c ****       /* x[3] * y[srcBLen - 1] */
 195:DSP/Source/FilteringFunctions/arm_correlate_fast_q31.c ****       sum = (q31_t) ((((q63_t) sum << 32) +
 227              		.loc 1 195 7 is_stmt 1 view .LVU79
 228              	.LVL30:
 196:DSP/Source/FilteringFunctions/arm_correlate_fast_q31.c ****                       ((q63_t) * px++ * (*py++))) >> 32);
 229              		.loc 1 196 32 is_stmt 0 view .LVU80
 230 00be D768     		ldr	r7, [r2, #12]
 231              		.loc 1 196 24 view .LVU81
 232 00c0 4FEAE77A 		asr	r10, r7, #31
 233              	.LVL31:
 234              		.loc 1 196 42 view .LVU82
 235 00c4 CD68     		ldr	r5, [r1, #12]
 236 00c6 EB17     		asrs	r3, r5, #31
ARM GAS  /var/folders/ck/g3dcd5x55xs4107jgdl0snvr0000gn/T//ccD2ZXvQ.s 			page 9


 237              		.loc 1 196 39 view .LVU83
 238 00c8 07FB03F3 		mul	r3, r7, r3
 239 00cc 05FB0A33 		mla	r3, r5, r10, r3
 240 00d0 A7FB0575 		umull	r7, r5, r7, r5
 241 00d4 2B44     		add	r3, r3, r5
 195:DSP/Source/FilteringFunctions/arm_correlate_fast_q31.c ****                       ((q63_t) * px++ * (*py++))) >> 32);
 242              		.loc 1 195 11 view .LVU84
 243 00d6 2344     		add	r3, r3, r4
 244              	.LVL32:
 197:DSP/Source/FilteringFunctions/arm_correlate_fast_q31.c **** 
 198:DSP/Source/FilteringFunctions/arm_correlate_fast_q31.c ****       /* Decrement the loop counter */
 199:DSP/Source/FilteringFunctions/arm_correlate_fast_q31.c ****       k--;
 245              		.loc 1 199 7 is_stmt 1 view .LVU85
 246              		.loc 1 199 8 is_stmt 0 view .LVU86
 247 00d8 013E     		subs	r6, r6, #1
 248              	.LVL33:
 196:DSP/Source/FilteringFunctions/arm_correlate_fast_q31.c **** 
 249              		.loc 1 196 45 view .LVU87
 250 00da 1031     		adds	r1, r1, #16
 251              	.LVL34:
 196:DSP/Source/FilteringFunctions/arm_correlate_fast_q31.c **** 
 252              		.loc 1 196 36 view .LVU88
 253 00dc 1032     		adds	r2, r2, #16
 254              	.LVL35:
 255              	.L5:
 183:DSP/Source/FilteringFunctions/arm_correlate_fast_q31.c ****     {
 256              		.loc 1 183 14 is_stmt 1 view .LVU89
 257 00de 002E     		cmp	r6, #0
 258 00e0 C6D1     		bne	.L6
 200:DSP/Source/FilteringFunctions/arm_correlate_fast_q31.c ****     }
 201:DSP/Source/FilteringFunctions/arm_correlate_fast_q31.c **** 
 202:DSP/Source/FilteringFunctions/arm_correlate_fast_q31.c ****     /* If the count is not a multiple of 4, compute any remaining MACs here.
 203:DSP/Source/FilteringFunctions/arm_correlate_fast_q31.c ****      ** No loop unrolling is used. */
 204:DSP/Source/FilteringFunctions/arm_correlate_fast_q31.c ****     k = count % 0x4U;
 259              		.loc 1 204 7 is_stmt 0 view .LVU90
 260 00e2 019F     		ldr	r7, [sp, #4]
 261              		.loc 1 204 5 is_stmt 1 view .LVU91
 262              		.loc 1 204 7 is_stmt 0 view .LVU92
 263 00e4 07F00304 		and	r4, r7, #3
 264              	.LVL36:
 205:DSP/Source/FilteringFunctions/arm_correlate_fast_q31.c **** 
 206:DSP/Source/FilteringFunctions/arm_correlate_fast_q31.c ****     while (k > 0U)
 265              		.loc 1 206 5 is_stmt 1 view .LVU93
 266              		.loc 1 206 11 is_stmt 0 view .LVU94
 267 00e8 0FE0     		b	.L7
 268              	.L8:
 207:DSP/Source/FilteringFunctions/arm_correlate_fast_q31.c ****     {
 208:DSP/Source/FilteringFunctions/arm_correlate_fast_q31.c ****       /* Perform the multiply-accumulates */
 209:DSP/Source/FilteringFunctions/arm_correlate_fast_q31.c ****       /* x[0] * y[srcBLen - 1] */
 210:DSP/Source/FilteringFunctions/arm_correlate_fast_q31.c ****       sum = (q31_t) ((((q63_t) sum << 32) +
 269              		.loc 1 210 7 is_stmt 1 view .LVU95
 270              	.LVL37:
 211:DSP/Source/FilteringFunctions/arm_correlate_fast_q31.c ****                       ((q63_t) * px++ * (*py++))) >> 32);
 271              		.loc 1 211 32 is_stmt 0 view .LVU96
 272 00ea 52F8047B 		ldr	r7, [r2], #4
 273              	.LVL38:
 274              		.loc 1 211 24 view .LVU97
ARM GAS  /var/folders/ck/g3dcd5x55xs4107jgdl0snvr0000gn/T//ccD2ZXvQ.s 			page 10


 275 00ee 4FEAE77A 		asr	r10, r7, #31
 276              	.LVL39:
 277              		.loc 1 211 42 view .LVU98
 278 00f2 51F8046B 		ldr	r6, [r1], #4
 279              	.LVL40:
 280              		.loc 1 211 42 view .LVU99
 281 00f6 F517     		asrs	r5, r6, #31
 282              		.loc 1 211 39 view .LVU100
 283 00f8 07FB05F5 		mul	r5, r7, r5
 284 00fc 06FB0A55 		mla	r5, r6, r10, r5
 285 0100 A7FB0676 		umull	r7, r6, r7, r6
 286 0104 3544     		add	r5, r5, r6
 210:DSP/Source/FilteringFunctions/arm_correlate_fast_q31.c ****                       ((q63_t) * px++ * (*py++))) >> 32);
 287              		.loc 1 210 11 view .LVU101
 288 0106 2B44     		add	r3, r3, r5
 289              	.LVL41:
 212:DSP/Source/FilteringFunctions/arm_correlate_fast_q31.c **** 
 213:DSP/Source/FilteringFunctions/arm_correlate_fast_q31.c ****       /* Decrement the loop counter */
 214:DSP/Source/FilteringFunctions/arm_correlate_fast_q31.c ****       k--;
 290              		.loc 1 214 7 is_stmt 1 view .LVU102
 291              		.loc 1 214 8 is_stmt 0 view .LVU103
 292 0108 013C     		subs	r4, r4, #1
 293              	.LVL42:
 294              	.L7:
 206:DSP/Source/FilteringFunctions/arm_correlate_fast_q31.c ****     {
 295              		.loc 1 206 14 is_stmt 1 view .LVU104
 296 010a 002C     		cmp	r4, #0
 297 010c EDD1     		bne	.L8
 215:DSP/Source/FilteringFunctions/arm_correlate_fast_q31.c ****     }
 216:DSP/Source/FilteringFunctions/arm_correlate_fast_q31.c **** 
 217:DSP/Source/FilteringFunctions/arm_correlate_fast_q31.c ****     /* Store the result in the accumulator in the destination buffer. */
 218:DSP/Source/FilteringFunctions/arm_correlate_fast_q31.c ****     *pOut = sum << 1;
 298              		.loc 1 218 17 is_stmt 0 view .LVU105
 299 010e 019F     		ldr	r7, [sp, #4]
 300              		.loc 1 218 5 is_stmt 1 view .LVU106
 301              		.loc 1 218 17 is_stmt 0 view .LVU107
 302 0110 5B00     		lsls	r3, r3, #1
 303              	.LVL43:
 304              		.loc 1 218 11 view .LVU108
 305 0112 009A     		ldr	r2, [sp]
 306              	.LVL44:
 307              		.loc 1 218 11 view .LVU109
 308 0114 1360     		str	r3, [r2]
 219:DSP/Source/FilteringFunctions/arm_correlate_fast_q31.c ****     /* Destination pointer is updated according to the address modifier, inc */
 220:DSP/Source/FilteringFunctions/arm_correlate_fast_q31.c ****     pOut += inc;
 309              		.loc 1 220 5 is_stmt 1 view .LVU110
 310              		.loc 1 220 10 is_stmt 0 view .LVU111
 311 0116 02EB8803 		add	r3, r2, r8, lsl #2
 312 011a 0093     		str	r3, [sp]
 313              	.LVL45:
 221:DSP/Source/FilteringFunctions/arm_correlate_fast_q31.c **** 
 222:DSP/Source/FilteringFunctions/arm_correlate_fast_q31.c ****     /* Update the inputA and inputB pointers for next MAC calculation */
 223:DSP/Source/FilteringFunctions/arm_correlate_fast_q31.c ****     py = pSrc1 - count;
 314              		.loc 1 223 5 is_stmt 1 view .LVU112
 315              		.loc 1 223 8 is_stmt 0 view .LVU113
 316 011c ACEB8701 		sub	r1, ip, r7, lsl #2
 317              	.LVL46:
ARM GAS  /var/folders/ck/g3dcd5x55xs4107jgdl0snvr0000gn/T//ccD2ZXvQ.s 			page 11


 224:DSP/Source/FilteringFunctions/arm_correlate_fast_q31.c ****     px = pIn1;
 318              		.loc 1 224 5 is_stmt 1 view .LVU114
 225:DSP/Source/FilteringFunctions/arm_correlate_fast_q31.c **** 
 226:DSP/Source/FilteringFunctions/arm_correlate_fast_q31.c ****     /* Increment the MAC count */
 227:DSP/Source/FilteringFunctions/arm_correlate_fast_q31.c ****     count++;
 319              		.loc 1 227 5 view .LVU115
 320              		.loc 1 227 10 is_stmt 0 view .LVU116
 321 0120 0137     		adds	r7, r7, #1
 322              	.LVL47:
 228:DSP/Source/FilteringFunctions/arm_correlate_fast_q31.c **** 
 229:DSP/Source/FilteringFunctions/arm_correlate_fast_q31.c ****     /* Decrement the loop counter */
 230:DSP/Source/FilteringFunctions/arm_correlate_fast_q31.c ****     blockSize1--;
 323              		.loc 1 230 5 is_stmt 1 view .LVU117
 324              		.loc 1 230 15 is_stmt 0 view .LVU118
 325 0122 0138     		subs	r0, r0, #1
 326              	.LVL48:
 327              	.L4:
 173:DSP/Source/FilteringFunctions/arm_correlate_fast_q31.c ****   {
 328              		.loc 1 173 21 is_stmt 1 view .LVU119
 329 0124 20B1     		cbz	r0, .L34
 176:DSP/Source/FilteringFunctions/arm_correlate_fast_q31.c **** 
 330              		.loc 1 176 5 view .LVU120
 331              	.LVL49:
 179:DSP/Source/FilteringFunctions/arm_correlate_fast_q31.c **** 
 332              		.loc 1 179 5 view .LVU121
 179:DSP/Source/FilteringFunctions/arm_correlate_fast_q31.c **** 
 333              		.loc 1 179 7 is_stmt 0 view .LVU122
 334 0126 BE08     		lsrs	r6, r7, #2
 335              	.LVL50:
 183:DSP/Source/FilteringFunctions/arm_correlate_fast_q31.c ****     {
 336              		.loc 1 183 5 is_stmt 1 view .LVU123
 183:DSP/Source/FilteringFunctions/arm_correlate_fast_q31.c ****     {
 337              		.loc 1 183 11 is_stmt 0 view .LVU124
 338 0128 049A     		ldr	r2, [sp, #16]
 176:DSP/Source/FilteringFunctions/arm_correlate_fast_q31.c **** 
 339              		.loc 1 176 9 view .LVU125
 340 012a 0023     		movs	r3, #0
 341 012c 0197     		str	r7, [sp, #4]
 183:DSP/Source/FilteringFunctions/arm_correlate_fast_q31.c ****     {
 342              		.loc 1 183 11 view .LVU126
 343 012e D6E7     		b	.L5
 344              	.LVL51:
 345              	.L34:
 231:DSP/Source/FilteringFunctions/arm_correlate_fast_q31.c ****   }
 232:DSP/Source/FilteringFunctions/arm_correlate_fast_q31.c **** 
 233:DSP/Source/FilteringFunctions/arm_correlate_fast_q31.c ****   /* --------------------------
 234:DSP/Source/FilteringFunctions/arm_correlate_fast_q31.c ****    * Initializations of stage2
 235:DSP/Source/FilteringFunctions/arm_correlate_fast_q31.c ****    * ------------------------*/
 236:DSP/Source/FilteringFunctions/arm_correlate_fast_q31.c **** 
 237:DSP/Source/FilteringFunctions/arm_correlate_fast_q31.c ****   /* sum = x[0] * y[0] + x[1] * y[1] +...+ x[srcBLen-1] * y[srcBLen-1]
 238:DSP/Source/FilteringFunctions/arm_correlate_fast_q31.c ****    * sum = x[1] * y[0] + x[2] * y[1] +...+ x[srcBLen] * y[srcBLen-1]
 239:DSP/Source/FilteringFunctions/arm_correlate_fast_q31.c ****    * ....
 240:DSP/Source/FilteringFunctions/arm_correlate_fast_q31.c ****    * sum = x[srcALen-srcBLen-2] * y[0] + x[srcALen-srcBLen-1] * y[1] +...+ x[srcALen-1] * y[srcBLen
 241:DSP/Source/FilteringFunctions/arm_correlate_fast_q31.c ****    */
 242:DSP/Source/FilteringFunctions/arm_correlate_fast_q31.c **** 
 243:DSP/Source/FilteringFunctions/arm_correlate_fast_q31.c ****   /* Working pointer of inputA */
 244:DSP/Source/FilteringFunctions/arm_correlate_fast_q31.c ****   px = pIn1;
ARM GAS  /var/folders/ck/g3dcd5x55xs4107jgdl0snvr0000gn/T//ccD2ZXvQ.s 			page 12


 245:DSP/Source/FilteringFunctions/arm_correlate_fast_q31.c **** 
 246:DSP/Source/FilteringFunctions/arm_correlate_fast_q31.c ****   /* Working pointer of inputB */
 247:DSP/Source/FilteringFunctions/arm_correlate_fast_q31.c ****   py = pIn2;
 248:DSP/Source/FilteringFunctions/arm_correlate_fast_q31.c **** 
 249:DSP/Source/FilteringFunctions/arm_correlate_fast_q31.c ****   /* count is index by which the pointer pIn1 to be incremented */
 250:DSP/Source/FilteringFunctions/arm_correlate_fast_q31.c ****   count = 0U;
 251:DSP/Source/FilteringFunctions/arm_correlate_fast_q31.c **** 
 252:DSP/Source/FilteringFunctions/arm_correlate_fast_q31.c ****   /* -------------------
 253:DSP/Source/FilteringFunctions/arm_correlate_fast_q31.c ****    * Stage2 process
 254:DSP/Source/FilteringFunctions/arm_correlate_fast_q31.c ****    * ------------------*/
 255:DSP/Source/FilteringFunctions/arm_correlate_fast_q31.c **** 
 256:DSP/Source/FilteringFunctions/arm_correlate_fast_q31.c ****   /* Stage2 depends on srcBLen as in this stage srcBLen number of MACS are performed.
 257:DSP/Source/FilteringFunctions/arm_correlate_fast_q31.c ****    * So, to loop unroll over blockSize2,
 258:DSP/Source/FilteringFunctions/arm_correlate_fast_q31.c ****    * srcBLen should be greater than or equal to 4 */
 259:DSP/Source/FilteringFunctions/arm_correlate_fast_q31.c ****   if (srcBLen >= 4U)
 346              		.loc 1 259 6 view .LVU127
 347 0130 DDF800A0 		ldr	r10, [sp]
 348 0134 7346     		mov	r3, lr
 349 0136 4446     		mov	r4, r8
 244:DSP/Source/FilteringFunctions/arm_correlate_fast_q31.c **** 
 350              		.loc 1 244 3 is_stmt 1 view .LVU128
 247:DSP/Source/FilteringFunctions/arm_correlate_fast_q31.c **** 
 351              		.loc 1 247 3 view .LVU129
 352              	.LVL52:
 250:DSP/Source/FilteringFunctions/arm_correlate_fast_q31.c **** 
 353              		.loc 1 250 3 view .LVU130
 354              		.loc 1 259 3 view .LVU131
 355              		.loc 1 259 6 is_stmt 0 view .LVU132
 356 0138 BBF1030F 		cmp	fp, #3
 357 013c 40F2E381 		bls	.L31
 358              	.LVL53:
 260:DSP/Source/FilteringFunctions/arm_correlate_fast_q31.c ****   {
 261:DSP/Source/FilteringFunctions/arm_correlate_fast_q31.c ****     /* Loop unroll over blockSize2, by 4 */
 262:DSP/Source/FilteringFunctions/arm_correlate_fast_q31.c ****     blkCnt = blockSize2 >> 2U;
 359              		.loc 1 262 5 is_stmt 1 view .LVU133
 360              		.loc 1 262 12 is_stmt 0 view .LVU134
 361 0140 4FEA9902 		lsr	r2, r9, #2
 362 0144 0592     		str	r2, [sp, #20]
 363              	.LVL54:
 263:DSP/Source/FilteringFunctions/arm_correlate_fast_q31.c **** 
 264:DSP/Source/FilteringFunctions/arm_correlate_fast_q31.c ****     while (blkCnt > 0U)
 364              		.loc 1 264 5 is_stmt 1 view .LVU135
 244:DSP/Source/FilteringFunctions/arm_correlate_fast_q31.c **** 
 365              		.loc 1 244 6 is_stmt 0 view .LVU136
 366 0146 0499     		ldr	r1, [sp, #16]
 367 0148 0690     		str	r0, [sp, #24]
 368 014a CDF828E0 		str	lr, [sp, #40]
 369 014e 4646     		mov	r6, r8
 370 0150 5446     		mov	r4, r10
 371              	.LVL55:
 244:DSP/Source/FilteringFunctions/arm_correlate_fast_q31.c **** 
 372              		.loc 1 244 6 view .LVU137
 373 0152 CDF82C90 		str	r9, [sp, #44]
 374 0156 CDF81CB0 		str	fp, [sp, #28]
 375              		.loc 1 264 11 view .LVU138
 376 015a 1DE0     		b	.L11
 377              	.LVL56:
ARM GAS  /var/folders/ck/g3dcd5x55xs4107jgdl0snvr0000gn/T//ccD2ZXvQ.s 			page 13


 378              	.L36:
 265:DSP/Source/FilteringFunctions/arm_correlate_fast_q31.c ****     {
 266:DSP/Source/FilteringFunctions/arm_correlate_fast_q31.c ****       /* Set all accumulators to zero */
 267:DSP/Source/FilteringFunctions/arm_correlate_fast_q31.c ****       acc0 = 0;
 268:DSP/Source/FilteringFunctions/arm_correlate_fast_q31.c ****       acc1 = 0;
 269:DSP/Source/FilteringFunctions/arm_correlate_fast_q31.c ****       acc2 = 0;
 270:DSP/Source/FilteringFunctions/arm_correlate_fast_q31.c ****       acc3 = 0;
 271:DSP/Source/FilteringFunctions/arm_correlate_fast_q31.c **** 
 272:DSP/Source/FilteringFunctions/arm_correlate_fast_q31.c ****       /* read x[0], x[1], x[2] samples */
 273:DSP/Source/FilteringFunctions/arm_correlate_fast_q31.c ****       x0 = *(px++);
 274:DSP/Source/FilteringFunctions/arm_correlate_fast_q31.c ****       x1 = *(px++);
 275:DSP/Source/FilteringFunctions/arm_correlate_fast_q31.c ****       x2 = *(px++);
 276:DSP/Source/FilteringFunctions/arm_correlate_fast_q31.c **** 
 277:DSP/Source/FilteringFunctions/arm_correlate_fast_q31.c ****       /* Apply loop unrolling and compute 4 MACs simultaneously. */
 278:DSP/Source/FilteringFunctions/arm_correlate_fast_q31.c ****       k = srcBLen >> 2U;
 279:DSP/Source/FilteringFunctions/arm_correlate_fast_q31.c **** 
 280:DSP/Source/FilteringFunctions/arm_correlate_fast_q31.c ****       /* First part of the processing with loop unrolling.  Compute 4 MACs at a time.
 281:DSP/Source/FilteringFunctions/arm_correlate_fast_q31.c ****        ** a second loop below computes MACs for the remaining 1 to 3 samples. */
 282:DSP/Source/FilteringFunctions/arm_correlate_fast_q31.c ****       do
 283:DSP/Source/FilteringFunctions/arm_correlate_fast_q31.c ****       {
 284:DSP/Source/FilteringFunctions/arm_correlate_fast_q31.c ****         /* Read y[0] sample */
 285:DSP/Source/FilteringFunctions/arm_correlate_fast_q31.c ****         c0 = *(py++);
 286:DSP/Source/FilteringFunctions/arm_correlate_fast_q31.c **** 
 287:DSP/Source/FilteringFunctions/arm_correlate_fast_q31.c ****         /* Read x[3] sample */
 288:DSP/Source/FilteringFunctions/arm_correlate_fast_q31.c ****         x3 = *(px++);
 289:DSP/Source/FilteringFunctions/arm_correlate_fast_q31.c **** 
 290:DSP/Source/FilteringFunctions/arm_correlate_fast_q31.c ****         /* Perform the multiply-accumulate */
 291:DSP/Source/FilteringFunctions/arm_correlate_fast_q31.c ****         /* acc0 +=  x[0] * y[0] */
 292:DSP/Source/FilteringFunctions/arm_correlate_fast_q31.c ****         acc0 = (q31_t) ((((q63_t) acc0 << 32) + ((q63_t) x0 * c0)) >> 32);
 293:DSP/Source/FilteringFunctions/arm_correlate_fast_q31.c ****         /* acc1 +=  x[1] * y[0] */
 294:DSP/Source/FilteringFunctions/arm_correlate_fast_q31.c ****         acc1 = (q31_t) ((((q63_t) acc1 << 32) + ((q63_t) x1 * c0)) >> 32);
 295:DSP/Source/FilteringFunctions/arm_correlate_fast_q31.c ****         /* acc2 +=  x[2] * y[0] */
 296:DSP/Source/FilteringFunctions/arm_correlate_fast_q31.c ****         acc2 = (q31_t) ((((q63_t) acc2 << 32) + ((q63_t) x2 * c0)) >> 32);
 297:DSP/Source/FilteringFunctions/arm_correlate_fast_q31.c ****         /* acc3 +=  x[3] * y[0] */
 298:DSP/Source/FilteringFunctions/arm_correlate_fast_q31.c ****         acc3 = (q31_t) ((((q63_t) acc3 << 32) + ((q63_t) x3 * c0)) >> 32);
 299:DSP/Source/FilteringFunctions/arm_correlate_fast_q31.c **** 
 300:DSP/Source/FilteringFunctions/arm_correlate_fast_q31.c ****         /* Read y[1] sample */
 301:DSP/Source/FilteringFunctions/arm_correlate_fast_q31.c ****         c0 = *(py++);
 302:DSP/Source/FilteringFunctions/arm_correlate_fast_q31.c **** 
 303:DSP/Source/FilteringFunctions/arm_correlate_fast_q31.c ****         /* Read x[4] sample */
 304:DSP/Source/FilteringFunctions/arm_correlate_fast_q31.c ****         x0 = *(px++);
 305:DSP/Source/FilteringFunctions/arm_correlate_fast_q31.c **** 
 306:DSP/Source/FilteringFunctions/arm_correlate_fast_q31.c ****         /* Perform the multiply-accumulates */
 307:DSP/Source/FilteringFunctions/arm_correlate_fast_q31.c ****         /* acc0 +=  x[1] * y[1] */
 308:DSP/Source/FilteringFunctions/arm_correlate_fast_q31.c ****         acc0 = (q31_t) ((((q63_t) acc0 << 32) + ((q63_t) x1 * c0)) >> 32);
 309:DSP/Source/FilteringFunctions/arm_correlate_fast_q31.c ****         /* acc1 +=  x[2] * y[1] */
 310:DSP/Source/FilteringFunctions/arm_correlate_fast_q31.c ****         acc1 = (q31_t) ((((q63_t) acc1 << 32) + ((q63_t) x2 * c0)) >> 32);
 311:DSP/Source/FilteringFunctions/arm_correlate_fast_q31.c ****         /* acc2 +=  x[3] * y[1] */
 312:DSP/Source/FilteringFunctions/arm_correlate_fast_q31.c ****         acc2 = (q31_t) ((((q63_t) acc2 << 32) + ((q63_t) x3 * c0)) >> 32);
 313:DSP/Source/FilteringFunctions/arm_correlate_fast_q31.c ****         /* acc3 +=  x[4] * y[1] */
 314:DSP/Source/FilteringFunctions/arm_correlate_fast_q31.c ****         acc3 = (q31_t) ((((q63_t) acc3 << 32) + ((q63_t) x0 * c0)) >> 32);
 315:DSP/Source/FilteringFunctions/arm_correlate_fast_q31.c **** 
 316:DSP/Source/FilteringFunctions/arm_correlate_fast_q31.c ****         /* Read y[2] sample */
 317:DSP/Source/FilteringFunctions/arm_correlate_fast_q31.c ****         c0 = *(py++);
 318:DSP/Source/FilteringFunctions/arm_correlate_fast_q31.c **** 
 319:DSP/Source/FilteringFunctions/arm_correlate_fast_q31.c ****         /* Read x[5] sample */
 320:DSP/Source/FilteringFunctions/arm_correlate_fast_q31.c ****         x1 = *(px++);
ARM GAS  /var/folders/ck/g3dcd5x55xs4107jgdl0snvr0000gn/T//ccD2ZXvQ.s 			page 14


 321:DSP/Source/FilteringFunctions/arm_correlate_fast_q31.c **** 
 322:DSP/Source/FilteringFunctions/arm_correlate_fast_q31.c ****         /* Perform the multiply-accumulates */
 323:DSP/Source/FilteringFunctions/arm_correlate_fast_q31.c ****         /* acc0 +=  x[2] * y[2] */
 324:DSP/Source/FilteringFunctions/arm_correlate_fast_q31.c ****         acc0 = (q31_t) ((((q63_t) acc0 << 32) + ((q63_t) x2 * c0)) >> 32);
 325:DSP/Source/FilteringFunctions/arm_correlate_fast_q31.c ****         /* acc1 +=  x[3] * y[2] */
 326:DSP/Source/FilteringFunctions/arm_correlate_fast_q31.c ****         acc1 = (q31_t) ((((q63_t) acc1 << 32) + ((q63_t) x3 * c0)) >> 32);
 327:DSP/Source/FilteringFunctions/arm_correlate_fast_q31.c ****         /* acc2 +=  x[4] * y[2] */
 328:DSP/Source/FilteringFunctions/arm_correlate_fast_q31.c ****         acc2 = (q31_t) ((((q63_t) acc2 << 32) + ((q63_t) x0 * c0)) >> 32);
 329:DSP/Source/FilteringFunctions/arm_correlate_fast_q31.c ****         /* acc3 +=  x[5] * y[2] */
 330:DSP/Source/FilteringFunctions/arm_correlate_fast_q31.c ****         acc3 = (q31_t) ((((q63_t) acc3 << 32) + ((q63_t) x1 * c0)) >> 32);
 331:DSP/Source/FilteringFunctions/arm_correlate_fast_q31.c **** 
 332:DSP/Source/FilteringFunctions/arm_correlate_fast_q31.c ****         /* Read y[3] sample */
 333:DSP/Source/FilteringFunctions/arm_correlate_fast_q31.c ****         c0 = *(py++);
 334:DSP/Source/FilteringFunctions/arm_correlate_fast_q31.c **** 
 335:DSP/Source/FilteringFunctions/arm_correlate_fast_q31.c ****         /* Read x[6] sample */
 336:DSP/Source/FilteringFunctions/arm_correlate_fast_q31.c ****         x2 = *(px++);
 337:DSP/Source/FilteringFunctions/arm_correlate_fast_q31.c **** 
 338:DSP/Source/FilteringFunctions/arm_correlate_fast_q31.c ****         /* Perform the multiply-accumulates */
 339:DSP/Source/FilteringFunctions/arm_correlate_fast_q31.c ****         /* acc0 +=  x[3] * y[3] */
 340:DSP/Source/FilteringFunctions/arm_correlate_fast_q31.c ****         acc0 = (q31_t) ((((q63_t) acc0 << 32) + ((q63_t) x3 * c0)) >> 32);
 341:DSP/Source/FilteringFunctions/arm_correlate_fast_q31.c ****         /* acc1 +=  x[4] * y[3] */
 342:DSP/Source/FilteringFunctions/arm_correlate_fast_q31.c ****         acc1 = (q31_t) ((((q63_t) acc1 << 32) + ((q63_t) x0 * c0)) >> 32);
 343:DSP/Source/FilteringFunctions/arm_correlate_fast_q31.c ****         /* acc2 +=  x[5] * y[3] */
 344:DSP/Source/FilteringFunctions/arm_correlate_fast_q31.c ****         acc2 = (q31_t) ((((q63_t) acc2 << 32) + ((q63_t) x1 * c0)) >> 32);
 345:DSP/Source/FilteringFunctions/arm_correlate_fast_q31.c ****         /* acc3 +=  x[6] * y[3] */
 346:DSP/Source/FilteringFunctions/arm_correlate_fast_q31.c ****         acc3 = (q31_t) ((((q63_t) acc3 << 32) + ((q63_t) x2 * c0)) >> 32);
 347:DSP/Source/FilteringFunctions/arm_correlate_fast_q31.c **** 
 348:DSP/Source/FilteringFunctions/arm_correlate_fast_q31.c **** 
 349:DSP/Source/FilteringFunctions/arm_correlate_fast_q31.c ****       } while (--k);
 350:DSP/Source/FilteringFunctions/arm_correlate_fast_q31.c **** 
 351:DSP/Source/FilteringFunctions/arm_correlate_fast_q31.c ****       /* If the srcBLen is not a multiple of 4, compute any remaining MACs here.
 352:DSP/Source/FilteringFunctions/arm_correlate_fast_q31.c ****        ** No loop unrolling is used. */
 353:DSP/Source/FilteringFunctions/arm_correlate_fast_q31.c ****       k = srcBLen % 0x4U;
 354:DSP/Source/FilteringFunctions/arm_correlate_fast_q31.c **** 
 355:DSP/Source/FilteringFunctions/arm_correlate_fast_q31.c ****       while (k > 0U)
 356:DSP/Source/FilteringFunctions/arm_correlate_fast_q31.c ****       {
 357:DSP/Source/FilteringFunctions/arm_correlate_fast_q31.c ****         /* Read y[4] sample */
 358:DSP/Source/FilteringFunctions/arm_correlate_fast_q31.c ****         c0 = *(py++);
 359:DSP/Source/FilteringFunctions/arm_correlate_fast_q31.c **** 
 360:DSP/Source/FilteringFunctions/arm_correlate_fast_q31.c ****         /* Read x[7] sample */
 361:DSP/Source/FilteringFunctions/arm_correlate_fast_q31.c ****         x3 = *(px++);
 362:DSP/Source/FilteringFunctions/arm_correlate_fast_q31.c **** 
 363:DSP/Source/FilteringFunctions/arm_correlate_fast_q31.c ****         /* Perform the multiply-accumulates */
 364:DSP/Source/FilteringFunctions/arm_correlate_fast_q31.c ****         /* acc0 +=  x[4] * y[4] */
 365:DSP/Source/FilteringFunctions/arm_correlate_fast_q31.c ****         acc0 = (q31_t) ((((q63_t) acc0 << 32) + ((q63_t) x0 * c0)) >> 32);
 366:DSP/Source/FilteringFunctions/arm_correlate_fast_q31.c ****         /* acc1 +=  x[5] * y[4] */
 367:DSP/Source/FilteringFunctions/arm_correlate_fast_q31.c ****         acc1 = (q31_t) ((((q63_t) acc1 << 32) + ((q63_t) x1 * c0)) >> 32);
 368:DSP/Source/FilteringFunctions/arm_correlate_fast_q31.c ****         /* acc2 +=  x[6] * y[4] */
 369:DSP/Source/FilteringFunctions/arm_correlate_fast_q31.c ****         acc2 = (q31_t) ((((q63_t) acc2 << 32) + ((q63_t) x2 * c0)) >> 32);
 370:DSP/Source/FilteringFunctions/arm_correlate_fast_q31.c ****         /* acc3 +=  x[7] * y[4] */
 371:DSP/Source/FilteringFunctions/arm_correlate_fast_q31.c ****         acc3 = (q31_t) ((((q63_t) acc3 << 32) + ((q63_t) x3 * c0)) >> 32);
 372:DSP/Source/FilteringFunctions/arm_correlate_fast_q31.c **** 
 373:DSP/Source/FilteringFunctions/arm_correlate_fast_q31.c ****         /* Reuse the present samples for the next MAC */
 374:DSP/Source/FilteringFunctions/arm_correlate_fast_q31.c ****         x0 = x1;
 375:DSP/Source/FilteringFunctions/arm_correlate_fast_q31.c ****         x1 = x2;
 376:DSP/Source/FilteringFunctions/arm_correlate_fast_q31.c ****         x2 = x3;
 377:DSP/Source/FilteringFunctions/arm_correlate_fast_q31.c **** 
ARM GAS  /var/folders/ck/g3dcd5x55xs4107jgdl0snvr0000gn/T//ccD2ZXvQ.s 			page 15


 378:DSP/Source/FilteringFunctions/arm_correlate_fast_q31.c ****         /* Decrement the loop counter */
 379:DSP/Source/FilteringFunctions/arm_correlate_fast_q31.c ****         k--;
 380:DSP/Source/FilteringFunctions/arm_correlate_fast_q31.c ****       }
 381:DSP/Source/FilteringFunctions/arm_correlate_fast_q31.c **** 
 382:DSP/Source/FilteringFunctions/arm_correlate_fast_q31.c ****       /* Store the result in the accumulator in the destination buffer. */
 383:DSP/Source/FilteringFunctions/arm_correlate_fast_q31.c ****       *pOut = (q31_t) (acc0 << 1);
 379              		.loc 1 383 15 view .LVU139
 380 015c 089C     		ldr	r4, [sp, #32]
 381              	.LVL57:
 382              		.loc 1 383 15 view .LVU140
 383 015e 6346     		mov	r3, ip
 384              	.LVL58:
 385              		.loc 1 383 15 view .LVU141
 386 0160 009E     		ldr	r6, [sp]
 387              		.loc 1 383 7 is_stmt 1 view .LVU142
 388              		.loc 1 383 15 is_stmt 0 view .LVU143
 389 0162 029A     		ldr	r2, [sp, #8]
 390              	.LVL59:
 391              		.loc 1 383 15 view .LVU144
 392 0164 5200     		lsls	r2, r2, #1
 393              		.loc 1 383 13 view .LVU145
 394 0166 2260     		str	r2, [r4]
 384:DSP/Source/FilteringFunctions/arm_correlate_fast_q31.c ****       /* Destination pointer is updated according to the address modifier, inc */
 385:DSP/Source/FilteringFunctions/arm_correlate_fast_q31.c ****       pOut += inc;
 395              		.loc 1 385 7 is_stmt 1 view .LVU146
 396              	.LVL60:
 386:DSP/Source/FilteringFunctions/arm_correlate_fast_q31.c **** 
 387:DSP/Source/FilteringFunctions/arm_correlate_fast_q31.c ****       *pOut = (q31_t) (acc1 << 1);
 397              		.loc 1 387 7 view .LVU147
 398              		.loc 1 387 15 is_stmt 0 view .LVU148
 399 0168 5B00     		lsls	r3, r3, #1
 400              		.loc 1 387 13 view .LVU149
 401 016a 44F82630 		str	r3, [r4, r6, lsl #2]
 388:DSP/Source/FilteringFunctions/arm_correlate_fast_q31.c ****       pOut += inc;
 402              		.loc 1 388 7 is_stmt 1 view .LVU150
 403              		.loc 1 388 12 is_stmt 0 view .LVU151
 404 016e 04EBC602 		add	r2, r4, r6, lsl #3
 405              	.LVL61:
 389:DSP/Source/FilteringFunctions/arm_correlate_fast_q31.c **** 
 390:DSP/Source/FilteringFunctions/arm_correlate_fast_q31.c ****       *pOut = (q31_t) (acc2 << 1);
 406              		.loc 1 390 7 is_stmt 1 view .LVU152
 407              		.loc 1 390 15 is_stmt 0 view .LVU153
 408 0172 4FEA4803 		lsl	r3, r8, #1
 409              		.loc 1 390 13 view .LVU154
 410 0176 44F83630 		str	r3, [r4, r6, lsl #3]
 391:DSP/Source/FilteringFunctions/arm_correlate_fast_q31.c ****       pOut += inc;
 411              		.loc 1 391 7 is_stmt 1 view .LVU155
 412              	.LVL62:
 392:DSP/Source/FilteringFunctions/arm_correlate_fast_q31.c **** 
 393:DSP/Source/FilteringFunctions/arm_correlate_fast_q31.c ****       *pOut = (q31_t) (acc3 << 1);
 413              		.loc 1 393 7 view .LVU156
 414              		.loc 1 393 15 is_stmt 0 view .LVU157
 415 017a 4FEA4E03 		lsl	r3, lr, #1
 416              		.loc 1 393 13 view .LVU158
 417 017e 42F82630 		str	r3, [r2, r6, lsl #2]
 394:DSP/Source/FilteringFunctions/arm_correlate_fast_q31.c ****       pOut += inc;
 418              		.loc 1 394 7 is_stmt 1 view .LVU159
ARM GAS  /var/folders/ck/g3dcd5x55xs4107jgdl0snvr0000gn/T//ccD2ZXvQ.s 			page 16


 419              		.loc 1 394 12 is_stmt 0 view .LVU160
 420 0182 02EBC604 		add	r4, r2, r6, lsl #3
 421              	.LVL63:
 395:DSP/Source/FilteringFunctions/arm_correlate_fast_q31.c **** 
 396:DSP/Source/FilteringFunctions/arm_correlate_fast_q31.c ****       /* Increment the pointer pIn1 index, count by 4 */
 397:DSP/Source/FilteringFunctions/arm_correlate_fast_q31.c ****       count += 4U;
 422              		.loc 1 397 7 is_stmt 1 view .LVU161
 423              		.loc 1 397 13 is_stmt 0 view .LVU162
 424 0186 069B     		ldr	r3, [sp, #24]
 425 0188 0433     		adds	r3, r3, #4
 426 018a 0693     		str	r3, [sp, #24]
 427              	.LVL64:
 398:DSP/Source/FilteringFunctions/arm_correlate_fast_q31.c **** 
 399:DSP/Source/FilteringFunctions/arm_correlate_fast_q31.c ****       /* Update the inputA and inputB pointers for next MAC calculation */
 400:DSP/Source/FilteringFunctions/arm_correlate_fast_q31.c ****       px = pIn1 + count;
 428              		.loc 1 400 7 is_stmt 1 view .LVU163
 429              		.loc 1 400 10 is_stmt 0 view .LVU164
 430 018c 049A     		ldr	r2, [sp, #16]
 431 018e 02EB8301 		add	r1, r2, r3, lsl #2
 432              	.LVL65:
 401:DSP/Source/FilteringFunctions/arm_correlate_fast_q31.c ****       py = pIn2;
 433              		.loc 1 401 7 is_stmt 1 view .LVU165
 402:DSP/Source/FilteringFunctions/arm_correlate_fast_q31.c **** 
 403:DSP/Source/FilteringFunctions/arm_correlate_fast_q31.c **** 
 404:DSP/Source/FilteringFunctions/arm_correlate_fast_q31.c ****       /* Decrement the loop counter */
 405:DSP/Source/FilteringFunctions/arm_correlate_fast_q31.c ****       blkCnt--;
 434              		.loc 1 405 7 view .LVU166
 435              		.loc 1 405 13 is_stmt 0 view .LVU167
 436 0192 059B     		ldr	r3, [sp, #20]
 437              	.LVL66:
 438              		.loc 1 405 13 view .LVU168
 439 0194 013B     		subs	r3, r3, #1
 440 0196 0593     		str	r3, [sp, #20]
 441              	.LVL67:
 442              	.L11:
 264:DSP/Source/FilteringFunctions/arm_correlate_fast_q31.c ****     {
 443              		.loc 1 264 19 is_stmt 1 view .LVU169
 444 0198 059B     		ldr	r3, [sp, #20]
 445 019a 002B     		cmp	r3, #0
 446 019c 00F00681 		beq	.L35
 267:DSP/Source/FilteringFunctions/arm_correlate_fast_q31.c ****       acc1 = 0;
 447              		.loc 1 267 7 view .LVU170
 448              	.LVL68:
 268:DSP/Source/FilteringFunctions/arm_correlate_fast_q31.c ****       acc2 = 0;
 449              		.loc 1 268 7 view .LVU171
 269:DSP/Source/FilteringFunctions/arm_correlate_fast_q31.c ****       acc3 = 0;
 450              		.loc 1 269 7 view .LVU172
 270:DSP/Source/FilteringFunctions/arm_correlate_fast_q31.c **** 
 451              		.loc 1 270 7 view .LVU173
 273:DSP/Source/FilteringFunctions/arm_correlate_fast_q31.c ****       x1 = *(px++);
 452              		.loc 1 273 7 view .LVU174
 273:DSP/Source/FilteringFunctions/arm_correlate_fast_q31.c ****       x1 = *(px++);
 453              		.loc 1 273 10 is_stmt 0 view .LVU175
 454 01a0 0A68     		ldr	r2, [r1]
 455              	.LVL69:
 274:DSP/Source/FilteringFunctions/arm_correlate_fast_q31.c ****       x2 = *(px++);
 456              		.loc 1 274 7 is_stmt 1 view .LVU176
ARM GAS  /var/folders/ck/g3dcd5x55xs4107jgdl0snvr0000gn/T//ccD2ZXvQ.s 			page 17


 274:DSP/Source/FilteringFunctions/arm_correlate_fast_q31.c ****       x2 = *(px++);
 457              		.loc 1 274 10 is_stmt 0 view .LVU177
 458 01a2 4868     		ldr	r0, [r1, #4]
 459              	.LVL70:
 275:DSP/Source/FilteringFunctions/arm_correlate_fast_q31.c **** 
 460              		.loc 1 275 7 is_stmt 1 view .LVU178
 275:DSP/Source/FilteringFunctions/arm_correlate_fast_q31.c **** 
 461              		.loc 1 275 16 is_stmt 0 view .LVU179
 462 01a4 01F10C03 		add	r3, r1, #12
 463 01a8 0093     		str	r3, [sp]
 464              	.LVL71:
 275:DSP/Source/FilteringFunctions/arm_correlate_fast_q31.c **** 
 465              		.loc 1 275 10 view .LVU180
 466 01aa 8968     		ldr	r1, [r1, #8]
 467              	.LVL72:
 278:DSP/Source/FilteringFunctions/arm_correlate_fast_q31.c **** 
 468              		.loc 1 278 7 is_stmt 1 view .LVU181
 278:DSP/Source/FilteringFunctions/arm_correlate_fast_q31.c **** 
 469              		.loc 1 278 9 is_stmt 0 view .LVU182
 470 01ac 079B     		ldr	r3, [sp, #28]
 471              	.LVL73:
 278:DSP/Source/FilteringFunctions/arm_correlate_fast_q31.c **** 
 472              		.loc 1 278 9 view .LVU183
 473 01ae 9B08     		lsrs	r3, r3, #2
 474 01b0 0293     		str	r3, [sp, #8]
 475              	.LVL74:
 278:DSP/Source/FilteringFunctions/arm_correlate_fast_q31.c **** 
 476              		.loc 1 278 9 view .LVU184
 477 01b2 039B     		ldr	r3, [sp, #12]
 478              	.LVL75:
 278:DSP/Source/FilteringFunctions/arm_correlate_fast_q31.c **** 
 479              		.loc 1 278 9 view .LVU185
 480 01b4 0193     		str	r3, [sp, #4]
 270:DSP/Source/FilteringFunctions/arm_correlate_fast_q31.c **** 
 481              		.loc 1 270 12 view .LVU186
 482 01b6 4FF0000E 		mov	lr, #0
 269:DSP/Source/FilteringFunctions/arm_correlate_fast_q31.c ****       acc3 = 0;
 483              		.loc 1 269 12 view .LVU187
 484 01ba F046     		mov	r8, lr
 268:DSP/Source/FilteringFunctions/arm_correlate_fast_q31.c ****       acc2 = 0;
 485              		.loc 1 268 12 view .LVU188
 486 01bc 7346     		mov	r3, lr
 267:DSP/Source/FilteringFunctions/arm_correlate_fast_q31.c ****       acc1 = 0;
 487              		.loc 1 267 12 view .LVU189
 488 01be 7746     		mov	r7, lr
 489 01c0 0894     		str	r4, [sp, #32]
 490 01c2 0996     		str	r6, [sp, #36]
 491              	.LVL76:
 492              	.L12:
 282:DSP/Source/FilteringFunctions/arm_correlate_fast_q31.c ****       {
 493              		.loc 1 282 7 is_stmt 1 view .LVU190
 285:DSP/Source/FilteringFunctions/arm_correlate_fast_q31.c **** 
 494              		.loc 1 285 9 view .LVU191
 285:DSP/Source/FilteringFunctions/arm_correlate_fast_q31.c **** 
 495              		.loc 1 285 12 is_stmt 0 view .LVU192
 496 01c4 019C     		ldr	r4, [sp, #4]
 497 01c6 2468     		ldr	r4, [r4]
ARM GAS  /var/folders/ck/g3dcd5x55xs4107jgdl0snvr0000gn/T//ccD2ZXvQ.s 			page 18


 498              	.LVL77:
 288:DSP/Source/FilteringFunctions/arm_correlate_fast_q31.c **** 
 499              		.loc 1 288 9 is_stmt 1 view .LVU193
 288:DSP/Source/FilteringFunctions/arm_correlate_fast_q31.c **** 
 500              		.loc 1 288 12 is_stmt 0 view .LVU194
 501 01c8 009D     		ldr	r5, [sp]
 502 01ca 2D68     		ldr	r5, [r5]
 503              	.LVL78:
 292:DSP/Source/FilteringFunctions/arm_correlate_fast_q31.c ****         /* acc1 +=  x[1] * y[0] */
 504              		.loc 1 292 9 is_stmt 1 view .LVU195
 292:DSP/Source/FilteringFunctions/arm_correlate_fast_q31.c ****         /* acc1 +=  x[1] * y[0] */
 505              		.loc 1 292 50 is_stmt 0 view .LVU196
 506 01cc 4FEAE27C 		asr	ip, r2, #31
 292:DSP/Source/FilteringFunctions/arm_correlate_fast_q31.c ****         /* acc1 +=  x[1] * y[0] */
 507              		.loc 1 292 61 view .LVU197
 508 01d0 E617     		asrs	r6, r4, #31
 509 01d2 02FB06F9 		mul	r9, r2, r6
 510 01d6 04FB0C99 		mla	r9, r4, ip, r9
 511 01da A2FB042C 		umull	r2, ip, r2, r4
 512              	.LVL79:
 292:DSP/Source/FilteringFunctions/arm_correlate_fast_q31.c ****         /* acc1 +=  x[1] * y[0] */
 513              		.loc 1 292 61 view .LVU198
 514 01de E144     		add	r9, r9, ip
 292:DSP/Source/FilteringFunctions/arm_correlate_fast_q31.c ****         /* acc1 +=  x[1] * y[0] */
 515              		.loc 1 292 47 view .LVU199
 516 01e0 B944     		add	r9, r9, r7
 517              	.LVL80:
 294:DSP/Source/FilteringFunctions/arm_correlate_fast_q31.c ****         /* acc2 +=  x[2] * y[0] */
 518              		.loc 1 294 9 is_stmt 1 view .LVU200
 294:DSP/Source/FilteringFunctions/arm_correlate_fast_q31.c ****         /* acc2 +=  x[2] * y[0] */
 519              		.loc 1 294 50 is_stmt 0 view .LVU201
 520 01e2 4FEAE07A 		asr	r10, r0, #31
 294:DSP/Source/FilteringFunctions/arm_correlate_fast_q31.c ****         /* acc2 +=  x[2] * y[0] */
 521              		.loc 1 294 61 view .LVU202
 522 01e6 04FB0AF2 		mul	r2, r4, r10
 523 01ea 00FB0622 		mla	r2, r0, r6, r2
 524 01ee A4FB00C7 		umull	ip, r7, r4, r0
 525 01f2 3A44     		add	r2, r2, r7
 294:DSP/Source/FilteringFunctions/arm_correlate_fast_q31.c ****         /* acc2 +=  x[2] * y[0] */
 526              		.loc 1 294 47 view .LVU203
 527 01f4 1344     		add	r3, r3, r2
 528              	.LVL81:
 296:DSP/Source/FilteringFunctions/arm_correlate_fast_q31.c ****         /* acc3 +=  x[3] * y[0] */
 529              		.loc 1 296 9 is_stmt 1 view .LVU204
 296:DSP/Source/FilteringFunctions/arm_correlate_fast_q31.c ****         /* acc3 +=  x[3] * y[0] */
 530              		.loc 1 296 50 is_stmt 0 view .LVU205
 531 01f6 4FEAE17C 		asr	ip, r1, #31
 296:DSP/Source/FilteringFunctions/arm_correlate_fast_q31.c ****         /* acc3 +=  x[3] * y[0] */
 532              		.loc 1 296 61 view .LVU206
 533 01fa 04FB0CF2 		mul	r2, r4, ip
 534 01fe 01FB0622 		mla	r2, r1, r6, r2
 535 0202 A4FB01B7 		umull	fp, r7, r4, r1
 536 0206 3A44     		add	r2, r2, r7
 296:DSP/Source/FilteringFunctions/arm_correlate_fast_q31.c ****         /* acc3 +=  x[3] * y[0] */
 537              		.loc 1 296 47 view .LVU207
 538 0208 9044     		add	r8, r8, r2
 539              	.LVL82:
ARM GAS  /var/folders/ck/g3dcd5x55xs4107jgdl0snvr0000gn/T//ccD2ZXvQ.s 			page 19


 298:DSP/Source/FilteringFunctions/arm_correlate_fast_q31.c **** 
 540              		.loc 1 298 9 is_stmt 1 view .LVU208
 298:DSP/Source/FilteringFunctions/arm_correlate_fast_q31.c **** 
 541              		.loc 1 298 50 is_stmt 0 view .LVU209
 542 020a EF17     		asrs	r7, r5, #31
 298:DSP/Source/FilteringFunctions/arm_correlate_fast_q31.c **** 
 543              		.loc 1 298 61 view .LVU210
 544 020c 04FB07F2 		mul	r2, r4, r7
 545 0210 05FB0622 		mla	r2, r5, r6, r2
 546 0214 A4FB0546 		umull	r4, r6, r4, r5
 547              	.LVL83:
 298:DSP/Source/FilteringFunctions/arm_correlate_fast_q31.c **** 
 548              		.loc 1 298 61 view .LVU211
 549 0218 3244     		add	r2, r2, r6
 298:DSP/Source/FilteringFunctions/arm_correlate_fast_q31.c **** 
 550              		.loc 1 298 47 view .LVU212
 551 021a 9644     		add	lr, lr, r2
 552              	.LVL84:
 301:DSP/Source/FilteringFunctions/arm_correlate_fast_q31.c **** 
 553              		.loc 1 301 9 is_stmt 1 view .LVU213
 301:DSP/Source/FilteringFunctions/arm_correlate_fast_q31.c **** 
 554              		.loc 1 301 12 is_stmt 0 view .LVU214
 555 021c 019C     		ldr	r4, [sp, #4]
 556 021e 6468     		ldr	r4, [r4, #4]
 557              	.LVL85:
 304:DSP/Source/FilteringFunctions/arm_correlate_fast_q31.c **** 
 558              		.loc 1 304 9 is_stmt 1 view .LVU215
 304:DSP/Source/FilteringFunctions/arm_correlate_fast_q31.c **** 
 559              		.loc 1 304 12 is_stmt 0 view .LVU216
 560 0220 009A     		ldr	r2, [sp]
 561 0222 5268     		ldr	r2, [r2, #4]
 562              	.LVL86:
 308:DSP/Source/FilteringFunctions/arm_correlate_fast_q31.c ****         /* acc1 +=  x[2] * y[1] */
 563              		.loc 1 308 9 is_stmt 1 view .LVU217
 308:DSP/Source/FilteringFunctions/arm_correlate_fast_q31.c ****         /* acc1 +=  x[2] * y[1] */
 564              		.loc 1 308 61 is_stmt 0 view .LVU218
 565 0224 4FEAE47B 		asr	fp, r4, #31
 566 0228 00FB0BF6 		mul	r6, r0, fp
 567 022c 04FB0A66 		mla	r6, r4, r10, r6
 568 0230 A0FB040A 		umull	r0, r10, r0, r4
 569              	.LVL87:
 308:DSP/Source/FilteringFunctions/arm_correlate_fast_q31.c ****         /* acc1 +=  x[2] * y[1] */
 570              		.loc 1 308 61 view .LVU219
 571 0234 5644     		add	r6, r6, r10
 308:DSP/Source/FilteringFunctions/arm_correlate_fast_q31.c ****         /* acc1 +=  x[2] * y[1] */
 572              		.loc 1 308 47 view .LVU220
 573 0236 4E44     		add	r6, r6, r9
 310:DSP/Source/FilteringFunctions/arm_correlate_fast_q31.c ****         /* acc2 +=  x[3] * y[1] */
 574              		.loc 1 310 9 is_stmt 1 view .LVU221
 310:DSP/Source/FilteringFunctions/arm_correlate_fast_q31.c ****         /* acc2 +=  x[3] * y[1] */
 575              		.loc 1 310 61 is_stmt 0 view .LVU222
 576 0238 01FB0BF0 		mul	r0, r1, fp
 577 023c 04FB0C00 		mla	r0, r4, ip, r0
 578 0240 A1FB04A9 		umull	r10, r9, r1, r4
 579 0244 4844     		add	r0, r0, r9
 310:DSP/Source/FilteringFunctions/arm_correlate_fast_q31.c ****         /* acc2 +=  x[3] * y[1] */
 580              		.loc 1 310 47 view .LVU223
ARM GAS  /var/folders/ck/g3dcd5x55xs4107jgdl0snvr0000gn/T//ccD2ZXvQ.s 			page 20


 581 0246 0344     		add	r3, r3, r0
 312:DSP/Source/FilteringFunctions/arm_correlate_fast_q31.c ****         /* acc3 +=  x[4] * y[1] */
 582              		.loc 1 312 9 is_stmt 1 view .LVU224
 312:DSP/Source/FilteringFunctions/arm_correlate_fast_q31.c ****         /* acc3 +=  x[4] * y[1] */
 583              		.loc 1 312 61 is_stmt 0 view .LVU225
 584 0248 05FB0BF9 		mul	r9, r5, fp
 585 024c 04FB0799 		mla	r9, r4, r7, r9
 586 0250 A5FB04A0 		umull	r10, r0, r5, r4
 587 0254 8144     		add	r9, r9, r0
 312:DSP/Source/FilteringFunctions/arm_correlate_fast_q31.c ****         /* acc3 +=  x[4] * y[1] */
 588              		.loc 1 312 47 view .LVU226
 589 0256 C144     		add	r9, r9, r8
 314:DSP/Source/FilteringFunctions/arm_correlate_fast_q31.c **** 
 590              		.loc 1 314 9 is_stmt 1 view .LVU227
 314:DSP/Source/FilteringFunctions/arm_correlate_fast_q31.c **** 
 591              		.loc 1 314 50 is_stmt 0 view .LVU228
 592 0258 4FEAE278 		asr	r8, r2, #31
 314:DSP/Source/FilteringFunctions/arm_correlate_fast_q31.c **** 
 593              		.loc 1 314 61 view .LVU229
 594 025c 04FB08F0 		mul	r0, r4, r8
 595 0260 02FB0B00 		mla	r0, r2, fp, r0
 596 0264 A4FB024A 		umull	r4, r10, r4, r2
 597              	.LVL88:
 314:DSP/Source/FilteringFunctions/arm_correlate_fast_q31.c **** 
 598              		.loc 1 314 61 view .LVU230
 599 0268 5044     		add	r0, r0, r10
 314:DSP/Source/FilteringFunctions/arm_correlate_fast_q31.c **** 
 600              		.loc 1 314 47 view .LVU231
 601 026a 8644     		add	lr, lr, r0
 317:DSP/Source/FilteringFunctions/arm_correlate_fast_q31.c **** 
 602              		.loc 1 317 9 is_stmt 1 view .LVU232
 603              	.LVL89:
 317:DSP/Source/FilteringFunctions/arm_correlate_fast_q31.c **** 
 604              		.loc 1 317 12 is_stmt 0 view .LVU233
 605 026c 019C     		ldr	r4, [sp, #4]
 606 026e A468     		ldr	r4, [r4, #8]
 607              	.LVL90:
 320:DSP/Source/FilteringFunctions/arm_correlate_fast_q31.c **** 
 608              		.loc 1 320 9 is_stmt 1 view .LVU234
 320:DSP/Source/FilteringFunctions/arm_correlate_fast_q31.c **** 
 609              		.loc 1 320 12 is_stmt 0 view .LVU235
 610 0270 0098     		ldr	r0, [sp]
 611 0272 8068     		ldr	r0, [r0, #8]
 612              	.LVL91:
 324:DSP/Source/FilteringFunctions/arm_correlate_fast_q31.c ****         /* acc1 +=  x[3] * y[2] */
 613              		.loc 1 324 9 is_stmt 1 view .LVU236
 324:DSP/Source/FilteringFunctions/arm_correlate_fast_q31.c ****         /* acc1 +=  x[3] * y[2] */
 614              		.loc 1 324 61 is_stmt 0 view .LVU237
 615 0274 4FEAE47A 		asr	r10, r4, #31
 616 0278 01FB0AFB 		mul	fp, r1, r10
 617 027c 04FB0CBC 		mla	ip, r4, ip, fp
 618 0280 A1FB041B 		umull	r1, fp, r1, r4
 619              	.LVL92:
 324:DSP/Source/FilteringFunctions/arm_correlate_fast_q31.c ****         /* acc1 +=  x[3] * y[2] */
 620              		.loc 1 324 61 view .LVU238
 621 0284 DC44     		add	ip, ip, fp
 324:DSP/Source/FilteringFunctions/arm_correlate_fast_q31.c ****         /* acc1 +=  x[3] * y[2] */
ARM GAS  /var/folders/ck/g3dcd5x55xs4107jgdl0snvr0000gn/T//ccD2ZXvQ.s 			page 21


 622              		.loc 1 324 47 view .LVU239
 623 0286 B444     		add	ip, ip, r6
 326:DSP/Source/FilteringFunctions/arm_correlate_fast_q31.c ****         /* acc2 +=  x[4] * y[2] */
 624              		.loc 1 326 9 is_stmt 1 view .LVU240
 326:DSP/Source/FilteringFunctions/arm_correlate_fast_q31.c ****         /* acc2 +=  x[4] * y[2] */
 625              		.loc 1 326 61 is_stmt 0 view .LVU241
 626 0288 05FB0AFB 		mul	fp, r5, r10
 627 028c 04FB07BB 		mla	fp, r4, r7, fp
 628 0290 A5FB0461 		umull	r6, r1, r5, r4
 629 0294 8B44     		add	fp, fp, r1
 326:DSP/Source/FilteringFunctions/arm_correlate_fast_q31.c ****         /* acc2 +=  x[4] * y[2] */
 630              		.loc 1 326 47 view .LVU242
 631 0296 9B44     		add	fp, fp, r3
 328:DSP/Source/FilteringFunctions/arm_correlate_fast_q31.c ****         /* acc3 +=  x[5] * y[2] */
 632              		.loc 1 328 9 is_stmt 1 view .LVU243
 328:DSP/Source/FilteringFunctions/arm_correlate_fast_q31.c ****         /* acc3 +=  x[5] * y[2] */
 633              		.loc 1 328 61 is_stmt 0 view .LVU244
 634 0298 02FB0AF6 		mul	r6, r2, r10
 635 029c 04FB0866 		mla	r6, r4, r8, r6
 636 02a0 A2FB0413 		umull	r1, r3, r2, r4
 637 02a4 1E44     		add	r6, r6, r3
 328:DSP/Source/FilteringFunctions/arm_correlate_fast_q31.c ****         /* acc3 +=  x[5] * y[2] */
 638              		.loc 1 328 47 view .LVU245
 639 02a6 4E44     		add	r6, r6, r9
 330:DSP/Source/FilteringFunctions/arm_correlate_fast_q31.c **** 
 640              		.loc 1 330 9 is_stmt 1 view .LVU246
 330:DSP/Source/FilteringFunctions/arm_correlate_fast_q31.c **** 
 641              		.loc 1 330 50 is_stmt 0 view .LVU247
 642 02a8 4FEAE079 		asr	r9, r0, #31
 330:DSP/Source/FilteringFunctions/arm_correlate_fast_q31.c **** 
 643              		.loc 1 330 61 view .LVU248
 644 02ac 04FB09F3 		mul	r3, r4, r9
 645 02b0 00FB0A33 		mla	r3, r0, r10, r3
 646 02b4 A4FB0041 		umull	r4, r1, r4, r0
 647              	.LVL93:
 330:DSP/Source/FilteringFunctions/arm_correlate_fast_q31.c **** 
 648              		.loc 1 330 61 view .LVU249
 649 02b8 0B44     		add	r3, r3, r1
 330:DSP/Source/FilteringFunctions/arm_correlate_fast_q31.c **** 
 650              		.loc 1 330 47 view .LVU250
 651 02ba 9E44     		add	lr, lr, r3
 333:DSP/Source/FilteringFunctions/arm_correlate_fast_q31.c **** 
 652              		.loc 1 333 9 is_stmt 1 view .LVU251
 653 02bc 0199     		ldr	r1, [sp, #4]
 654 02be 0B46     		mov	r3, r1
 655              	.LVL94:
 333:DSP/Source/FilteringFunctions/arm_correlate_fast_q31.c **** 
 656              		.loc 1 333 12 is_stmt 0 view .LVU252
 657 02c0 CC68     		ldr	r4, [r1, #12]
 658 02c2 1033     		adds	r3, r3, #16
 659 02c4 0193     		str	r3, [sp, #4]
 660              	.LVL95:
 336:DSP/Source/FilteringFunctions/arm_correlate_fast_q31.c **** 
 661              		.loc 1 336 9 is_stmt 1 view .LVU253
 662 02c6 DDF800A0 		ldr	r10, [sp]
 663 02ca 5346     		mov	r3, r10
 664              	.LVL96:
ARM GAS  /var/folders/ck/g3dcd5x55xs4107jgdl0snvr0000gn/T//ccD2ZXvQ.s 			page 22


 336:DSP/Source/FilteringFunctions/arm_correlate_fast_q31.c **** 
 665              		.loc 1 336 12 is_stmt 0 view .LVU254
 666 02cc DAF80C10 		ldr	r1, [r10, #12]
 667              	.LVL97:
 336:DSP/Source/FilteringFunctions/arm_correlate_fast_q31.c **** 
 668              		.loc 1 336 12 view .LVU255
 669 02d0 1033     		adds	r3, r3, #16
 670 02d2 0093     		str	r3, [sp]
 671              	.LVL98:
 340:DSP/Source/FilteringFunctions/arm_correlate_fast_q31.c ****         /* acc1 +=  x[4] * y[3] */
 672              		.loc 1 340 9 is_stmt 1 view .LVU256
 340:DSP/Source/FilteringFunctions/arm_correlate_fast_q31.c ****         /* acc1 +=  x[4] * y[3] */
 673              		.loc 1 340 61 is_stmt 0 view .LVU257
 674 02d4 4FEAE47A 		asr	r10, r4, #31
 675              	.LVL99:
 340:DSP/Source/FilteringFunctions/arm_correlate_fast_q31.c ****         /* acc1 +=  x[4] * y[3] */
 676              		.loc 1 340 61 view .LVU258
 677 02d8 05FB0AF3 		mul	r3, r5, r10
 678              	.LVL100:
 340:DSP/Source/FilteringFunctions/arm_correlate_fast_q31.c ****         /* acc1 +=  x[4] * y[3] */
 679              		.loc 1 340 61 view .LVU259
 680 02dc 04FB0733 		mla	r3, r4, r7, r3
 681 02e0 A5FB0457 		umull	r5, r7, r5, r4
 682              	.LVL101:
 340:DSP/Source/FilteringFunctions/arm_correlate_fast_q31.c ****         /* acc1 +=  x[4] * y[3] */
 683              		.loc 1 340 61 view .LVU260
 684 02e4 3B44     		add	r3, r3, r7
 340:DSP/Source/FilteringFunctions/arm_correlate_fast_q31.c ****         /* acc1 +=  x[4] * y[3] */
 685              		.loc 1 340 14 view .LVU261
 686 02e6 0CEB0307 		add	r7, ip, r3
 687              	.LVL102:
 342:DSP/Source/FilteringFunctions/arm_correlate_fast_q31.c ****         /* acc2 +=  x[5] * y[3] */
 688              		.loc 1 342 9 is_stmt 1 view .LVU262
 342:DSP/Source/FilteringFunctions/arm_correlate_fast_q31.c ****         /* acc2 +=  x[5] * y[3] */
 689              		.loc 1 342 61 is_stmt 0 view .LVU263
 690 02ea 02FB0AF3 		mul	r3, r2, r10
 691 02ee 04FB0833 		mla	r3, r4, r8, r3
 692 02f2 A2FB04C5 		umull	ip, r5, r2, r4
 693 02f6 2B44     		add	r3, r3, r5
 342:DSP/Source/FilteringFunctions/arm_correlate_fast_q31.c ****         /* acc2 +=  x[5] * y[3] */
 694              		.loc 1 342 14 view .LVU264
 695 02f8 5B44     		add	r3, r3, fp
 696              	.LVL103:
 344:DSP/Source/FilteringFunctions/arm_correlate_fast_q31.c ****         /* acc3 +=  x[6] * y[3] */
 697              		.loc 1 344 9 is_stmt 1 view .LVU265
 344:DSP/Source/FilteringFunctions/arm_correlate_fast_q31.c ****         /* acc3 +=  x[6] * y[3] */
 698              		.loc 1 344 61 is_stmt 0 view .LVU266
 699 02fa 00FB0AF8 		mul	r8, r0, r10
 700 02fe 04FB0988 		mla	r8, r4, r9, r8
 701 0302 A0FB04C5 		umull	ip, r5, r0, r4
 702 0306 A844     		add	r8, r8, r5
 344:DSP/Source/FilteringFunctions/arm_correlate_fast_q31.c ****         /* acc3 +=  x[6] * y[3] */
 703              		.loc 1 344 14 view .LVU267
 704 0308 B044     		add	r8, r8, r6
 705              	.LVL104:
 346:DSP/Source/FilteringFunctions/arm_correlate_fast_q31.c **** 
 706              		.loc 1 346 9 is_stmt 1 view .LVU268
ARM GAS  /var/folders/ck/g3dcd5x55xs4107jgdl0snvr0000gn/T//ccD2ZXvQ.s 			page 23


 346:DSP/Source/FilteringFunctions/arm_correlate_fast_q31.c **** 
 707              		.loc 1 346 50 is_stmt 0 view .LVU269
 708 030a CD17     		asrs	r5, r1, #31
 346:DSP/Source/FilteringFunctions/arm_correlate_fast_q31.c **** 
 709              		.loc 1 346 61 view .LVU270
 710 030c 04FB05F5 		mul	r5, r4, r5
 711 0310 01FB0A55 		mla	r5, r1, r10, r5
 712 0314 A4FB0146 		umull	r4, r6, r4, r1
 713              	.LVL105:
 346:DSP/Source/FilteringFunctions/arm_correlate_fast_q31.c **** 
 714              		.loc 1 346 61 view .LVU271
 715 0318 3544     		add	r5, r5, r6
 346:DSP/Source/FilteringFunctions/arm_correlate_fast_q31.c **** 
 716              		.loc 1 346 14 view .LVU272
 717 031a AE44     		add	lr, lr, r5
 718              	.LVL106:
 349:DSP/Source/FilteringFunctions/arm_correlate_fast_q31.c **** 
 719              		.loc 1 349 16 is_stmt 1 discriminator 1 view .LVU273
 349:DSP/Source/FilteringFunctions/arm_correlate_fast_q31.c **** 
 720              		.loc 1 349 16 is_stmt 0 discriminator 1 view .LVU274
 721 031c 029C     		ldr	r4, [sp, #8]
 722 031e 013C     		subs	r4, r4, #1
 723              	.LVL107:
 349:DSP/Source/FilteringFunctions/arm_correlate_fast_q31.c **** 
 724              		.loc 1 349 16 discriminator 1 view .LVU275
 725 0320 0294     		str	r4, [sp, #8]
 726 0322 7FF44FAF 		bne	.L12
 353:DSP/Source/FilteringFunctions/arm_correlate_fast_q31.c **** 
 727              		.loc 1 353 9 view .LVU276
 728 0326 0297     		str	r7, [sp, #8]
 729 0328 099E     		ldr	r6, [sp, #36]
 353:DSP/Source/FilteringFunctions/arm_correlate_fast_q31.c **** 
 730              		.loc 1 353 7 is_stmt 1 view .LVU277
 353:DSP/Source/FilteringFunctions/arm_correlate_fast_q31.c **** 
 731              		.loc 1 353 9 is_stmt 0 view .LVU278
 732 032a 079D     		ldr	r5, [sp, #28]
 733 032c 05F0030C 		and	ip, r5, #3
 734              	.LVL108:
 355:DSP/Source/FilteringFunctions/arm_correlate_fast_q31.c ****       {
 735              		.loc 1 355 7 is_stmt 1 view .LVU279
 736 0330 009D     		ldr	r5, [sp]
 737 0332 019C     		ldr	r4, [sp, #4]
 738 0334 6746     		mov	r7, ip
 739              	.LVL109:
 355:DSP/Source/FilteringFunctions/arm_correlate_fast_q31.c ****       {
 740              		.loc 1 355 7 is_stmt 0 view .LVU280
 741 0336 9C46     		mov	ip, r3
 742              	.LVL110:
 355:DSP/Source/FilteringFunctions/arm_correlate_fast_q31.c ****       {
 743              		.loc 1 355 7 view .LVU281
 744 0338 0096     		str	r6, [sp]
 745              	.LVL111:
 355:DSP/Source/FilteringFunctions/arm_correlate_fast_q31.c ****       {
 746              		.loc 1 355 7 view .LVU282
 747 033a 3B46     		mov	r3, r7
 748              	.LVL112:
 749              	.L13:
ARM GAS  /var/folders/ck/g3dcd5x55xs4107jgdl0snvr0000gn/T//ccD2ZXvQ.s 			page 24


 355:DSP/Source/FilteringFunctions/arm_correlate_fast_q31.c ****       {
 750              		.loc 1 355 16 is_stmt 1 view .LVU283
 751 033c 002B     		cmp	r3, #0
 752 033e 3FF40DAF 		beq	.L36
 358:DSP/Source/FilteringFunctions/arm_correlate_fast_q31.c **** 
 753              		.loc 1 358 9 view .LVU284
 358:DSP/Source/FilteringFunctions/arm_correlate_fast_q31.c **** 
 754              		.loc 1 358 18 is_stmt 0 view .LVU285
 755 0342 A146     		mov	r9, r4
 756              	.LVL113:
 358:DSP/Source/FilteringFunctions/arm_correlate_fast_q31.c **** 
 757              		.loc 1 358 12 view .LVU286
 758 0344 59F8044B 		ldr	r4, [r9], #4
 759              	.LVL114:
 361:DSP/Source/FilteringFunctions/arm_correlate_fast_q31.c **** 
 760              		.loc 1 361 9 is_stmt 1 view .LVU287
 361:DSP/Source/FilteringFunctions/arm_correlate_fast_q31.c **** 
 761              		.loc 1 361 18 is_stmt 0 view .LVU288
 762 0348 2F46     		mov	r7, r5
 763              	.LVL115:
 361:DSP/Source/FilteringFunctions/arm_correlate_fast_q31.c **** 
 764              		.loc 1 361 12 view .LVU289
 765 034a 57F8045B 		ldr	r5, [r7], #4
 766              	.LVL116:
 365:DSP/Source/FilteringFunctions/arm_correlate_fast_q31.c ****         /* acc1 +=  x[5] * y[4] */
 767              		.loc 1 365 9 is_stmt 1 view .LVU290
 365:DSP/Source/FilteringFunctions/arm_correlate_fast_q31.c ****         /* acc1 +=  x[5] * y[4] */
 768              		.loc 1 365 50 is_stmt 0 view .LVU291
 769 034e 4FEAE27B 		asr	fp, r2, #31
 365:DSP/Source/FilteringFunctions/arm_correlate_fast_q31.c ****         /* acc1 +=  x[5] * y[4] */
 770              		.loc 1 365 61 view .LVU292
 771 0352 E617     		asrs	r6, r4, #31
 772 0354 02FB06FA 		mul	r10, r2, r6
 773 0358 04FB0BAA 		mla	r10, r4, fp, r10
 774 035c A2FB042B 		umull	r2, fp, r2, r4
 775              	.LVL117:
 365:DSP/Source/FilteringFunctions/arm_correlate_fast_q31.c ****         /* acc1 +=  x[5] * y[4] */
 776              		.loc 1 365 61 view .LVU293
 777 0360 DA44     		add	r10, r10, fp
 365:DSP/Source/FilteringFunctions/arm_correlate_fast_q31.c ****         /* acc1 +=  x[5] * y[4] */
 778              		.loc 1 365 14 view .LVU294
 779 0362 029A     		ldr	r2, [sp, #8]
 780 0364 5244     		add	r2, r2, r10
 781 0366 0292     		str	r2, [sp, #8]
 782              	.LVL118:
 367:DSP/Source/FilteringFunctions/arm_correlate_fast_q31.c ****         /* acc2 +=  x[6] * y[4] */
 783              		.loc 1 367 9 is_stmt 1 view .LVU295
 367:DSP/Source/FilteringFunctions/arm_correlate_fast_q31.c ****         /* acc2 +=  x[6] * y[4] */
 784              		.loc 1 367 50 is_stmt 0 view .LVU296
 785 0368 C217     		asrs	r2, r0, #31
 786              	.LVL119:
 367:DSP/Source/FilteringFunctions/arm_correlate_fast_q31.c ****         /* acc2 +=  x[6] * y[4] */
 787              		.loc 1 367 61 view .LVU297
 788 036a 04FB02F2 		mul	r2, r4, r2
 789 036e 00FB0622 		mla	r2, r0, r6, r2
 790 0372 A4FB00BA 		umull	fp, r10, r4, r0
 791 0376 5244     		add	r2, r2, r10
ARM GAS  /var/folders/ck/g3dcd5x55xs4107jgdl0snvr0000gn/T//ccD2ZXvQ.s 			page 25


 367:DSP/Source/FilteringFunctions/arm_correlate_fast_q31.c ****         /* acc2 +=  x[6] * y[4] */
 792              		.loc 1 367 14 view .LVU298
 793 0378 9444     		add	ip, ip, r2
 794              	.LVL120:
 369:DSP/Source/FilteringFunctions/arm_correlate_fast_q31.c ****         /* acc3 +=  x[7] * y[4] */
 795              		.loc 1 369 9 is_stmt 1 view .LVU299
 369:DSP/Source/FilteringFunctions/arm_correlate_fast_q31.c ****         /* acc3 +=  x[7] * y[4] */
 796              		.loc 1 369 50 is_stmt 0 view .LVU300
 797 037a CA17     		asrs	r2, r1, #31
 369:DSP/Source/FilteringFunctions/arm_correlate_fast_q31.c ****         /* acc3 +=  x[7] * y[4] */
 798              		.loc 1 369 61 view .LVU301
 799 037c 04FB02F2 		mul	r2, r4, r2
 800 0380 01FB0622 		mla	r2, r1, r6, r2
 801 0384 A4FB01BA 		umull	fp, r10, r4, r1
 802 0388 5244     		add	r2, r2, r10
 369:DSP/Source/FilteringFunctions/arm_correlate_fast_q31.c ****         /* acc3 +=  x[7] * y[4] */
 803              		.loc 1 369 14 view .LVU302
 804 038a 9044     		add	r8, r8, r2
 805              	.LVL121:
 371:DSP/Source/FilteringFunctions/arm_correlate_fast_q31.c **** 
 806              		.loc 1 371 9 is_stmt 1 view .LVU303
 371:DSP/Source/FilteringFunctions/arm_correlate_fast_q31.c **** 
 807              		.loc 1 371 50 is_stmt 0 view .LVU304
 808 038c EA17     		asrs	r2, r5, #31
 371:DSP/Source/FilteringFunctions/arm_correlate_fast_q31.c **** 
 809              		.loc 1 371 61 view .LVU305
 810 038e 04FB02F2 		mul	r2, r4, r2
 811 0392 05FB0622 		mla	r2, r5, r6, r2
 812 0396 A4FB0546 		umull	r4, r6, r4, r5
 813              	.LVL122:
 371:DSP/Source/FilteringFunctions/arm_correlate_fast_q31.c **** 
 814              		.loc 1 371 61 view .LVU306
 815 039a 3244     		add	r2, r2, r6
 371:DSP/Source/FilteringFunctions/arm_correlate_fast_q31.c **** 
 816              		.loc 1 371 14 view .LVU307
 817 039c 9644     		add	lr, lr, r2
 818              	.LVL123:
 374:DSP/Source/FilteringFunctions/arm_correlate_fast_q31.c ****         x1 = x2;
 819              		.loc 1 374 9 is_stmt 1 view .LVU308
 375:DSP/Source/FilteringFunctions/arm_correlate_fast_q31.c ****         x2 = x3;
 820              		.loc 1 375 9 view .LVU309
 376:DSP/Source/FilteringFunctions/arm_correlate_fast_q31.c **** 
 821              		.loc 1 376 9 view .LVU310
 379:DSP/Source/FilteringFunctions/arm_correlate_fast_q31.c ****       }
 822              		.loc 1 379 9 view .LVU311
 379:DSP/Source/FilteringFunctions/arm_correlate_fast_q31.c ****       }
 823              		.loc 1 379 10 is_stmt 0 view .LVU312
 824 039e 013B     		subs	r3, r3, #1
 825              	.LVL124:
 374:DSP/Source/FilteringFunctions/arm_correlate_fast_q31.c ****         x1 = x2;
 826              		.loc 1 374 12 view .LVU313
 827 03a0 0246     		mov	r2, r0
 375:DSP/Source/FilteringFunctions/arm_correlate_fast_q31.c ****         x2 = x3;
 828              		.loc 1 375 12 view .LVU314
 829 03a2 0846     		mov	r0, r1
 830              	.LVL125:
 376:DSP/Source/FilteringFunctions/arm_correlate_fast_q31.c **** 
ARM GAS  /var/folders/ck/g3dcd5x55xs4107jgdl0snvr0000gn/T//ccD2ZXvQ.s 			page 26


 831              		.loc 1 376 12 view .LVU315
 832 03a4 2946     		mov	r1, r5
 833              	.LVL126:
 358:DSP/Source/FilteringFunctions/arm_correlate_fast_q31.c **** 
 834              		.loc 1 358 18 view .LVU316
 835 03a6 4C46     		mov	r4, r9
 361:DSP/Source/FilteringFunctions/arm_correlate_fast_q31.c **** 
 836              		.loc 1 361 18 view .LVU317
 837 03a8 3D46     		mov	r5, r7
 838              	.LVL127:
 361:DSP/Source/FilteringFunctions/arm_correlate_fast_q31.c **** 
 839              		.loc 1 361 18 view .LVU318
 840 03aa C7E7     		b	.L13
 841              	.LVL128:
 842              	.L35:
 406:DSP/Source/FilteringFunctions/arm_correlate_fast_q31.c ****     }
 407:DSP/Source/FilteringFunctions/arm_correlate_fast_q31.c **** 
 408:DSP/Source/FilteringFunctions/arm_correlate_fast_q31.c ****     /* If the blockSize2 is not a multiple of 4, compute any remaining output samples here.
 409:DSP/Source/FilteringFunctions/arm_correlate_fast_q31.c ****      ** No loop unrolling is used. */
 410:DSP/Source/FilteringFunctions/arm_correlate_fast_q31.c ****     blkCnt = blockSize2 % 0x4U;
 843              		.loc 1 410 12 view .LVU319
 844 03ac A246     		mov	r10, r4
 845 03ae 0698     		ldr	r0, [sp, #24]
 846 03b0 0A9B     		ldr	r3, [sp, #40]
 847              	.LVL129:
 848              		.loc 1 410 12 view .LVU320
 849 03b2 3446     		mov	r4, r6
 850              	.LVL130:
 851              		.loc 1 410 12 view .LVU321
 852 03b4 DDF82C90 		ldr	r9, [sp, #44]
 853 03b8 DDF81CB0 		ldr	fp, [sp, #28]
 854              		.loc 1 410 5 is_stmt 1 view .LVU322
 855              		.loc 1 410 12 is_stmt 0 view .LVU323
 856 03bc 09F0030C 		and	ip, r9, #3
 857              	.LVL131:
 411:DSP/Source/FilteringFunctions/arm_correlate_fast_q31.c **** 
 412:DSP/Source/FilteringFunctions/arm_correlate_fast_q31.c ****     while (blkCnt > 0U)
 858              		.loc 1 412 5 is_stmt 1 view .LVU324
 859 03c0 CDF800A0 		str	r10, [sp]
 860 03c4 0190     		str	r0, [sp, #4]
 861 03c6 9E46     		mov	lr, r3
 862 03c8 6646     		mov	r6, ip
 863 03ca DDF810C0 		ldr	ip, [sp, #16]
 864              	.LVL132:
 865              		.loc 1 412 11 is_stmt 0 view .LVU325
 866 03ce 23E0     		b	.L16
 867              	.LVL133:
 868              	.L39:
 413:DSP/Source/FilteringFunctions/arm_correlate_fast_q31.c ****     {
 414:DSP/Source/FilteringFunctions/arm_correlate_fast_q31.c ****       /* Accumulator is made zero for every iteration */
 415:DSP/Source/FilteringFunctions/arm_correlate_fast_q31.c ****       sum = 0;
 416:DSP/Source/FilteringFunctions/arm_correlate_fast_q31.c **** 
 417:DSP/Source/FilteringFunctions/arm_correlate_fast_q31.c ****       /* Apply loop unrolling and compute 4 MACs simultaneously. */
 418:DSP/Source/FilteringFunctions/arm_correlate_fast_q31.c ****       k = srcBLen >> 2U;
 419:DSP/Source/FilteringFunctions/arm_correlate_fast_q31.c **** 
 420:DSP/Source/FilteringFunctions/arm_correlate_fast_q31.c ****       /* First part of the processing with loop unrolling.  Compute 4 MACs at a time.
 421:DSP/Source/FilteringFunctions/arm_correlate_fast_q31.c ****        ** a second loop below computes MACs for the remaining 1 to 3 samples. */
ARM GAS  /var/folders/ck/g3dcd5x55xs4107jgdl0snvr0000gn/T//ccD2ZXvQ.s 			page 27


 422:DSP/Source/FilteringFunctions/arm_correlate_fast_q31.c ****       while (k > 0U)
 423:DSP/Source/FilteringFunctions/arm_correlate_fast_q31.c ****       {
 424:DSP/Source/FilteringFunctions/arm_correlate_fast_q31.c ****         /* Perform the multiply-accumulates */
 425:DSP/Source/FilteringFunctions/arm_correlate_fast_q31.c ****         sum = (q31_t) ((((q63_t) sum << 32) +
 426:DSP/Source/FilteringFunctions/arm_correlate_fast_q31.c ****                         ((q63_t) * px++ * (*py++))) >> 32);
 427:DSP/Source/FilteringFunctions/arm_correlate_fast_q31.c ****         sum = (q31_t) ((((q63_t) sum << 32) +
 428:DSP/Source/FilteringFunctions/arm_correlate_fast_q31.c ****                         ((q63_t) * px++ * (*py++))) >> 32);
 429:DSP/Source/FilteringFunctions/arm_correlate_fast_q31.c ****         sum = (q31_t) ((((q63_t) sum << 32) +
 430:DSP/Source/FilteringFunctions/arm_correlate_fast_q31.c ****                         ((q63_t) * px++ * (*py++))) >> 32);
 431:DSP/Source/FilteringFunctions/arm_correlate_fast_q31.c ****         sum = (q31_t) ((((q63_t) sum << 32) +
 432:DSP/Source/FilteringFunctions/arm_correlate_fast_q31.c ****                         ((q63_t) * px++ * (*py++))) >> 32);
 433:DSP/Source/FilteringFunctions/arm_correlate_fast_q31.c **** 
 434:DSP/Source/FilteringFunctions/arm_correlate_fast_q31.c ****         /* Decrement the loop counter */
 435:DSP/Source/FilteringFunctions/arm_correlate_fast_q31.c ****         k--;
 436:DSP/Source/FilteringFunctions/arm_correlate_fast_q31.c ****       }
 437:DSP/Source/FilteringFunctions/arm_correlate_fast_q31.c **** 
 438:DSP/Source/FilteringFunctions/arm_correlate_fast_q31.c ****       /* If the srcBLen is not a multiple of 4, compute any remaining MACs here.
 439:DSP/Source/FilteringFunctions/arm_correlate_fast_q31.c ****        ** No loop unrolling is used. */
 440:DSP/Source/FilteringFunctions/arm_correlate_fast_q31.c ****       k = srcBLen % 0x4U;
 869              		.loc 1 440 9 view .LVU326
 870 03d0 4446     		mov	r4, r8
 871              	.LVL134:
 872              		.loc 1 440 7 is_stmt 1 view .LVU327
 873              		.loc 1 440 9 is_stmt 0 view .LVU328
 874 03d2 0BF00307 		and	r7, fp, #3
 875              	.LVL135:
 441:DSP/Source/FilteringFunctions/arm_correlate_fast_q31.c **** 
 442:DSP/Source/FilteringFunctions/arm_correlate_fast_q31.c ****       while (k > 0U)
 876              		.loc 1 442 7 is_stmt 1 view .LVU329
 877 03d6 9846     		mov	r8, r3
 878 03d8 3B46     		mov	r3, r7
 879              	.LVL136:
 880              	.L19:
 881              		.loc 1 442 16 view .LVU330
 882 03da 83B1     		cbz	r3, .L37
 443:DSP/Source/FilteringFunctions/arm_correlate_fast_q31.c ****       {
 444:DSP/Source/FilteringFunctions/arm_correlate_fast_q31.c ****         /* Perform the multiply-accumulate */
 445:DSP/Source/FilteringFunctions/arm_correlate_fast_q31.c ****         sum = (q31_t) ((((q63_t) sum << 32) +
 883              		.loc 1 445 9 view .LVU331
 884              	.LVL137:
 446:DSP/Source/FilteringFunctions/arm_correlate_fast_q31.c ****                         ((q63_t) * px++ * (*py++))) >> 32);
 885              		.loc 1 446 34 is_stmt 0 view .LVU332
 886 03dc 51F8047B 		ldr	r7, [r1], #4
 887              	.LVL138:
 888              		.loc 1 446 26 view .LVU333
 889 03e0 4FEAE77A 		asr	r10, r7, #31
 890              	.LVL139:
 891              		.loc 1 446 44 view .LVU334
 892 03e4 52F8045B 		ldr	r5, [r2], #4
 893              	.LVL140:
 894              		.loc 1 446 44 view .LVU335
 895 03e8 E817     		asrs	r0, r5, #31
 896              		.loc 1 446 41 view .LVU336
 897 03ea 07FB00F0 		mul	r0, r7, r0
 898 03ee 05FB0A00 		mla	r0, r5, r10, r0
 899 03f2 A7FB0575 		umull	r7, r5, r7, r5
 900 03f6 2844     		add	r0, r0, r5
ARM GAS  /var/folders/ck/g3dcd5x55xs4107jgdl0snvr0000gn/T//ccD2ZXvQ.s 			page 28


 445:DSP/Source/FilteringFunctions/arm_correlate_fast_q31.c ****                         ((q63_t) * px++ * (*py++))) >> 32);
 901              		.loc 1 445 13 view .LVU337
 902 03f8 8044     		add	r8, r8, r0
 903              	.LVL141:
 447:DSP/Source/FilteringFunctions/arm_correlate_fast_q31.c **** 
 448:DSP/Source/FilteringFunctions/arm_correlate_fast_q31.c ****         /* Decrement the loop counter */
 449:DSP/Source/FilteringFunctions/arm_correlate_fast_q31.c ****         k--;
 904              		.loc 1 449 9 is_stmt 1 view .LVU338
 905              		.loc 1 449 10 is_stmt 0 view .LVU339
 906 03fa 013B     		subs	r3, r3, #1
 907              	.LVL142:
 908              		.loc 1 449 10 view .LVU340
 909 03fc EDE7     		b	.L19
 910              	.L37:
 450:DSP/Source/FilteringFunctions/arm_correlate_fast_q31.c ****       }
 451:DSP/Source/FilteringFunctions/arm_correlate_fast_q31.c **** 
 452:DSP/Source/FilteringFunctions/arm_correlate_fast_q31.c ****       /* Store the result in the accumulator in the destination buffer. */
 453:DSP/Source/FilteringFunctions/arm_correlate_fast_q31.c ****       *pOut = sum << 1;
 911              		.loc 1 453 19 view .LVU341
 912 03fe 4346     		mov	r3, r8
 913              	.LVL143:
 914              		.loc 1 453 7 is_stmt 1 view .LVU342
 915              		.loc 1 453 19 is_stmt 0 view .LVU343
 916 0400 5B00     		lsls	r3, r3, #1
 917              		.loc 1 453 13 view .LVU344
 918 0402 009A     		ldr	r2, [sp]
 919              	.LVL144:
 920              		.loc 1 453 13 view .LVU345
 921 0404 1360     		str	r3, [r2]
 454:DSP/Source/FilteringFunctions/arm_correlate_fast_q31.c ****       /* Destination pointer is updated according to the address modifier, inc */
 455:DSP/Source/FilteringFunctions/arm_correlate_fast_q31.c ****       pOut += inc;
 922              		.loc 1 455 7 is_stmt 1 view .LVU346
 923              		.loc 1 455 12 is_stmt 0 view .LVU347
 924 0406 02EB8403 		add	r3, r2, r4, lsl #2
 925 040a 0093     		str	r3, [sp]
 926              	.LVL145:
 456:DSP/Source/FilteringFunctions/arm_correlate_fast_q31.c **** 
 457:DSP/Source/FilteringFunctions/arm_correlate_fast_q31.c ****       /* Increment the MAC count */
 458:DSP/Source/FilteringFunctions/arm_correlate_fast_q31.c ****       count++;
 927              		.loc 1 458 7 is_stmt 1 view .LVU348
 928              		.loc 1 458 12 is_stmt 0 view .LVU349
 929 040c 019B     		ldr	r3, [sp, #4]
 930              	.LVL146:
 931              		.loc 1 458 12 view .LVU350
 932 040e 0133     		adds	r3, r3, #1
 933 0410 0193     		str	r3, [sp, #4]
 934              	.LVL147:
 459:DSP/Source/FilteringFunctions/arm_correlate_fast_q31.c **** 
 460:DSP/Source/FilteringFunctions/arm_correlate_fast_q31.c ****       /* Update the inputA and inputB pointers for next MAC calculation */
 461:DSP/Source/FilteringFunctions/arm_correlate_fast_q31.c ****       px = pIn1 + count;
 935              		.loc 1 461 7 is_stmt 1 view .LVU351
 936              		.loc 1 461 10 is_stmt 0 view .LVU352
 937 0412 0CEB8301 		add	r1, ip, r3, lsl #2
 938              	.LVL148:
 462:DSP/Source/FilteringFunctions/arm_correlate_fast_q31.c ****       py = pIn2;
 939              		.loc 1 462 7 is_stmt 1 view .LVU353
 463:DSP/Source/FilteringFunctions/arm_correlate_fast_q31.c **** 
ARM GAS  /var/folders/ck/g3dcd5x55xs4107jgdl0snvr0000gn/T//ccD2ZXvQ.s 			page 29


 464:DSP/Source/FilteringFunctions/arm_correlate_fast_q31.c **** 
 465:DSP/Source/FilteringFunctions/arm_correlate_fast_q31.c ****       /* Decrement the loop counter */
 466:DSP/Source/FilteringFunctions/arm_correlate_fast_q31.c ****       blkCnt--;
 940              		.loc 1 466 7 view .LVU354
 941              		.loc 1 466 13 is_stmt 0 view .LVU355
 942 0416 013E     		subs	r6, r6, #1
 943              	.LVL149:
 944              	.L16:
 412:DSP/Source/FilteringFunctions/arm_correlate_fast_q31.c ****     {
 945              		.loc 1 412 19 is_stmt 1 view .LVU356
 946 0418 002E     		cmp	r6, #0
 947 041a 3FD0     		beq	.L38
 415:DSP/Source/FilteringFunctions/arm_correlate_fast_q31.c **** 
 948              		.loc 1 415 7 view .LVU357
 949              	.LVL150:
 418:DSP/Source/FilteringFunctions/arm_correlate_fast_q31.c **** 
 950              		.loc 1 418 7 view .LVU358
 418:DSP/Source/FilteringFunctions/arm_correlate_fast_q31.c **** 
 951              		.loc 1 418 9 is_stmt 0 view .LVU359
 952 041c 4FEA9B07 		lsr	r7, fp, #2
 953              	.LVL151:
 422:DSP/Source/FilteringFunctions/arm_correlate_fast_q31.c ****       {
 954              		.loc 1 422 7 is_stmt 1 view .LVU360
 422:DSP/Source/FilteringFunctions/arm_correlate_fast_q31.c ****       {
 955              		.loc 1 422 13 is_stmt 0 view .LVU361
 956 0420 039A     		ldr	r2, [sp, #12]
 415:DSP/Source/FilteringFunctions/arm_correlate_fast_q31.c **** 
 957              		.loc 1 415 11 view .LVU362
 958 0422 0023     		movs	r3, #0
 959 0424 A046     		mov	r8, r4
 960 0426 3C46     		mov	r4, r7
 961              	.LVL152:
 962              	.L17:
 422:DSP/Source/FilteringFunctions/arm_correlate_fast_q31.c ****       {
 963              		.loc 1 422 16 is_stmt 1 view .LVU363
 964 0428 002C     		cmp	r4, #0
 965 042a D1D0     		beq	.L39
 425:DSP/Source/FilteringFunctions/arm_correlate_fast_q31.c ****                         ((q63_t) * px++ * (*py++))) >> 32);
 966              		.loc 1 425 9 view .LVU364
 967              	.LVL153:
 426:DSP/Source/FilteringFunctions/arm_correlate_fast_q31.c ****         sum = (q31_t) ((((q63_t) sum << 32) +
 968              		.loc 1 426 34 is_stmt 0 view .LVU365
 969 042c 0F68     		ldr	r7, [r1]
 426:DSP/Source/FilteringFunctions/arm_correlate_fast_q31.c ****         sum = (q31_t) ((((q63_t) sum << 32) +
 970              		.loc 1 426 26 view .LVU366
 971 042e 4FEAE77A 		asr	r10, r7, #31
 972              	.LVL154:
 426:DSP/Source/FilteringFunctions/arm_correlate_fast_q31.c ****         sum = (q31_t) ((((q63_t) sum << 32) +
 973              		.loc 1 426 44 view .LVU367
 974 0432 1568     		ldr	r5, [r2]
 975 0434 E817     		asrs	r0, r5, #31
 426:DSP/Source/FilteringFunctions/arm_correlate_fast_q31.c ****         sum = (q31_t) ((((q63_t) sum << 32) +
 976              		.loc 1 426 41 view .LVU368
 977 0436 07FB00F0 		mul	r0, r7, r0
 978 043a 05FB0A00 		mla	r0, r5, r10, r0
 979 043e A7FB0575 		umull	r7, r5, r7, r5
 980 0442 2844     		add	r0, r0, r5
ARM GAS  /var/folders/ck/g3dcd5x55xs4107jgdl0snvr0000gn/T//ccD2ZXvQ.s 			page 30


 425:DSP/Source/FilteringFunctions/arm_correlate_fast_q31.c ****                         ((q63_t) * px++ * (*py++))) >> 32);
 981              		.loc 1 425 45 view .LVU369
 982 0444 0344     		add	r3, r3, r0
 983              	.LVL155:
 427:DSP/Source/FilteringFunctions/arm_correlate_fast_q31.c ****                         ((q63_t) * px++ * (*py++))) >> 32);
 984              		.loc 1 427 9 is_stmt 1 view .LVU370
 428:DSP/Source/FilteringFunctions/arm_correlate_fast_q31.c ****         sum = (q31_t) ((((q63_t) sum << 32) +
 985              		.loc 1 428 34 is_stmt 0 view .LVU371
 986 0446 4F68     		ldr	r7, [r1, #4]
 428:DSP/Source/FilteringFunctions/arm_correlate_fast_q31.c ****         sum = (q31_t) ((((q63_t) sum << 32) +
 987              		.loc 1 428 26 view .LVU372
 988 0448 4FEAE77A 		asr	r10, r7, #31
 989              	.LVL156:
 428:DSP/Source/FilteringFunctions/arm_correlate_fast_q31.c ****         sum = (q31_t) ((((q63_t) sum << 32) +
 990              		.loc 1 428 44 view .LVU373
 991 044c 5568     		ldr	r5, [r2, #4]
 992 044e E817     		asrs	r0, r5, #31
 428:DSP/Source/FilteringFunctions/arm_correlate_fast_q31.c ****         sum = (q31_t) ((((q63_t) sum << 32) +
 993              		.loc 1 428 41 view .LVU374
 994 0450 07FB00F0 		mul	r0, r7, r0
 995 0454 05FB0A00 		mla	r0, r5, r10, r0
 996 0458 A7FB0575 		umull	r7, r5, r7, r5
 997 045c 2844     		add	r0, r0, r5
 427:DSP/Source/FilteringFunctions/arm_correlate_fast_q31.c ****                         ((q63_t) * px++ * (*py++))) >> 32);
 998              		.loc 1 427 45 view .LVU375
 999 045e 0344     		add	r3, r3, r0
 429:DSP/Source/FilteringFunctions/arm_correlate_fast_q31.c ****                         ((q63_t) * px++ * (*py++))) >> 32);
 1000              		.loc 1 429 9 is_stmt 1 view .LVU376
 1001              	.LVL157:
 430:DSP/Source/FilteringFunctions/arm_correlate_fast_q31.c ****         sum = (q31_t) ((((q63_t) sum << 32) +
 1002              		.loc 1 430 34 is_stmt 0 view .LVU377
 1003 0460 8F68     		ldr	r7, [r1, #8]
 430:DSP/Source/FilteringFunctions/arm_correlate_fast_q31.c ****         sum = (q31_t) ((((q63_t) sum << 32) +
 1004              		.loc 1 430 26 view .LVU378
 1005 0462 4FEAE77A 		asr	r10, r7, #31
 1006              	.LVL158:
 430:DSP/Source/FilteringFunctions/arm_correlate_fast_q31.c ****         sum = (q31_t) ((((q63_t) sum << 32) +
 1007              		.loc 1 430 44 view .LVU379
 1008 0466 9568     		ldr	r5, [r2, #8]
 1009 0468 E817     		asrs	r0, r5, #31
 430:DSP/Source/FilteringFunctions/arm_correlate_fast_q31.c ****         sum = (q31_t) ((((q63_t) sum << 32) +
 1010              		.loc 1 430 41 view .LVU380
 1011 046a 07FB00F0 		mul	r0, r7, r0
 1012 046e 05FB0A00 		mla	r0, r5, r10, r0
 1013 0472 A7FB0575 		umull	r7, r5, r7, r5
 1014 0476 2844     		add	r0, r0, r5
 429:DSP/Source/FilteringFunctions/arm_correlate_fast_q31.c ****                         ((q63_t) * px++ * (*py++))) >> 32);
 1015              		.loc 1 429 45 view .LVU381
 1016 0478 1844     		add	r0, r0, r3
 431:DSP/Source/FilteringFunctions/arm_correlate_fast_q31.c ****                         ((q63_t) * px++ * (*py++))) >> 32);
 1017              		.loc 1 431 9 is_stmt 1 view .LVU382
 1018              	.LVL159:
 432:DSP/Source/FilteringFunctions/arm_correlate_fast_q31.c **** 
 1019              		.loc 1 432 34 is_stmt 0 view .LVU383
 1020 047a CF68     		ldr	r7, [r1, #12]
 432:DSP/Source/FilteringFunctions/arm_correlate_fast_q31.c **** 
 1021              		.loc 1 432 26 view .LVU384
ARM GAS  /var/folders/ck/g3dcd5x55xs4107jgdl0snvr0000gn/T//ccD2ZXvQ.s 			page 31


 1022 047c 4FEAE77A 		asr	r10, r7, #31
 1023              	.LVL160:
 432:DSP/Source/FilteringFunctions/arm_correlate_fast_q31.c **** 
 1024              		.loc 1 432 44 view .LVU385
 1025 0480 D568     		ldr	r5, [r2, #12]
 1026 0482 EB17     		asrs	r3, r5, #31
 432:DSP/Source/FilteringFunctions/arm_correlate_fast_q31.c **** 
 1027              		.loc 1 432 41 view .LVU386
 1028 0484 07FB03F3 		mul	r3, r7, r3
 1029 0488 05FB0A33 		mla	r3, r5, r10, r3
 1030 048c A7FB0575 		umull	r7, r5, r7, r5
 1031 0490 2B44     		add	r3, r3, r5
 431:DSP/Source/FilteringFunctions/arm_correlate_fast_q31.c ****                         ((q63_t) * px++ * (*py++))) >> 32);
 1032              		.loc 1 431 13 view .LVU387
 1033 0492 0344     		add	r3, r3, r0
 1034              	.LVL161:
 435:DSP/Source/FilteringFunctions/arm_correlate_fast_q31.c ****       }
 1035              		.loc 1 435 9 is_stmt 1 view .LVU388
 435:DSP/Source/FilteringFunctions/arm_correlate_fast_q31.c ****       }
 1036              		.loc 1 435 10 is_stmt 0 view .LVU389
 1037 0494 013C     		subs	r4, r4, #1
 1038              	.LVL162:
 432:DSP/Source/FilteringFunctions/arm_correlate_fast_q31.c **** 
 1039              		.loc 1 432 47 view .LVU390
 1040 0496 1032     		adds	r2, r2, #16
 1041              	.LVL163:
 432:DSP/Source/FilteringFunctions/arm_correlate_fast_q31.c **** 
 1042              		.loc 1 432 38 view .LVU391
 1043 0498 1031     		adds	r1, r1, #16
 1044              	.LVL164:
 432:DSP/Source/FilteringFunctions/arm_correlate_fast_q31.c **** 
 1045              		.loc 1 432 38 view .LVU392
 1046 049a C5E7     		b	.L17
 1047              	.LVL165:
 1048              	.L38:
 432:DSP/Source/FilteringFunctions/arm_correlate_fast_q31.c **** 
 1049              		.loc 1 432 38 view .LVU393
 1050 049c DDF800A0 		ldr	r10, [sp]
 1051 04a0 7346     		mov	r3, lr
 1052              	.LVL166:
 1053              	.L22:
 467:DSP/Source/FilteringFunctions/arm_correlate_fast_q31.c ****     }
 468:DSP/Source/FilteringFunctions/arm_correlate_fast_q31.c ****   }
 469:DSP/Source/FilteringFunctions/arm_correlate_fast_q31.c ****   else
 470:DSP/Source/FilteringFunctions/arm_correlate_fast_q31.c ****   {
 471:DSP/Source/FilteringFunctions/arm_correlate_fast_q31.c ****     /* If the srcBLen is not a multiple of 4,
 472:DSP/Source/FilteringFunctions/arm_correlate_fast_q31.c ****      * the blockSize2 loop cannot be unrolled by 4 */
 473:DSP/Source/FilteringFunctions/arm_correlate_fast_q31.c ****     blkCnt = blockSize2;
 474:DSP/Source/FilteringFunctions/arm_correlate_fast_q31.c **** 
 475:DSP/Source/FilteringFunctions/arm_correlate_fast_q31.c ****     while (blkCnt > 0U)
 476:DSP/Source/FilteringFunctions/arm_correlate_fast_q31.c ****     {
 477:DSP/Source/FilteringFunctions/arm_correlate_fast_q31.c ****       /* Accumulator is made zero for every iteration */
 478:DSP/Source/FilteringFunctions/arm_correlate_fast_q31.c ****       sum = 0;
 479:DSP/Source/FilteringFunctions/arm_correlate_fast_q31.c **** 
 480:DSP/Source/FilteringFunctions/arm_correlate_fast_q31.c ****       /* Loop over srcBLen */
 481:DSP/Source/FilteringFunctions/arm_correlate_fast_q31.c ****       k = srcBLen;
 482:DSP/Source/FilteringFunctions/arm_correlate_fast_q31.c **** 
ARM GAS  /var/folders/ck/g3dcd5x55xs4107jgdl0snvr0000gn/T//ccD2ZXvQ.s 			page 32


 483:DSP/Source/FilteringFunctions/arm_correlate_fast_q31.c ****       while (k > 0U)
 484:DSP/Source/FilteringFunctions/arm_correlate_fast_q31.c ****       {
 485:DSP/Source/FilteringFunctions/arm_correlate_fast_q31.c ****         /* Perform the multiply-accumulate */
 486:DSP/Source/FilteringFunctions/arm_correlate_fast_q31.c ****         sum = (q31_t) ((((q63_t) sum << 32) +
 487:DSP/Source/FilteringFunctions/arm_correlate_fast_q31.c ****                         ((q63_t) * px++ * (*py++))) >> 32);
 488:DSP/Source/FilteringFunctions/arm_correlate_fast_q31.c **** 
 489:DSP/Source/FilteringFunctions/arm_correlate_fast_q31.c ****         /* Decrement the loop counter */
 490:DSP/Source/FilteringFunctions/arm_correlate_fast_q31.c ****         k--;
 491:DSP/Source/FilteringFunctions/arm_correlate_fast_q31.c ****       }
 492:DSP/Source/FilteringFunctions/arm_correlate_fast_q31.c **** 
 493:DSP/Source/FilteringFunctions/arm_correlate_fast_q31.c ****       /* Store the result in the accumulator in the destination buffer. */
 494:DSP/Source/FilteringFunctions/arm_correlate_fast_q31.c ****       *pOut = sum << 1;
 495:DSP/Source/FilteringFunctions/arm_correlate_fast_q31.c ****       /* Destination pointer is updated according to the address modifier, inc */
 496:DSP/Source/FilteringFunctions/arm_correlate_fast_q31.c ****       pOut += inc;
 497:DSP/Source/FilteringFunctions/arm_correlate_fast_q31.c **** 
 498:DSP/Source/FilteringFunctions/arm_correlate_fast_q31.c ****       /* Increment the MAC count */
 499:DSP/Source/FilteringFunctions/arm_correlate_fast_q31.c ****       count++;
 500:DSP/Source/FilteringFunctions/arm_correlate_fast_q31.c **** 
 501:DSP/Source/FilteringFunctions/arm_correlate_fast_q31.c ****       /* Update the inputA and inputB pointers for next MAC calculation */
 502:DSP/Source/FilteringFunctions/arm_correlate_fast_q31.c ****       px = pIn1 + count;
 503:DSP/Source/FilteringFunctions/arm_correlate_fast_q31.c ****       py = pIn2;
 504:DSP/Source/FilteringFunctions/arm_correlate_fast_q31.c **** 
 505:DSP/Source/FilteringFunctions/arm_correlate_fast_q31.c ****       /* Decrement the loop counter */
 506:DSP/Source/FilteringFunctions/arm_correlate_fast_q31.c ****       blkCnt--;
 507:DSP/Source/FilteringFunctions/arm_correlate_fast_q31.c ****     }
 508:DSP/Source/FilteringFunctions/arm_correlate_fast_q31.c ****   }
 509:DSP/Source/FilteringFunctions/arm_correlate_fast_q31.c **** 
 510:DSP/Source/FilteringFunctions/arm_correlate_fast_q31.c ****   /* --------------------------
 511:DSP/Source/FilteringFunctions/arm_correlate_fast_q31.c ****    * Initializations of stage3
 512:DSP/Source/FilteringFunctions/arm_correlate_fast_q31.c ****    * -------------------------*/
 513:DSP/Source/FilteringFunctions/arm_correlate_fast_q31.c **** 
 514:DSP/Source/FilteringFunctions/arm_correlate_fast_q31.c ****   /* sum += x[srcALen-srcBLen+1] * y[0] + x[srcALen-srcBLen+2] * y[1] +...+ x[srcALen-1] * y[srcBLe
 515:DSP/Source/FilteringFunctions/arm_correlate_fast_q31.c ****    * sum += x[srcALen-srcBLen+2] * y[0] + x[srcALen-srcBLen+3] * y[1] +...+ x[srcALen-1] * y[srcBLe
 516:DSP/Source/FilteringFunctions/arm_correlate_fast_q31.c ****    * ....
 517:DSP/Source/FilteringFunctions/arm_correlate_fast_q31.c ****    * sum +=  x[srcALen-2] * y[0] + x[srcALen-1] * y[1]
 518:DSP/Source/FilteringFunctions/arm_correlate_fast_q31.c ****    * sum +=  x[srcALen-1] * y[0]
 519:DSP/Source/FilteringFunctions/arm_correlate_fast_q31.c ****    */
 520:DSP/Source/FilteringFunctions/arm_correlate_fast_q31.c **** 
 521:DSP/Source/FilteringFunctions/arm_correlate_fast_q31.c ****   /* In this stage the MAC operations are decreased by 1 for every iteration.
 522:DSP/Source/FilteringFunctions/arm_correlate_fast_q31.c ****      The count variable holds the number of MAC operations performed */
 523:DSP/Source/FilteringFunctions/arm_correlate_fast_q31.c ****   count = srcBLen - 1U;
 1054              		.loc 1 523 3 is_stmt 1 view .LVU394
 524:DSP/Source/FilteringFunctions/arm_correlate_fast_q31.c **** 
 525:DSP/Source/FilteringFunctions/arm_correlate_fast_q31.c ****   /* Working pointer of inputA */
 526:DSP/Source/FilteringFunctions/arm_correlate_fast_q31.c ****   pSrc1 = ((pIn1 + srcALen) - srcBLen) + 1U;
 1055              		.loc 1 526 3 view .LVU395
 1056              		.loc 1 526 9 is_stmt 0 view .LVU396
 1057 04a2 049A     		ldr	r2, [sp, #16]
 1058 04a4 02EB8907 		add	r7, r2, r9, lsl #2
 1059              	.LVL167:
 527:DSP/Source/FilteringFunctions/arm_correlate_fast_q31.c ****   px = pSrc1;
 1060              		.loc 1 527 3 is_stmt 1 view .LVU397
 528:DSP/Source/FilteringFunctions/arm_correlate_fast_q31.c **** 
 529:DSP/Source/FilteringFunctions/arm_correlate_fast_q31.c ****   /* Working pointer of inputB */
 530:DSP/Source/FilteringFunctions/arm_correlate_fast_q31.c ****   py = pIn2;
 1061              		.loc 1 530 3 view .LVU398
 531:DSP/Source/FilteringFunctions/arm_correlate_fast_q31.c **** 
ARM GAS  /var/folders/ck/g3dcd5x55xs4107jgdl0snvr0000gn/T//ccD2ZXvQ.s 			page 33


 532:DSP/Source/FilteringFunctions/arm_correlate_fast_q31.c ****   /* -------------------
 533:DSP/Source/FilteringFunctions/arm_correlate_fast_q31.c ****    * Stage3 process
 534:DSP/Source/FilteringFunctions/arm_correlate_fast_q31.c ****    * ------------------*/
 535:DSP/Source/FilteringFunctions/arm_correlate_fast_q31.c **** 
 536:DSP/Source/FilteringFunctions/arm_correlate_fast_q31.c ****   while (blockSize3 > 0U)
 1062              		.loc 1 536 3 view .LVU399
 145:DSP/Source/FilteringFunctions/arm_correlate_fast_q31.c **** 
 1063              		.loc 1 145 14 is_stmt 0 view .LVU400
 1064 04a8 1E46     		mov	r6, r3
 1065 04aa A446     		mov	ip, r4
 1066              		.loc 1 536 9 view .LVU401
 1067 04ac 98E0     		b	.L25
 1068              	.LVL168:
 1069              	.L23:
 486:DSP/Source/FilteringFunctions/arm_correlate_fast_q31.c ****                         ((q63_t) * px++ * (*py++))) >> 32);
 1070              		.loc 1 486 9 is_stmt 1 view .LVU402
 487:DSP/Source/FilteringFunctions/arm_correlate_fast_q31.c **** 
 1071              		.loc 1 487 34 is_stmt 0 view .LVU403
 1072 04ae 55F8041B 		ldr	r1, [r5], #4
 1073              	.LVL169:
 487:DSP/Source/FilteringFunctions/arm_correlate_fast_q31.c **** 
 1074              		.loc 1 487 26 view .LVU404
 1075 04b2 4FEAE17E 		asr	lr, r1, #31
 1076              	.LVL170:
 487:DSP/Source/FilteringFunctions/arm_correlate_fast_q31.c **** 
 1077              		.loc 1 487 44 view .LVU405
 1078 04b6 56F8047B 		ldr	r7, [r6], #4
 1079              	.LVL171:
 487:DSP/Source/FilteringFunctions/arm_correlate_fast_q31.c **** 
 1080              		.loc 1 487 44 view .LVU406
 1081 04ba FB17     		asrs	r3, r7, #31
 487:DSP/Source/FilteringFunctions/arm_correlate_fast_q31.c **** 
 1082              		.loc 1 487 41 view .LVU407
 1083 04bc 01FB03F3 		mul	r3, r1, r3
 1084 04c0 07FB0E33 		mla	r3, r7, lr, r3
 1085 04c4 A1FB0717 		umull	r1, r7, r1, r7
 1086 04c8 3B44     		add	r3, r3, r7
 486:DSP/Source/FilteringFunctions/arm_correlate_fast_q31.c ****                         ((q63_t) * px++ * (*py++))) >> 32);
 1087              		.loc 1 486 13 view .LVU408
 1088 04ca 9C44     		add	ip, ip, r3
 1089              	.LVL172:
 490:DSP/Source/FilteringFunctions/arm_correlate_fast_q31.c ****       }
 1090              		.loc 1 490 9 is_stmt 1 view .LVU409
 490:DSP/Source/FilteringFunctions/arm_correlate_fast_q31.c ****       }
 1091              		.loc 1 490 10 is_stmt 0 view .LVU410
 1092 04cc 013A     		subs	r2, r2, #1
 1093              	.LVL173:
 1094              	.L24:
 483:DSP/Source/FilteringFunctions/arm_correlate_fast_q31.c ****       {
 1095              		.loc 1 483 16 is_stmt 1 view .LVU411
 1096 04ce 002A     		cmp	r2, #0
 1097 04d0 EDD1     		bne	.L23
 494:DSP/Source/FilteringFunctions/arm_correlate_fast_q31.c ****       /* Destination pointer is updated according to the address modifier, inc */
 1098              		.loc 1 494 19 is_stmt 0 view .LVU412
 1099 04d2 DDF804E0 		ldr	lr, [sp, #4]
 1100 04d6 5246     		mov	r2, r10
 1101              	.LVL174:
ARM GAS  /var/folders/ck/g3dcd5x55xs4107jgdl0snvr0000gn/T//ccD2ZXvQ.s 			page 34


 494:DSP/Source/FilteringFunctions/arm_correlate_fast_q31.c ****       /* Destination pointer is updated according to the address modifier, inc */
 1102              		.loc 1 494 19 view .LVU413
 1103 04d8 DDF800A0 		ldr	r10, [sp]
 1104              	.LVL175:
 494:DSP/Source/FilteringFunctions/arm_correlate_fast_q31.c ****       /* Destination pointer is updated according to the address modifier, inc */
 1105              		.loc 1 494 7 is_stmt 1 view .LVU414
 494:DSP/Source/FilteringFunctions/arm_correlate_fast_q31.c ****       /* Destination pointer is updated according to the address modifier, inc */
 1106              		.loc 1 494 19 is_stmt 0 view .LVU415
 1107 04dc 4FEA4C03 		lsl	r3, ip, #1
 494:DSP/Source/FilteringFunctions/arm_correlate_fast_q31.c ****       /* Destination pointer is updated according to the address modifier, inc */
 1108              		.loc 1 494 13 view .LVU416
 1109 04e0 CAF80030 		str	r3, [r10]
 496:DSP/Source/FilteringFunctions/arm_correlate_fast_q31.c **** 
 1110              		.loc 1 496 7 is_stmt 1 view .LVU417
 496:DSP/Source/FilteringFunctions/arm_correlate_fast_q31.c **** 
 1111              		.loc 1 496 12 is_stmt 0 view .LVU418
 1112 04e4 0AEB840A 		add	r10, r10, r4, lsl #2
 1113              	.LVL176:
 499:DSP/Source/FilteringFunctions/arm_correlate_fast_q31.c **** 
 1114              		.loc 1 499 7 is_stmt 1 view .LVU419
 499:DSP/Source/FilteringFunctions/arm_correlate_fast_q31.c **** 
 1115              		.loc 1 499 12 is_stmt 0 view .LVU420
 1116 04e8 0EF1010E 		add	lr, lr, #1
 1117              	.LVL177:
 502:DSP/Source/FilteringFunctions/arm_correlate_fast_q31.c ****       py = pIn2;
 1118              		.loc 1 502 7 is_stmt 1 view .LVU421
 502:DSP/Source/FilteringFunctions/arm_correlate_fast_q31.c ****       py = pIn2;
 1119              		.loc 1 502 10 is_stmt 0 view .LVU422
 1120 04ec 08EB8E05 		add	r5, r8, lr, lsl #2
 1121              	.LVL178:
 503:DSP/Source/FilteringFunctions/arm_correlate_fast_q31.c **** 
 1122              		.loc 1 503 7 is_stmt 1 view .LVU423
 506:DSP/Source/FilteringFunctions/arm_correlate_fast_q31.c ****     }
 1123              		.loc 1 506 7 view .LVU424
 506:DSP/Source/FilteringFunctions/arm_correlate_fast_q31.c ****     }
 1124              		.loc 1 506 13 is_stmt 0 view .LVU425
 1125 04f0 0138     		subs	r0, r0, #1
 1126              	.LVL179:
 1127              	.L10:
 475:DSP/Source/FilteringFunctions/arm_correlate_fast_q31.c ****     {
 1128              		.loc 1 475 19 is_stmt 1 view .LVU426
 1129 04f2 80B1     		cbz	r0, .L40
 1130 04f4 039E     		ldr	r6, [sp, #12]
 478:DSP/Source/FilteringFunctions/arm_correlate_fast_q31.c **** 
 1131              		.loc 1 478 11 is_stmt 0 view .LVU427
 1132 04f6 4FF0000C 		mov	ip, #0
 1133 04fa CDF800A0 		str	r10, [sp]
 1134 04fe CDF804E0 		str	lr, [sp, #4]
 1135 0502 9246     		mov	r10, r2
 1136              	.LVL180:
 478:DSP/Source/FilteringFunctions/arm_correlate_fast_q31.c **** 
 1137              		.loc 1 478 11 view .LVU428
 1138 0504 E3E7     		b	.L24
 1139              	.LVL181:
 1140              	.L31:
 244:DSP/Source/FilteringFunctions/arm_correlate_fast_q31.c **** 
 1141              		.loc 1 244 6 view .LVU429
ARM GAS  /var/folders/ck/g3dcd5x55xs4107jgdl0snvr0000gn/T//ccD2ZXvQ.s 			page 35


 1142 0506 DDF81080 		ldr	r8, [sp, #16]
 1143 050a 4546     		mov	r5, r8
 1144 050c 8646     		mov	lr, r0
 1145 050e 4846     		mov	r0, r9
 1146              	.LVL182:
 244:DSP/Source/FilteringFunctions/arm_correlate_fast_q31.c **** 
 1147              		.loc 1 244 6 view .LVU430
 1148 0510 5A46     		mov	r2, fp
 1149 0512 9B46     		mov	fp, r3
 1150              	.LVL183:
 244:DSP/Source/FilteringFunctions/arm_correlate_fast_q31.c **** 
 1151              		.loc 1 244 6 view .LVU431
 1152 0514 EDE7     		b	.L10
 1153              	.LVL184:
 1154              	.L40:
 244:DSP/Source/FilteringFunctions/arm_correlate_fast_q31.c **** 
 1155              		.loc 1 244 6 view .LVU432
 1156 0516 5B46     		mov	r3, fp
 1157 0518 C3E7     		b	.L22
 1158              	.LVL185:
 1159              	.L27:
 537:DSP/Source/FilteringFunctions/arm_correlate_fast_q31.c ****   {
 538:DSP/Source/FilteringFunctions/arm_correlate_fast_q31.c ****     /* Accumulator is made zero for every iteration */
 539:DSP/Source/FilteringFunctions/arm_correlate_fast_q31.c ****     sum = 0;
 540:DSP/Source/FilteringFunctions/arm_correlate_fast_q31.c **** 
 541:DSP/Source/FilteringFunctions/arm_correlate_fast_q31.c ****     /* Apply loop unrolling and compute 4 MACs simultaneously. */
 542:DSP/Source/FilteringFunctions/arm_correlate_fast_q31.c ****     k = count >> 2U;
 543:DSP/Source/FilteringFunctions/arm_correlate_fast_q31.c **** 
 544:DSP/Source/FilteringFunctions/arm_correlate_fast_q31.c ****     /* First part of the processing with loop unrolling.  Compute 4 MACs at a time.
 545:DSP/Source/FilteringFunctions/arm_correlate_fast_q31.c ****      ** a second loop below computes MACs for the remaining 1 to 3 samples. */
 546:DSP/Source/FilteringFunctions/arm_correlate_fast_q31.c ****     while (k > 0U)
 547:DSP/Source/FilteringFunctions/arm_correlate_fast_q31.c ****     {
 548:DSP/Source/FilteringFunctions/arm_correlate_fast_q31.c ****       /* Perform the multiply-accumulates */
 549:DSP/Source/FilteringFunctions/arm_correlate_fast_q31.c ****       /* sum += x[srcALen - srcBLen + 4] * y[3] */
 550:DSP/Source/FilteringFunctions/arm_correlate_fast_q31.c ****       sum = (q31_t) ((((q63_t) sum << 32) +
 1160              		.loc 1 550 7 is_stmt 1 view .LVU433
 551:DSP/Source/FilteringFunctions/arm_correlate_fast_q31.c ****                       ((q63_t) * px++ * (*py++))) >> 32);
 1161              		.loc 1 551 32 is_stmt 0 view .LVU434
 1162 051a D0F80080 		ldr	r8, [r0]
 1163              		.loc 1 551 24 view .LVU435
 1164 051e 4FEAE879 		asr	r9, r8, #31
 1165              	.LVL186:
 1166              		.loc 1 551 42 view .LVU436
 1167 0522 D5F800E0 		ldr	lr, [r5]
 1168 0526 4FEAEE72 		asr	r2, lr, #31
 1169              		.loc 1 551 39 view .LVU437
 1170 052a 08FB02F2 		mul	r2, r8, r2
 1171 052e 0EFB0922 		mla	r2, lr, r9, r2
 1172 0532 A8FB0E8E 		umull	r8, lr, r8, lr
 1173 0536 7244     		add	r2, r2, lr
 550:DSP/Source/FilteringFunctions/arm_correlate_fast_q31.c ****                       ((q63_t) * px++ * (*py++))) >> 32);
 1174              		.loc 1 550 43 view .LVU438
 1175 0538 0A44     		add	r2, r2, r1
 1176              	.LVL187:
 552:DSP/Source/FilteringFunctions/arm_correlate_fast_q31.c ****       /* sum += x[srcALen - srcBLen + 3] * y[2] */
 553:DSP/Source/FilteringFunctions/arm_correlate_fast_q31.c ****       sum = (q31_t) ((((q63_t) sum << 32) +
 1177              		.loc 1 553 7 is_stmt 1 view .LVU439
ARM GAS  /var/folders/ck/g3dcd5x55xs4107jgdl0snvr0000gn/T//ccD2ZXvQ.s 			page 36


 554:DSP/Source/FilteringFunctions/arm_correlate_fast_q31.c ****                       ((q63_t) * px++ * (*py++))) >> 32);
 1178              		.loc 1 554 32 is_stmt 0 view .LVU440
 1179 053a D0F80480 		ldr	r8, [r0, #4]
 1180              		.loc 1 554 24 view .LVU441
 1181 053e 4FEAE879 		asr	r9, r8, #31
 1182              	.LVL188:
 1183              		.loc 1 554 42 view .LVU442
 1184 0542 D5F804E0 		ldr	lr, [r5, #4]
 1185 0546 4FEAEE71 		asr	r1, lr, #31
 1186              		.loc 1 554 39 view .LVU443
 1187 054a 08FB01F1 		mul	r1, r8, r1
 1188 054e 0EFB0911 		mla	r1, lr, r9, r1
 1189 0552 A8FB0E8E 		umull	r8, lr, r8, lr
 1190 0556 7144     		add	r1, r1, lr
 553:DSP/Source/FilteringFunctions/arm_correlate_fast_q31.c ****                       ((q63_t) * px++ * (*py++))) >> 32);
 1191              		.loc 1 553 43 view .LVU444
 1192 0558 0A44     		add	r2, r2, r1
 555:DSP/Source/FilteringFunctions/arm_correlate_fast_q31.c ****       /* sum += x[srcALen - srcBLen + 2] * y[1] */
 556:DSP/Source/FilteringFunctions/arm_correlate_fast_q31.c ****       sum = (q31_t) ((((q63_t) sum << 32) +
 1193              		.loc 1 556 7 is_stmt 1 view .LVU445
 1194              	.LVL189:
 557:DSP/Source/FilteringFunctions/arm_correlate_fast_q31.c ****                       ((q63_t) * px++ * (*py++))) >> 32);
 1195              		.loc 1 557 32 is_stmt 0 view .LVU446
 1196 055a D0F80880 		ldr	r8, [r0, #8]
 1197              		.loc 1 557 24 view .LVU447
 1198 055e 4FEAE879 		asr	r9, r8, #31
 1199              	.LVL190:
 1200              		.loc 1 557 42 view .LVU448
 1201 0562 D5F808E0 		ldr	lr, [r5, #8]
 1202 0566 4FEAEE71 		asr	r1, lr, #31
 1203              		.loc 1 557 39 view .LVU449
 1204 056a 08FB01F1 		mul	r1, r8, r1
 1205 056e 0EFB0911 		mla	r1, lr, r9, r1
 1206 0572 A8FB0E8E 		umull	r8, lr, r8, lr
 1207 0576 7144     		add	r1, r1, lr
 556:DSP/Source/FilteringFunctions/arm_correlate_fast_q31.c ****                       ((q63_t) * px++ * (*py++))) >> 32);
 1208              		.loc 1 556 43 view .LVU450
 1209 0578 0A44     		add	r2, r2, r1
 558:DSP/Source/FilteringFunctions/arm_correlate_fast_q31.c ****       /* sum += x[srcALen - srcBLen + 1] * y[0] */
 559:DSP/Source/FilteringFunctions/arm_correlate_fast_q31.c ****       sum = (q31_t) ((((q63_t) sum << 32) +
 1210              		.loc 1 559 7 is_stmt 1 view .LVU451
 1211              	.LVL191:
 560:DSP/Source/FilteringFunctions/arm_correlate_fast_q31.c ****                       ((q63_t) * px++ * (*py++))) >> 32);
 1212              		.loc 1 560 32 is_stmt 0 view .LVU452
 1213 057a D0F80C80 		ldr	r8, [r0, #12]
 1214              		.loc 1 560 24 view .LVU453
 1215 057e 4FEAE879 		asr	r9, r8, #31
 1216              	.LVL192:
 1217              		.loc 1 560 42 view .LVU454
 1218 0582 D5F80CE0 		ldr	lr, [r5, #12]
 1219 0586 4FEAEE71 		asr	r1, lr, #31
 1220              		.loc 1 560 39 view .LVU455
 1221 058a 08FB01F1 		mul	r1, r8, r1
 1222 058e 0EFB0911 		mla	r1, lr, r9, r1
 1223 0592 A8FB0E8E 		umull	r8, lr, r8, lr
 1224 0596 7144     		add	r1, r1, lr
 559:DSP/Source/FilteringFunctions/arm_correlate_fast_q31.c ****                       ((q63_t) * px++ * (*py++))) >> 32);
ARM GAS  /var/folders/ck/g3dcd5x55xs4107jgdl0snvr0000gn/T//ccD2ZXvQ.s 			page 37


 1225              		.loc 1 559 11 view .LVU456
 1226 0598 1144     		add	r1, r1, r2
 1227              	.LVL193:
 561:DSP/Source/FilteringFunctions/arm_correlate_fast_q31.c **** 
 562:DSP/Source/FilteringFunctions/arm_correlate_fast_q31.c ****       /* Decrement the loop counter */
 563:DSP/Source/FilteringFunctions/arm_correlate_fast_q31.c ****       k--;
 1228              		.loc 1 563 7 is_stmt 1 view .LVU457
 1229              		.loc 1 563 8 is_stmt 0 view .LVU458
 1230 059a 013C     		subs	r4, r4, #1
 1231              	.LVL194:
 560:DSP/Source/FilteringFunctions/arm_correlate_fast_q31.c **** 
 1232              		.loc 1 560 45 view .LVU459
 1233 059c 1035     		adds	r5, r5, #16
 1234              	.LVL195:
 560:DSP/Source/FilteringFunctions/arm_correlate_fast_q31.c **** 
 1235              		.loc 1 560 36 view .LVU460
 1236 059e 1030     		adds	r0, r0, #16
 1237              	.LVL196:
 1238              	.L26:
 546:DSP/Source/FilteringFunctions/arm_correlate_fast_q31.c ****     {
 1239              		.loc 1 546 14 is_stmt 1 view .LVU461
 1240 05a0 002C     		cmp	r4, #0
 1241 05a2 BAD1     		bne	.L27
 564:DSP/Source/FilteringFunctions/arm_correlate_fast_q31.c ****     }
 565:DSP/Source/FilteringFunctions/arm_correlate_fast_q31.c **** 
 566:DSP/Source/FilteringFunctions/arm_correlate_fast_q31.c ****     /* If the count is not a multiple of 4, compute any remaining MACs here.
 567:DSP/Source/FilteringFunctions/arm_correlate_fast_q31.c ****      ** No loop unrolling is used. */
 568:DSP/Source/FilteringFunctions/arm_correlate_fast_q31.c ****     k = count % 0x4U;
 1242              		.loc 1 568 5 view .LVU462
 1243              		.loc 1 568 7 is_stmt 0 view .LVU463
 1244 05a4 03F00304 		and	r4, r3, #3
 1245              	.LVL197:
 569:DSP/Source/FilteringFunctions/arm_correlate_fast_q31.c **** 
 570:DSP/Source/FilteringFunctions/arm_correlate_fast_q31.c ****     while (k > 0U)
 1246              		.loc 1 570 5 is_stmt 1 view .LVU464
 1247              		.loc 1 570 11 is_stmt 0 view .LVU465
 1248 05a8 10E0     		b	.L28
 1249              	.L29:
 571:DSP/Source/FilteringFunctions/arm_correlate_fast_q31.c ****     {
 572:DSP/Source/FilteringFunctions/arm_correlate_fast_q31.c ****       /* Perform the multiply-accumulates */
 573:DSP/Source/FilteringFunctions/arm_correlate_fast_q31.c ****       sum = (q31_t) ((((q63_t) sum << 32) +
 1250              		.loc 1 573 7 is_stmt 1 view .LVU466
 1251              	.LVL198:
 574:DSP/Source/FilteringFunctions/arm_correlate_fast_q31.c ****                       ((q63_t) * px++ * (*py++))) >> 32);
 1252              		.loc 1 574 32 is_stmt 0 view .LVU467
 1253 05aa 50F8048B 		ldr	r8, [r0], #4
 1254              	.LVL199:
 1255              		.loc 1 574 24 view .LVU468
 1256 05ae 4FEAE879 		asr	r9, r8, #31
 1257              	.LVL200:
 1258              		.loc 1 574 42 view .LVU469
 1259 05b2 55F804EB 		ldr	lr, [r5], #4
 1260              	.LVL201:
 1261              		.loc 1 574 42 view .LVU470
 1262 05b6 4FEAEE72 		asr	r2, lr, #31
 1263              		.loc 1 574 39 view .LVU471
 1264 05ba 08FB02F2 		mul	r2, r8, r2
ARM GAS  /var/folders/ck/g3dcd5x55xs4107jgdl0snvr0000gn/T//ccD2ZXvQ.s 			page 38


 1265 05be 0EFB0922 		mla	r2, lr, r9, r2
 1266 05c2 A8FB0E8E 		umull	r8, lr, r8, lr
 1267 05c6 7244     		add	r2, r2, lr
 573:DSP/Source/FilteringFunctions/arm_correlate_fast_q31.c ****                       ((q63_t) * px++ * (*py++))) >> 32);
 1268              		.loc 1 573 11 view .LVU472
 1269 05c8 1144     		add	r1, r1, r2
 1270              	.LVL202:
 575:DSP/Source/FilteringFunctions/arm_correlate_fast_q31.c **** 
 576:DSP/Source/FilteringFunctions/arm_correlate_fast_q31.c ****       /* Decrement the loop counter */
 577:DSP/Source/FilteringFunctions/arm_correlate_fast_q31.c ****       k--;
 1271              		.loc 1 577 7 is_stmt 1 view .LVU473
 1272              		.loc 1 577 8 is_stmt 0 view .LVU474
 1273 05ca 013C     		subs	r4, r4, #1
 1274              	.LVL203:
 1275              	.L28:
 570:DSP/Source/FilteringFunctions/arm_correlate_fast_q31.c ****     {
 1276              		.loc 1 570 14 is_stmt 1 view .LVU475
 1277 05cc 002C     		cmp	r4, #0
 1278 05ce ECD1     		bne	.L29
 578:DSP/Source/FilteringFunctions/arm_correlate_fast_q31.c ****     }
 579:DSP/Source/FilteringFunctions/arm_correlate_fast_q31.c **** 
 580:DSP/Source/FilteringFunctions/arm_correlate_fast_q31.c ****     /* Store the result in the accumulator in the destination buffer. */
 581:DSP/Source/FilteringFunctions/arm_correlate_fast_q31.c ****     *pOut = sum << 1;
 1279              		.loc 1 581 5 view .LVU476
 1280              		.loc 1 581 17 is_stmt 0 view .LVU477
 1281 05d0 4900     		lsls	r1, r1, #1
 1282              	.LVL204:
 1283              		.loc 1 581 11 view .LVU478
 1284 05d2 CAF80010 		str	r1, [r10]
 582:DSP/Source/FilteringFunctions/arm_correlate_fast_q31.c ****     /* Destination pointer is updated according to the address modifier, inc */
 583:DSP/Source/FilteringFunctions/arm_correlate_fast_q31.c ****     pOut += inc;
 1285              		.loc 1 583 5 is_stmt 1 view .LVU479
 1286              		.loc 1 583 10 is_stmt 0 view .LVU480
 1287 05d6 0AEB8C0A 		add	r10, r10, ip, lsl #2
 1288              	.LVL205:
 584:DSP/Source/FilteringFunctions/arm_correlate_fast_q31.c **** 
 585:DSP/Source/FilteringFunctions/arm_correlate_fast_q31.c ****     /* Update the inputA and inputB pointers for next MAC calculation */
 586:DSP/Source/FilteringFunctions/arm_correlate_fast_q31.c ****     px = ++pSrc1;
 1289              		.loc 1 586 5 is_stmt 1 view .LVU481
 1290              		.loc 1 586 8 is_stmt 0 view .LVU482
 1291 05da 0437     		adds	r7, r7, #4
 1292              	.LVL206:
 587:DSP/Source/FilteringFunctions/arm_correlate_fast_q31.c ****     py = pIn2;
 1293              		.loc 1 587 5 is_stmt 1 view .LVU483
 588:DSP/Source/FilteringFunctions/arm_correlate_fast_q31.c **** 
 589:DSP/Source/FilteringFunctions/arm_correlate_fast_q31.c ****     /* Decrement the MAC count */
 590:DSP/Source/FilteringFunctions/arm_correlate_fast_q31.c ****     count--;
 1294              		.loc 1 590 5 view .LVU484
 1295              		.loc 1 590 10 is_stmt 0 view .LVU485
 1296 05dc 013B     		subs	r3, r3, #1
 1297              	.LVL207:
 591:DSP/Source/FilteringFunctions/arm_correlate_fast_q31.c **** 
 592:DSP/Source/FilteringFunctions/arm_correlate_fast_q31.c ****     /* Decrement the loop counter */
 593:DSP/Source/FilteringFunctions/arm_correlate_fast_q31.c ****     blockSize3--;
 1298              		.loc 1 593 5 is_stmt 1 view .LVU486
 1299              		.loc 1 593 15 is_stmt 0 view .LVU487
 1300 05de 013E     		subs	r6, r6, #1
ARM GAS  /var/folders/ck/g3dcd5x55xs4107jgdl0snvr0000gn/T//ccD2ZXvQ.s 			page 39


 1301              	.LVL208:
 1302              	.L25:
 536:DSP/Source/FilteringFunctions/arm_correlate_fast_q31.c ****   {
 1303              		.loc 1 536 21 is_stmt 1 view .LVU488
 1304 05e0 26B1     		cbz	r6, .L41
 539:DSP/Source/FilteringFunctions/arm_correlate_fast_q31.c **** 
 1305              		.loc 1 539 5 view .LVU489
 1306              	.LVL209:
 542:DSP/Source/FilteringFunctions/arm_correlate_fast_q31.c **** 
 1307              		.loc 1 542 5 view .LVU490
 542:DSP/Source/FilteringFunctions/arm_correlate_fast_q31.c **** 
 1308              		.loc 1 542 7 is_stmt 0 view .LVU491
 1309 05e2 9C08     		lsrs	r4, r3, #2
 1310              	.LVL210:
 546:DSP/Source/FilteringFunctions/arm_correlate_fast_q31.c ****     {
 1311              		.loc 1 546 5 is_stmt 1 view .LVU492
 546:DSP/Source/FilteringFunctions/arm_correlate_fast_q31.c ****     {
 1312              		.loc 1 546 11 is_stmt 0 view .LVU493
 1313 05e4 039D     		ldr	r5, [sp, #12]
 1314 05e6 3846     		mov	r0, r7
 539:DSP/Source/FilteringFunctions/arm_correlate_fast_q31.c **** 
 1315              		.loc 1 539 9 view .LVU494
 1316 05e8 0021     		movs	r1, #0
 546:DSP/Source/FilteringFunctions/arm_correlate_fast_q31.c ****     {
 1317              		.loc 1 546 11 view .LVU495
 1318 05ea D9E7     		b	.L26
 1319              	.LVL211:
 1320              	.L41:
 594:DSP/Source/FilteringFunctions/arm_correlate_fast_q31.c ****   }
 595:DSP/Source/FilteringFunctions/arm_correlate_fast_q31.c **** 
 596:DSP/Source/FilteringFunctions/arm_correlate_fast_q31.c **** }
 1321              		.loc 1 596 1 view .LVU496
 1322 05ec 0DB0     		add	sp, sp, #52
 1323              	.LCFI2:
 1324              		.cfi_def_cfa_offset 36
 1325              		@ sp needed
 1326 05ee BDE8F08F 		pop	{r4, r5, r6, r7, r8, r9, r10, fp, pc}
 1327              		.loc 1 596 1 view .LVU497
 1328              		.cfi_endproc
 1329              	.LFE139:
 1331              		.text
 1332              	.Letext0:
 1333              		.file 2 "/Users/luban/.local/xPacks/arm-none-eabi-gcc/xpack-arm-none-eabi-gcc-13.2.1-1.1/arm-none-
 1334              		.file 3 "/Users/luban/.local/xPacks/arm-none-eabi-gcc/xpack-arm-none-eabi-gcc-13.2.1-1.1/arm-none-
 1335              		.file 4 "DSP/Inc/arm_math.h"
ARM GAS  /var/folders/ck/g3dcd5x55xs4107jgdl0snvr0000gn/T//ccD2ZXvQ.s 			page 40

