ARM GAS  /var/folders/ck/g3dcd5x55xs4107jgdl0snvr0000gn/T//ccM5XkLQ.s 			page 1


   1              		.cpu cortex-m4
   2              		.arch armv7e-m
   3              		.fpu fpv4-sp-d16
   4              		.eabi_attribute 27, 1
   5              		.eabi_attribute 28, 1
   6              		.eabi_attribute 20, 1
   7              		.eabi_attribute 21, 1
   8              		.eabi_attribute 23, 3
   9              		.eabi_attribute 24, 1
  10              		.eabi_attribute 25, 1
  11              		.eabi_attribute 26, 1
  12              		.eabi_attribute 30, 1
  13              		.eabi_attribute 34, 1
  14              		.eabi_attribute 18, 4
  15              		.file	"arm_dct4_q15.c"
  16              		.text
  17              	.Ltext0:
  18              		.cfi_sections	.debug_frame
  19              		.file 1 "DSP/Source/TransformFunctions/arm_dct4_q15.c"
  20              		.section	.text.arm_dct4_q15,"ax",%progbits
  21              		.align	1
  22              		.global	arm_dct4_q15
  23              		.syntax unified
  24              		.thumb
  25              		.thumb_func
  27              	arm_dct4_q15:
  28              	.LVL0:
  29              	.LFB139:
   1:DSP/Source/TransformFunctions/arm_dct4_q15.c **** /* ----------------------------------------------------------------------
   2:DSP/Source/TransformFunctions/arm_dct4_q15.c ****  * Project:      CMSIS DSP Library
   3:DSP/Source/TransformFunctions/arm_dct4_q15.c ****  * Title:        arm_dct4_q15.c
   4:DSP/Source/TransformFunctions/arm_dct4_q15.c ****  * Description:  Processing function of DCT4 & IDCT4 Q15
   5:DSP/Source/TransformFunctions/arm_dct4_q15.c ****  *
   6:DSP/Source/TransformFunctions/arm_dct4_q15.c ****  * $Date:        27. January 2017
   7:DSP/Source/TransformFunctions/arm_dct4_q15.c ****  * $Revision:    V.1.5.1
   8:DSP/Source/TransformFunctions/arm_dct4_q15.c ****  *
   9:DSP/Source/TransformFunctions/arm_dct4_q15.c ****  * Target Processor: Cortex-M cores
  10:DSP/Source/TransformFunctions/arm_dct4_q15.c ****  * -------------------------------------------------------------------- */
  11:DSP/Source/TransformFunctions/arm_dct4_q15.c **** /*
  12:DSP/Source/TransformFunctions/arm_dct4_q15.c ****  * Copyright (C) 2010-2017 ARM Limited or its affiliates. All rights reserved.
  13:DSP/Source/TransformFunctions/arm_dct4_q15.c ****  *
  14:DSP/Source/TransformFunctions/arm_dct4_q15.c ****  * SPDX-License-Identifier: Apache-2.0
  15:DSP/Source/TransformFunctions/arm_dct4_q15.c ****  *
  16:DSP/Source/TransformFunctions/arm_dct4_q15.c ****  * Licensed under the Apache License, Version 2.0 (the License); you may
  17:DSP/Source/TransformFunctions/arm_dct4_q15.c ****  * not use this file except in compliance with the License.
  18:DSP/Source/TransformFunctions/arm_dct4_q15.c ****  * You may obtain a copy of the License at
  19:DSP/Source/TransformFunctions/arm_dct4_q15.c ****  *
  20:DSP/Source/TransformFunctions/arm_dct4_q15.c ****  * www.apache.org/licenses/LICENSE-2.0
  21:DSP/Source/TransformFunctions/arm_dct4_q15.c ****  *
  22:DSP/Source/TransformFunctions/arm_dct4_q15.c ****  * Unless required by applicable law or agreed to in writing, software
  23:DSP/Source/TransformFunctions/arm_dct4_q15.c ****  * distributed under the License is distributed on an AS IS BASIS, WITHOUT
  24:DSP/Source/TransformFunctions/arm_dct4_q15.c ****  * WARRANTIES OR CONDITIONS OF ANY KIND, either express or implied.
  25:DSP/Source/TransformFunctions/arm_dct4_q15.c ****  * See the License for the specific language governing permissions and
  26:DSP/Source/TransformFunctions/arm_dct4_q15.c ****  * limitations under the License.
  27:DSP/Source/TransformFunctions/arm_dct4_q15.c ****  */
  28:DSP/Source/TransformFunctions/arm_dct4_q15.c **** 
  29:DSP/Source/TransformFunctions/arm_dct4_q15.c **** #include "arm_math.h"
ARM GAS  /var/folders/ck/g3dcd5x55xs4107jgdl0snvr0000gn/T//ccM5XkLQ.s 			page 2


  30:DSP/Source/TransformFunctions/arm_dct4_q15.c **** 
  31:DSP/Source/TransformFunctions/arm_dct4_q15.c **** /**
  32:DSP/Source/TransformFunctions/arm_dct4_q15.c ****  * @addtogroup DCT4_IDCT4
  33:DSP/Source/TransformFunctions/arm_dct4_q15.c ****  * @{
  34:DSP/Source/TransformFunctions/arm_dct4_q15.c ****  */
  35:DSP/Source/TransformFunctions/arm_dct4_q15.c **** 
  36:DSP/Source/TransformFunctions/arm_dct4_q15.c **** /**
  37:DSP/Source/TransformFunctions/arm_dct4_q15.c ****  * @brief Processing function for the Q15 DCT4/IDCT4.
  38:DSP/Source/TransformFunctions/arm_dct4_q15.c ****  * @param[in]       *S             points to an instance of the Q15 DCT4 structure.
  39:DSP/Source/TransformFunctions/arm_dct4_q15.c ****  * @param[in]       *pState        points to state buffer.
  40:DSP/Source/TransformFunctions/arm_dct4_q15.c ****  * @param[in,out]   *pInlineBuffer points to the in-place input and output buffer.
  41:DSP/Source/TransformFunctions/arm_dct4_q15.c ****  * @return none.
  42:DSP/Source/TransformFunctions/arm_dct4_q15.c ****  *
  43:DSP/Source/TransformFunctions/arm_dct4_q15.c ****  * \par Input an output formats:
  44:DSP/Source/TransformFunctions/arm_dct4_q15.c ****  * Internally inputs are downscaled in the RFFT process function to avoid overflows.
  45:DSP/Source/TransformFunctions/arm_dct4_q15.c ****  * Number of bits downscaled, depends on the size of the transform.
  46:DSP/Source/TransformFunctions/arm_dct4_q15.c ****  * The input and output formats for different DCT sizes and number of bits to upscale are mentioned
  47:DSP/Source/TransformFunctions/arm_dct4_q15.c ****  *
  48:DSP/Source/TransformFunctions/arm_dct4_q15.c ****  * \image html dct4FormatsQ15Table.gif
  49:DSP/Source/TransformFunctions/arm_dct4_q15.c ****  */
  50:DSP/Source/TransformFunctions/arm_dct4_q15.c **** 
  51:DSP/Source/TransformFunctions/arm_dct4_q15.c **** void arm_dct4_q15(
  52:DSP/Source/TransformFunctions/arm_dct4_q15.c ****   const arm_dct4_instance_q15 * S,
  53:DSP/Source/TransformFunctions/arm_dct4_q15.c ****   q15_t * pState,
  54:DSP/Source/TransformFunctions/arm_dct4_q15.c ****   q15_t * pInlineBuffer)
  55:DSP/Source/TransformFunctions/arm_dct4_q15.c **** {
  30              		.loc 1 55 1 view -0
  31              		.cfi_startproc
  32              		@ args = 0, pretend = 0, frame = 0
  33              		@ frame_needed = 0, uses_anonymous_args = 0
  34              		.loc 1 55 1 is_stmt 0 view .LVU1
  35 0000 F8B5     		push	{r3, r4, r5, r6, r7, lr}
  36              	.LCFI0:
  37              		.cfi_def_cfa_offset 24
  38              		.cfi_offset 3, -24
  39              		.cfi_offset 4, -20
  40              		.cfi_offset 5, -16
  41              		.cfi_offset 6, -12
  42              		.cfi_offset 7, -8
  43              		.cfi_offset 14, -4
  44 0002 0546     		mov	r5, r0
  45 0004 0E46     		mov	r6, r1
  46 0006 1446     		mov	r4, r2
  56:DSP/Source/TransformFunctions/arm_dct4_q15.c ****   uint32_t i;                                    /* Loop counter */
  47              		.loc 1 56 3 is_stmt 1 view .LVU2
  57:DSP/Source/TransformFunctions/arm_dct4_q15.c ****   q15_t *weights = S->pTwiddle;                  /* Pointer to the Weights table */
  48              		.loc 1 57 3 view .LVU3
  49              		.loc 1 57 10 is_stmt 0 view .LVU4
  50 0008 8768     		ldr	r7, [r0, #8]
  51              	.LVL1:
  58:DSP/Source/TransformFunctions/arm_dct4_q15.c ****   q15_t *cosFact = S->pCosFactor;                /* Pointer to the cos factors table */
  52              		.loc 1 58 3 is_stmt 1 view .LVU5
  59:DSP/Source/TransformFunctions/arm_dct4_q15.c ****   q15_t *pS1, *pS2, *pbuff;                      /* Temporary pointers for input buffer and pState 
  53              		.loc 1 59 3 view .LVU6
  60:DSP/Source/TransformFunctions/arm_dct4_q15.c ****   q15_t in;                                      /* Temporary variable */
  54              		.loc 1 60 3 view .LVU7
  61:DSP/Source/TransformFunctions/arm_dct4_q15.c **** 
ARM GAS  /var/folders/ck/g3dcd5x55xs4107jgdl0snvr0000gn/T//ccM5XkLQ.s 			page 3


  62:DSP/Source/TransformFunctions/arm_dct4_q15.c **** 
  63:DSP/Source/TransformFunctions/arm_dct4_q15.c ****   /* DCT4 computation involves DCT2 (which is calculated using RFFT)
  64:DSP/Source/TransformFunctions/arm_dct4_q15.c ****    * along with some pre-processing and post-processing.
  65:DSP/Source/TransformFunctions/arm_dct4_q15.c ****    * Computational procedure is explained as follows:
  66:DSP/Source/TransformFunctions/arm_dct4_q15.c ****    * (a) Pre-processing involves multiplying input with cos factor,
  67:DSP/Source/TransformFunctions/arm_dct4_q15.c ****    *     r(n) = 2 * u(n) * cos(pi*(2*n+1)/(4*n))
  68:DSP/Source/TransformFunctions/arm_dct4_q15.c ****    *              where,
  69:DSP/Source/TransformFunctions/arm_dct4_q15.c ****    *                 r(n) -- output of preprocessing
  70:DSP/Source/TransformFunctions/arm_dct4_q15.c ****    *                 u(n) -- input to preprocessing(actual Source buffer)
  71:DSP/Source/TransformFunctions/arm_dct4_q15.c ****    * (b) Calculation of DCT2 using FFT is divided into three steps:
  72:DSP/Source/TransformFunctions/arm_dct4_q15.c ****    *                  Step1: Re-ordering of even and odd elements of input.
  73:DSP/Source/TransformFunctions/arm_dct4_q15.c ****    *                  Step2: Calculating FFT of the re-ordered input.
  74:DSP/Source/TransformFunctions/arm_dct4_q15.c ****    *                  Step3: Taking the real part of the product of FFT output and weights.
  75:DSP/Source/TransformFunctions/arm_dct4_q15.c ****    * (c) Post-processing - DCT4 can be obtained from DCT2 output using the following equation:
  76:DSP/Source/TransformFunctions/arm_dct4_q15.c ****    *                   Y4(k) = Y2(k) - Y4(k-1) and Y4(-1) = Y4(0)
  77:DSP/Source/TransformFunctions/arm_dct4_q15.c ****    *                        where,
  78:DSP/Source/TransformFunctions/arm_dct4_q15.c ****    *                           Y4 -- DCT4 output,   Y2 -- DCT2 output
  79:DSP/Source/TransformFunctions/arm_dct4_q15.c ****    * (d) Multiplying the output with the normalizing factor sqrt(2/N).
  80:DSP/Source/TransformFunctions/arm_dct4_q15.c ****    */
  81:DSP/Source/TransformFunctions/arm_dct4_q15.c **** 
  82:DSP/Source/TransformFunctions/arm_dct4_q15.c ****         /*-------- Pre-processing ------------*/
  83:DSP/Source/TransformFunctions/arm_dct4_q15.c ****   /* Multiplying input with cos factor i.e. r(n) = 2 * x(n) * cos(pi*(2*n+1)/(4*n)) */
  84:DSP/Source/TransformFunctions/arm_dct4_q15.c ****   arm_mult_q15(pInlineBuffer, cosFact, pInlineBuffer, S->N);
  55              		.loc 1 84 3 view .LVU8
  56 000a 0388     		ldrh	r3, [r0]
  57 000c C168     		ldr	r1, [r0, #12]
  58              	.LVL2:
  59              		.loc 1 84 3 is_stmt 0 view .LVU9
  60 000e 1046     		mov	r0, r2
  61              	.LVL3:
  62              		.loc 1 84 3 view .LVU10
  63 0010 FFF7FEFF 		bl	arm_mult_q15
  64              	.LVL4:
  85:DSP/Source/TransformFunctions/arm_dct4_q15.c ****   arm_shift_q15(pInlineBuffer, 1, pInlineBuffer, S->N);
  65              		.loc 1 85 3 is_stmt 1 view .LVU11
  66 0014 2B88     		ldrh	r3, [r5]
  67 0016 2246     		mov	r2, r4
  68 0018 0121     		movs	r1, #1
  69 001a 2046     		mov	r0, r4
  70 001c FFF7FEFF 		bl	arm_shift_q15
  71              	.LVL5:
  86:DSP/Source/TransformFunctions/arm_dct4_q15.c **** 
  87:DSP/Source/TransformFunctions/arm_dct4_q15.c ****   /* ----------------------------------------------------------------
  88:DSP/Source/TransformFunctions/arm_dct4_q15.c ****    * Step1: Re-ordering of even and odd elements as
  89:DSP/Source/TransformFunctions/arm_dct4_q15.c ****    *             pState[i] =  pInlineBuffer[2*i] and
  90:DSP/Source/TransformFunctions/arm_dct4_q15.c ****    *             pState[N-i-1] = pInlineBuffer[2*i+1] where i = 0 to N/2
  91:DSP/Source/TransformFunctions/arm_dct4_q15.c ****    ---------------------------------------------------------------------*/
  92:DSP/Source/TransformFunctions/arm_dct4_q15.c **** 
  93:DSP/Source/TransformFunctions/arm_dct4_q15.c ****   /* pS1 initialized to pState */
  94:DSP/Source/TransformFunctions/arm_dct4_q15.c ****   pS1 = pState;
  72              		.loc 1 94 3 view .LVU12
  95:DSP/Source/TransformFunctions/arm_dct4_q15.c **** 
  96:DSP/Source/TransformFunctions/arm_dct4_q15.c ****   /* pS2 initialized to pState+N-1, so that it points to the end of the state buffer */
  97:DSP/Source/TransformFunctions/arm_dct4_q15.c ****   pS2 = pState + (S->N - 1U);
  73              		.loc 1 97 3 view .LVU13
  74              		.loc 1 97 20 is_stmt 0 view .LVU14
  75 0020 2A88     		ldrh	r2, [r5]
ARM GAS  /var/folders/ck/g3dcd5x55xs4107jgdl0snvr0000gn/T//ccM5XkLQ.s 			page 4


  76              		.loc 1 97 16 view .LVU15
  77 0022 02F10042 		add	r2, r2, #-2147483648
  78 0026 013A     		subs	r2, r2, #1
  79              		.loc 1 97 7 view .LVU16
  80 0028 06EB4202 		add	r2, r6, r2, lsl #1
  81              	.LVL6:
  98:DSP/Source/TransformFunctions/arm_dct4_q15.c **** 
  99:DSP/Source/TransformFunctions/arm_dct4_q15.c ****   /* pbuff initialized to input buffer */
 100:DSP/Source/TransformFunctions/arm_dct4_q15.c ****   pbuff = pInlineBuffer;
  82              		.loc 1 100 3 is_stmt 1 view .LVU17
 101:DSP/Source/TransformFunctions/arm_dct4_q15.c **** 
 102:DSP/Source/TransformFunctions/arm_dct4_q15.c **** 
 103:DSP/Source/TransformFunctions/arm_dct4_q15.c **** #if defined (ARM_MATH_DSP)
 104:DSP/Source/TransformFunctions/arm_dct4_q15.c **** 
 105:DSP/Source/TransformFunctions/arm_dct4_q15.c ****   /* Run the below code for Cortex-M4 and Cortex-M3 */
 106:DSP/Source/TransformFunctions/arm_dct4_q15.c **** 
 107:DSP/Source/TransformFunctions/arm_dct4_q15.c ****   /* Initializing the loop counter to N/2 >> 2 for loop unrolling by 4 */
 108:DSP/Source/TransformFunctions/arm_dct4_q15.c ****   i = (uint32_t) S->Nby2 >> 2U;
  83              		.loc 1 108 3 view .LVU18
  84              		.loc 1 108 19 is_stmt 0 view .LVU19
  85 002c B5F802E0 		ldrh	lr, [r5, #2]
  86              		.loc 1 108 26 view .LVU20
  87 0030 4FEA9E0E 		lsr	lr, lr, #2
  88              	.LVL7:
 100:DSP/Source/TransformFunctions/arm_dct4_q15.c **** 
  89              		.loc 1 100 9 view .LVU21
  90 0034 2346     		mov	r3, r4
  94:DSP/Source/TransformFunctions/arm_dct4_q15.c **** 
  91              		.loc 1 94 7 view .LVU22
  92 0036 3146     		mov	r1, r6
  93              	.LVL8:
  94              	.L2:
 109:DSP/Source/TransformFunctions/arm_dct4_q15.c **** 
 110:DSP/Source/TransformFunctions/arm_dct4_q15.c ****   /* First part of the processing with loop unrolling.  Compute 4 outputs at a time.
 111:DSP/Source/TransformFunctions/arm_dct4_q15.c ****    ** a second loop below computes the remaining 1 to 3 samples. */
 112:DSP/Source/TransformFunctions/arm_dct4_q15.c ****   do
  95              		.loc 1 112 3 is_stmt 1 view .LVU23
 113:DSP/Source/TransformFunctions/arm_dct4_q15.c ****   {
 114:DSP/Source/TransformFunctions/arm_dct4_q15.c ****     /* Re-ordering of even and odd elements */
 115:DSP/Source/TransformFunctions/arm_dct4_q15.c ****     /* pState[i] =  pInlineBuffer[2*i] */
 116:DSP/Source/TransformFunctions/arm_dct4_q15.c ****     *pS1++ = *pbuff++;
  96              		.loc 1 116 5 view .LVU24
  97              		.loc 1 116 14 is_stmt 0 view .LVU25
  98 0038 B3F90000 		ldrsh	r0, [r3]
  99              		.loc 1 116 12 view .LVU26
 100 003c 0880     		strh	r0, [r1]	@ movhi
 117:DSP/Source/TransformFunctions/arm_dct4_q15.c ****     /* pState[N-i-1] = pInlineBuffer[2*i+1] */
 118:DSP/Source/TransformFunctions/arm_dct4_q15.c ****     *pS2-- = *pbuff++;
 101              		.loc 1 118 5 is_stmt 1 view .LVU27
 102              	.LVL9:
 103              		.loc 1 118 14 is_stmt 0 view .LVU28
 104 003e B3F90200 		ldrsh	r0, [r3, #2]
 105              		.loc 1 118 12 view .LVU29
 106 0042 1080     		strh	r0, [r2]	@ movhi
 119:DSP/Source/TransformFunctions/arm_dct4_q15.c **** 
 120:DSP/Source/TransformFunctions/arm_dct4_q15.c ****     *pS1++ = *pbuff++;
 107              		.loc 1 120 5 is_stmt 1 view .LVU30
ARM GAS  /var/folders/ck/g3dcd5x55xs4107jgdl0snvr0000gn/T//ccM5XkLQ.s 			page 5


 108              	.LVL10:
 109              		.loc 1 120 14 is_stmt 0 view .LVU31
 110 0044 B3F90400 		ldrsh	r0, [r3, #4]
 111              		.loc 1 120 12 view .LVU32
 112 0048 4880     		strh	r0, [r1, #2]	@ movhi
 121:DSP/Source/TransformFunctions/arm_dct4_q15.c ****     *pS2-- = *pbuff++;
 113              		.loc 1 121 5 is_stmt 1 view .LVU33
 114              	.LVL11:
 115              		.loc 1 121 14 is_stmt 0 view .LVU34
 116 004a B3F90600 		ldrsh	r0, [r3, #6]
 117              		.loc 1 121 12 view .LVU35
 118 004e 22F8020C 		strh	r0, [r2, #-2]	@ movhi
 122:DSP/Source/TransformFunctions/arm_dct4_q15.c **** 
 123:DSP/Source/TransformFunctions/arm_dct4_q15.c ****     *pS1++ = *pbuff++;
 119              		.loc 1 123 5 is_stmt 1 view .LVU36
 120              	.LVL12:
 121              		.loc 1 123 14 is_stmt 0 view .LVU37
 122 0052 B3F90800 		ldrsh	r0, [r3, #8]
 123              		.loc 1 123 12 view .LVU38
 124 0056 8880     		strh	r0, [r1, #4]	@ movhi
 124:DSP/Source/TransformFunctions/arm_dct4_q15.c ****     *pS2-- = *pbuff++;
 125              		.loc 1 124 5 is_stmt 1 view .LVU39
 126              	.LVL13:
 127              		.loc 1 124 14 is_stmt 0 view .LVU40
 128 0058 B3F90A00 		ldrsh	r0, [r3, #10]
 129              		.loc 1 124 12 view .LVU41
 130 005c 22F8040C 		strh	r0, [r2, #-4]	@ movhi
 125:DSP/Source/TransformFunctions/arm_dct4_q15.c **** 
 126:DSP/Source/TransformFunctions/arm_dct4_q15.c ****     *pS1++ = *pbuff++;
 131              		.loc 1 126 5 is_stmt 1 view .LVU42
 132              	.LVL14:
 133              		.loc 1 126 14 is_stmt 0 view .LVU43
 134 0060 B3F90CC0 		ldrsh	ip, [r3, #12]
 135              		.loc 1 126 12 view .LVU44
 136 0064 A1F806C0 		strh	ip, [r1, #6]	@ movhi
 137 0068 0831     		adds	r1, r1, #8
 138              	.LVL15:
 127:DSP/Source/TransformFunctions/arm_dct4_q15.c ****     *pS2-- = *pbuff++;
 139              		.loc 1 127 5 is_stmt 1 view .LVU45
 140              		.loc 1 127 14 is_stmt 0 view .LVU46
 141 006a B3F90EC0 		ldrsh	ip, [r3, #14]
 142 006e 1033     		adds	r3, r3, #16
 143              	.LVL16:
 144              		.loc 1 127 12 view .LVU47
 145 0070 22F806CC 		strh	ip, [r2, #-6]	@ movhi
 146 0074 083A     		subs	r2, r2, #8
 147              	.LVL17:
 128:DSP/Source/TransformFunctions/arm_dct4_q15.c **** 
 129:DSP/Source/TransformFunctions/arm_dct4_q15.c ****     /* Decrement the loop counter */
 130:DSP/Source/TransformFunctions/arm_dct4_q15.c ****     i--;
 148              		.loc 1 130 5 is_stmt 1 view .LVU48
 131:DSP/Source/TransformFunctions/arm_dct4_q15.c ****   } while (i > 0U);
 149              		.loc 1 131 14 discriminator 1 view .LVU49
 150 0076 BEF1010E 		subs	lr, lr, #1
 151              	.LVL18:
 152              		.loc 1 131 14 is_stmt 0 discriminator 1 view .LVU50
 153 007a DDD1     		bne	.L2
ARM GAS  /var/folders/ck/g3dcd5x55xs4107jgdl0snvr0000gn/T//ccM5XkLQ.s 			page 6


 132:DSP/Source/TransformFunctions/arm_dct4_q15.c **** 
 133:DSP/Source/TransformFunctions/arm_dct4_q15.c ****   /* pbuff initialized to input buffer */
 134:DSP/Source/TransformFunctions/arm_dct4_q15.c ****   pbuff = pInlineBuffer;
 154              		.loc 1 134 3 is_stmt 1 view .LVU51
 155              	.LVL19:
 135:DSP/Source/TransformFunctions/arm_dct4_q15.c **** 
 136:DSP/Source/TransformFunctions/arm_dct4_q15.c ****   /* pS1 initialized to pState */
 137:DSP/Source/TransformFunctions/arm_dct4_q15.c ****   pS1 = pState;
 156              		.loc 1 137 3 view .LVU52
 138:DSP/Source/TransformFunctions/arm_dct4_q15.c **** 
 139:DSP/Source/TransformFunctions/arm_dct4_q15.c ****   /* Initializing the loop counter to N/4 instead of N for loop unrolling */
 140:DSP/Source/TransformFunctions/arm_dct4_q15.c ****   i = (uint32_t) S->N >> 2U;
 157              		.loc 1 140 3 view .LVU53
 158              		.loc 1 140 19 is_stmt 0 view .LVU54
 159 007c B5F800C0 		ldrh	ip, [r5]
 160              		.loc 1 140 23 view .LVU55
 161 0080 4FEA9C0C 		lsr	ip, ip, #2
 162              	.LVL20:
 134:DSP/Source/TransformFunctions/arm_dct4_q15.c **** 
 163              		.loc 1 134 9 view .LVU56
 164 0084 2246     		mov	r2, r4
 165              	.LVL21:
 137:DSP/Source/TransformFunctions/arm_dct4_q15.c **** 
 166              		.loc 1 137 7 view .LVU57
 167 0086 3346     		mov	r3, r6
 168              	.LVL22:
 169              	.L3:
 141:DSP/Source/TransformFunctions/arm_dct4_q15.c **** 
 142:DSP/Source/TransformFunctions/arm_dct4_q15.c ****   /* Processing with loop unrolling 4 times as N is always multiple of 4.
 143:DSP/Source/TransformFunctions/arm_dct4_q15.c ****    * Compute 4 outputs at a time */
 144:DSP/Source/TransformFunctions/arm_dct4_q15.c ****   do
 170              		.loc 1 144 3 is_stmt 1 view .LVU58
 145:DSP/Source/TransformFunctions/arm_dct4_q15.c ****   {
 146:DSP/Source/TransformFunctions/arm_dct4_q15.c ****     /* Writing the re-ordered output back to inplace input buffer */
 147:DSP/Source/TransformFunctions/arm_dct4_q15.c ****     *pbuff++ = *pS1++;
 171              		.loc 1 147 5 view .LVU59
 172              		.loc 1 147 16 is_stmt 0 view .LVU60
 173 0088 B3F90010 		ldrsh	r1, [r3]
 174              		.loc 1 147 14 view .LVU61
 175 008c 1180     		strh	r1, [r2]	@ movhi
 148:DSP/Source/TransformFunctions/arm_dct4_q15.c ****     *pbuff++ = *pS1++;
 176              		.loc 1 148 5 is_stmt 1 view .LVU62
 177              	.LVL23:
 178              		.loc 1 148 16 is_stmt 0 view .LVU63
 179 008e B3F90210 		ldrsh	r1, [r3, #2]
 180              		.loc 1 148 14 view .LVU64
 181 0092 5180     		strh	r1, [r2, #2]	@ movhi
 149:DSP/Source/TransformFunctions/arm_dct4_q15.c ****     *pbuff++ = *pS1++;
 182              		.loc 1 149 5 is_stmt 1 view .LVU65
 183              	.LVL24:
 184              		.loc 1 149 16 is_stmt 0 view .LVU66
 185 0094 B3F90410 		ldrsh	r1, [r3, #4]
 186              		.loc 1 149 14 view .LVU67
 187 0098 9180     		strh	r1, [r2, #4]	@ movhi
 150:DSP/Source/TransformFunctions/arm_dct4_q15.c ****     *pbuff++ = *pS1++;
 188              		.loc 1 150 5 is_stmt 1 view .LVU68
 189              	.LVL25:
ARM GAS  /var/folders/ck/g3dcd5x55xs4107jgdl0snvr0000gn/T//ccM5XkLQ.s 			page 7


 190              		.loc 1 150 16 is_stmt 0 view .LVU69
 191 009a B3F90600 		ldrsh	r0, [r3, #6]
 192 009e 0833     		adds	r3, r3, #8
 193              	.LVL26:
 194              		.loc 1 150 14 view .LVU70
 195 00a0 D080     		strh	r0, [r2, #6]	@ movhi
 196 00a2 0832     		adds	r2, r2, #8
 197              	.LVL27:
 151:DSP/Source/TransformFunctions/arm_dct4_q15.c **** 
 152:DSP/Source/TransformFunctions/arm_dct4_q15.c ****     /* Decrement the loop counter */
 153:DSP/Source/TransformFunctions/arm_dct4_q15.c ****     i--;
 198              		.loc 1 153 5 is_stmt 1 view .LVU71
 154:DSP/Source/TransformFunctions/arm_dct4_q15.c ****   } while (i > 0U);
 199              		.loc 1 154 14 discriminator 1 view .LVU72
 200 00a4 BCF1010C 		subs	ip, ip, #1
 201              	.LVL28:
 202              		.loc 1 154 14 is_stmt 0 discriminator 1 view .LVU73
 203 00a8 EED1     		bne	.L3
 155:DSP/Source/TransformFunctions/arm_dct4_q15.c **** 
 156:DSP/Source/TransformFunctions/arm_dct4_q15.c **** 
 157:DSP/Source/TransformFunctions/arm_dct4_q15.c ****   /* ---------------------------------------------------------
 158:DSP/Source/TransformFunctions/arm_dct4_q15.c ****    *     Step2: Calculate RFFT for N-point input
 159:DSP/Source/TransformFunctions/arm_dct4_q15.c ****    * ---------------------------------------------------------- */
 160:DSP/Source/TransformFunctions/arm_dct4_q15.c ****   /* pInlineBuffer is real input of length N , pState is the complex output of length 2N */
 161:DSP/Source/TransformFunctions/arm_dct4_q15.c ****   arm_rfft_q15(S->pRfft, pInlineBuffer, pState);
 204              		.loc 1 161 3 is_stmt 1 view .LVU74
 205 00aa 3246     		mov	r2, r6
 206              	.LVL29:
 207              		.loc 1 161 3 is_stmt 0 view .LVU75
 208 00ac 2146     		mov	r1, r4
 209 00ae 2869     		ldr	r0, [r5, #16]
 210 00b0 FFF7FEFF 		bl	arm_rfft_q15
 211              	.LVL30:
 162:DSP/Source/TransformFunctions/arm_dct4_q15.c **** 
 163:DSP/Source/TransformFunctions/arm_dct4_q15.c ****  /*----------------------------------------------------------------------
 164:DSP/Source/TransformFunctions/arm_dct4_q15.c ****   *  Step3: Multiply the FFT output with the weights.
 165:DSP/Source/TransformFunctions/arm_dct4_q15.c ****   *----------------------------------------------------------------------*/
 166:DSP/Source/TransformFunctions/arm_dct4_q15.c ****   arm_cmplx_mult_cmplx_q15(pState, weights, pState, S->N);
 212              		.loc 1 166 3 is_stmt 1 view .LVU76
 213 00b4 2B88     		ldrh	r3, [r5]
 214 00b6 3246     		mov	r2, r6
 215 00b8 3946     		mov	r1, r7
 216 00ba 3046     		mov	r0, r6
 217 00bc FFF7FEFF 		bl	arm_cmplx_mult_cmplx_q15
 218              	.LVL31:
 167:DSP/Source/TransformFunctions/arm_dct4_q15.c **** 
 168:DSP/Source/TransformFunctions/arm_dct4_q15.c ****   /* The output of complex multiplication is in 3.13 format.
 169:DSP/Source/TransformFunctions/arm_dct4_q15.c ****    * Hence changing the format of N (i.e. 2*N elements) complex numbers to 1.15 format by shifting 
 170:DSP/Source/TransformFunctions/arm_dct4_q15.c ****   arm_shift_q15(pState, 2, pState, S->N * 2);
 219              		.loc 1 170 3 view .LVU77
 220              		.loc 1 170 37 is_stmt 0 view .LVU78
 221 00c0 2B88     		ldrh	r3, [r5]
 222              		.loc 1 170 3 view .LVU79
 223 00c2 5B00     		lsls	r3, r3, #1
 224 00c4 3246     		mov	r2, r6
 225 00c6 0221     		movs	r1, #2
 226 00c8 3046     		mov	r0, r6
ARM GAS  /var/folders/ck/g3dcd5x55xs4107jgdl0snvr0000gn/T//ccM5XkLQ.s 			page 8


 227 00ca FFF7FEFF 		bl	arm_shift_q15
 228              	.LVL32:
 171:DSP/Source/TransformFunctions/arm_dct4_q15.c **** 
 172:DSP/Source/TransformFunctions/arm_dct4_q15.c ****   /* ----------- Post-processing ---------- */
 173:DSP/Source/TransformFunctions/arm_dct4_q15.c ****   /* DCT-IV can be obtained from DCT-II by the equation,
 174:DSP/Source/TransformFunctions/arm_dct4_q15.c ****    *       Y4(k) = Y2(k) - Y4(k-1) and Y4(-1) = Y4(0)
 175:DSP/Source/TransformFunctions/arm_dct4_q15.c ****    *       Hence, Y4(0) = Y2(0)/2  */
 176:DSP/Source/TransformFunctions/arm_dct4_q15.c ****   /* Getting only real part from the output and Converting to DCT-IV */
 177:DSP/Source/TransformFunctions/arm_dct4_q15.c **** 
 178:DSP/Source/TransformFunctions/arm_dct4_q15.c ****   /* Initializing the loop counter to N >> 2 for loop unrolling by 4 */
 179:DSP/Source/TransformFunctions/arm_dct4_q15.c ****   i = ((uint32_t) S->N - 1U) >> 2U;
 229              		.loc 1 179 3 is_stmt 1 view .LVU80
 230              		.loc 1 179 20 is_stmt 0 view .LVU81
 231 00ce 2888     		ldrh	r0, [r5]
 232              		.loc 1 179 24 view .LVU82
 233 00d0 0138     		subs	r0, r0, #1
 234              		.loc 1 179 5 view .LVU83
 235 00d2 8008     		lsrs	r0, r0, #2
 236              	.LVL33:
 180:DSP/Source/TransformFunctions/arm_dct4_q15.c **** 
 181:DSP/Source/TransformFunctions/arm_dct4_q15.c ****   /* pbuff initialized to input buffer. */
 182:DSP/Source/TransformFunctions/arm_dct4_q15.c ****   pbuff = pInlineBuffer;
 237              		.loc 1 182 3 is_stmt 1 view .LVU84
 183:DSP/Source/TransformFunctions/arm_dct4_q15.c **** 
 184:DSP/Source/TransformFunctions/arm_dct4_q15.c ****   /* pS1 initialized to pState */
 185:DSP/Source/TransformFunctions/arm_dct4_q15.c ****   pS1 = pState;
 238              		.loc 1 185 3 view .LVU85
 186:DSP/Source/TransformFunctions/arm_dct4_q15.c **** 
 187:DSP/Source/TransformFunctions/arm_dct4_q15.c ****   /* Calculating Y4(0) from Y2(0) using Y4(0) = Y2(0)/2 */
 188:DSP/Source/TransformFunctions/arm_dct4_q15.c ****   in = *pS1++ >> 1U;
 239              		.loc 1 188 3 view .LVU86
 240              		.loc 1 188 8 is_stmt 0 view .LVU87
 241 00d4 3246     		mov	r2, r6
 242 00d6 32F9043B 		ldrsh	r3, [r2], #4
 243              		.loc 1 188 6 view .LVU88
 244 00da 5B10     		asrs	r3, r3, #1
 245              	.LVL34:
 189:DSP/Source/TransformFunctions/arm_dct4_q15.c ****   /* input buffer acts as inplace, so output values are stored in the input itself. */
 190:DSP/Source/TransformFunctions/arm_dct4_q15.c ****   *pbuff++ = in;
 246              		.loc 1 190 3 is_stmt 1 view .LVU89
 247              		.loc 1 190 9 is_stmt 0 view .LVU90
 248 00dc A446     		mov	ip, r4
 249              	.LVL35:
 250              		.loc 1 190 12 view .LVU91
 251 00de 2CF8023B 		strh	r3, [ip], #2	@ movhi
 252              	.LVL36:
 191:DSP/Source/TransformFunctions/arm_dct4_q15.c **** 
 192:DSP/Source/TransformFunctions/arm_dct4_q15.c ****   /* pState pointer is incremented twice as the real values are located alternatively in the array 
 193:DSP/Source/TransformFunctions/arm_dct4_q15.c ****   pS1++;
 253              		.loc 1 193 3 is_stmt 1 view .LVU92
 254              	.L4:
 194:DSP/Source/TransformFunctions/arm_dct4_q15.c **** 
 195:DSP/Source/TransformFunctions/arm_dct4_q15.c ****   /* First part of the processing with loop unrolling.  Compute 4 outputs at a time.
 196:DSP/Source/TransformFunctions/arm_dct4_q15.c ****    ** a second loop below computes the remaining 1 to 3 samples. */
 197:DSP/Source/TransformFunctions/arm_dct4_q15.c ****   do
 255              		.loc 1 197 3 view .LVU93
 198:DSP/Source/TransformFunctions/arm_dct4_q15.c ****   {
ARM GAS  /var/folders/ck/g3dcd5x55xs4107jgdl0snvr0000gn/T//ccM5XkLQ.s 			page 9


 199:DSP/Source/TransformFunctions/arm_dct4_q15.c ****     /* Calculating Y4(1) to Y4(N-1) from Y2 using equation Y4(k) = Y2(k) - Y4(k-1) */
 200:DSP/Source/TransformFunctions/arm_dct4_q15.c ****     /* pState pointer (pS1) is incremented twice as the real values are located alternatively in th
 201:DSP/Source/TransformFunctions/arm_dct4_q15.c ****     in = *pS1++ - in;
 256              		.loc 1 201 5 view .LVU94
 257              		.loc 1 201 10 is_stmt 0 view .LVU95
 258 00e2 1688     		ldrh	r6, [r2]
 259              		.loc 1 201 17 view .LVU96
 260 00e4 9BB2     		uxth	r3, r3
 261              		.loc 1 201 17 view .LVU97
 262 00e6 F11A     		subs	r1, r6, r3
 263              	.LVL37:
 202:DSP/Source/TransformFunctions/arm_dct4_q15.c ****     *pbuff++ = in;
 264              		.loc 1 202 5 is_stmt 1 view .LVU98
 265              		.loc 1 202 14 is_stmt 0 view .LVU99
 266 00e8 ACF80010 		strh	r1, [ip]	@ movhi
 203:DSP/Source/TransformFunctions/arm_dct4_q15.c ****     /* points to the next real value */
 204:DSP/Source/TransformFunctions/arm_dct4_q15.c ****     pS1++;
 267              		.loc 1 204 5 is_stmt 1 view .LVU100
 268              	.LVL38:
 205:DSP/Source/TransformFunctions/arm_dct4_q15.c **** 
 206:DSP/Source/TransformFunctions/arm_dct4_q15.c ****     in = *pS1++ - in;
 269              		.loc 1 206 5 view .LVU101
 270              		.loc 1 206 10 is_stmt 0 view .LVU102
 271 00ec 9188     		ldrh	r1, [r2, #4]
 272              	.LVL39:
 273              		.loc 1 206 17 view .LVU103
 274 00ee 9B1B     		subs	r3, r3, r6
 275 00f0 0B44     		add	r3, r3, r1
 276 00f2 99B2     		uxth	r1, r3
 277              	.LVL40:
 207:DSP/Source/TransformFunctions/arm_dct4_q15.c ****     *pbuff++ = in;
 278              		.loc 1 207 5 is_stmt 1 view .LVU104
 279              		.loc 1 207 14 is_stmt 0 view .LVU105
 280 00f4 ACF80230 		strh	r3, [ip, #2]	@ movhi
 208:DSP/Source/TransformFunctions/arm_dct4_q15.c ****     pS1++;
 281              		.loc 1 208 5 is_stmt 1 view .LVU106
 282              	.LVL41:
 209:DSP/Source/TransformFunctions/arm_dct4_q15.c **** 
 210:DSP/Source/TransformFunctions/arm_dct4_q15.c ****     in = *pS1++ - in;
 283              		.loc 1 210 5 view .LVU107
 284              		.loc 1 210 10 is_stmt 0 view .LVU108
 285 00f8 1689     		ldrh	r6, [r2, #8]
 286              		.loc 1 210 17 view .LVU109
 287 00fa 731A     		subs	r3, r6, r1
 288              	.LVL42:
 211:DSP/Source/TransformFunctions/arm_dct4_q15.c ****     *pbuff++ = in;
 289              		.loc 1 211 5 is_stmt 1 view .LVU110
 290              		.loc 1 211 14 is_stmt 0 view .LVU111
 291 00fc ACF80430 		strh	r3, [ip, #4]	@ movhi
 212:DSP/Source/TransformFunctions/arm_dct4_q15.c ****     pS1++;
 292              		.loc 1 212 5 is_stmt 1 view .LVU112
 293              	.LVL43:
 213:DSP/Source/TransformFunctions/arm_dct4_q15.c **** 
 214:DSP/Source/TransformFunctions/arm_dct4_q15.c ****     in = *pS1++ - in;
 294              		.loc 1 214 5 view .LVU113
 295              		.loc 1 214 10 is_stmt 0 view .LVU114
 296 0100 9389     		ldrh	r3, [r2, #12]
ARM GAS  /var/folders/ck/g3dcd5x55xs4107jgdl0snvr0000gn/T//ccM5XkLQ.s 			page 10


 297              	.LVL44:
 298              		.loc 1 214 17 view .LVU115
 299 0102 891B     		subs	r1, r1, r6
 300 0104 0B44     		add	r3, r3, r1
 301              		.loc 1 214 8 view .LVU116
 302 0106 1BB2     		sxth	r3, r3
 303              	.LVL45:
 215:DSP/Source/TransformFunctions/arm_dct4_q15.c ****     *pbuff++ = in;
 304              		.loc 1 215 5 is_stmt 1 view .LVU117
 305              		.loc 1 215 14 is_stmt 0 view .LVU118
 306 0108 ACF80630 		strh	r3, [ip, #6]	@ movhi
 307 010c 0CF1080C 		add	ip, ip, #8
 308              	.LVL46:
 216:DSP/Source/TransformFunctions/arm_dct4_q15.c ****     pS1++;
 309              		.loc 1 216 5 is_stmt 1 view .LVU119
 310              		.loc 1 216 8 is_stmt 0 view .LVU120
 311 0110 1032     		adds	r2, r2, #16
 312              	.LVL47:
 217:DSP/Source/TransformFunctions/arm_dct4_q15.c **** 
 218:DSP/Source/TransformFunctions/arm_dct4_q15.c ****     /* Decrement the loop counter */
 219:DSP/Source/TransformFunctions/arm_dct4_q15.c ****     i--;
 313              		.loc 1 219 5 is_stmt 1 view .LVU121
 220:DSP/Source/TransformFunctions/arm_dct4_q15.c ****   } while (i > 0U);
 314              		.loc 1 220 14 discriminator 1 view .LVU122
 315 0112 0138     		subs	r0, r0, #1
 316              	.LVL48:
 317              		.loc 1 220 14 is_stmt 0 discriminator 1 view .LVU123
 318 0114 E5D1     		bne	.L4
 221:DSP/Source/TransformFunctions/arm_dct4_q15.c **** 
 222:DSP/Source/TransformFunctions/arm_dct4_q15.c ****   /* If the blockSize is not a multiple of 4, compute any remaining output samples here.
 223:DSP/Source/TransformFunctions/arm_dct4_q15.c ****    ** No loop unrolling is used. */
 224:DSP/Source/TransformFunctions/arm_dct4_q15.c ****   i = ((uint32_t) S->N - 1U) % 0x4U;
 319              		.loc 1 224 3 is_stmt 1 view .LVU124
 320              		.loc 1 224 20 is_stmt 0 view .LVU125
 321 0116 2988     		ldrh	r1, [r5]
 322              		.loc 1 224 24 view .LVU126
 323 0118 0139     		subs	r1, r1, #1
 324              		.loc 1 224 5 view .LVU127
 325 011a 01F00301 		and	r1, r1, #3
 326              	.LVL49:
 225:DSP/Source/TransformFunctions/arm_dct4_q15.c **** 
 226:DSP/Source/TransformFunctions/arm_dct4_q15.c ****   while (i > 0U)
 327              		.loc 1 226 3 is_stmt 1 view .LVU128
 328              		.loc 1 226 9 is_stmt 0 view .LVU129
 329 011e 06E0     		b	.L5
 330              	.LVL50:
 331              	.L6:
 227:DSP/Source/TransformFunctions/arm_dct4_q15.c ****   {
 228:DSP/Source/TransformFunctions/arm_dct4_q15.c ****     /* Calculating Y4(1) to Y4(N-1) from Y2 using equation Y4(k) = Y2(k) - Y4(k-1) */
 229:DSP/Source/TransformFunctions/arm_dct4_q15.c ****     /* pState pointer (pS1) is incremented twice as the real values are located alternatively in th
 230:DSP/Source/TransformFunctions/arm_dct4_q15.c ****     in = *pS1++ - in;
 332              		.loc 1 230 5 is_stmt 1 view .LVU130
 333              		.loc 1 230 10 is_stmt 0 view .LVU131
 334 0120 32F8040B 		ldrh	r0, [r2], #4
 335              	.LVL51:
 336              		.loc 1 230 17 view .LVU132
 337 0124 C31A     		subs	r3, r0, r3
ARM GAS  /var/folders/ck/g3dcd5x55xs4107jgdl0snvr0000gn/T//ccM5XkLQ.s 			page 11


 338              	.LVL52:
 339              		.loc 1 230 8 view .LVU133
 340 0126 1BB2     		sxth	r3, r3
 341              	.LVL53:
 231:DSP/Source/TransformFunctions/arm_dct4_q15.c ****     *pbuff++ = in;
 342              		.loc 1 231 5 is_stmt 1 view .LVU134
 343              		.loc 1 231 14 is_stmt 0 view .LVU135
 344 0128 2CF8023B 		strh	r3, [ip], #2	@ movhi
 345              	.LVL54:
 232:DSP/Source/TransformFunctions/arm_dct4_q15.c ****     /* points to the next real value */
 233:DSP/Source/TransformFunctions/arm_dct4_q15.c ****     pS1++;
 346              		.loc 1 233 5 is_stmt 1 view .LVU136
 234:DSP/Source/TransformFunctions/arm_dct4_q15.c **** 
 235:DSP/Source/TransformFunctions/arm_dct4_q15.c ****     /* Decrement the loop counter */
 236:DSP/Source/TransformFunctions/arm_dct4_q15.c ****     i--;
 347              		.loc 1 236 5 view .LVU137
 348              		.loc 1 236 6 is_stmt 0 view .LVU138
 349 012c 0139     		subs	r1, r1, #1
 350              	.LVL55:
 351              	.L5:
 226:DSP/Source/TransformFunctions/arm_dct4_q15.c ****   {
 352              		.loc 1 226 12 is_stmt 1 view .LVU139
 353 012e 0029     		cmp	r1, #0
 354 0130 F6D1     		bne	.L6
 237:DSP/Source/TransformFunctions/arm_dct4_q15.c ****   }
 238:DSP/Source/TransformFunctions/arm_dct4_q15.c **** 
 239:DSP/Source/TransformFunctions/arm_dct4_q15.c **** 
 240:DSP/Source/TransformFunctions/arm_dct4_q15.c ****    /*------------ Normalizing the output by multiplying with the normalizing factor ----------*/
 241:DSP/Source/TransformFunctions/arm_dct4_q15.c **** 
 242:DSP/Source/TransformFunctions/arm_dct4_q15.c ****   /* Initializing the loop counter to N/4 instead of N for loop unrolling */
 243:DSP/Source/TransformFunctions/arm_dct4_q15.c ****   i = (uint32_t) S->N >> 2U;
 355              		.loc 1 243 3 view .LVU140
 356              		.loc 1 243 19 is_stmt 0 view .LVU141
 357 0132 2A88     		ldrh	r2, [r5]
 358              	.LVL56:
 359              		.loc 1 243 23 view .LVU142
 360 0134 9208     		lsrs	r2, r2, #2
 361              	.LVL57:
 244:DSP/Source/TransformFunctions/arm_dct4_q15.c **** 
 245:DSP/Source/TransformFunctions/arm_dct4_q15.c ****   /* pbuff initialized to the pInlineBuffer(now contains the output values) */
 246:DSP/Source/TransformFunctions/arm_dct4_q15.c ****   pbuff = pInlineBuffer;
 362              		.loc 1 246 3 is_stmt 1 view .LVU143
 363              	.L7:
 247:DSP/Source/TransformFunctions/arm_dct4_q15.c **** 
 248:DSP/Source/TransformFunctions/arm_dct4_q15.c ****   /* Processing with loop unrolling 4 times as N is always multiple of 4.  Compute 4 outputs at a t
 249:DSP/Source/TransformFunctions/arm_dct4_q15.c ****   do
 364              		.loc 1 249 3 view .LVU144
 250:DSP/Source/TransformFunctions/arm_dct4_q15.c ****   {
 251:DSP/Source/TransformFunctions/arm_dct4_q15.c ****     /* Multiplying pInlineBuffer with the normalizing factor sqrt(2/N) */
 252:DSP/Source/TransformFunctions/arm_dct4_q15.c ****     in = *pbuff;
 365              		.loc 1 252 5 view .LVU145
 366              		.loc 1 252 8 is_stmt 0 view .LVU146
 367 0136 B4F90030 		ldrsh	r3, [r4]
 368              	.LVL58:
 253:DSP/Source/TransformFunctions/arm_dct4_q15.c ****     *pbuff++ = ((q15_t) (((q31_t) in * S->normalize) >> 15));
 369              		.loc 1 253 5 is_stmt 1 view .LVU147
 370              		.loc 1 253 41 is_stmt 0 view .LVU148
ARM GAS  /var/folders/ck/g3dcd5x55xs4107jgdl0snvr0000gn/T//ccM5XkLQ.s 			page 12


 371 013a B5F90410 		ldrsh	r1, [r5, #4]
 372              		.loc 1 253 38 view .LVU149
 373 013e 01FB03F3 		mul	r3, r1, r3
 374              	.LVL59:
 375              		.loc 1 253 17 view .LVU150
 376 0142 43F3CF33 		sbfx	r3, r3, #15, #16
 377              		.loc 1 253 14 view .LVU151
 378 0146 2380     		strh	r3, [r4]	@ movhi
 379              	.LVL60:
 254:DSP/Source/TransformFunctions/arm_dct4_q15.c **** 
 255:DSP/Source/TransformFunctions/arm_dct4_q15.c ****     in = *pbuff;
 380              		.loc 1 255 5 is_stmt 1 view .LVU152
 381              		.loc 1 255 8 is_stmt 0 view .LVU153
 382 0148 B4F90230 		ldrsh	r3, [r4, #2]
 383              	.LVL61:
 256:DSP/Source/TransformFunctions/arm_dct4_q15.c ****     *pbuff++ = ((q15_t) (((q31_t) in * S->normalize) >> 15));
 384              		.loc 1 256 5 is_stmt 1 view .LVU154
 385              		.loc 1 256 41 is_stmt 0 view .LVU155
 386 014c B5F90410 		ldrsh	r1, [r5, #4]
 387              		.loc 1 256 38 view .LVU156
 388 0150 01FB03F3 		mul	r3, r1, r3
 389              	.LVL62:
 390              		.loc 1 256 17 view .LVU157
 391 0154 43F3CF33 		sbfx	r3, r3, #15, #16
 392              		.loc 1 256 14 view .LVU158
 393 0158 6380     		strh	r3, [r4, #2]	@ movhi
 394              	.LVL63:
 257:DSP/Source/TransformFunctions/arm_dct4_q15.c **** 
 258:DSP/Source/TransformFunctions/arm_dct4_q15.c ****     in = *pbuff;
 395              		.loc 1 258 5 is_stmt 1 view .LVU159
 396              		.loc 1 258 8 is_stmt 0 view .LVU160
 397 015a B4F90430 		ldrsh	r3, [r4, #4]
 398              	.LVL64:
 259:DSP/Source/TransformFunctions/arm_dct4_q15.c ****     *pbuff++ = ((q15_t) (((q31_t) in * S->normalize) >> 15));
 399              		.loc 1 259 5 is_stmt 1 view .LVU161
 400              		.loc 1 259 41 is_stmt 0 view .LVU162
 401 015e B5F90410 		ldrsh	r1, [r5, #4]
 402              		.loc 1 259 38 view .LVU163
 403 0162 01FB03F3 		mul	r3, r1, r3
 404              	.LVL65:
 405              		.loc 1 259 17 view .LVU164
 406 0166 43F3CF33 		sbfx	r3, r3, #15, #16
 407              		.loc 1 259 14 view .LVU165
 408 016a A380     		strh	r3, [r4, #4]	@ movhi
 409              	.LVL66:
 260:DSP/Source/TransformFunctions/arm_dct4_q15.c **** 
 261:DSP/Source/TransformFunctions/arm_dct4_q15.c ****     in = *pbuff;
 410              		.loc 1 261 5 is_stmt 1 view .LVU166
 411              		.loc 1 261 8 is_stmt 0 view .LVU167
 412 016c B4F90630 		ldrsh	r3, [r4, #6]
 413              	.LVL67:
 262:DSP/Source/TransformFunctions/arm_dct4_q15.c ****     *pbuff++ = ((q15_t) (((q31_t) in * S->normalize) >> 15));
 414              		.loc 1 262 5 is_stmt 1 view .LVU168
 415              		.loc 1 262 41 is_stmt 0 view .LVU169
 416 0170 B5F90410 		ldrsh	r1, [r5, #4]
 417              		.loc 1 262 38 view .LVU170
 418 0174 01FB03F3 		mul	r3, r1, r3
ARM GAS  /var/folders/ck/g3dcd5x55xs4107jgdl0snvr0000gn/T//ccM5XkLQ.s 			page 13


 419              	.LVL68:
 420              		.loc 1 262 17 view .LVU171
 421 0178 43F3CF33 		sbfx	r3, r3, #15, #16
 422              		.loc 1 262 14 view .LVU172
 423 017c E380     		strh	r3, [r4, #6]	@ movhi
 424              	.LVL69:
 425              		.loc 1 262 14 view .LVU173
 426 017e 0834     		adds	r4, r4, #8
 427              	.LVL70:
 263:DSP/Source/TransformFunctions/arm_dct4_q15.c **** 
 264:DSP/Source/TransformFunctions/arm_dct4_q15.c ****     /* Decrement the loop counter */
 265:DSP/Source/TransformFunctions/arm_dct4_q15.c ****     i--;
 428              		.loc 1 265 5 is_stmt 1 view .LVU174
 266:DSP/Source/TransformFunctions/arm_dct4_q15.c ****   } while (i > 0U);
 429              		.loc 1 266 14 discriminator 1 view .LVU175
 430 0180 013A     		subs	r2, r2, #1
 431              	.LVL71:
 432              		.loc 1 266 14 is_stmt 0 discriminator 1 view .LVU176
 433 0182 D8D1     		bne	.L7
 267:DSP/Source/TransformFunctions/arm_dct4_q15.c **** 
 268:DSP/Source/TransformFunctions/arm_dct4_q15.c **** 
 269:DSP/Source/TransformFunctions/arm_dct4_q15.c **** #else
 270:DSP/Source/TransformFunctions/arm_dct4_q15.c **** 
 271:DSP/Source/TransformFunctions/arm_dct4_q15.c ****   /* Run the below code for Cortex-M0 */
 272:DSP/Source/TransformFunctions/arm_dct4_q15.c **** 
 273:DSP/Source/TransformFunctions/arm_dct4_q15.c ****   /* Initializing the loop counter to N/2 */
 274:DSP/Source/TransformFunctions/arm_dct4_q15.c ****   i = (uint32_t) S->Nby2;
 275:DSP/Source/TransformFunctions/arm_dct4_q15.c **** 
 276:DSP/Source/TransformFunctions/arm_dct4_q15.c ****   do
 277:DSP/Source/TransformFunctions/arm_dct4_q15.c ****   {
 278:DSP/Source/TransformFunctions/arm_dct4_q15.c ****     /* Re-ordering of even and odd elements */
 279:DSP/Source/TransformFunctions/arm_dct4_q15.c ****     /* pState[i] =  pInlineBuffer[2*i] */
 280:DSP/Source/TransformFunctions/arm_dct4_q15.c ****     *pS1++ = *pbuff++;
 281:DSP/Source/TransformFunctions/arm_dct4_q15.c ****     /* pState[N-i-1] = pInlineBuffer[2*i+1] */
 282:DSP/Source/TransformFunctions/arm_dct4_q15.c ****     *pS2-- = *pbuff++;
 283:DSP/Source/TransformFunctions/arm_dct4_q15.c **** 
 284:DSP/Source/TransformFunctions/arm_dct4_q15.c ****     /* Decrement the loop counter */
 285:DSP/Source/TransformFunctions/arm_dct4_q15.c ****     i--;
 286:DSP/Source/TransformFunctions/arm_dct4_q15.c ****   } while (i > 0U);
 287:DSP/Source/TransformFunctions/arm_dct4_q15.c **** 
 288:DSP/Source/TransformFunctions/arm_dct4_q15.c ****   /* pbuff initialized to input buffer */
 289:DSP/Source/TransformFunctions/arm_dct4_q15.c ****   pbuff = pInlineBuffer;
 290:DSP/Source/TransformFunctions/arm_dct4_q15.c **** 
 291:DSP/Source/TransformFunctions/arm_dct4_q15.c ****   /* pS1 initialized to pState */
 292:DSP/Source/TransformFunctions/arm_dct4_q15.c ****   pS1 = pState;
 293:DSP/Source/TransformFunctions/arm_dct4_q15.c **** 
 294:DSP/Source/TransformFunctions/arm_dct4_q15.c ****   /* Initializing the loop counter */
 295:DSP/Source/TransformFunctions/arm_dct4_q15.c ****   i = (uint32_t) S->N;
 296:DSP/Source/TransformFunctions/arm_dct4_q15.c **** 
 297:DSP/Source/TransformFunctions/arm_dct4_q15.c ****   do
 298:DSP/Source/TransformFunctions/arm_dct4_q15.c ****   {
 299:DSP/Source/TransformFunctions/arm_dct4_q15.c ****     /* Writing the re-ordered output back to inplace input buffer */
 300:DSP/Source/TransformFunctions/arm_dct4_q15.c ****     *pbuff++ = *pS1++;
 301:DSP/Source/TransformFunctions/arm_dct4_q15.c **** 
 302:DSP/Source/TransformFunctions/arm_dct4_q15.c ****     /* Decrement the loop counter */
 303:DSP/Source/TransformFunctions/arm_dct4_q15.c ****     i--;
 304:DSP/Source/TransformFunctions/arm_dct4_q15.c ****   } while (i > 0U);
ARM GAS  /var/folders/ck/g3dcd5x55xs4107jgdl0snvr0000gn/T//ccM5XkLQ.s 			page 14


 305:DSP/Source/TransformFunctions/arm_dct4_q15.c **** 
 306:DSP/Source/TransformFunctions/arm_dct4_q15.c **** 
 307:DSP/Source/TransformFunctions/arm_dct4_q15.c ****   /* ---------------------------------------------------------
 308:DSP/Source/TransformFunctions/arm_dct4_q15.c ****    *     Step2: Calculate RFFT for N-point input
 309:DSP/Source/TransformFunctions/arm_dct4_q15.c ****    * ---------------------------------------------------------- */
 310:DSP/Source/TransformFunctions/arm_dct4_q15.c ****   /* pInlineBuffer is real input of length N , pState is the complex output of length 2N */
 311:DSP/Source/TransformFunctions/arm_dct4_q15.c ****   arm_rfft_q15(S->pRfft, pInlineBuffer, pState);
 312:DSP/Source/TransformFunctions/arm_dct4_q15.c **** 
 313:DSP/Source/TransformFunctions/arm_dct4_q15.c ****  /*----------------------------------------------------------------------
 314:DSP/Source/TransformFunctions/arm_dct4_q15.c ****   *  Step3: Multiply the FFT output with the weights.
 315:DSP/Source/TransformFunctions/arm_dct4_q15.c ****   *----------------------------------------------------------------------*/
 316:DSP/Source/TransformFunctions/arm_dct4_q15.c ****   arm_cmplx_mult_cmplx_q15(pState, weights, pState, S->N);
 317:DSP/Source/TransformFunctions/arm_dct4_q15.c **** 
 318:DSP/Source/TransformFunctions/arm_dct4_q15.c ****   /* The output of complex multiplication is in 3.13 format.
 319:DSP/Source/TransformFunctions/arm_dct4_q15.c ****    * Hence changing the format of N (i.e. 2*N elements) complex numbers to 1.15 format by shifting 
 320:DSP/Source/TransformFunctions/arm_dct4_q15.c ****   arm_shift_q15(pState, 2, pState, S->N * 2);
 321:DSP/Source/TransformFunctions/arm_dct4_q15.c **** 
 322:DSP/Source/TransformFunctions/arm_dct4_q15.c ****   /* ----------- Post-processing ---------- */
 323:DSP/Source/TransformFunctions/arm_dct4_q15.c ****   /* DCT-IV can be obtained from DCT-II by the equation,
 324:DSP/Source/TransformFunctions/arm_dct4_q15.c ****    *       Y4(k) = Y2(k) - Y4(k-1) and Y4(-1) = Y4(0)
 325:DSP/Source/TransformFunctions/arm_dct4_q15.c ****    *       Hence, Y4(0) = Y2(0)/2  */
 326:DSP/Source/TransformFunctions/arm_dct4_q15.c ****   /* Getting only real part from the output and Converting to DCT-IV */
 327:DSP/Source/TransformFunctions/arm_dct4_q15.c **** 
 328:DSP/Source/TransformFunctions/arm_dct4_q15.c ****   /* Initializing the loop counter */
 329:DSP/Source/TransformFunctions/arm_dct4_q15.c ****   i = ((uint32_t) S->N - 1U);
 330:DSP/Source/TransformFunctions/arm_dct4_q15.c **** 
 331:DSP/Source/TransformFunctions/arm_dct4_q15.c ****   /* pbuff initialized to input buffer. */
 332:DSP/Source/TransformFunctions/arm_dct4_q15.c ****   pbuff = pInlineBuffer;
 333:DSP/Source/TransformFunctions/arm_dct4_q15.c **** 
 334:DSP/Source/TransformFunctions/arm_dct4_q15.c ****   /* pS1 initialized to pState */
 335:DSP/Source/TransformFunctions/arm_dct4_q15.c ****   pS1 = pState;
 336:DSP/Source/TransformFunctions/arm_dct4_q15.c **** 
 337:DSP/Source/TransformFunctions/arm_dct4_q15.c ****   /* Calculating Y4(0) from Y2(0) using Y4(0) = Y2(0)/2 */
 338:DSP/Source/TransformFunctions/arm_dct4_q15.c ****   in = *pS1++ >> 1U;
 339:DSP/Source/TransformFunctions/arm_dct4_q15.c ****   /* input buffer acts as inplace, so output values are stored in the input itself. */
 340:DSP/Source/TransformFunctions/arm_dct4_q15.c ****   *pbuff++ = in;
 341:DSP/Source/TransformFunctions/arm_dct4_q15.c **** 
 342:DSP/Source/TransformFunctions/arm_dct4_q15.c ****   /* pState pointer is incremented twice as the real values are located alternatively in the array 
 343:DSP/Source/TransformFunctions/arm_dct4_q15.c ****   pS1++;
 344:DSP/Source/TransformFunctions/arm_dct4_q15.c **** 
 345:DSP/Source/TransformFunctions/arm_dct4_q15.c ****   do
 346:DSP/Source/TransformFunctions/arm_dct4_q15.c ****   {
 347:DSP/Source/TransformFunctions/arm_dct4_q15.c ****     /* Calculating Y4(1) to Y4(N-1) from Y2 using equation Y4(k) = Y2(k) - Y4(k-1) */
 348:DSP/Source/TransformFunctions/arm_dct4_q15.c ****     /* pState pointer (pS1) is incremented twice as the real values are located alternatively in th
 349:DSP/Source/TransformFunctions/arm_dct4_q15.c ****     in = *pS1++ - in;
 350:DSP/Source/TransformFunctions/arm_dct4_q15.c ****     *pbuff++ = in;
 351:DSP/Source/TransformFunctions/arm_dct4_q15.c ****     /* points to the next real value */
 352:DSP/Source/TransformFunctions/arm_dct4_q15.c ****     pS1++;
 353:DSP/Source/TransformFunctions/arm_dct4_q15.c **** 
 354:DSP/Source/TransformFunctions/arm_dct4_q15.c ****     /* Decrement the loop counter */
 355:DSP/Source/TransformFunctions/arm_dct4_q15.c ****     i--;
 356:DSP/Source/TransformFunctions/arm_dct4_q15.c ****   } while (i > 0U);
 357:DSP/Source/TransformFunctions/arm_dct4_q15.c **** 
 358:DSP/Source/TransformFunctions/arm_dct4_q15.c ****    /*------------ Normalizing the output by multiplying with the normalizing factor ----------*/
 359:DSP/Source/TransformFunctions/arm_dct4_q15.c **** 
 360:DSP/Source/TransformFunctions/arm_dct4_q15.c ****   /* Initializing the loop counter */
 361:DSP/Source/TransformFunctions/arm_dct4_q15.c ****   i = (uint32_t) S->N;
ARM GAS  /var/folders/ck/g3dcd5x55xs4107jgdl0snvr0000gn/T//ccM5XkLQ.s 			page 15


 362:DSP/Source/TransformFunctions/arm_dct4_q15.c **** 
 363:DSP/Source/TransformFunctions/arm_dct4_q15.c ****   /* pbuff initialized to the pInlineBuffer(now contains the output values) */
 364:DSP/Source/TransformFunctions/arm_dct4_q15.c ****   pbuff = pInlineBuffer;
 365:DSP/Source/TransformFunctions/arm_dct4_q15.c **** 
 366:DSP/Source/TransformFunctions/arm_dct4_q15.c ****   do
 367:DSP/Source/TransformFunctions/arm_dct4_q15.c ****   {
 368:DSP/Source/TransformFunctions/arm_dct4_q15.c ****     /* Multiplying pInlineBuffer with the normalizing factor sqrt(2/N) */
 369:DSP/Source/TransformFunctions/arm_dct4_q15.c ****     in = *pbuff;
 370:DSP/Source/TransformFunctions/arm_dct4_q15.c ****     *pbuff++ = ((q15_t) (((q31_t) in * S->normalize) >> 15));
 371:DSP/Source/TransformFunctions/arm_dct4_q15.c **** 
 372:DSP/Source/TransformFunctions/arm_dct4_q15.c ****     /* Decrement the loop counter */
 373:DSP/Source/TransformFunctions/arm_dct4_q15.c ****     i--;
 374:DSP/Source/TransformFunctions/arm_dct4_q15.c ****   } while (i > 0U);
 375:DSP/Source/TransformFunctions/arm_dct4_q15.c **** 
 376:DSP/Source/TransformFunctions/arm_dct4_q15.c **** #endif /* #if defined (ARM_MATH_DSP) */
 377:DSP/Source/TransformFunctions/arm_dct4_q15.c **** 
 378:DSP/Source/TransformFunctions/arm_dct4_q15.c **** }
 434              		.loc 1 378 1 view .LVU177
 435 0184 F8BD     		pop	{r3, r4, r5, r6, r7, pc}
 436              		.loc 1 378 1 view .LVU178
 437              		.cfi_endproc
 438              	.LFE139:
 440              		.text
 441              	.Letext0:
 442              		.file 2 "/Users/luban/.local/xPacks/arm-none-eabi-gcc/xpack-arm-none-eabi-gcc-13.2.1-1.1/arm-none-
 443              		.file 3 "/Users/luban/.local/xPacks/arm-none-eabi-gcc/xpack-arm-none-eabi-gcc-13.2.1-1.1/arm-none-
 444              		.file 4 "DSP/Inc/arm_math.h"
ARM GAS  /var/folders/ck/g3dcd5x55xs4107jgdl0snvr0000gn/T//ccM5XkLQ.s 			page 16

