ARM GAS  /var/folders/ck/g3dcd5x55xs4107jgdl0snvr0000gn/T//cc438jkB.s 			page 1


   1              		.cpu cortex-m4
   2              		.arch armv7e-m
   3              		.fpu fpv4-sp-d16
   4              		.eabi_attribute 27, 1
   5              		.eabi_attribute 28, 1
   6              		.eabi_attribute 20, 1
   7              		.eabi_attribute 21, 1
   8              		.eabi_attribute 23, 3
   9              		.eabi_attribute 24, 1
  10              		.eabi_attribute 25, 1
  11              		.eabi_attribute 26, 1
  12              		.eabi_attribute 30, 1
  13              		.eabi_attribute 34, 1
  14              		.eabi_attribute 18, 4
  15              		.file	"arm_fir_interpolate_f32.c"
  16              		.text
  17              	.Ltext0:
  18              		.cfi_sections	.debug_frame
  19              		.file 1 "DSP/Source/FilteringFunctions/arm_fir_interpolate_f32.c"
  20              		.section	.text.arm_fir_interpolate_f32,"ax",%progbits
  21              		.align	1
  22              		.global	arm_fir_interpolate_f32
  23              		.syntax unified
  24              		.thumb
  25              		.thumb_func
  27              	arm_fir_interpolate_f32:
  28              	.LVL0:
  29              	.LFB139:
   1:DSP/Source/FilteringFunctions/arm_fir_interpolate_f32.c **** /* ----------------------------------------------------------------------
   2:DSP/Source/FilteringFunctions/arm_fir_interpolate_f32.c ****  * Project:      CMSIS DSP Library
   3:DSP/Source/FilteringFunctions/arm_fir_interpolate_f32.c ****  * Title:        arm_fir_interpolate_f32.c
   4:DSP/Source/FilteringFunctions/arm_fir_interpolate_f32.c ****  * Description:  Floating-point FIR interpolation sequences
   5:DSP/Source/FilteringFunctions/arm_fir_interpolate_f32.c ****  *
   6:DSP/Source/FilteringFunctions/arm_fir_interpolate_f32.c ****  * $Date:        27. January 2017
   7:DSP/Source/FilteringFunctions/arm_fir_interpolate_f32.c ****  * $Revision:    V.1.5.1
   8:DSP/Source/FilteringFunctions/arm_fir_interpolate_f32.c ****  *
   9:DSP/Source/FilteringFunctions/arm_fir_interpolate_f32.c ****  * Target Processor: Cortex-M cores
  10:DSP/Source/FilteringFunctions/arm_fir_interpolate_f32.c ****  * -------------------------------------------------------------------- */
  11:DSP/Source/FilteringFunctions/arm_fir_interpolate_f32.c **** /*
  12:DSP/Source/FilteringFunctions/arm_fir_interpolate_f32.c ****  * Copyright (C) 2010-2017 ARM Limited or its affiliates. All rights reserved.
  13:DSP/Source/FilteringFunctions/arm_fir_interpolate_f32.c ****  *
  14:DSP/Source/FilteringFunctions/arm_fir_interpolate_f32.c ****  * SPDX-License-Identifier: Apache-2.0
  15:DSP/Source/FilteringFunctions/arm_fir_interpolate_f32.c ****  *
  16:DSP/Source/FilteringFunctions/arm_fir_interpolate_f32.c ****  * Licensed under the Apache License, Version 2.0 (the License); you may
  17:DSP/Source/FilteringFunctions/arm_fir_interpolate_f32.c ****  * not use this file except in compliance with the License.
  18:DSP/Source/FilteringFunctions/arm_fir_interpolate_f32.c ****  * You may obtain a copy of the License at
  19:DSP/Source/FilteringFunctions/arm_fir_interpolate_f32.c ****  *
  20:DSP/Source/FilteringFunctions/arm_fir_interpolate_f32.c ****  * www.apache.org/licenses/LICENSE-2.0
  21:DSP/Source/FilteringFunctions/arm_fir_interpolate_f32.c ****  *
  22:DSP/Source/FilteringFunctions/arm_fir_interpolate_f32.c ****  * Unless required by applicable law or agreed to in writing, software
  23:DSP/Source/FilteringFunctions/arm_fir_interpolate_f32.c ****  * distributed under the License is distributed on an AS IS BASIS, WITHOUT
  24:DSP/Source/FilteringFunctions/arm_fir_interpolate_f32.c ****  * WARRANTIES OR CONDITIONS OF ANY KIND, either express or implied.
  25:DSP/Source/FilteringFunctions/arm_fir_interpolate_f32.c ****  * See the License for the specific language governing permissions and
  26:DSP/Source/FilteringFunctions/arm_fir_interpolate_f32.c ****  * limitations under the License.
  27:DSP/Source/FilteringFunctions/arm_fir_interpolate_f32.c ****  */
  28:DSP/Source/FilteringFunctions/arm_fir_interpolate_f32.c **** 
  29:DSP/Source/FilteringFunctions/arm_fir_interpolate_f32.c **** #include "arm_math.h"
ARM GAS  /var/folders/ck/g3dcd5x55xs4107jgdl0snvr0000gn/T//cc438jkB.s 			page 2


  30:DSP/Source/FilteringFunctions/arm_fir_interpolate_f32.c **** 
  31:DSP/Source/FilteringFunctions/arm_fir_interpolate_f32.c **** /**
  32:DSP/Source/FilteringFunctions/arm_fir_interpolate_f32.c ****  * @defgroup FIR_Interpolate Finite Impulse Response (FIR) Interpolator
  33:DSP/Source/FilteringFunctions/arm_fir_interpolate_f32.c ****  *
  34:DSP/Source/FilteringFunctions/arm_fir_interpolate_f32.c ****  * These functions combine an upsampler (zero stuffer) and an FIR filter.
  35:DSP/Source/FilteringFunctions/arm_fir_interpolate_f32.c ****  * They are used in multirate systems for increasing the sample rate of a signal without introducin
  36:DSP/Source/FilteringFunctions/arm_fir_interpolate_f32.c ****  * Conceptually, the functions are equivalent to the block diagram below:
  37:DSP/Source/FilteringFunctions/arm_fir_interpolate_f32.c ****  * \image html FIRInterpolator.gif "Components included in the FIR Interpolator functions"
  38:DSP/Source/FilteringFunctions/arm_fir_interpolate_f32.c ****  * After upsampling by a factor of <code>L</code>, the signal should be filtered by a lowpass filte
  39:DSP/Source/FilteringFunctions/arm_fir_interpolate_f32.c ****  * cutoff frequency of <code>1/L</code> in order to eliminate high frequency copies of the spectrum
  40:DSP/Source/FilteringFunctions/arm_fir_interpolate_f32.c ****  * The user of the function is responsible for providing the filter coefficients.
  41:DSP/Source/FilteringFunctions/arm_fir_interpolate_f32.c ****  *
  42:DSP/Source/FilteringFunctions/arm_fir_interpolate_f32.c ****  * The FIR interpolator functions provided in the CMSIS DSP Library combine the upsampler and FIR f
  43:DSP/Source/FilteringFunctions/arm_fir_interpolate_f32.c ****  * The upsampler inserts <code>L-1</code> zeros between each sample.
  44:DSP/Source/FilteringFunctions/arm_fir_interpolate_f32.c ****  * Instead of multiplying by these zero values, the FIR filter is designed to skip them.
  45:DSP/Source/FilteringFunctions/arm_fir_interpolate_f32.c ****  * This leads to an efficient implementation without any wasted effort.
  46:DSP/Source/FilteringFunctions/arm_fir_interpolate_f32.c ****  * The functions operate on blocks of input and output data.
  47:DSP/Source/FilteringFunctions/arm_fir_interpolate_f32.c ****  * <code>pSrc</code> points to an array of <code>blockSize</code> input values and
  48:DSP/Source/FilteringFunctions/arm_fir_interpolate_f32.c ****  * <code>pDst</code> points to an array of <code>blockSize*L</code> output values.
  49:DSP/Source/FilteringFunctions/arm_fir_interpolate_f32.c ****  *
  50:DSP/Source/FilteringFunctions/arm_fir_interpolate_f32.c ****  * The library provides separate functions for Q15, Q31, and floating-point data types.
  51:DSP/Source/FilteringFunctions/arm_fir_interpolate_f32.c ****  *
  52:DSP/Source/FilteringFunctions/arm_fir_interpolate_f32.c ****  * \par Algorithm:
  53:DSP/Source/FilteringFunctions/arm_fir_interpolate_f32.c ****  * The functions use a polyphase filter structure:
  54:DSP/Source/FilteringFunctions/arm_fir_interpolate_f32.c ****  * <pre>
  55:DSP/Source/FilteringFunctions/arm_fir_interpolate_f32.c ****  *    y[n] = b[0] * x[n] + b[L]   * x[n-1] + ... + b[L*(phaseLength-1)] * x[n-phaseLength+1]
  56:DSP/Source/FilteringFunctions/arm_fir_interpolate_f32.c ****  *    y[n+1] = b[1] * x[n] + b[L+1] * x[n-1] + ... + b[L*(phaseLength-1)+1] * x[n-phaseLength+1]
  57:DSP/Source/FilteringFunctions/arm_fir_interpolate_f32.c ****  *    ...
  58:DSP/Source/FilteringFunctions/arm_fir_interpolate_f32.c ****  *    y[n+(L-1)] = b[L-1] * x[n] + b[2*L-1] * x[n-1] + ....+ b[L*(phaseLength-1)+(L-1)] * x[n-phase
  59:DSP/Source/FilteringFunctions/arm_fir_interpolate_f32.c ****  * </pre>
  60:DSP/Source/FilteringFunctions/arm_fir_interpolate_f32.c ****  * This approach is more efficient than straightforward upsample-then-filter algorithms.
  61:DSP/Source/FilteringFunctions/arm_fir_interpolate_f32.c ****  * With this method the computation is reduced by a factor of <code>1/L</code> when compared to usi
  62:DSP/Source/FilteringFunctions/arm_fir_interpolate_f32.c ****  * \par
  63:DSP/Source/FilteringFunctions/arm_fir_interpolate_f32.c ****  * <code>pCoeffs</code> points to a coefficient array of size <code>numTaps</code>.
  64:DSP/Source/FilteringFunctions/arm_fir_interpolate_f32.c ****  * <code>numTaps</code> must be a multiple of the interpolation factor <code>L</code> and this is c
  65:DSP/Source/FilteringFunctions/arm_fir_interpolate_f32.c ****  * initialization functions.
  66:DSP/Source/FilteringFunctions/arm_fir_interpolate_f32.c ****  * Internally, the function divides the FIR filter's impulse response into shorter filters of lengt
  67:DSP/Source/FilteringFunctions/arm_fir_interpolate_f32.c ****  * <code>phaseLength=numTaps/L</code>.
  68:DSP/Source/FilteringFunctions/arm_fir_interpolate_f32.c ****  * Coefficients are stored in time reversed order.
  69:DSP/Source/FilteringFunctions/arm_fir_interpolate_f32.c ****  * \par
  70:DSP/Source/FilteringFunctions/arm_fir_interpolate_f32.c ****  * <pre>
  71:DSP/Source/FilteringFunctions/arm_fir_interpolate_f32.c ****  *    {b[numTaps-1], b[numTaps-2], b[N-2], ..., b[1], b[0]}
  72:DSP/Source/FilteringFunctions/arm_fir_interpolate_f32.c ****  * </pre>
  73:DSP/Source/FilteringFunctions/arm_fir_interpolate_f32.c ****  * \par
  74:DSP/Source/FilteringFunctions/arm_fir_interpolate_f32.c ****  * <code>pState</code> points to a state array of size <code>blockSize + phaseLength - 1</code>.
  75:DSP/Source/FilteringFunctions/arm_fir_interpolate_f32.c ****  * Samples in the state buffer are stored in the order:
  76:DSP/Source/FilteringFunctions/arm_fir_interpolate_f32.c ****  * \par
  77:DSP/Source/FilteringFunctions/arm_fir_interpolate_f32.c ****  * <pre>
  78:DSP/Source/FilteringFunctions/arm_fir_interpolate_f32.c ****  *    {x[n-phaseLength+1], x[n-phaseLength], x[n-phaseLength-1], x[n-phaseLength-2]....x[0], x[1], 
  79:DSP/Source/FilteringFunctions/arm_fir_interpolate_f32.c ****  * </pre>
  80:DSP/Source/FilteringFunctions/arm_fir_interpolate_f32.c ****  * The state variables are updated after each block of data is processed, the coefficients are unto
  81:DSP/Source/FilteringFunctions/arm_fir_interpolate_f32.c ****  *
  82:DSP/Source/FilteringFunctions/arm_fir_interpolate_f32.c ****  * \par Instance Structure
  83:DSP/Source/FilteringFunctions/arm_fir_interpolate_f32.c ****  * The coefficients and state variables for a filter are stored together in an instance data struct
  84:DSP/Source/FilteringFunctions/arm_fir_interpolate_f32.c ****  * A separate instance structure must be defined for each filter.
  85:DSP/Source/FilteringFunctions/arm_fir_interpolate_f32.c ****  * Coefficient arrays may be shared among several instances while state variable array should be al
  86:DSP/Source/FilteringFunctions/arm_fir_interpolate_f32.c ****  * There are separate instance structure declarations for each of the 3 supported data types.
ARM GAS  /var/folders/ck/g3dcd5x55xs4107jgdl0snvr0000gn/T//cc438jkB.s 			page 3


  87:DSP/Source/FilteringFunctions/arm_fir_interpolate_f32.c ****  *
  88:DSP/Source/FilteringFunctions/arm_fir_interpolate_f32.c ****  * \par Initialization Functions
  89:DSP/Source/FilteringFunctions/arm_fir_interpolate_f32.c ****  * There is also an associated initialization function for each data type.
  90:DSP/Source/FilteringFunctions/arm_fir_interpolate_f32.c ****  * The initialization function performs the following operations:
  91:DSP/Source/FilteringFunctions/arm_fir_interpolate_f32.c ****  * - Sets the values of the internal structure fields.
  92:DSP/Source/FilteringFunctions/arm_fir_interpolate_f32.c ****  * - Zeros out the values in the state buffer.
  93:DSP/Source/FilteringFunctions/arm_fir_interpolate_f32.c ****  * - Checks to make sure that the length of the filter is a multiple of the interpolation factor.
  94:DSP/Source/FilteringFunctions/arm_fir_interpolate_f32.c ****  * To do this manually without calling the init function, assign the follow subfields of the instan
  95:DSP/Source/FilteringFunctions/arm_fir_interpolate_f32.c ****  * L (interpolation factor), pCoeffs, phaseLength (numTaps / L), pState. Also set all of the values
  96:DSP/Source/FilteringFunctions/arm_fir_interpolate_f32.c ****  *
  97:DSP/Source/FilteringFunctions/arm_fir_interpolate_f32.c ****  * \par
  98:DSP/Source/FilteringFunctions/arm_fir_interpolate_f32.c ****  * Use of the initialization function is optional.
  99:DSP/Source/FilteringFunctions/arm_fir_interpolate_f32.c ****  * However, if the initialization function is used, then the instance structure cannot be placed in
 100:DSP/Source/FilteringFunctions/arm_fir_interpolate_f32.c ****  * To place an instance structure into a const data section, the instance structure must be manuall
 101:DSP/Source/FilteringFunctions/arm_fir_interpolate_f32.c ****  * The code below statically initializes each of the 3 different data type filter instance structur
 102:DSP/Source/FilteringFunctions/arm_fir_interpolate_f32.c ****  * <pre>
 103:DSP/Source/FilteringFunctions/arm_fir_interpolate_f32.c ****  * arm_fir_interpolate_instance_f32 S = {L, phaseLength, pCoeffs, pState};
 104:DSP/Source/FilteringFunctions/arm_fir_interpolate_f32.c ****  * arm_fir_interpolate_instance_q31 S = {L, phaseLength, pCoeffs, pState};
 105:DSP/Source/FilteringFunctions/arm_fir_interpolate_f32.c ****  * arm_fir_interpolate_instance_q15 S = {L, phaseLength, pCoeffs, pState};
 106:DSP/Source/FilteringFunctions/arm_fir_interpolate_f32.c ****  * </pre>
 107:DSP/Source/FilteringFunctions/arm_fir_interpolate_f32.c ****  * where <code>L</code> is the interpolation factor; <code>phaseLength=numTaps/L</code> is the
 108:DSP/Source/FilteringFunctions/arm_fir_interpolate_f32.c ****  * length of each of the shorter FIR filters used internally,
 109:DSP/Source/FilteringFunctions/arm_fir_interpolate_f32.c ****  * <code>pCoeffs</code> is the address of the coefficient buffer;
 110:DSP/Source/FilteringFunctions/arm_fir_interpolate_f32.c ****  * <code>pState</code> is the address of the state buffer.
 111:DSP/Source/FilteringFunctions/arm_fir_interpolate_f32.c ****  * Be sure to set the values in the state buffer to zeros when doing static initialization.
 112:DSP/Source/FilteringFunctions/arm_fir_interpolate_f32.c ****  *
 113:DSP/Source/FilteringFunctions/arm_fir_interpolate_f32.c ****  * \par Fixed-Point Behavior
 114:DSP/Source/FilteringFunctions/arm_fir_interpolate_f32.c ****  * Care must be taken when using the fixed-point versions of the FIR interpolate filter functions.
 115:DSP/Source/FilteringFunctions/arm_fir_interpolate_f32.c ****  * In particular, the overflow and saturation behavior of the accumulator used in each function mus
 116:DSP/Source/FilteringFunctions/arm_fir_interpolate_f32.c ****  * Refer to the function specific documentation below for usage guidelines.
 117:DSP/Source/FilteringFunctions/arm_fir_interpolate_f32.c ****  */
 118:DSP/Source/FilteringFunctions/arm_fir_interpolate_f32.c **** 
 119:DSP/Source/FilteringFunctions/arm_fir_interpolate_f32.c **** /**
 120:DSP/Source/FilteringFunctions/arm_fir_interpolate_f32.c ****  * @addtogroup FIR_Interpolate
 121:DSP/Source/FilteringFunctions/arm_fir_interpolate_f32.c ****  * @{
 122:DSP/Source/FilteringFunctions/arm_fir_interpolate_f32.c ****  */
 123:DSP/Source/FilteringFunctions/arm_fir_interpolate_f32.c **** 
 124:DSP/Source/FilteringFunctions/arm_fir_interpolate_f32.c **** /**
 125:DSP/Source/FilteringFunctions/arm_fir_interpolate_f32.c ****  * @brief Processing function for the floating-point FIR interpolator.
 126:DSP/Source/FilteringFunctions/arm_fir_interpolate_f32.c ****  * @param[in] *S        points to an instance of the floating-point FIR interpolator structure.
 127:DSP/Source/FilteringFunctions/arm_fir_interpolate_f32.c ****  * @param[in] *pSrc     points to the block of input data.
 128:DSP/Source/FilteringFunctions/arm_fir_interpolate_f32.c ****  * @param[out] *pDst    points to the block of output data.
 129:DSP/Source/FilteringFunctions/arm_fir_interpolate_f32.c ****  * @param[in] blockSize number of input samples to process per call.
 130:DSP/Source/FilteringFunctions/arm_fir_interpolate_f32.c ****  * @return none.
 131:DSP/Source/FilteringFunctions/arm_fir_interpolate_f32.c ****  */
 132:DSP/Source/FilteringFunctions/arm_fir_interpolate_f32.c **** #if defined (ARM_MATH_DSP)
 133:DSP/Source/FilteringFunctions/arm_fir_interpolate_f32.c **** 
 134:DSP/Source/FilteringFunctions/arm_fir_interpolate_f32.c ****   /* Run the below code for Cortex-M4 and Cortex-M3 */
 135:DSP/Source/FilteringFunctions/arm_fir_interpolate_f32.c **** 
 136:DSP/Source/FilteringFunctions/arm_fir_interpolate_f32.c **** void arm_fir_interpolate_f32(
 137:DSP/Source/FilteringFunctions/arm_fir_interpolate_f32.c ****   const arm_fir_interpolate_instance_f32 * S,
 138:DSP/Source/FilteringFunctions/arm_fir_interpolate_f32.c ****   float32_t * pSrc,
 139:DSP/Source/FilteringFunctions/arm_fir_interpolate_f32.c ****   float32_t * pDst,
 140:DSP/Source/FilteringFunctions/arm_fir_interpolate_f32.c ****   uint32_t blockSize)
 141:DSP/Source/FilteringFunctions/arm_fir_interpolate_f32.c **** {
  30              		.loc 1 141 1 view -0
  31              		.cfi_startproc
ARM GAS  /var/folders/ck/g3dcd5x55xs4107jgdl0snvr0000gn/T//cc438jkB.s 			page 4


  32              		@ args = 0, pretend = 0, frame = 8
  33              		@ frame_needed = 0, uses_anonymous_args = 0
  34              		.loc 1 141 1 is_stmt 0 view .LVU1
  35 0000 2DE9F04F 		push	{r4, r5, r6, r7, r8, r9, r10, fp, lr}
  36              	.LCFI0:
  37              		.cfi_def_cfa_offset 36
  38              		.cfi_offset 4, -36
  39              		.cfi_offset 5, -32
  40              		.cfi_offset 6, -28
  41              		.cfi_offset 7, -24
  42              		.cfi_offset 8, -20
  43              		.cfi_offset 9, -16
  44              		.cfi_offset 10, -12
  45              		.cfi_offset 11, -8
  46              		.cfi_offset 14, -4
  47 0004 83B0     		sub	sp, sp, #12
  48              	.LCFI1:
  49              		.cfi_def_cfa_offset 48
  50 0006 0546     		mov	r5, r0
  51 0008 0846     		mov	r0, r1
  52              	.LVL1:
  53              		.loc 1 141 1 view .LVU2
  54 000a 9646     		mov	lr, r2
 142:DSP/Source/FilteringFunctions/arm_fir_interpolate_f32.c ****   float32_t *pState = S->pState;                 /* State pointer */
  55              		.loc 1 142 3 is_stmt 1 view .LVU3
  56              		.loc 1 142 14 is_stmt 0 view .LVU4
  57 000c AC68     		ldr	r4, [r5, #8]
  58              	.LVL2:
 143:DSP/Source/FilteringFunctions/arm_fir_interpolate_f32.c ****   float32_t *pCoeffs = S->pCoeffs;               /* Coefficient pointer */
  59              		.loc 1 143 3 is_stmt 1 view .LVU5
  60              		.loc 1 143 14 is_stmt 0 view .LVU6
  61 000e D5F80490 		ldr	r9, [r5, #4]
  62              	.LVL3:
 144:DSP/Source/FilteringFunctions/arm_fir_interpolate_f32.c ****   float32_t *pStateCurnt;                        /* Points to the current sample of the state */
  63              		.loc 1 144 3 is_stmt 1 view .LVU7
 145:DSP/Source/FilteringFunctions/arm_fir_interpolate_f32.c ****   float32_t *ptr1, *ptr2;                        /* Temporary pointers for state and coefficient bu
  64              		.loc 1 145 3 view .LVU8
 146:DSP/Source/FilteringFunctions/arm_fir_interpolate_f32.c ****   float32_t sum0;                                /* Accumulators */
  65              		.loc 1 146 3 view .LVU9
 147:DSP/Source/FilteringFunctions/arm_fir_interpolate_f32.c ****   float32_t x0, c0;                              /* Temporary variables to hold state and coefficie
  66              		.loc 1 147 3 view .LVU10
 148:DSP/Source/FilteringFunctions/arm_fir_interpolate_f32.c ****   uint32_t i, blkCnt, j;                         /* Loop counters */
  67              		.loc 1 148 3 view .LVU11
 149:DSP/Source/FilteringFunctions/arm_fir_interpolate_f32.c ****   uint16_t phaseLen = S->phaseLength, tapCnt;    /* Length of each polyphase filter component */
  68              		.loc 1 149 3 view .LVU12
  69              		.loc 1 149 12 is_stmt 0 view .LVU13
  70 0012 6E88     		ldrh	r6, [r5, #2]
  71              	.LVL4:
 150:DSP/Source/FilteringFunctions/arm_fir_interpolate_f32.c ****   float32_t acc0, acc1, acc2, acc3;
  72              		.loc 1 150 3 is_stmt 1 view .LVU14
 151:DSP/Source/FilteringFunctions/arm_fir_interpolate_f32.c ****   float32_t x1, x2, x3;
  73              		.loc 1 151 3 view .LVU15
 152:DSP/Source/FilteringFunctions/arm_fir_interpolate_f32.c ****   uint32_t blkCntN4;
  74              		.loc 1 152 3 view .LVU16
 153:DSP/Source/FilteringFunctions/arm_fir_interpolate_f32.c ****   float32_t c1, c2, c3;
  75              		.loc 1 153 3 view .LVU17
 154:DSP/Source/FilteringFunctions/arm_fir_interpolate_f32.c **** 
ARM GAS  /var/folders/ck/g3dcd5x55xs4107jgdl0snvr0000gn/T//cc438jkB.s 			page 5


 155:DSP/Source/FilteringFunctions/arm_fir_interpolate_f32.c ****   /* S->pState buffer contains previous frame (phaseLen - 1) samples */
 156:DSP/Source/FilteringFunctions/arm_fir_interpolate_f32.c ****   /* pStateCurnt points to the location where the new input data should be written */
 157:DSP/Source/FilteringFunctions/arm_fir_interpolate_f32.c ****   pStateCurnt = S->pState + (phaseLen - 1U);
  76              		.loc 1 157 3 view .LVU18
  77              		.loc 1 157 27 is_stmt 0 view .LVU19
  78 0014 06F1804A 		add	r10, r6, #1073741824
  79 0018 0AF1FF3A 		add	r10, r10, #-1
  80              		.loc 1 157 15 view .LVU20
  81 001c 04EB8A01 		add	r1, r4, r10, lsl #2
  82              	.LVL5:
 158:DSP/Source/FilteringFunctions/arm_fir_interpolate_f32.c **** 
 159:DSP/Source/FilteringFunctions/arm_fir_interpolate_f32.c ****   /* Initialise  blkCnt */
 160:DSP/Source/FilteringFunctions/arm_fir_interpolate_f32.c ****   blkCnt = blockSize / 4;
  83              		.loc 1 160 3 is_stmt 1 view .LVU21
  84              		.loc 1 160 10 is_stmt 0 view .LVU22
  85 0020 9A08     		lsrs	r2, r3, #2
  86              	.LVL6:
 161:DSP/Source/FilteringFunctions/arm_fir_interpolate_f32.c ****   blkCntN4 = blockSize - (4 * blkCnt);
  87              		.loc 1 161 3 is_stmt 1 view .LVU23
  88 0022 03F00303 		and	r3, r3, #3
  89              	.LVL7:
 162:DSP/Source/FilteringFunctions/arm_fir_interpolate_f32.c **** 
 163:DSP/Source/FilteringFunctions/arm_fir_interpolate_f32.c ****   /* Samples loop unrolled by 4 */
 164:DSP/Source/FilteringFunctions/arm_fir_interpolate_f32.c ****   while (blkCnt > 0U)
  90              		.loc 1 164 3 view .LVU24
  91 0026 1746     		mov	r7, r2
  92 0028 0A46     		mov	r2, r1
  93              	.LVL8:
  94              		.loc 1 164 3 is_stmt 0 view .LVU25
  95 002a 0193     		str	r3, [sp, #4]
  96 002c 3946     		mov	r1, r7
  97              	.LVL9:
  98              		.loc 1 164 9 view .LVU26
  99 002e BDE0     		b	.L2
 100              	.LVL10:
 101              	.L5:
 165:DSP/Source/FilteringFunctions/arm_fir_interpolate_f32.c ****   {
 166:DSP/Source/FilteringFunctions/arm_fir_interpolate_f32.c ****     /* Copy new input sample into the state buffer */
 167:DSP/Source/FilteringFunctions/arm_fir_interpolate_f32.c ****     *pStateCurnt++ = *pSrc++;
 168:DSP/Source/FilteringFunctions/arm_fir_interpolate_f32.c ****     *pStateCurnt++ = *pSrc++;
 169:DSP/Source/FilteringFunctions/arm_fir_interpolate_f32.c ****     *pStateCurnt++ = *pSrc++;
 170:DSP/Source/FilteringFunctions/arm_fir_interpolate_f32.c ****     *pStateCurnt++ = *pSrc++;
 171:DSP/Source/FilteringFunctions/arm_fir_interpolate_f32.c **** 
 172:DSP/Source/FilteringFunctions/arm_fir_interpolate_f32.c ****     /* Address modifier index of coefficient buffer */
 173:DSP/Source/FilteringFunctions/arm_fir_interpolate_f32.c ****     j = 1U;
 174:DSP/Source/FilteringFunctions/arm_fir_interpolate_f32.c **** 
 175:DSP/Source/FilteringFunctions/arm_fir_interpolate_f32.c ****     /* Loop over the Interpolation factor. */
 176:DSP/Source/FilteringFunctions/arm_fir_interpolate_f32.c ****     i = (S->L);
 177:DSP/Source/FilteringFunctions/arm_fir_interpolate_f32.c **** 
 178:DSP/Source/FilteringFunctions/arm_fir_interpolate_f32.c ****     while (i > 0U)
 179:DSP/Source/FilteringFunctions/arm_fir_interpolate_f32.c ****     {
 180:DSP/Source/FilteringFunctions/arm_fir_interpolate_f32.c ****       /* Set accumulator to zero */
 181:DSP/Source/FilteringFunctions/arm_fir_interpolate_f32.c ****       acc0 = 0.0f;
 182:DSP/Source/FilteringFunctions/arm_fir_interpolate_f32.c ****       acc1 = 0.0f;
 183:DSP/Source/FilteringFunctions/arm_fir_interpolate_f32.c ****       acc2 = 0.0f;
 184:DSP/Source/FilteringFunctions/arm_fir_interpolate_f32.c ****       acc3 = 0.0f;
 185:DSP/Source/FilteringFunctions/arm_fir_interpolate_f32.c **** 
ARM GAS  /var/folders/ck/g3dcd5x55xs4107jgdl0snvr0000gn/T//cc438jkB.s 			page 6


 186:DSP/Source/FilteringFunctions/arm_fir_interpolate_f32.c ****       /* Initialize state pointer */
 187:DSP/Source/FilteringFunctions/arm_fir_interpolate_f32.c ****       ptr1 = pState;
 188:DSP/Source/FilteringFunctions/arm_fir_interpolate_f32.c **** 
 189:DSP/Source/FilteringFunctions/arm_fir_interpolate_f32.c ****       /* Initialize coefficient pointer */
 190:DSP/Source/FilteringFunctions/arm_fir_interpolate_f32.c ****       ptr2 = pCoeffs + (S->L - j);
 191:DSP/Source/FilteringFunctions/arm_fir_interpolate_f32.c **** 
 192:DSP/Source/FilteringFunctions/arm_fir_interpolate_f32.c ****       /* Loop over the polyPhase length. Unroll by a factor of 4.
 193:DSP/Source/FilteringFunctions/arm_fir_interpolate_f32.c ****        ** Repeat until we've computed numTaps-(4*S->L) coefficients. */
 194:DSP/Source/FilteringFunctions/arm_fir_interpolate_f32.c ****       tapCnt = phaseLen >> 2U;
 195:DSP/Source/FilteringFunctions/arm_fir_interpolate_f32.c **** 
 196:DSP/Source/FilteringFunctions/arm_fir_interpolate_f32.c ****       x0 = *(ptr1++);
 197:DSP/Source/FilteringFunctions/arm_fir_interpolate_f32.c ****       x1 = *(ptr1++);
 198:DSP/Source/FilteringFunctions/arm_fir_interpolate_f32.c ****       x2 = *(ptr1++);
 199:DSP/Source/FilteringFunctions/arm_fir_interpolate_f32.c **** 
 200:DSP/Source/FilteringFunctions/arm_fir_interpolate_f32.c ****       while (tapCnt > 0U)
 201:DSP/Source/FilteringFunctions/arm_fir_interpolate_f32.c ****       {
 202:DSP/Source/FilteringFunctions/arm_fir_interpolate_f32.c **** 
 203:DSP/Source/FilteringFunctions/arm_fir_interpolate_f32.c ****         /* Read the input sample */
 204:DSP/Source/FilteringFunctions/arm_fir_interpolate_f32.c ****         x3 = *(ptr1++);
 102              		.loc 1 204 9 is_stmt 1 view .LVU27
 103              		.loc 1 204 12 is_stmt 0 view .LVU28
 104 0030 D3ED003A 		vldr.32	s7, [r3]
 105              	.LVL11:
 205:DSP/Source/FilteringFunctions/arm_fir_interpolate_f32.c **** 
 206:DSP/Source/FilteringFunctions/arm_fir_interpolate_f32.c ****         /* Read the coefficient */
 207:DSP/Source/FilteringFunctions/arm_fir_interpolate_f32.c ****         c0 = *(ptr2);
 106              		.loc 1 207 9 is_stmt 1 view .LVU29
 107              		.loc 1 207 12 is_stmt 0 view .LVU30
 108 0034 91ED007A 		vldr.32	s14, [r1]
 109              	.LVL12:
 208:DSP/Source/FilteringFunctions/arm_fir_interpolate_f32.c **** 
 209:DSP/Source/FilteringFunctions/arm_fir_interpolate_f32.c ****         /* Perform the multiply-accumulate */
 210:DSP/Source/FilteringFunctions/arm_fir_interpolate_f32.c ****         acc0 += x0 * c0;
 110              		.loc 1 210 9 is_stmt 1 view .LVU31
 111              		.loc 1 210 20 is_stmt 0 view .LVU32
 112 0038 26EE076A 		vmul.f32	s12, s12, s14
 113              	.LVL13:
 114              		.loc 1 210 14 view .LVU33
 115 003c 76EE266A 		vadd.f32	s13, s12, s13
 116              	.LVL14:
 211:DSP/Source/FilteringFunctions/arm_fir_interpolate_f32.c ****         acc1 += x1 * c0;
 117              		.loc 1 211 9 is_stmt 1 view .LVU34
 118              		.loc 1 211 20 is_stmt 0 view .LVU35
 119 0040 25EE876A 		vmul.f32	s12, s11, s14
 120              		.loc 1 211 14 view .LVU36
 121 0044 76EE244A 		vadd.f32	s9, s12, s9
 122              	.LVL15:
 212:DSP/Source/FilteringFunctions/arm_fir_interpolate_f32.c ****         acc2 += x2 * c0;
 123              		.loc 1 212 9 is_stmt 1 view .LVU37
 124              		.loc 1 212 20 is_stmt 0 view .LVU38
 125 0048 24EE076A 		vmul.f32	s12, s8, s14
 126              		.loc 1 212 14 view .LVU39
 127 004c 36EE055A 		vadd.f32	s10, s12, s10
 128              	.LVL16:
 213:DSP/Source/FilteringFunctions/arm_fir_interpolate_f32.c ****         acc3 += x3 * c0;
 129              		.loc 1 213 9 is_stmt 1 view .LVU40
 130              		.loc 1 213 20 is_stmt 0 view .LVU41
ARM GAS  /var/folders/ck/g3dcd5x55xs4107jgdl0snvr0000gn/T//cc438jkB.s 			page 7


 131 0050 23EE877A 		vmul.f32	s14, s7, s14
 132              	.LVL17:
 133              		.loc 1 213 14 view .LVU42
 134 0054 77EE277A 		vadd.f32	s15, s14, s15
 135              	.LVL18:
 214:DSP/Source/FilteringFunctions/arm_fir_interpolate_f32.c **** 
 215:DSP/Source/FilteringFunctions/arm_fir_interpolate_f32.c ****         /* Read the coefficient */
 216:DSP/Source/FilteringFunctions/arm_fir_interpolate_f32.c ****         c1 = *(ptr2 + S->L);
 136              		.loc 1 216 9 is_stmt 1 view .LVU43
 137              		.loc 1 216 21 is_stmt 0 view .LVU44
 138 0058 01EB8004 		add	r4, r1, r0, lsl #2
 139              		.loc 1 216 12 view .LVU45
 140 005c 94ED007A 		vldr.32	s14, [r4]
 141              	.LVL19:
 217:DSP/Source/FilteringFunctions/arm_fir_interpolate_f32.c **** 
 218:DSP/Source/FilteringFunctions/arm_fir_interpolate_f32.c ****         /* Read the input sample */
 219:DSP/Source/FilteringFunctions/arm_fir_interpolate_f32.c ****         x0 = *(ptr1++);
 142              		.loc 1 219 9 is_stmt 1 view .LVU46
 143              		.loc 1 219 12 is_stmt 0 view .LVU47
 144 0060 93ED016A 		vldr.32	s12, [r3, #4]
 145              	.LVL20:
 220:DSP/Source/FilteringFunctions/arm_fir_interpolate_f32.c **** 
 221:DSP/Source/FilteringFunctions/arm_fir_interpolate_f32.c ****         /* Perform the multiply-accumulate */
 222:DSP/Source/FilteringFunctions/arm_fir_interpolate_f32.c ****         acc0 += x1 * c1;
 146              		.loc 1 222 9 is_stmt 1 view .LVU48
 147              		.loc 1 222 20 is_stmt 0 view .LVU49
 148 0064 65EE875A 		vmul.f32	s11, s11, s14
 149              	.LVL21:
 150              		.loc 1 222 14 view .LVU50
 151 0068 75EEA62A 		vadd.f32	s5, s11, s13
 152              	.LVL22:
 223:DSP/Source/FilteringFunctions/arm_fir_interpolate_f32.c ****         acc1 += x2 * c1;
 153              		.loc 1 223 9 is_stmt 1 view .LVU51
 154              		.loc 1 223 20 is_stmt 0 view .LVU52
 155 006c 24EE073A 		vmul.f32	s6, s8, s14
 156              		.loc 1 223 14 view .LVU53
 157 0070 33EE243A 		vadd.f32	s6, s6, s9
 158              	.LVL23:
 224:DSP/Source/FilteringFunctions/arm_fir_interpolate_f32.c ****         acc2 += x3 * c1;
 159              		.loc 1 224 9 is_stmt 1 view .LVU54
 160              		.loc 1 224 20 is_stmt 0 view .LVU55
 161 0074 63EE874A 		vmul.f32	s9, s7, s14
 162              		.loc 1 224 14 view .LVU56
 163 0078 74EE854A 		vadd.f32	s9, s9, s10
 164              	.LVL24:
 225:DSP/Source/FilteringFunctions/arm_fir_interpolate_f32.c ****         acc3 += x0 * c1;
 165              		.loc 1 225 9 is_stmt 1 view .LVU57
 166              		.loc 1 225 20 is_stmt 0 view .LVU58
 167 007c 27EE067A 		vmul.f32	s14, s14, s12
 168              	.LVL25:
 169              		.loc 1 225 14 view .LVU59
 170 0080 37EE277A 		vadd.f32	s14, s14, s15
 171              	.LVL26:
 226:DSP/Source/FilteringFunctions/arm_fir_interpolate_f32.c **** 
 227:DSP/Source/FilteringFunctions/arm_fir_interpolate_f32.c ****         /* Read the coefficient */
 228:DSP/Source/FilteringFunctions/arm_fir_interpolate_f32.c ****         c2 = *(ptr2 + S->L * 2);
 172              		.loc 1 228 9 is_stmt 1 view .LVU60
ARM GAS  /var/folders/ck/g3dcd5x55xs4107jgdl0snvr0000gn/T//cc438jkB.s 			page 8


 173              		.loc 1 228 21 is_stmt 0 view .LVU61
 174 0084 01EBC004 		add	r4, r1, r0, lsl #3
 175              	.LVL27:
 176              		.loc 1 228 12 view .LVU62
 177 0088 D4ED007A 		vldr.32	s15, [r4]
 178              	.LVL28:
 229:DSP/Source/FilteringFunctions/arm_fir_interpolate_f32.c **** 
 230:DSP/Source/FilteringFunctions/arm_fir_interpolate_f32.c ****         /* Read the input sample */
 231:DSP/Source/FilteringFunctions/arm_fir_interpolate_f32.c ****         x1 = *(ptr1++);
 179              		.loc 1 231 9 is_stmt 1 view .LVU63
 180              		.loc 1 231 12 is_stmt 0 view .LVU64
 181 008c D3ED025A 		vldr.32	s11, [r3, #8]
 182              	.LVL29:
 232:DSP/Source/FilteringFunctions/arm_fir_interpolate_f32.c **** 
 233:DSP/Source/FilteringFunctions/arm_fir_interpolate_f32.c ****         /* Perform the multiply-accumulate */
 234:DSP/Source/FilteringFunctions/arm_fir_interpolate_f32.c ****         acc0 += x2 * c2;
 183              		.loc 1 234 9 is_stmt 1 view .LVU65
 184              		.loc 1 234 20 is_stmt 0 view .LVU66
 185 0090 64EE276A 		vmul.f32	s13, s8, s15
 186              		.loc 1 234 14 view .LVU67
 187 0094 76EEA26A 		vadd.f32	s13, s13, s5
 188              	.LVL30:
 235:DSP/Source/FilteringFunctions/arm_fir_interpolate_f32.c ****         acc1 += x3 * c2;
 189              		.loc 1 235 9 is_stmt 1 view .LVU68
 190              		.loc 1 235 20 is_stmt 0 view .LVU69
 191 0098 23EEA75A 		vmul.f32	s10, s7, s15
 192              		.loc 1 235 14 view .LVU70
 193 009c 35EE035A 		vadd.f32	s10, s10, s6
 194              	.LVL31:
 236:DSP/Source/FilteringFunctions/arm_fir_interpolate_f32.c ****         acc2 += x0 * c2;
 195              		.loc 1 236 9 is_stmt 1 view .LVU71
 196              		.loc 1 236 20 is_stmt 0 view .LVU72
 197 00a0 26EE273A 		vmul.f32	s6, s12, s15
 198              		.loc 1 236 14 view .LVU73
 199 00a4 33EE243A 		vadd.f32	s6, s6, s9
 200              	.LVL32:
 237:DSP/Source/FilteringFunctions/arm_fir_interpolate_f32.c ****         acc3 += x1 * c2;
 201              		.loc 1 237 9 is_stmt 1 view .LVU74
 202              		.loc 1 237 20 is_stmt 0 view .LVU75
 203 00a8 67EEA57A 		vmul.f32	s15, s15, s11
 204              	.LVL33:
 205              		.loc 1 237 14 view .LVU76
 206 00ac 37EE877A 		vadd.f32	s14, s15, s14
 207              	.LVL34:
 238:DSP/Source/FilteringFunctions/arm_fir_interpolate_f32.c **** 
 239:DSP/Source/FilteringFunctions/arm_fir_interpolate_f32.c ****         /* Read the coefficient */
 240:DSP/Source/FilteringFunctions/arm_fir_interpolate_f32.c ****         c3 = *(ptr2 + S->L * 3);
 208              		.loc 1 240 9 is_stmt 1 view .LVU77
 209              		.loc 1 240 21 is_stmt 0 view .LVU78
 210 00b0 00EB4004 		add	r4, r0, r0, lsl #1
 211              	.LVL35:
 212              		.loc 1 240 21 view .LVU79
 213 00b4 01EB8404 		add	r4, r1, r4, lsl #2
 214              		.loc 1 240 12 view .LVU80
 215 00b8 D4ED007A 		vldr.32	s15, [r4]
 216              	.LVL36:
 241:DSP/Source/FilteringFunctions/arm_fir_interpolate_f32.c **** 
ARM GAS  /var/folders/ck/g3dcd5x55xs4107jgdl0snvr0000gn/T//cc438jkB.s 			page 9


 242:DSP/Source/FilteringFunctions/arm_fir_interpolate_f32.c ****         /* Read the input sample */
 243:DSP/Source/FilteringFunctions/arm_fir_interpolate_f32.c ****         x2 = *(ptr1++);
 217              		.loc 1 243 9 is_stmt 1 view .LVU81
 218              		.loc 1 243 12 is_stmt 0 view .LVU82
 219 00bc 93ED034A 		vldr.32	s8, [r3, #12]
 220              	.LVL37:
 244:DSP/Source/FilteringFunctions/arm_fir_interpolate_f32.c **** 
 245:DSP/Source/FilteringFunctions/arm_fir_interpolate_f32.c ****         /* Perform the multiply-accumulate */
 246:DSP/Source/FilteringFunctions/arm_fir_interpolate_f32.c ****         acc0 += x3 * c3;
 221              		.loc 1 246 9 is_stmt 1 view .LVU83
 222              		.loc 1 246 20 is_stmt 0 view .LVU84
 223 00c0 63EEA73A 		vmul.f32	s7, s7, s15
 224              	.LVL38:
 225              		.loc 1 246 14 view .LVU85
 226 00c4 73EEA66A 		vadd.f32	s13, s7, s13
 227              	.LVL39:
 247:DSP/Source/FilteringFunctions/arm_fir_interpolate_f32.c ****         acc1 += x0 * c3;
 228              		.loc 1 247 9 is_stmt 1 view .LVU86
 229              		.loc 1 247 20 is_stmt 0 view .LVU87
 230 00c8 66EE274A 		vmul.f32	s9, s12, s15
 231              		.loc 1 247 14 view .LVU88
 232 00cc 74EE854A 		vadd.f32	s9, s9, s10
 233              	.LVL40:
 248:DSP/Source/FilteringFunctions/arm_fir_interpolate_f32.c ****         acc2 += x1 * c3;
 234              		.loc 1 248 9 is_stmt 1 view .LVU89
 235              		.loc 1 248 20 is_stmt 0 view .LVU90
 236 00d0 25EEA75A 		vmul.f32	s10, s11, s15
 237              		.loc 1 248 14 view .LVU91
 238 00d4 35EE035A 		vadd.f32	s10, s10, s6
 239              	.LVL41:
 249:DSP/Source/FilteringFunctions/arm_fir_interpolate_f32.c ****         acc3 += x2 * c3;
 240              		.loc 1 249 9 is_stmt 1 view .LVU92
 241              		.loc 1 249 20 is_stmt 0 view .LVU93
 242 00d8 67EE847A 		vmul.f32	s15, s15, s8
 243              	.LVL42:
 244              		.loc 1 249 14 view .LVU94
 245 00dc 77EE877A 		vadd.f32	s15, s15, s14
 246              	.LVL43:
 250:DSP/Source/FilteringFunctions/arm_fir_interpolate_f32.c **** 
 251:DSP/Source/FilteringFunctions/arm_fir_interpolate_f32.c **** 
 252:DSP/Source/FilteringFunctions/arm_fir_interpolate_f32.c ****         /* Upsampling is done by stuffing L-1 zeros between each sample.
 253:DSP/Source/FilteringFunctions/arm_fir_interpolate_f32.c ****          * So instead of multiplying zeros with coefficients,
 254:DSP/Source/FilteringFunctions/arm_fir_interpolate_f32.c ****          * Increment the coefficient pointer by interpolation factor times. */
 255:DSP/Source/FilteringFunctions/arm_fir_interpolate_f32.c ****         ptr2 += 4 * S->L;
 247              		.loc 1 255 9 is_stmt 1 view .LVU95
 248              		.loc 1 255 14 is_stmt 0 view .LVU96
 249 00e0 01EB0011 		add	r1, r1, r0, lsl #4
 250              	.LVL44:
 256:DSP/Source/FilteringFunctions/arm_fir_interpolate_f32.c **** 
 257:DSP/Source/FilteringFunctions/arm_fir_interpolate_f32.c ****         /* Decrement the loop counter */
 258:DSP/Source/FilteringFunctions/arm_fir_interpolate_f32.c ****         tapCnt--;
 251              		.loc 1 258 9 is_stmt 1 view .LVU97
 252              		.loc 1 258 15 is_stmt 0 view .LVU98
 253 00e4 013F     		subs	r7, r7, #1
 254              	.LVL45:
 255              		.loc 1 258 15 view .LVU99
 256 00e6 BFB2     		uxth	r7, r7
ARM GAS  /var/folders/ck/g3dcd5x55xs4107jgdl0snvr0000gn/T//cc438jkB.s 			page 10


 257              	.LVL46:
 243:DSP/Source/FilteringFunctions/arm_fir_interpolate_f32.c **** 
 258              		.loc 1 243 20 view .LVU100
 259 00e8 1033     		adds	r3, r3, #16
 260              	.LVL47:
 261              	.L4:
 200:DSP/Source/FilteringFunctions/arm_fir_interpolate_f32.c ****       {
 262              		.loc 1 200 21 is_stmt 1 view .LVU101
 263 00ea 002F     		cmp	r7, #0
 264 00ec A0D1     		bne	.L5
 259:DSP/Source/FilteringFunctions/arm_fir_interpolate_f32.c ****       }
 260:DSP/Source/FilteringFunctions/arm_fir_interpolate_f32.c **** 
 261:DSP/Source/FilteringFunctions/arm_fir_interpolate_f32.c ****       /* If the polyPhase length is not a multiple of 4, compute the remaining filter taps */
 262:DSP/Source/FilteringFunctions/arm_fir_interpolate_f32.c ****       tapCnt = phaseLen % 0x4U;
 265              		.loc 1 262 14 is_stmt 0 view .LVU102
 266 00ee 009C     		ldr	r4, [sp]
 267              		.loc 1 262 7 is_stmt 1 view .LVU103
 268              		.loc 1 262 14 is_stmt 0 view .LVU104
 269 00f0 06F00307 		and	r7, r6, #3
 270              	.LVL48:
 263:DSP/Source/FilteringFunctions/arm_fir_interpolate_f32.c **** 
 264:DSP/Source/FilteringFunctions/arm_fir_interpolate_f32.c ****       while (tapCnt > 0U)
 271              		.loc 1 264 7 is_stmt 1 view .LVU105
 272              		.loc 1 264 13 is_stmt 0 view .LVU106
 273 00f4 1DE0     		b	.L6
 274              	.L7:
 265:DSP/Source/FilteringFunctions/arm_fir_interpolate_f32.c ****       {
 266:DSP/Source/FilteringFunctions/arm_fir_interpolate_f32.c **** 
 267:DSP/Source/FilteringFunctions/arm_fir_interpolate_f32.c ****         /* Read the input sample */
 268:DSP/Source/FilteringFunctions/arm_fir_interpolate_f32.c ****         x3 = *(ptr1++);
 275              		.loc 1 268 9 is_stmt 1 view .LVU107
 276              	.LVL49:
 277              		.loc 1 268 12 is_stmt 0 view .LVU108
 278 00f6 F3EC013A 		vldmia.32	r3!, {s7}
 279              	.LVL50:
 269:DSP/Source/FilteringFunctions/arm_fir_interpolate_f32.c **** 
 270:DSP/Source/FilteringFunctions/arm_fir_interpolate_f32.c ****         /* Read the coefficient */
 271:DSP/Source/FilteringFunctions/arm_fir_interpolate_f32.c ****         c0 = *(ptr2);
 280              		.loc 1 271 9 is_stmt 1 view .LVU109
 281              		.loc 1 271 12 is_stmt 0 view .LVU110
 282 00fa 91ED007A 		vldr.32	s14, [r1]
 283              	.LVL51:
 272:DSP/Source/FilteringFunctions/arm_fir_interpolate_f32.c **** 
 273:DSP/Source/FilteringFunctions/arm_fir_interpolate_f32.c ****         /* Perform the multiply-accumulate */
 274:DSP/Source/FilteringFunctions/arm_fir_interpolate_f32.c ****         acc0 += x0 * c0;
 284              		.loc 1 274 9 is_stmt 1 view .LVU111
 285              		.loc 1 274 20 is_stmt 0 view .LVU112
 286 00fe 26EE076A 		vmul.f32	s12, s12, s14
 287              	.LVL52:
 288              		.loc 1 274 14 view .LVU113
 289 0102 76EE866A 		vadd.f32	s13, s13, s12
 290              	.LVL53:
 275:DSP/Source/FilteringFunctions/arm_fir_interpolate_f32.c ****         acc1 += x1 * c0;
 291              		.loc 1 275 9 is_stmt 1 view .LVU114
 292              		.loc 1 275 20 is_stmt 0 view .LVU115
 293 0106 25EE876A 		vmul.f32	s12, s11, s14
 294              		.loc 1 275 14 view .LVU116
ARM GAS  /var/folders/ck/g3dcd5x55xs4107jgdl0snvr0000gn/T//cc438jkB.s 			page 11


 295 010a 74EE864A 		vadd.f32	s9, s9, s12
 296              	.LVL54:
 276:DSP/Source/FilteringFunctions/arm_fir_interpolate_f32.c ****         acc2 += x2 * c0;
 297              		.loc 1 276 9 is_stmt 1 view .LVU117
 298              		.loc 1 276 20 is_stmt 0 view .LVU118
 299 010e 24EE076A 		vmul.f32	s12, s8, s14
 300              		.loc 1 276 14 view .LVU119
 301 0112 35EE065A 		vadd.f32	s10, s10, s12
 302              	.LVL55:
 277:DSP/Source/FilteringFunctions/arm_fir_interpolate_f32.c ****         acc3 += x3 * c0;
 303              		.loc 1 277 9 is_stmt 1 view .LVU120
 304              		.loc 1 277 20 is_stmt 0 view .LVU121
 305 0116 23EE877A 		vmul.f32	s14, s7, s14
 306              	.LVL56:
 307              		.loc 1 277 14 view .LVU122
 308 011a 77EE877A 		vadd.f32	s15, s15, s14
 309              	.LVL57:
 278:DSP/Source/FilteringFunctions/arm_fir_interpolate_f32.c **** 
 279:DSP/Source/FilteringFunctions/arm_fir_interpolate_f32.c ****         /* Increment the coefficient pointer by interpolation factor times. */
 280:DSP/Source/FilteringFunctions/arm_fir_interpolate_f32.c ****         ptr2 += S->L;
 310              		.loc 1 280 9 is_stmt 1 view .LVU123
 311              		.loc 1 280 14 is_stmt 0 view .LVU124
 312 011e 01EB8001 		add	r1, r1, r0, lsl #2
 313              	.LVL58:
 281:DSP/Source/FilteringFunctions/arm_fir_interpolate_f32.c **** 
 282:DSP/Source/FilteringFunctions/arm_fir_interpolate_f32.c ****         /* update states for next sample processing */
 283:DSP/Source/FilteringFunctions/arm_fir_interpolate_f32.c ****         x0 = x1;
 314              		.loc 1 283 9 is_stmt 1 view .LVU125
 284:DSP/Source/FilteringFunctions/arm_fir_interpolate_f32.c ****         x1 = x2;
 315              		.loc 1 284 9 view .LVU126
 285:DSP/Source/FilteringFunctions/arm_fir_interpolate_f32.c ****         x2 = x3;
 316              		.loc 1 285 9 view .LVU127
 286:DSP/Source/FilteringFunctions/arm_fir_interpolate_f32.c **** 
 287:DSP/Source/FilteringFunctions/arm_fir_interpolate_f32.c ****         /* Decrement the loop counter */
 288:DSP/Source/FilteringFunctions/arm_fir_interpolate_f32.c ****         tapCnt--;
 317              		.loc 1 288 9 view .LVU128
 318              		.loc 1 288 15 is_stmt 0 view .LVU129
 319 0122 013F     		subs	r7, r7, #1
 320              	.LVL59:
 321              		.loc 1 288 15 view .LVU130
 322 0124 BFB2     		uxth	r7, r7
 323              	.LVL60:
 283:DSP/Source/FilteringFunctions/arm_fir_interpolate_f32.c ****         x1 = x2;
 324              		.loc 1 283 12 view .LVU131
 325 0126 B0EE656A 		vmov.f32	s12, s11
 284:DSP/Source/FilteringFunctions/arm_fir_interpolate_f32.c ****         x2 = x3;
 326              		.loc 1 284 12 view .LVU132
 327 012a F0EE445A 		vmov.f32	s11, s8
 328              	.LVL61:
 285:DSP/Source/FilteringFunctions/arm_fir_interpolate_f32.c **** 
 329              		.loc 1 285 12 view .LVU133
 330 012e B0EE634A 		vmov.f32	s8, s7
 331              	.LVL62:
 332              	.L6:
 264:DSP/Source/FilteringFunctions/arm_fir_interpolate_f32.c ****       {
 333              		.loc 1 264 21 is_stmt 1 view .LVU134
 334 0132 002F     		cmp	r7, #0
ARM GAS  /var/folders/ck/g3dcd5x55xs4107jgdl0snvr0000gn/T//cc438jkB.s 			page 12


 335 0134 DFD1     		bne	.L7
 289:DSP/Source/FilteringFunctions/arm_fir_interpolate_f32.c ****       }
 290:DSP/Source/FilteringFunctions/arm_fir_interpolate_f32.c **** 
 291:DSP/Source/FilteringFunctions/arm_fir_interpolate_f32.c ****       /* The result is in the accumulator, store in the destination buffer. */
 292:DSP/Source/FilteringFunctions/arm_fir_interpolate_f32.c ****       *pDst = acc0;
 336              		.loc 1 292 7 view .LVU135
 337              		.loc 1 292 13 is_stmt 0 view .LVU136
 338 0136 CEED006A 		vstr.32	s13, [lr]
 293:DSP/Source/FilteringFunctions/arm_fir_interpolate_f32.c ****       *(pDst + S->L) = acc1;
 339              		.loc 1 293 7 is_stmt 1 view .LVU137
 340              		.loc 1 293 17 is_stmt 0 view .LVU138
 341 013a 2B78     		ldrb	r3, [r5]	@ zero_extendqisi2
 342              	.LVL63:
 343              		.loc 1 293 14 view .LVU139
 344 013c 0EEB8303 		add	r3, lr, r3, lsl #2
 345              		.loc 1 293 22 view .LVU140
 346 0140 C3ED004A 		vstr.32	s9, [r3]
 294:DSP/Source/FilteringFunctions/arm_fir_interpolate_f32.c ****       *(pDst + 2 * S->L) = acc2;
 347              		.loc 1 294 7 is_stmt 1 view .LVU141
 348              		.loc 1 294 21 is_stmt 0 view .LVU142
 349 0144 2B78     		ldrb	r3, [r5]	@ zero_extendqisi2
 350              		.loc 1 294 14 view .LVU143
 351 0146 0EEBC303 		add	r3, lr, r3, lsl #3
 352              		.loc 1 294 26 view .LVU144
 353 014a 83ED005A 		vstr.32	s10, [r3]
 295:DSP/Source/FilteringFunctions/arm_fir_interpolate_f32.c ****       *(pDst + 3 * S->L) = acc3;
 354              		.loc 1 295 7 is_stmt 1 view .LVU145
 355              		.loc 1 295 21 is_stmt 0 view .LVU146
 356 014e 2B78     		ldrb	r3, [r5]	@ zero_extendqisi2
 357              		.loc 1 295 14 view .LVU147
 358 0150 03EB4303 		add	r3, r3, r3, lsl #1
 359 0154 0EEB8303 		add	r3, lr, r3, lsl #2
 360              		.loc 1 295 26 view .LVU148
 361 0158 C3ED007A 		vstr.32	s15, [r3]
 296:DSP/Source/FilteringFunctions/arm_fir_interpolate_f32.c **** 
 297:DSP/Source/FilteringFunctions/arm_fir_interpolate_f32.c ****       pDst++;
 362              		.loc 1 297 7 is_stmt 1 view .LVU149
 363              		.loc 1 297 11 is_stmt 0 view .LVU150
 364 015c 0EF1040E 		add	lr, lr, #4
 365              	.LVL64:
 298:DSP/Source/FilteringFunctions/arm_fir_interpolate_f32.c **** 
 299:DSP/Source/FilteringFunctions/arm_fir_interpolate_f32.c ****       /* Increment the address modifier index of coefficient buffer */
 300:DSP/Source/FilteringFunctions/arm_fir_interpolate_f32.c ****       j++;
 366              		.loc 1 300 7 is_stmt 1 view .LVU151
 367              		.loc 1 300 8 is_stmt 0 view .LVU152
 368 0160 08F10108 		add	r8, r8, #1
 369              	.LVL65:
 301:DSP/Source/FilteringFunctions/arm_fir_interpolate_f32.c **** 
 302:DSP/Source/FilteringFunctions/arm_fir_interpolate_f32.c ****       /* Decrement the loop counter */
 303:DSP/Source/FilteringFunctions/arm_fir_interpolate_f32.c ****       i--;
 370              		.loc 1 303 7 is_stmt 1 view .LVU153
 371              		.loc 1 303 8 is_stmt 0 view .LVU154
 372 0164 013A     		subs	r2, r2, #1
 373              	.LVL66:
 374              	.L3:
 178:DSP/Source/FilteringFunctions/arm_fir_interpolate_f32.c ****     {
 375              		.loc 1 178 14 is_stmt 1 view .LVU155
ARM GAS  /var/folders/ck/g3dcd5x55xs4107jgdl0snvr0000gn/T//cc438jkB.s 			page 13


 376 0166 BAB1     		cbz	r2, .L23
 181:DSP/Source/FilteringFunctions/arm_fir_interpolate_f32.c ****       acc1 = 0.0f;
 377              		.loc 1 181 7 view .LVU156
 378              	.LVL67:
 182:DSP/Source/FilteringFunctions/arm_fir_interpolate_f32.c ****       acc2 = 0.0f;
 379              		.loc 1 182 7 view .LVU157
 183:DSP/Source/FilteringFunctions/arm_fir_interpolate_f32.c ****       acc3 = 0.0f;
 380              		.loc 1 183 7 view .LVU158
 184:DSP/Source/FilteringFunctions/arm_fir_interpolate_f32.c **** 
 381              		.loc 1 184 7 view .LVU159
 187:DSP/Source/FilteringFunctions/arm_fir_interpolate_f32.c **** 
 382              		.loc 1 187 7 view .LVU160
 190:DSP/Source/FilteringFunctions/arm_fir_interpolate_f32.c **** 
 383              		.loc 1 190 7 view .LVU161
 190:DSP/Source/FilteringFunctions/arm_fir_interpolate_f32.c **** 
 384              		.loc 1 190 26 is_stmt 0 view .LVU162
 385 0168 2878     		ldrb	r0, [r5]	@ zero_extendqisi2
 190:DSP/Source/FilteringFunctions/arm_fir_interpolate_f32.c **** 
 386              		.loc 1 190 30 view .LVU163
 387 016a A0EB0801 		sub	r1, r0, r8
 190:DSP/Source/FilteringFunctions/arm_fir_interpolate_f32.c **** 
 388              		.loc 1 190 12 view .LVU164
 389 016e 09EB8101 		add	r1, r9, r1, lsl #2
 390              	.LVL68:
 194:DSP/Source/FilteringFunctions/arm_fir_interpolate_f32.c **** 
 391              		.loc 1 194 7 is_stmt 1 view .LVU165
 194:DSP/Source/FilteringFunctions/arm_fir_interpolate_f32.c **** 
 392              		.loc 1 194 14 is_stmt 0 view .LVU166
 393 0172 B708     		lsrs	r7, r6, #2
 394              	.LVL69:
 196:DSP/Source/FilteringFunctions/arm_fir_interpolate_f32.c ****       x1 = *(ptr1++);
 395              		.loc 1 196 7 is_stmt 1 view .LVU167
 196:DSP/Source/FilteringFunctions/arm_fir_interpolate_f32.c ****       x1 = *(ptr1++);
 396              		.loc 1 196 10 is_stmt 0 view .LVU168
 397 0174 94ED006A 		vldr.32	s12, [r4]
 398              	.LVL70:
 197:DSP/Source/FilteringFunctions/arm_fir_interpolate_f32.c ****       x2 = *(ptr1++);
 399              		.loc 1 197 7 is_stmt 1 view .LVU169
 197:DSP/Source/FilteringFunctions/arm_fir_interpolate_f32.c ****       x2 = *(ptr1++);
 400              		.loc 1 197 10 is_stmt 0 view .LVU170
 401 0178 D4ED015A 		vldr.32	s11, [r4, #4]
 402              	.LVL71:
 198:DSP/Source/FilteringFunctions/arm_fir_interpolate_f32.c **** 
 403              		.loc 1 198 7 is_stmt 1 view .LVU171
 198:DSP/Source/FilteringFunctions/arm_fir_interpolate_f32.c **** 
 404              		.loc 1 198 18 is_stmt 0 view .LVU172
 405 017c 04F10C03 		add	r3, r4, #12
 406              	.LVL72:
 198:DSP/Source/FilteringFunctions/arm_fir_interpolate_f32.c **** 
 407              		.loc 1 198 10 view .LVU173
 408 0180 94ED024A 		vldr.32	s8, [r4, #8]
 409              	.LVL73:
 200:DSP/Source/FilteringFunctions/arm_fir_interpolate_f32.c ****       {
 410              		.loc 1 200 7 is_stmt 1 view .LVU174
 184:DSP/Source/FilteringFunctions/arm_fir_interpolate_f32.c **** 
 411              		.loc 1 184 12 is_stmt 0 view .LVU175
 412 0184 DFED547A 		vldr.32	s15, .L27
ARM GAS  /var/folders/ck/g3dcd5x55xs4107jgdl0snvr0000gn/T//cc438jkB.s 			page 14


 183:DSP/Source/FilteringFunctions/arm_fir_interpolate_f32.c ****       acc3 = 0.0f;
 413              		.loc 1 183 12 view .LVU176
 414 0188 B0EE675A 		vmov.f32	s10, s15
 182:DSP/Source/FilteringFunctions/arm_fir_interpolate_f32.c ****       acc2 = 0.0f;
 415              		.loc 1 182 12 view .LVU177
 416 018c F0EE674A 		vmov.f32	s9, s15
 181:DSP/Source/FilteringFunctions/arm_fir_interpolate_f32.c ****       acc1 = 0.0f;
 417              		.loc 1 181 12 view .LVU178
 418 0190 F0EE676A 		vmov.f32	s13, s15
 419 0194 0094     		str	r4, [sp]
 200:DSP/Source/FilteringFunctions/arm_fir_interpolate_f32.c ****       {
 420              		.loc 1 200 13 view .LVU179
 421 0196 A8E7     		b	.L4
 422              	.LVL74:
 423              	.L23:
 304:DSP/Source/FilteringFunctions/arm_fir_interpolate_f32.c ****     }
 305:DSP/Source/FilteringFunctions/arm_fir_interpolate_f32.c **** 
 306:DSP/Source/FilteringFunctions/arm_fir_interpolate_f32.c ****     /* Advance the state pointer by 1
 307:DSP/Source/FilteringFunctions/arm_fir_interpolate_f32.c ****      * to process the next group of interpolation factor number samples */
 308:DSP/Source/FilteringFunctions/arm_fir_interpolate_f32.c ****     pState = pState + 4;
 424              		.loc 1 308 5 is_stmt 1 view .LVU180
 425              		.loc 1 308 12 is_stmt 0 view .LVU181
 426 0198 1034     		adds	r4, r4, #16
 427              	.LVL75:
 309:DSP/Source/FilteringFunctions/arm_fir_interpolate_f32.c **** 
 310:DSP/Source/FilteringFunctions/arm_fir_interpolate_f32.c ****     pDst += S->L * 3;
 428              		.loc 1 310 5 is_stmt 1 view .LVU182
 429              		.loc 1 310 14 is_stmt 0 view .LVU183
 430 019a 2A78     		ldrb	r2, [r5]	@ zero_extendqisi2
 431              	.LVL76:
 432              		.loc 1 310 10 view .LVU184
 433 019c 02EB4202 		add	r2, r2, r2, lsl #1
 434 01a0 0EEB820E 		add	lr, lr, r2, lsl #2
 435              	.LVL77:
 311:DSP/Source/FilteringFunctions/arm_fir_interpolate_f32.c **** 
 312:DSP/Source/FilteringFunctions/arm_fir_interpolate_f32.c ****     /* Decrement the loop counter */
 313:DSP/Source/FilteringFunctions/arm_fir_interpolate_f32.c ****     blkCnt--;
 436              		.loc 1 313 5 is_stmt 1 view .LVU185
 437              		.loc 1 313 11 is_stmt 0 view .LVU186
 438 01a4 0BF1FF31 		add	r1, fp, #-1
 439              	.LVL78:
 170:DSP/Source/FilteringFunctions/arm_fir_interpolate_f32.c **** 
 440              		.loc 1 170 17 view .LVU187
 441 01a8 5246     		mov	r2, r10
 170:DSP/Source/FilteringFunctions/arm_fir_interpolate_f32.c **** 
 442              		.loc 1 170 27 view .LVU188
 443 01aa 6046     		mov	r0, ip
 444              	.LVL79:
 445              	.L2:
 164:DSP/Source/FilteringFunctions/arm_fir_interpolate_f32.c ****   {
 446              		.loc 1 164 17 is_stmt 1 view .LVU189
 447 01ac 81B1     		cbz	r1, .L24
 167:DSP/Source/FilteringFunctions/arm_fir_interpolate_f32.c ****     *pStateCurnt++ = *pSrc++;
 448              		.loc 1 167 5 view .LVU190
 449              	.LVL80:
 167:DSP/Source/FilteringFunctions/arm_fir_interpolate_f32.c ****     *pStateCurnt++ = *pSrc++;
 450              		.loc 1 167 22 is_stmt 0 view .LVU191
ARM GAS  /var/folders/ck/g3dcd5x55xs4107jgdl0snvr0000gn/T//cc438jkB.s 			page 15


 451 01ae 0768     		ldr	r7, [r0]	@ float
 167:DSP/Source/FilteringFunctions/arm_fir_interpolate_f32.c ****     *pStateCurnt++ = *pSrc++;
 452              		.loc 1 167 20 view .LVU192
 453 01b0 1760     		str	r7, [r2]	@ float
 168:DSP/Source/FilteringFunctions/arm_fir_interpolate_f32.c ****     *pStateCurnt++ = *pSrc++;
 454              		.loc 1 168 5 is_stmt 1 view .LVU193
 455              	.LVL81:
 168:DSP/Source/FilteringFunctions/arm_fir_interpolate_f32.c ****     *pStateCurnt++ = *pSrc++;
 456              		.loc 1 168 22 is_stmt 0 view .LVU194
 457 01b2 4768     		ldr	r7, [r0, #4]	@ float
 168:DSP/Source/FilteringFunctions/arm_fir_interpolate_f32.c ****     *pStateCurnt++ = *pSrc++;
 458              		.loc 1 168 20 view .LVU195
 459 01b4 5760     		str	r7, [r2, #4]	@ float
 169:DSP/Source/FilteringFunctions/arm_fir_interpolate_f32.c ****     *pStateCurnt++ = *pSrc++;
 460              		.loc 1 169 5 is_stmt 1 view .LVU196
 461              	.LVL82:
 169:DSP/Source/FilteringFunctions/arm_fir_interpolate_f32.c ****     *pStateCurnt++ = *pSrc++;
 462              		.loc 1 169 22 is_stmt 0 view .LVU197
 463 01b6 8768     		ldr	r7, [r0, #8]	@ float
 169:DSP/Source/FilteringFunctions/arm_fir_interpolate_f32.c ****     *pStateCurnt++ = *pSrc++;
 464              		.loc 1 169 20 view .LVU198
 465 01b8 9760     		str	r7, [r2, #8]	@ float
 170:DSP/Source/FilteringFunctions/arm_fir_interpolate_f32.c **** 
 466              		.loc 1 170 5 is_stmt 1 view .LVU199
 170:DSP/Source/FilteringFunctions/arm_fir_interpolate_f32.c **** 
 467              		.loc 1 170 27 is_stmt 0 view .LVU200
 468 01ba 00F1100C 		add	ip, r0, #16
 469              	.LVL83:
 170:DSP/Source/FilteringFunctions/arm_fir_interpolate_f32.c **** 
 470              		.loc 1 170 17 view .LVU201
 471 01be 02F1100A 		add	r10, r2, #16
 472              	.LVL84:
 170:DSP/Source/FilteringFunctions/arm_fir_interpolate_f32.c **** 
 473              		.loc 1 170 22 view .LVU202
 474 01c2 C068     		ldr	r0, [r0, #12]	@ float
 170:DSP/Source/FilteringFunctions/arm_fir_interpolate_f32.c **** 
 475              		.loc 1 170 20 view .LVU203
 476 01c4 D060     		str	r0, [r2, #12]	@ float
 173:DSP/Source/FilteringFunctions/arm_fir_interpolate_f32.c **** 
 477              		.loc 1 173 5 is_stmt 1 view .LVU204
 478              	.LVL85:
 176:DSP/Source/FilteringFunctions/arm_fir_interpolate_f32.c **** 
 479              		.loc 1 176 5 view .LVU205
 176:DSP/Source/FilteringFunctions/arm_fir_interpolate_f32.c **** 
 480              		.loc 1 176 11 is_stmt 0 view .LVU206
 481 01c6 2A78     		ldrb	r2, [r5]	@ zero_extendqisi2
 482              	.LVL86:
 178:DSP/Source/FilteringFunctions/arm_fir_interpolate_f32.c ****     {
 483              		.loc 1 178 5 is_stmt 1 view .LVU207
 173:DSP/Source/FilteringFunctions/arm_fir_interpolate_f32.c **** 
 484              		.loc 1 173 7 is_stmt 0 view .LVU208
 485 01c8 4FF00108 		mov	r8, #1
 486 01cc 8B46     		mov	fp, r1
 178:DSP/Source/FilteringFunctions/arm_fir_interpolate_f32.c ****     {
 487              		.loc 1 178 11 view .LVU209
 488 01ce CAE7     		b	.L3
 489              	.LVL87:
ARM GAS  /var/folders/ck/g3dcd5x55xs4107jgdl0snvr0000gn/T//cc438jkB.s 			page 16


 490              	.L24:
 178:DSP/Source/FilteringFunctions/arm_fir_interpolate_f32.c ****     {
 491              		.loc 1 178 11 view .LVU210
 492 01d0 019B     		ldr	r3, [sp, #4]
 493 01d2 9046     		mov	r8, r2
 494 01d4 9B46     		mov	fp, r3
 495 01d6 8246     		mov	r10, r0
 496 01d8 50E0     		b	.L10
 497              	.LVL88:
 498              	.L13:
 314:DSP/Source/FilteringFunctions/arm_fir_interpolate_f32.c ****   }
 315:DSP/Source/FilteringFunctions/arm_fir_interpolate_f32.c **** 
 316:DSP/Source/FilteringFunctions/arm_fir_interpolate_f32.c ****   /* If the blockSize is not a multiple of 4, compute any remaining output samples here.
 317:DSP/Source/FilteringFunctions/arm_fir_interpolate_f32.c ****    ** No loop unrolling is used. */
 318:DSP/Source/FilteringFunctions/arm_fir_interpolate_f32.c **** 
 319:DSP/Source/FilteringFunctions/arm_fir_interpolate_f32.c ****   while (blkCntN4 > 0U)
 320:DSP/Source/FilteringFunctions/arm_fir_interpolate_f32.c ****   {
 321:DSP/Source/FilteringFunctions/arm_fir_interpolate_f32.c ****     /* Copy new input sample into the state buffer */
 322:DSP/Source/FilteringFunctions/arm_fir_interpolate_f32.c ****     *pStateCurnt++ = *pSrc++;
 323:DSP/Source/FilteringFunctions/arm_fir_interpolate_f32.c **** 
 324:DSP/Source/FilteringFunctions/arm_fir_interpolate_f32.c ****     /* Address modifier index of coefficient buffer */
 325:DSP/Source/FilteringFunctions/arm_fir_interpolate_f32.c ****     j = 1U;
 326:DSP/Source/FilteringFunctions/arm_fir_interpolate_f32.c **** 
 327:DSP/Source/FilteringFunctions/arm_fir_interpolate_f32.c ****     /* Loop over the Interpolation factor. */
 328:DSP/Source/FilteringFunctions/arm_fir_interpolate_f32.c ****     i = S->L;
 329:DSP/Source/FilteringFunctions/arm_fir_interpolate_f32.c ****     while (i > 0U)
 330:DSP/Source/FilteringFunctions/arm_fir_interpolate_f32.c ****     {
 331:DSP/Source/FilteringFunctions/arm_fir_interpolate_f32.c ****       /* Set accumulator to zero */
 332:DSP/Source/FilteringFunctions/arm_fir_interpolate_f32.c ****       sum0 = 0.0f;
 333:DSP/Source/FilteringFunctions/arm_fir_interpolate_f32.c **** 
 334:DSP/Source/FilteringFunctions/arm_fir_interpolate_f32.c ****       /* Initialize state pointer */
 335:DSP/Source/FilteringFunctions/arm_fir_interpolate_f32.c ****       ptr1 = pState;
 336:DSP/Source/FilteringFunctions/arm_fir_interpolate_f32.c **** 
 337:DSP/Source/FilteringFunctions/arm_fir_interpolate_f32.c ****       /* Initialize coefficient pointer */
 338:DSP/Source/FilteringFunctions/arm_fir_interpolate_f32.c ****       ptr2 = pCoeffs + (S->L - j);
 339:DSP/Source/FilteringFunctions/arm_fir_interpolate_f32.c **** 
 340:DSP/Source/FilteringFunctions/arm_fir_interpolate_f32.c ****       /* Loop over the polyPhase length. Unroll by a factor of 4.
 341:DSP/Source/FilteringFunctions/arm_fir_interpolate_f32.c ****        ** Repeat until we've computed numTaps-(4*S->L) coefficients. */
 342:DSP/Source/FilteringFunctions/arm_fir_interpolate_f32.c ****       tapCnt = phaseLen >> 2U;
 343:DSP/Source/FilteringFunctions/arm_fir_interpolate_f32.c ****       while (tapCnt > 0U)
 344:DSP/Source/FilteringFunctions/arm_fir_interpolate_f32.c ****       {
 345:DSP/Source/FilteringFunctions/arm_fir_interpolate_f32.c **** 
 346:DSP/Source/FilteringFunctions/arm_fir_interpolate_f32.c ****         /* Read the coefficient */
 347:DSP/Source/FilteringFunctions/arm_fir_interpolate_f32.c ****         c0 = *(ptr2);
 499              		.loc 1 347 9 is_stmt 1 view .LVU211
 500              		.loc 1 347 12 is_stmt 0 view .LVU212
 501 01da 92ED007A 		vldr.32	s14, [r2]
 502              	.LVL89:
 348:DSP/Source/FilteringFunctions/arm_fir_interpolate_f32.c **** 
 349:DSP/Source/FilteringFunctions/arm_fir_interpolate_f32.c ****         /* Upsampling is done by stuffing L-1 zeros between each sample.
 350:DSP/Source/FilteringFunctions/arm_fir_interpolate_f32.c ****          * So instead of multiplying zeros with coefficients,
 351:DSP/Source/FilteringFunctions/arm_fir_interpolate_f32.c ****          * Increment the coefficient pointer by interpolation factor times. */
 352:DSP/Source/FilteringFunctions/arm_fir_interpolate_f32.c ****         ptr2 += S->L;
 503              		.loc 1 352 9 is_stmt 1 view .LVU213
 504              		.loc 1 352 14 is_stmt 0 view .LVU214
 505 01de 02EB8002 		add	r2, r2, r0, lsl #2
 506              	.LVL90:
ARM GAS  /var/folders/ck/g3dcd5x55xs4107jgdl0snvr0000gn/T//cc438jkB.s 			page 17


 353:DSP/Source/FilteringFunctions/arm_fir_interpolate_f32.c **** 
 354:DSP/Source/FilteringFunctions/arm_fir_interpolate_f32.c ****         /* Read the input sample */
 355:DSP/Source/FilteringFunctions/arm_fir_interpolate_f32.c ****         x0 = *(ptr1++);
 507              		.loc 1 355 9 is_stmt 1 view .LVU215
 508              		.loc 1 355 12 is_stmt 0 view .LVU216
 509 01e2 D1ED006A 		vldr.32	s13, [r1]
 510              	.LVL91:
 356:DSP/Source/FilteringFunctions/arm_fir_interpolate_f32.c **** 
 357:DSP/Source/FilteringFunctions/arm_fir_interpolate_f32.c ****         /* Perform the multiply-accumulate */
 358:DSP/Source/FilteringFunctions/arm_fir_interpolate_f32.c ****         sum0 += x0 * c0;
 511              		.loc 1 358 9 is_stmt 1 view .LVU217
 512              		.loc 1 358 20 is_stmt 0 view .LVU218
 513 01e6 27EE267A 		vmul.f32	s14, s14, s13
 514              	.LVL92:
 515              		.loc 1 358 14 view .LVU219
 516 01ea 37EE277A 		vadd.f32	s14, s14, s15
 517              	.LVL93:
 359:DSP/Source/FilteringFunctions/arm_fir_interpolate_f32.c **** 
 360:DSP/Source/FilteringFunctions/arm_fir_interpolate_f32.c ****         /* Read the coefficient */
 361:DSP/Source/FilteringFunctions/arm_fir_interpolate_f32.c ****         c0 = *(ptr2);
 518              		.loc 1 361 9 is_stmt 1 view .LVU220
 519              		.loc 1 361 12 is_stmt 0 view .LVU221
 520 01ee D2ED007A 		vldr.32	s15, [r2]
 521              	.LVL94:
 362:DSP/Source/FilteringFunctions/arm_fir_interpolate_f32.c **** 
 363:DSP/Source/FilteringFunctions/arm_fir_interpolate_f32.c ****         /* Increment the coefficient pointer by interpolation factor times. */
 364:DSP/Source/FilteringFunctions/arm_fir_interpolate_f32.c ****         ptr2 += S->L;
 522              		.loc 1 364 9 is_stmt 1 view .LVU222
 523              		.loc 1 364 14 is_stmt 0 view .LVU223
 524 01f2 02EB8002 		add	r2, r2, r0, lsl #2
 525              	.LVL95:
 365:DSP/Source/FilteringFunctions/arm_fir_interpolate_f32.c **** 
 366:DSP/Source/FilteringFunctions/arm_fir_interpolate_f32.c ****         /* Read the input sample */
 367:DSP/Source/FilteringFunctions/arm_fir_interpolate_f32.c ****         x0 = *(ptr1++);
 526              		.loc 1 367 9 is_stmt 1 view .LVU224
 527              		.loc 1 367 12 is_stmt 0 view .LVU225
 528 01f6 D1ED016A 		vldr.32	s13, [r1, #4]
 529              	.LVL96:
 368:DSP/Source/FilteringFunctions/arm_fir_interpolate_f32.c **** 
 369:DSP/Source/FilteringFunctions/arm_fir_interpolate_f32.c ****         /* Perform the multiply-accumulate */
 370:DSP/Source/FilteringFunctions/arm_fir_interpolate_f32.c ****         sum0 += x0 * c0;
 530              		.loc 1 370 9 is_stmt 1 view .LVU226
 531              		.loc 1 370 20 is_stmt 0 view .LVU227
 532 01fa 67EEA67A 		vmul.f32	s15, s15, s13
 533              	.LVL97:
 534              		.loc 1 370 14 view .LVU228
 535 01fe 77EE877A 		vadd.f32	s15, s15, s14
 536              	.LVL98:
 371:DSP/Source/FilteringFunctions/arm_fir_interpolate_f32.c **** 
 372:DSP/Source/FilteringFunctions/arm_fir_interpolate_f32.c ****         /* Read the coefficient */
 373:DSP/Source/FilteringFunctions/arm_fir_interpolate_f32.c ****         c0 = *(ptr2);
 537              		.loc 1 373 9 is_stmt 1 view .LVU229
 538              		.loc 1 373 12 is_stmt 0 view .LVU230
 539 0202 92ED007A 		vldr.32	s14, [r2]
 540              	.LVL99:
 374:DSP/Source/FilteringFunctions/arm_fir_interpolate_f32.c **** 
 375:DSP/Source/FilteringFunctions/arm_fir_interpolate_f32.c ****         /* Increment the coefficient pointer by interpolation factor times. */
ARM GAS  /var/folders/ck/g3dcd5x55xs4107jgdl0snvr0000gn/T//cc438jkB.s 			page 18


 376:DSP/Source/FilteringFunctions/arm_fir_interpolate_f32.c ****         ptr2 += S->L;
 541              		.loc 1 376 9 is_stmt 1 view .LVU231
 542              		.loc 1 376 14 is_stmt 0 view .LVU232
 543 0206 02EB8002 		add	r2, r2, r0, lsl #2
 544              	.LVL100:
 377:DSP/Source/FilteringFunctions/arm_fir_interpolate_f32.c **** 
 378:DSP/Source/FilteringFunctions/arm_fir_interpolate_f32.c ****         /* Read the input sample */
 379:DSP/Source/FilteringFunctions/arm_fir_interpolate_f32.c ****         x0 = *(ptr1++);
 545              		.loc 1 379 9 is_stmt 1 view .LVU233
 546              		.loc 1 379 12 is_stmt 0 view .LVU234
 547 020a D1ED026A 		vldr.32	s13, [r1, #8]
 548              	.LVL101:
 380:DSP/Source/FilteringFunctions/arm_fir_interpolate_f32.c **** 
 381:DSP/Source/FilteringFunctions/arm_fir_interpolate_f32.c ****         /* Perform the multiply-accumulate */
 382:DSP/Source/FilteringFunctions/arm_fir_interpolate_f32.c ****         sum0 += x0 * c0;
 549              		.loc 1 382 9 is_stmt 1 view .LVU235
 550              		.loc 1 382 20 is_stmt 0 view .LVU236
 551 020e 27EE267A 		vmul.f32	s14, s14, s13
 552              	.LVL102:
 553              		.loc 1 382 14 view .LVU237
 554 0212 37EE277A 		vadd.f32	s14, s14, s15
 555              	.LVL103:
 383:DSP/Source/FilteringFunctions/arm_fir_interpolate_f32.c **** 
 384:DSP/Source/FilteringFunctions/arm_fir_interpolate_f32.c ****         /* Read the coefficient */
 385:DSP/Source/FilteringFunctions/arm_fir_interpolate_f32.c ****         c0 = *(ptr2);
 556              		.loc 1 385 9 is_stmt 1 view .LVU238
 557              		.loc 1 385 12 is_stmt 0 view .LVU239
 558 0216 D2ED007A 		vldr.32	s15, [r2]
 559              	.LVL104:
 386:DSP/Source/FilteringFunctions/arm_fir_interpolate_f32.c **** 
 387:DSP/Source/FilteringFunctions/arm_fir_interpolate_f32.c ****         /* Increment the coefficient pointer by interpolation factor times. */
 388:DSP/Source/FilteringFunctions/arm_fir_interpolate_f32.c ****         ptr2 += S->L;
 560              		.loc 1 388 9 is_stmt 1 view .LVU240
 561              		.loc 1 388 14 is_stmt 0 view .LVU241
 562 021a 02EB8002 		add	r2, r2, r0, lsl #2
 563              	.LVL105:
 389:DSP/Source/FilteringFunctions/arm_fir_interpolate_f32.c **** 
 390:DSP/Source/FilteringFunctions/arm_fir_interpolate_f32.c ****         /* Read the input sample */
 391:DSP/Source/FilteringFunctions/arm_fir_interpolate_f32.c ****         x0 = *(ptr1++);
 564              		.loc 1 391 9 is_stmt 1 view .LVU242
 565              		.loc 1 391 12 is_stmt 0 view .LVU243
 566 021e D1ED036A 		vldr.32	s13, [r1, #12]
 567              	.LVL106:
 392:DSP/Source/FilteringFunctions/arm_fir_interpolate_f32.c **** 
 393:DSP/Source/FilteringFunctions/arm_fir_interpolate_f32.c ****         /* Perform the multiply-accumulate */
 394:DSP/Source/FilteringFunctions/arm_fir_interpolate_f32.c ****         sum0 += x0 * c0;
 568              		.loc 1 394 9 is_stmt 1 view .LVU244
 569              		.loc 1 394 20 is_stmt 0 view .LVU245
 570 0222 67EEA67A 		vmul.f32	s15, s15, s13
 571              	.LVL107:
 572              		.loc 1 394 14 view .LVU246
 573 0226 77EE877A 		vadd.f32	s15, s15, s14
 574              	.LVL108:
 395:DSP/Source/FilteringFunctions/arm_fir_interpolate_f32.c **** 
 396:DSP/Source/FilteringFunctions/arm_fir_interpolate_f32.c ****         /* Decrement the loop counter */
 397:DSP/Source/FilteringFunctions/arm_fir_interpolate_f32.c ****         tapCnt--;
 575              		.loc 1 397 9 is_stmt 1 view .LVU247
ARM GAS  /var/folders/ck/g3dcd5x55xs4107jgdl0snvr0000gn/T//cc438jkB.s 			page 19


 576              		.loc 1 397 15 is_stmt 0 view .LVU248
 577 022a 013F     		subs	r7, r7, #1
 578              	.LVL109:
 579              		.loc 1 397 15 view .LVU249
 580 022c BFB2     		uxth	r7, r7
 581              	.LVL110:
 391:DSP/Source/FilteringFunctions/arm_fir_interpolate_f32.c **** 
 582              		.loc 1 391 20 view .LVU250
 583 022e 1031     		adds	r1, r1, #16
 584              	.LVL111:
 585              	.L12:
 343:DSP/Source/FilteringFunctions/arm_fir_interpolate_f32.c ****       {
 586              		.loc 1 343 21 is_stmt 1 view .LVU251
 587 0230 002F     		cmp	r7, #0
 588 0232 D2D1     		bne	.L13
 398:DSP/Source/FilteringFunctions/arm_fir_interpolate_f32.c ****       }
 399:DSP/Source/FilteringFunctions/arm_fir_interpolate_f32.c **** 
 400:DSP/Source/FilteringFunctions/arm_fir_interpolate_f32.c ****       /* If the polyPhase length is not a multiple of 4, compute the remaining filter taps */
 401:DSP/Source/FilteringFunctions/arm_fir_interpolate_f32.c ****       tapCnt = phaseLen % 0x4U;
 589              		.loc 1 401 7 view .LVU252
 590              		.loc 1 401 14 is_stmt 0 view .LVU253
 591 0234 06F00307 		and	r7, r6, #3
 592              	.LVL112:
 402:DSP/Source/FilteringFunctions/arm_fir_interpolate_f32.c **** 
 403:DSP/Source/FilteringFunctions/arm_fir_interpolate_f32.c ****       while (tapCnt > 0U)
 593              		.loc 1 403 7 is_stmt 1 view .LVU254
 594              		.loc 1 403 13 is_stmt 0 view .LVU255
 595 0238 0BE0     		b	.L14
 596              	.L15:
 404:DSP/Source/FilteringFunctions/arm_fir_interpolate_f32.c ****       {
 405:DSP/Source/FilteringFunctions/arm_fir_interpolate_f32.c ****         /* Perform the multiply-accumulate */
 406:DSP/Source/FilteringFunctions/arm_fir_interpolate_f32.c ****         sum0 += *(ptr1++) * (*ptr2);
 597              		.loc 1 406 9 is_stmt 1 view .LVU256
 598              	.LVL113:
 599              		.loc 1 406 17 is_stmt 0 view .LVU257
 600 023a B1EC017A 		vldmia.32	r1!, {s14}
 601              	.LVL114:
 602              		.loc 1 406 30 view .LVU258
 603 023e D2ED006A 		vldr.32	s13, [r2]
 604              		.loc 1 406 27 view .LVU259
 605 0242 27EE267A 		vmul.f32	s14, s14, s13
 606              		.loc 1 406 14 view .LVU260
 607 0246 77EE877A 		vadd.f32	s15, s15, s14
 608              	.LVL115:
 407:DSP/Source/FilteringFunctions/arm_fir_interpolate_f32.c **** 
 408:DSP/Source/FilteringFunctions/arm_fir_interpolate_f32.c ****         /* Increment the coefficient pointer by interpolation factor times. */
 409:DSP/Source/FilteringFunctions/arm_fir_interpolate_f32.c ****         ptr2 += S->L;
 609              		.loc 1 409 9 is_stmt 1 view .LVU261
 610              		.loc 1 409 14 is_stmt 0 view .LVU262
 611 024a 02EB8002 		add	r2, r2, r0, lsl #2
 612              	.LVL116:
 410:DSP/Source/FilteringFunctions/arm_fir_interpolate_f32.c **** 
 411:DSP/Source/FilteringFunctions/arm_fir_interpolate_f32.c ****         /* Decrement the loop counter */
 412:DSP/Source/FilteringFunctions/arm_fir_interpolate_f32.c ****         tapCnt--;
 613              		.loc 1 412 9 is_stmt 1 view .LVU263
 614              		.loc 1 412 15 is_stmt 0 view .LVU264
 615 024e 013F     		subs	r7, r7, #1
ARM GAS  /var/folders/ck/g3dcd5x55xs4107jgdl0snvr0000gn/T//cc438jkB.s 			page 20


 616              	.LVL117:
 617              		.loc 1 412 15 view .LVU265
 618 0250 BFB2     		uxth	r7, r7
 619              	.LVL118:
 620              	.L14:
 403:DSP/Source/FilteringFunctions/arm_fir_interpolate_f32.c ****       {
 621              		.loc 1 403 21 is_stmt 1 view .LVU266
 622 0252 002F     		cmp	r7, #0
 623 0254 F1D1     		bne	.L15
 413:DSP/Source/FilteringFunctions/arm_fir_interpolate_f32.c ****       }
 414:DSP/Source/FilteringFunctions/arm_fir_interpolate_f32.c **** 
 415:DSP/Source/FilteringFunctions/arm_fir_interpolate_f32.c ****       /* The result is in the accumulator, store in the destination buffer. */
 416:DSP/Source/FilteringFunctions/arm_fir_interpolate_f32.c ****       *pDst++ = sum0;
 624              		.loc 1 416 7 view .LVU267
 625              	.LVL119:
 626              		.loc 1 416 15 is_stmt 0 view .LVU268
 627 0256 EEEC017A 		vstmia.32	lr!, {s15}
 628              	.LVL120:
 417:DSP/Source/FilteringFunctions/arm_fir_interpolate_f32.c **** 
 418:DSP/Source/FilteringFunctions/arm_fir_interpolate_f32.c ****       /* Increment the address modifier index of coefficient buffer */
 419:DSP/Source/FilteringFunctions/arm_fir_interpolate_f32.c ****       j++;
 629              		.loc 1 419 7 is_stmt 1 view .LVU269
 630              		.loc 1 419 8 is_stmt 0 view .LVU270
 631 025a 0CF1010C 		add	ip, ip, #1
 632              	.LVL121:
 420:DSP/Source/FilteringFunctions/arm_fir_interpolate_f32.c **** 
 421:DSP/Source/FilteringFunctions/arm_fir_interpolate_f32.c ****       /* Decrement the loop counter */
 422:DSP/Source/FilteringFunctions/arm_fir_interpolate_f32.c ****       i--;
 633              		.loc 1 422 7 is_stmt 1 view .LVU271
 634              		.loc 1 422 8 is_stmt 0 view .LVU272
 635 025e 013B     		subs	r3, r3, #1
 636              	.LVL122:
 637              	.L11:
 329:DSP/Source/FilteringFunctions/arm_fir_interpolate_f32.c ****     {
 638              		.loc 1 329 14 is_stmt 1 view .LVU273
 639 0260 4BB1     		cbz	r3, .L25
 332:DSP/Source/FilteringFunctions/arm_fir_interpolate_f32.c **** 
 640              		.loc 1 332 7 view .LVU274
 641              	.LVL123:
 335:DSP/Source/FilteringFunctions/arm_fir_interpolate_f32.c **** 
 642              		.loc 1 335 7 view .LVU275
 338:DSP/Source/FilteringFunctions/arm_fir_interpolate_f32.c **** 
 643              		.loc 1 338 7 view .LVU276
 338:DSP/Source/FilteringFunctions/arm_fir_interpolate_f32.c **** 
 644              		.loc 1 338 26 is_stmt 0 view .LVU277
 645 0262 2878     		ldrb	r0, [r5]	@ zero_extendqisi2
 338:DSP/Source/FilteringFunctions/arm_fir_interpolate_f32.c **** 
 646              		.loc 1 338 30 view .LVU278
 647 0264 A0EB0C02 		sub	r2, r0, ip
 338:DSP/Source/FilteringFunctions/arm_fir_interpolate_f32.c **** 
 648              		.loc 1 338 12 view .LVU279
 649 0268 09EB8202 		add	r2, r9, r2, lsl #2
 650              	.LVL124:
 342:DSP/Source/FilteringFunctions/arm_fir_interpolate_f32.c ****       while (tapCnt > 0U)
 651              		.loc 1 342 7 is_stmt 1 view .LVU280
 342:DSP/Source/FilteringFunctions/arm_fir_interpolate_f32.c ****       while (tapCnt > 0U)
 652              		.loc 1 342 14 is_stmt 0 view .LVU281
ARM GAS  /var/folders/ck/g3dcd5x55xs4107jgdl0snvr0000gn/T//cc438jkB.s 			page 21


 653 026c B708     		lsrs	r7, r6, #2
 654              	.LVL125:
 343:DSP/Source/FilteringFunctions/arm_fir_interpolate_f32.c ****       {
 655              		.loc 1 343 7 is_stmt 1 view .LVU282
 335:DSP/Source/FilteringFunctions/arm_fir_interpolate_f32.c **** 
 656              		.loc 1 335 12 is_stmt 0 view .LVU283
 657 026e 2146     		mov	r1, r4
 332:DSP/Source/FilteringFunctions/arm_fir_interpolate_f32.c **** 
 658              		.loc 1 332 12 view .LVU284
 659 0270 DFED197A 		vldr.32	s15, .L27
 343:DSP/Source/FilteringFunctions/arm_fir_interpolate_f32.c ****       {
 660              		.loc 1 343 13 view .LVU285
 661 0274 DCE7     		b	.L12
 662              	.LVL126:
 663              	.L25:
 423:DSP/Source/FilteringFunctions/arm_fir_interpolate_f32.c ****     }
 424:DSP/Source/FilteringFunctions/arm_fir_interpolate_f32.c **** 
 425:DSP/Source/FilteringFunctions/arm_fir_interpolate_f32.c ****     /* Advance the state pointer by 1
 426:DSP/Source/FilteringFunctions/arm_fir_interpolate_f32.c ****      * to process the next group of interpolation factor number samples */
 427:DSP/Source/FilteringFunctions/arm_fir_interpolate_f32.c ****     pState = pState + 1;
 664              		.loc 1 427 5 is_stmt 1 view .LVU286
 665              		.loc 1 427 12 is_stmt 0 view .LVU287
 666 0276 0434     		adds	r4, r4, #4
 667              	.LVL127:
 428:DSP/Source/FilteringFunctions/arm_fir_interpolate_f32.c **** 
 429:DSP/Source/FilteringFunctions/arm_fir_interpolate_f32.c ****     /* Decrement the loop counter */
 430:DSP/Source/FilteringFunctions/arm_fir_interpolate_f32.c ****     blkCntN4--;
 668              		.loc 1 430 5 is_stmt 1 view .LVU288
 669              		.loc 1 430 13 is_stmt 0 view .LVU289
 670 0278 0BF1FF3B 		add	fp, fp, #-1
 671              	.LVL128:
 672              	.L10:
 319:DSP/Source/FilteringFunctions/arm_fir_interpolate_f32.c ****   {
 673              		.loc 1 319 19 is_stmt 1 view .LVU290
 674 027c BBF1000F 		cmp	fp, #0
 675 0280 07D0     		beq	.L26
 322:DSP/Source/FilteringFunctions/arm_fir_interpolate_f32.c **** 
 676              		.loc 1 322 5 view .LVU291
 677              	.LVL129:
 322:DSP/Source/FilteringFunctions/arm_fir_interpolate_f32.c **** 
 678              		.loc 1 322 22 is_stmt 0 view .LVU292
 679 0282 5AF8043B 		ldr	r3, [r10], #4	@ float
 680              	.LVL130:
 322:DSP/Source/FilteringFunctions/arm_fir_interpolate_f32.c **** 
 681              		.loc 1 322 20 view .LVU293
 682 0286 48F8043B 		str	r3, [r8], #4	@ float
 683              	.LVL131:
 325:DSP/Source/FilteringFunctions/arm_fir_interpolate_f32.c **** 
 684              		.loc 1 325 5 is_stmt 1 view .LVU294
 328:DSP/Source/FilteringFunctions/arm_fir_interpolate_f32.c ****     while (i > 0U)
 685              		.loc 1 328 5 view .LVU295
 328:DSP/Source/FilteringFunctions/arm_fir_interpolate_f32.c ****     while (i > 0U)
 686              		.loc 1 328 10 is_stmt 0 view .LVU296
 687 028a 2B78     		ldrb	r3, [r5]	@ zero_extendqisi2
 688              	.LVL132:
 329:DSP/Source/FilteringFunctions/arm_fir_interpolate_f32.c ****     {
 689              		.loc 1 329 5 is_stmt 1 view .LVU297
ARM GAS  /var/folders/ck/g3dcd5x55xs4107jgdl0snvr0000gn/T//cc438jkB.s 			page 22


 325:DSP/Source/FilteringFunctions/arm_fir_interpolate_f32.c **** 
 690              		.loc 1 325 7 is_stmt 0 view .LVU298
 691 028c 4FF0010C 		mov	ip, #1
 329:DSP/Source/FilteringFunctions/arm_fir_interpolate_f32.c ****     {
 692              		.loc 1 329 11 view .LVU299
 693 0290 E6E7     		b	.L11
 694              	.LVL133:
 695              	.L26:
 431:DSP/Source/FilteringFunctions/arm_fir_interpolate_f32.c ****   }
 432:DSP/Source/FilteringFunctions/arm_fir_interpolate_f32.c **** 
 433:DSP/Source/FilteringFunctions/arm_fir_interpolate_f32.c ****   /* Processing is complete.
 434:DSP/Source/FilteringFunctions/arm_fir_interpolate_f32.c ****    ** Now copy the last phaseLen - 1 samples to the satrt of the state buffer.
 435:DSP/Source/FilteringFunctions/arm_fir_interpolate_f32.c ****    ** This prepares the state buffer for the next function call. */
 436:DSP/Source/FilteringFunctions/arm_fir_interpolate_f32.c **** 
 437:DSP/Source/FilteringFunctions/arm_fir_interpolate_f32.c ****   /* Points to the start of the state buffer */
 438:DSP/Source/FilteringFunctions/arm_fir_interpolate_f32.c ****   pStateCurnt = S->pState;
 696              		.loc 1 438 3 is_stmt 1 view .LVU300
 697              		.loc 1 438 15 is_stmt 0 view .LVU301
 698 0292 AA68     		ldr	r2, [r5, #8]
 699              	.LVL134:
 439:DSP/Source/FilteringFunctions/arm_fir_interpolate_f32.c **** 
 440:DSP/Source/FilteringFunctions/arm_fir_interpolate_f32.c ****   tapCnt = (phaseLen - 1U) >> 2U;
 700              		.loc 1 440 3 is_stmt 1 view .LVU302
 701              		.loc 1 440 22 is_stmt 0 view .LVU303
 702 0294 731E     		subs	r3, r6, #1
 703              		.loc 1 440 10 view .LVU304
 704 0296 C3F38F03 		ubfx	r3, r3, #2, #16
 705              	.LVL135:
 441:DSP/Source/FilteringFunctions/arm_fir_interpolate_f32.c **** 
 442:DSP/Source/FilteringFunctions/arm_fir_interpolate_f32.c ****   /* copy data */
 443:DSP/Source/FilteringFunctions/arm_fir_interpolate_f32.c ****   while (tapCnt > 0U)
 706              		.loc 1 443 3 is_stmt 1 view .LVU305
 707              		.loc 1 443 9 is_stmt 0 view .LVU306
 708 029a 0BE0     		b	.L18
 709              	.L19:
 444:DSP/Source/FilteringFunctions/arm_fir_interpolate_f32.c ****   {
 445:DSP/Source/FilteringFunctions/arm_fir_interpolate_f32.c ****     *pStateCurnt++ = *pState++;
 710              		.loc 1 445 5 is_stmt 1 view .LVU307
 711              	.LVL136:
 712              		.loc 1 445 22 is_stmt 0 view .LVU308
 713 029c 2168     		ldr	r1, [r4]	@ float
 714              		.loc 1 445 20 view .LVU309
 715 029e 1160     		str	r1, [r2]	@ float
 446:DSP/Source/FilteringFunctions/arm_fir_interpolate_f32.c ****     *pStateCurnt++ = *pState++;
 716              		.loc 1 446 5 is_stmt 1 view .LVU310
 717              	.LVL137:
 718              		.loc 1 446 22 is_stmt 0 view .LVU311
 719 02a0 6168     		ldr	r1, [r4, #4]	@ float
 720              		.loc 1 446 20 view .LVU312
 721 02a2 5160     		str	r1, [r2, #4]	@ float
 447:DSP/Source/FilteringFunctions/arm_fir_interpolate_f32.c ****     *pStateCurnt++ = *pState++;
 722              		.loc 1 447 5 is_stmt 1 view .LVU313
 723              	.LVL138:
 724              		.loc 1 447 22 is_stmt 0 view .LVU314
 725 02a4 A168     		ldr	r1, [r4, #8]	@ float
 726              		.loc 1 447 20 view .LVU315
 727 02a6 9160     		str	r1, [r2, #8]	@ float
ARM GAS  /var/folders/ck/g3dcd5x55xs4107jgdl0snvr0000gn/T//cc438jkB.s 			page 23


 448:DSP/Source/FilteringFunctions/arm_fir_interpolate_f32.c ****     *pStateCurnt++ = *pState++;
 728              		.loc 1 448 5 is_stmt 1 view .LVU316
 729              	.LVL139:
 730              		.loc 1 448 22 is_stmt 0 view .LVU317
 731 02a8 E168     		ldr	r1, [r4, #12]	@ float
 732              		.loc 1 448 20 view .LVU318
 733 02aa D160     		str	r1, [r2, #12]	@ float
 449:DSP/Source/FilteringFunctions/arm_fir_interpolate_f32.c **** 
 450:DSP/Source/FilteringFunctions/arm_fir_interpolate_f32.c ****     /* Decrement the loop counter */
 451:DSP/Source/FilteringFunctions/arm_fir_interpolate_f32.c ****     tapCnt--;
 734              		.loc 1 451 5 is_stmt 1 view .LVU319
 735              		.loc 1 451 11 is_stmt 0 view .LVU320
 736 02ac 013B     		subs	r3, r3, #1
 737              	.LVL140:
 738              		.loc 1 451 11 view .LVU321
 739 02ae 9BB2     		uxth	r3, r3
 740              	.LVL141:
 448:DSP/Source/FilteringFunctions/arm_fir_interpolate_f32.c ****     *pStateCurnt++ = *pState++;
 741              		.loc 1 448 17 view .LVU322
 742 02b0 1032     		adds	r2, r2, #16
 743              	.LVL142:
 448:DSP/Source/FilteringFunctions/arm_fir_interpolate_f32.c ****     *pStateCurnt++ = *pState++;
 744              		.loc 1 448 29 view .LVU323
 745 02b2 1034     		adds	r4, r4, #16
 746              	.LVL143:
 747              	.L18:
 443:DSP/Source/FilteringFunctions/arm_fir_interpolate_f32.c ****   {
 748              		.loc 1 443 17 is_stmt 1 view .LVU324
 749 02b4 002B     		cmp	r3, #0
 750 02b6 F1D1     		bne	.L19
 452:DSP/Source/FilteringFunctions/arm_fir_interpolate_f32.c ****   }
 453:DSP/Source/FilteringFunctions/arm_fir_interpolate_f32.c **** 
 454:DSP/Source/FilteringFunctions/arm_fir_interpolate_f32.c ****   tapCnt = (phaseLen - 1U) % 0x04U;
 751              		.loc 1 454 3 view .LVU325
 752              		.loc 1 454 22 is_stmt 0 view .LVU326
 753 02b8 731E     		subs	r3, r6, #1
 754              	.LVL144:
 755              		.loc 1 454 10 view .LVU327
 756 02ba 03F00303 		and	r3, r3, #3
 757              	.LVL145:
 455:DSP/Source/FilteringFunctions/arm_fir_interpolate_f32.c **** 
 456:DSP/Source/FilteringFunctions/arm_fir_interpolate_f32.c ****   /* copy data */
 457:DSP/Source/FilteringFunctions/arm_fir_interpolate_f32.c ****   while (tapCnt > 0U)
 758              		.loc 1 457 3 is_stmt 1 view .LVU328
 759 02be 2146     		mov	r1, r4
 760              		.loc 1 457 9 is_stmt 0 view .LVU329
 761 02c0 05E0     		b	.L20
 762              	.LVL146:
 763              	.L21:
 458:DSP/Source/FilteringFunctions/arm_fir_interpolate_f32.c ****   {
 459:DSP/Source/FilteringFunctions/arm_fir_interpolate_f32.c ****     *pStateCurnt++ = *pState++;
 764              		.loc 1 459 5 is_stmt 1 view .LVU330
 765              		.loc 1 459 22 is_stmt 0 view .LVU331
 766 02c2 51F8040B 		ldr	r0, [r1], #4	@ float
 767              	.LVL147:
 768              		.loc 1 459 20 view .LVU332
 769 02c6 42F8040B 		str	r0, [r2], #4	@ float
ARM GAS  /var/folders/ck/g3dcd5x55xs4107jgdl0snvr0000gn/T//cc438jkB.s 			page 24


 770              	.LVL148:
 460:DSP/Source/FilteringFunctions/arm_fir_interpolate_f32.c **** 
 461:DSP/Source/FilteringFunctions/arm_fir_interpolate_f32.c ****     /* Decrement the loop counter */
 462:DSP/Source/FilteringFunctions/arm_fir_interpolate_f32.c ****     tapCnt--;
 771              		.loc 1 462 5 is_stmt 1 view .LVU333
 772              		.loc 1 462 11 is_stmt 0 view .LVU334
 773 02ca 013B     		subs	r3, r3, #1
 774              	.LVL149:
 775              		.loc 1 462 11 view .LVU335
 776 02cc 9BB2     		uxth	r3, r3
 777              	.LVL150:
 778              	.L20:
 457:DSP/Source/FilteringFunctions/arm_fir_interpolate_f32.c ****   {
 779              		.loc 1 457 17 is_stmt 1 view .LVU336
 780 02ce 002B     		cmp	r3, #0
 781 02d0 F7D1     		bne	.L21
 463:DSP/Source/FilteringFunctions/arm_fir_interpolate_f32.c ****   }
 464:DSP/Source/FilteringFunctions/arm_fir_interpolate_f32.c **** }
 782              		.loc 1 464 1 is_stmt 0 view .LVU337
 783 02d2 03B0     		add	sp, sp, #12
 784              	.LCFI2:
 785              		.cfi_def_cfa_offset 36
 786              		@ sp needed
 787 02d4 BDE8F08F 		pop	{r4, r5, r6, r7, r8, r9, r10, fp, pc}
 788              	.LVL151:
 789              	.L28:
 790              		.loc 1 464 1 view .LVU338
 791              		.align	2
 792              	.L27:
 793 02d8 00000000 		.word	0
 794              		.cfi_endproc
 795              	.LFE139:
 797              		.text
 798              	.Letext0:
 799              		.file 2 "/Users/luban/.local/xPacks/arm-none-eabi-gcc/xpack-arm-none-eabi-gcc-13.2.1-1.1/arm-none-
 800              		.file 3 "/Users/luban/.local/xPacks/arm-none-eabi-gcc/xpack-arm-none-eabi-gcc-13.2.1-1.1/arm-none-
 801              		.file 4 "DSP/Inc/arm_math.h"
ARM GAS  /var/folders/ck/g3dcd5x55xs4107jgdl0snvr0000gn/T//cc438jkB.s 			page 25

