ARM GAS  /var/folders/ck/g3dcd5x55xs4107jgdl0snvr0000gn/T//ccJdIc6a.s 			page 1


   1              		.cpu cortex-m4
   2              		.arch armv7e-m
   3              		.fpu fpv4-sp-d16
   4              		.eabi_attribute 27, 1
   5              		.eabi_attribute 28, 1
   6              		.eabi_attribute 20, 1
   7              		.eabi_attribute 21, 1
   8              		.eabi_attribute 23, 3
   9              		.eabi_attribute 24, 1
  10              		.eabi_attribute 25, 1
  11              		.eabi_attribute 26, 1
  12              		.eabi_attribute 30, 1
  13              		.eabi_attribute 34, 1
  14              		.eabi_attribute 18, 4
  15              		.file	"arm_cfft_q31.c"
  16              		.text
  17              	.Ltext0:
  18              		.cfi_sections	.debug_frame
  19              		.file 1 "DSP/Source/TransformFunctions/arm_cfft_q31.c"
  20              		.section	.text.arm_cfft_radix4by2_q31,"ax",%progbits
  21              		.align	1
  22              		.global	arm_cfft_radix4by2_q31
  23              		.syntax unified
  24              		.thumb
  25              		.thumb_func
  27              	arm_cfft_radix4by2_q31:
  28              	.LVL0:
  29              	.LFB140:
   1:DSP/Source/TransformFunctions/arm_cfft_q31.c **** /* ----------------------------------------------------------------------
   2:DSP/Source/TransformFunctions/arm_cfft_q31.c ****  * Project:      CMSIS DSP Library
   3:DSP/Source/TransformFunctions/arm_cfft_q31.c ****  * Title:        arm_cfft_q31.c
   4:DSP/Source/TransformFunctions/arm_cfft_q31.c ****  * Description:  Combined Radix Decimation in Frequency CFFT fixed point processing function
   5:DSP/Source/TransformFunctions/arm_cfft_q31.c ****  *
   6:DSP/Source/TransformFunctions/arm_cfft_q31.c ****  * $Date:        27. January 2017
   7:DSP/Source/TransformFunctions/arm_cfft_q31.c ****  * $Revision:    V.1.5.1
   8:DSP/Source/TransformFunctions/arm_cfft_q31.c ****  *
   9:DSP/Source/TransformFunctions/arm_cfft_q31.c ****  * Target Processor: Cortex-M cores
  10:DSP/Source/TransformFunctions/arm_cfft_q31.c ****  * -------------------------------------------------------------------- */
  11:DSP/Source/TransformFunctions/arm_cfft_q31.c **** /*
  12:DSP/Source/TransformFunctions/arm_cfft_q31.c ****  * Copyright (C) 2010-2017 ARM Limited or its affiliates. All rights reserved.
  13:DSP/Source/TransformFunctions/arm_cfft_q31.c ****  *
  14:DSP/Source/TransformFunctions/arm_cfft_q31.c ****  * SPDX-License-Identifier: Apache-2.0
  15:DSP/Source/TransformFunctions/arm_cfft_q31.c ****  *
  16:DSP/Source/TransformFunctions/arm_cfft_q31.c ****  * Licensed under the Apache License, Version 2.0 (the License); you may
  17:DSP/Source/TransformFunctions/arm_cfft_q31.c ****  * not use this file except in compliance with the License.
  18:DSP/Source/TransformFunctions/arm_cfft_q31.c ****  * You may obtain a copy of the License at
  19:DSP/Source/TransformFunctions/arm_cfft_q31.c ****  *
  20:DSP/Source/TransformFunctions/arm_cfft_q31.c ****  * www.apache.org/licenses/LICENSE-2.0
  21:DSP/Source/TransformFunctions/arm_cfft_q31.c ****  *
  22:DSP/Source/TransformFunctions/arm_cfft_q31.c ****  * Unless required by applicable law or agreed to in writing, software
  23:DSP/Source/TransformFunctions/arm_cfft_q31.c ****  * distributed under the License is distributed on an AS IS BASIS, WITHOUT
  24:DSP/Source/TransformFunctions/arm_cfft_q31.c ****  * WARRANTIES OR CONDITIONS OF ANY KIND, either express or implied.
  25:DSP/Source/TransformFunctions/arm_cfft_q31.c ****  * See the License for the specific language governing permissions and
  26:DSP/Source/TransformFunctions/arm_cfft_q31.c ****  * limitations under the License.
  27:DSP/Source/TransformFunctions/arm_cfft_q31.c ****  */
  28:DSP/Source/TransformFunctions/arm_cfft_q31.c **** 
  29:DSP/Source/TransformFunctions/arm_cfft_q31.c **** #include "arm_math.h"
ARM GAS  /var/folders/ck/g3dcd5x55xs4107jgdl0snvr0000gn/T//ccJdIc6a.s 			page 2


  30:DSP/Source/TransformFunctions/arm_cfft_q31.c **** 
  31:DSP/Source/TransformFunctions/arm_cfft_q31.c **** extern void arm_radix4_butterfly_q31(
  32:DSP/Source/TransformFunctions/arm_cfft_q31.c ****     q31_t * pSrc,
  33:DSP/Source/TransformFunctions/arm_cfft_q31.c ****     uint32_t fftLen,
  34:DSP/Source/TransformFunctions/arm_cfft_q31.c ****     q31_t * pCoef,
  35:DSP/Source/TransformFunctions/arm_cfft_q31.c ****     uint32_t twidCoefModifier);
  36:DSP/Source/TransformFunctions/arm_cfft_q31.c **** 
  37:DSP/Source/TransformFunctions/arm_cfft_q31.c **** extern void arm_radix4_butterfly_inverse_q31(
  38:DSP/Source/TransformFunctions/arm_cfft_q31.c ****     q31_t * pSrc,
  39:DSP/Source/TransformFunctions/arm_cfft_q31.c ****     uint32_t fftLen,
  40:DSP/Source/TransformFunctions/arm_cfft_q31.c ****     q31_t * pCoef,
  41:DSP/Source/TransformFunctions/arm_cfft_q31.c ****     uint32_t twidCoefModifier);
  42:DSP/Source/TransformFunctions/arm_cfft_q31.c **** 
  43:DSP/Source/TransformFunctions/arm_cfft_q31.c **** extern void arm_bitreversal_32(
  44:DSP/Source/TransformFunctions/arm_cfft_q31.c ****     uint32_t * pSrc,
  45:DSP/Source/TransformFunctions/arm_cfft_q31.c ****     const uint16_t bitRevLen,
  46:DSP/Source/TransformFunctions/arm_cfft_q31.c ****     const uint16_t * pBitRevTable);
  47:DSP/Source/TransformFunctions/arm_cfft_q31.c **** 
  48:DSP/Source/TransformFunctions/arm_cfft_q31.c **** void arm_cfft_radix4by2_q31(
  49:DSP/Source/TransformFunctions/arm_cfft_q31.c ****     q31_t * pSrc,
  50:DSP/Source/TransformFunctions/arm_cfft_q31.c ****     uint32_t fftLen,
  51:DSP/Source/TransformFunctions/arm_cfft_q31.c ****     const q31_t * pCoef);
  52:DSP/Source/TransformFunctions/arm_cfft_q31.c **** 
  53:DSP/Source/TransformFunctions/arm_cfft_q31.c **** void arm_cfft_radix4by2_inverse_q31(
  54:DSP/Source/TransformFunctions/arm_cfft_q31.c ****     q31_t * pSrc,
  55:DSP/Source/TransformFunctions/arm_cfft_q31.c ****     uint32_t fftLen,
  56:DSP/Source/TransformFunctions/arm_cfft_q31.c ****     const q31_t * pCoef);
  57:DSP/Source/TransformFunctions/arm_cfft_q31.c **** 
  58:DSP/Source/TransformFunctions/arm_cfft_q31.c **** /**
  59:DSP/Source/TransformFunctions/arm_cfft_q31.c **** * @ingroup groupTransforms
  60:DSP/Source/TransformFunctions/arm_cfft_q31.c **** */
  61:DSP/Source/TransformFunctions/arm_cfft_q31.c **** 
  62:DSP/Source/TransformFunctions/arm_cfft_q31.c **** /**
  63:DSP/Source/TransformFunctions/arm_cfft_q31.c **** * @addtogroup ComplexFFT
  64:DSP/Source/TransformFunctions/arm_cfft_q31.c **** * @{
  65:DSP/Source/TransformFunctions/arm_cfft_q31.c **** */
  66:DSP/Source/TransformFunctions/arm_cfft_q31.c **** 
  67:DSP/Source/TransformFunctions/arm_cfft_q31.c **** /**
  68:DSP/Source/TransformFunctions/arm_cfft_q31.c **** * @details
  69:DSP/Source/TransformFunctions/arm_cfft_q31.c **** * @brief       Processing function for the fixed-point complex FFT in Q31 format.
  70:DSP/Source/TransformFunctions/arm_cfft_q31.c **** * @param[in]      *S    points to an instance of the fixed-point CFFT structure.
  71:DSP/Source/TransformFunctions/arm_cfft_q31.c **** * @param[in, out] *p1   points to the complex data buffer of size <code>2*fftLen</code>. Processing
  72:DSP/Source/TransformFunctions/arm_cfft_q31.c **** * @param[in]     ifftFlag       flag that selects forward (ifftFlag=0) or inverse (ifftFlag=1) tran
  73:DSP/Source/TransformFunctions/arm_cfft_q31.c **** * @param[in]     bitReverseFlag flag that enables (bitReverseFlag=1) or disables (bitReverseFlag=0)
  74:DSP/Source/TransformFunctions/arm_cfft_q31.c **** * @return none.
  75:DSP/Source/TransformFunctions/arm_cfft_q31.c **** */
  76:DSP/Source/TransformFunctions/arm_cfft_q31.c **** 
  77:DSP/Source/TransformFunctions/arm_cfft_q31.c **** void arm_cfft_q31(
  78:DSP/Source/TransformFunctions/arm_cfft_q31.c ****     const arm_cfft_instance_q31 * S,
  79:DSP/Source/TransformFunctions/arm_cfft_q31.c ****     q31_t * p1,
  80:DSP/Source/TransformFunctions/arm_cfft_q31.c ****     uint8_t ifftFlag,
  81:DSP/Source/TransformFunctions/arm_cfft_q31.c ****     uint8_t bitReverseFlag)
  82:DSP/Source/TransformFunctions/arm_cfft_q31.c **** {
  83:DSP/Source/TransformFunctions/arm_cfft_q31.c ****     uint32_t L = S->fftLen;
  84:DSP/Source/TransformFunctions/arm_cfft_q31.c **** 
  85:DSP/Source/TransformFunctions/arm_cfft_q31.c ****     if (ifftFlag == 1U)
  86:DSP/Source/TransformFunctions/arm_cfft_q31.c ****     {
ARM GAS  /var/folders/ck/g3dcd5x55xs4107jgdl0snvr0000gn/T//ccJdIc6a.s 			page 3


  87:DSP/Source/TransformFunctions/arm_cfft_q31.c ****         switch (L)
  88:DSP/Source/TransformFunctions/arm_cfft_q31.c ****         {
  89:DSP/Source/TransformFunctions/arm_cfft_q31.c ****         case 16:
  90:DSP/Source/TransformFunctions/arm_cfft_q31.c ****         case 64:
  91:DSP/Source/TransformFunctions/arm_cfft_q31.c ****         case 256:
  92:DSP/Source/TransformFunctions/arm_cfft_q31.c ****         case 1024:
  93:DSP/Source/TransformFunctions/arm_cfft_q31.c ****         case 4096:
  94:DSP/Source/TransformFunctions/arm_cfft_q31.c ****             arm_radix4_butterfly_inverse_q31  ( p1, L, (q31_t*)S->pTwiddle, 1 );
  95:DSP/Source/TransformFunctions/arm_cfft_q31.c ****             break;
  96:DSP/Source/TransformFunctions/arm_cfft_q31.c **** 
  97:DSP/Source/TransformFunctions/arm_cfft_q31.c ****         case 32:
  98:DSP/Source/TransformFunctions/arm_cfft_q31.c ****         case 128:
  99:DSP/Source/TransformFunctions/arm_cfft_q31.c ****         case 512:
 100:DSP/Source/TransformFunctions/arm_cfft_q31.c ****         case 2048:
 101:DSP/Source/TransformFunctions/arm_cfft_q31.c ****             arm_cfft_radix4by2_inverse_q31  ( p1, L, S->pTwiddle );
 102:DSP/Source/TransformFunctions/arm_cfft_q31.c ****             break;
 103:DSP/Source/TransformFunctions/arm_cfft_q31.c ****         }
 104:DSP/Source/TransformFunctions/arm_cfft_q31.c ****     }
 105:DSP/Source/TransformFunctions/arm_cfft_q31.c ****     else
 106:DSP/Source/TransformFunctions/arm_cfft_q31.c ****     {
 107:DSP/Source/TransformFunctions/arm_cfft_q31.c ****         switch (L)
 108:DSP/Source/TransformFunctions/arm_cfft_q31.c ****         {
 109:DSP/Source/TransformFunctions/arm_cfft_q31.c ****         case 16:
 110:DSP/Source/TransformFunctions/arm_cfft_q31.c ****         case 64:
 111:DSP/Source/TransformFunctions/arm_cfft_q31.c ****         case 256:
 112:DSP/Source/TransformFunctions/arm_cfft_q31.c ****         case 1024:
 113:DSP/Source/TransformFunctions/arm_cfft_q31.c ****         case 4096:
 114:DSP/Source/TransformFunctions/arm_cfft_q31.c ****             arm_radix4_butterfly_q31  ( p1, L, (q31_t*)S->pTwiddle, 1 );
 115:DSP/Source/TransformFunctions/arm_cfft_q31.c ****             break;
 116:DSP/Source/TransformFunctions/arm_cfft_q31.c **** 
 117:DSP/Source/TransformFunctions/arm_cfft_q31.c ****         case 32:
 118:DSP/Source/TransformFunctions/arm_cfft_q31.c ****         case 128:
 119:DSP/Source/TransformFunctions/arm_cfft_q31.c ****         case 512:
 120:DSP/Source/TransformFunctions/arm_cfft_q31.c ****         case 2048:
 121:DSP/Source/TransformFunctions/arm_cfft_q31.c ****             arm_cfft_radix4by2_q31  ( p1, L, S->pTwiddle );
 122:DSP/Source/TransformFunctions/arm_cfft_q31.c ****             break;
 123:DSP/Source/TransformFunctions/arm_cfft_q31.c ****         }
 124:DSP/Source/TransformFunctions/arm_cfft_q31.c ****     }
 125:DSP/Source/TransformFunctions/arm_cfft_q31.c **** 
 126:DSP/Source/TransformFunctions/arm_cfft_q31.c ****     if ( bitReverseFlag )
 127:DSP/Source/TransformFunctions/arm_cfft_q31.c ****         arm_bitreversal_32((uint32_t*)p1,S->bitRevLength,S->pBitRevTable);
 128:DSP/Source/TransformFunctions/arm_cfft_q31.c **** }
 129:DSP/Source/TransformFunctions/arm_cfft_q31.c **** 
 130:DSP/Source/TransformFunctions/arm_cfft_q31.c **** /**
 131:DSP/Source/TransformFunctions/arm_cfft_q31.c **** * @} end of ComplexFFT group
 132:DSP/Source/TransformFunctions/arm_cfft_q31.c **** */
 133:DSP/Source/TransformFunctions/arm_cfft_q31.c **** 
 134:DSP/Source/TransformFunctions/arm_cfft_q31.c **** void arm_cfft_radix4by2_q31(
 135:DSP/Source/TransformFunctions/arm_cfft_q31.c ****     q31_t * pSrc,
 136:DSP/Source/TransformFunctions/arm_cfft_q31.c ****     uint32_t fftLen,
 137:DSP/Source/TransformFunctions/arm_cfft_q31.c ****     const q31_t * pCoef)
 138:DSP/Source/TransformFunctions/arm_cfft_q31.c **** {
  30              		.loc 1 138 1 view -0
  31              		.cfi_startproc
  32              		@ args = 0, pretend = 0, frame = 16
  33              		@ frame_needed = 0, uses_anonymous_args = 0
  34              		.loc 1 138 1 is_stmt 0 view .LVU1
ARM GAS  /var/folders/ck/g3dcd5x55xs4107jgdl0snvr0000gn/T//ccJdIc6a.s 			page 4


  35 0000 2DE9F04F 		push	{r4, r5, r6, r7, r8, r9, r10, fp, lr}
  36              	.LCFI0:
  37              		.cfi_def_cfa_offset 36
  38              		.cfi_offset 4, -36
  39              		.cfi_offset 5, -32
  40              		.cfi_offset 6, -28
  41              		.cfi_offset 7, -24
  42              		.cfi_offset 8, -20
  43              		.cfi_offset 9, -16
  44              		.cfi_offset 10, -12
  45              		.cfi_offset 11, -8
  46              		.cfi_offset 14, -4
  47 0004 85B0     		sub	sp, sp, #20
  48              	.LCFI1:
  49              		.cfi_def_cfa_offset 56
  50 0006 0446     		mov	r4, r0
  51 0008 0292     		str	r2, [sp, #8]
 139:DSP/Source/TransformFunctions/arm_cfft_q31.c ****     uint32_t i, l;
  52              		.loc 1 139 5 is_stmt 1 view .LVU2
 140:DSP/Source/TransformFunctions/arm_cfft_q31.c ****     uint32_t n2, ia;
  53              		.loc 1 140 5 view .LVU3
 141:DSP/Source/TransformFunctions/arm_cfft_q31.c ****     q31_t xt, yt, cosVal, sinVal;
  54              		.loc 1 141 5 view .LVU4
 142:DSP/Source/TransformFunctions/arm_cfft_q31.c ****     q31_t p0, p1;
  55              		.loc 1 142 5 view .LVU5
 143:DSP/Source/TransformFunctions/arm_cfft_q31.c **** 
 144:DSP/Source/TransformFunctions/arm_cfft_q31.c ****     n2 = fftLen >> 1;
  56              		.loc 1 144 5 view .LVU6
  57              		.loc 1 144 8 is_stmt 0 view .LVU7
  58 000a 4B08     		lsrs	r3, r1, #1
  59 000c 0093     		str	r3, [sp]
  60              	.LVL1:
 145:DSP/Source/TransformFunctions/arm_cfft_q31.c ****     ia = 0;
  61              		.loc 1 145 5 is_stmt 1 view .LVU8
 146:DSP/Source/TransformFunctions/arm_cfft_q31.c ****     for (i = 0; i < n2; i++)
  62              		.loc 1 146 5 view .LVU9
 145:DSP/Source/TransformFunctions/arm_cfft_q31.c ****     ia = 0;
  63              		.loc 1 145 8 is_stmt 0 view .LVU10
  64 000e 4FF0000A 		mov	r10, #0
  65              		.loc 1 146 12 view .LVU11
  66 0012 5546     		mov	r5, r10
  67 0014 0391     		str	r1, [sp, #12]
  68              		.loc 1 146 5 view .LVU12
  69 0016 65E0     		b	.L2
  70              	.LVL2:
  71              	.L3:
 147:DSP/Source/TransformFunctions/arm_cfft_q31.c ****     {
 148:DSP/Source/TransformFunctions/arm_cfft_q31.c ****         cosVal = pCoef[2*ia];
  72              		.loc 1 148 9 is_stmt 1 view .LVU13
  73              		.loc 1 148 23 is_stmt 0 view .LVU14
  74 0018 4FEACA03 		lsl	r3, r10, #3
  75              		.loc 1 148 16 view .LVU15
  76 001c 029A     		ldr	r2, [sp, #8]
  77 001e 52F83A10 		ldr	r1, [r2, r10, lsl #3]
  78              	.LVL3:
 149:DSP/Source/TransformFunctions/arm_cfft_q31.c ****         sinVal = pCoef[2*ia + 1];
  79              		.loc 1 149 9 is_stmt 1 view .LVU16
ARM GAS  /var/folders/ck/g3dcd5x55xs4107jgdl0snvr0000gn/T//ccJdIc6a.s 			page 5


  80              		.loc 1 149 23 is_stmt 0 view .LVU17
  81 0022 0433     		adds	r3, r3, #4
  82              		.loc 1 149 16 view .LVU18
  83 0024 D058     		ldr	r0, [r2, r3]
  84              	.LVL4:
 150:DSP/Source/TransformFunctions/arm_cfft_q31.c ****         ia++;
  85              		.loc 1 150 9 is_stmt 1 view .LVU19
  86              		.loc 1 150 11 is_stmt 0 view .LVU20
  87 0026 0AF1010A 		add	r10, r10, #1
  88              	.LVL5:
 151:DSP/Source/TransformFunctions/arm_cfft_q31.c **** 
 152:DSP/Source/TransformFunctions/arm_cfft_q31.c ****         l = i + n2;
  89              		.loc 1 152 9 is_stmt 1 view .LVU21
  90              		.loc 1 152 11 is_stmt 0 view .LVU22
  91 002a 009B     		ldr	r3, [sp]
  92 002c 05EB030E 		add	lr, r5, r3
  93              	.LVL6:
 153:DSP/Source/TransformFunctions/arm_cfft_q31.c ****         xt = (pSrc[2 * i] >> 2) - (pSrc[2 * l] >> 2);
  94              		.loc 1 153 9 is_stmt 1 view .LVU23
  95              		.loc 1 153 19 is_stmt 0 view .LVU24
  96 0030 EA00     		lsls	r2, r5, #3
  97 0032 54F83570 		ldr	r7, [r4, r5, lsl #3]
  98              		.loc 1 153 40 view .LVU25
  99 0036 4FEACE0C 		lsl	ip, lr, #3
 100 003a 54F83E30 		ldr	r3, [r4, lr, lsl #3]
 101              		.loc 1 153 48 view .LVU26
 102 003e 9B10     		asrs	r3, r3, #2
 103              		.loc 1 153 12 view .LVU27
 104 0040 C3EBA706 		rsb	r6, r3, r7, asr #2
 105              	.LVL7:
 154:DSP/Source/TransformFunctions/arm_cfft_q31.c ****         pSrc[2 * i] = (pSrc[2 * i] >> 2) + (pSrc[2 * l] >> 2);
 106              		.loc 1 154 9 is_stmt 1 view .LVU28
 107              		.loc 1 154 42 is_stmt 0 view .LVU29
 108 0044 03EBA703 		add	r3, r3, r7, asr #2
 109              		.loc 1 154 21 view .LVU30
 110 0048 44F83530 		str	r3, [r4, r5, lsl #3]
 155:DSP/Source/TransformFunctions/arm_cfft_q31.c **** 
 156:DSP/Source/TransformFunctions/arm_cfft_q31.c ****         yt = (pSrc[2 * i + 1] >> 2) - (pSrc[2 * l + 1] >> 2);
 111              		.loc 1 156 9 is_stmt 1 view .LVU31
 112              		.loc 1 156 19 is_stmt 0 view .LVU32
 113 004c 0432     		adds	r2, r2, #4
 114 004e A758     		ldr	r7, [r4, r2]
 115              		.loc 1 156 44 view .LVU33
 116 0050 0CF1040C 		add	ip, ip, #4
 117 0054 54F80C30 		ldr	r3, [r4, ip]
 118              		.loc 1 156 56 view .LVU34
 119 0058 4FEAA308 		asr	r8, r3, #2
 120              		.loc 1 156 12 view .LVU35
 121 005c C8EBA703 		rsb	r3, r8, r7, asr #2
 122              	.LVL8:
 157:DSP/Source/TransformFunctions/arm_cfft_q31.c ****         pSrc[2 * i + 1] = (pSrc[2 * l + 1] >> 2) + (pSrc[2 * i + 1] >> 2);
 123              		.loc 1 157 9 is_stmt 1 view .LVU36
 124              		.loc 1 157 50 is_stmt 0 view .LVU37
 125 0060 08EBA707 		add	r7, r8, r7, asr #2
 126              		.loc 1 157 25 view .LVU38
 127 0064 A750     		str	r7, [r4, r2]
 158:DSP/Source/TransformFunctions/arm_cfft_q31.c **** 
ARM GAS  /var/folders/ck/g3dcd5x55xs4107jgdl0snvr0000gn/T//ccJdIc6a.s 			page 6


 159:DSP/Source/TransformFunctions/arm_cfft_q31.c ****         mult_32x32_keep32_R(p0, xt, cosVal);
 128              		.loc 1 159 9 is_stmt 1 view .LVU39
 129 0066 4FEAE679 		asr	r9, r6, #31
 130 006a CF17     		asrs	r7, r1, #31
 131 006c 06FB07F8 		mul	r8, r6, r7
 132 0070 01FB0988 		mla	r8, r1, r9, r8
 133 0074 A6FB012B 		umull	r2, fp, r6, r1
 134 0078 12F10042 		adds	r2, r2, #-2147483648
 135 007c 48EB0B02 		adc	r2, r8, fp
 136 0080 0192     		str	r2, [sp, #4]
 137              	.LVL9:
 160:DSP/Source/TransformFunctions/arm_cfft_q31.c ****         mult_32x32_keep32_R(p1, yt, cosVal);
 138              		.loc 1 160 9 view .LVU40
 139 0082 4FEAE37B 		asr	fp, r3, #31
 140 0086 01FB0BF2 		mul	r2, r1, fp
 141 008a 03FB0722 		mla	r2, r3, r7, r2
 142 008e A1FB0317 		umull	r1, r7, r1, r3
 143              	.LVL10:
 144              		.loc 1 160 9 is_stmt 0 view .LVU41
 145 0092 11F10041 		adds	r1, r1, #-2147483648
 146 0096 42EB0702 		adc	r2, r2, r7
 147              	.LVL11:
 161:DSP/Source/TransformFunctions/arm_cfft_q31.c ****         multAcc_32x32_keep32_R(p0, yt, sinVal);
 148              		.loc 1 161 9 is_stmt 1 view .LVU42
 149 009a 0021     		movs	r1, #0
 150 009c C717     		asrs	r7, r0, #31
 151 009e 03FB07F8 		mul	r8, r3, r7
 152 00a2 00FB0B88 		mla	r8, r0, fp, r8
 153 00a6 A3FB003B 		umull	r3, fp, r3, r0
 154              	.LVL12:
 155              		.loc 1 161 9 is_stmt 0 view .LVU43
 156 00aa C344     		add	fp, fp, r8
 157 00ac CB18     		adds	r3, r1, r3
 158 00ae 13F10043 		adds	r3, r3, #-2147483648
 159 00b2 019B     		ldr	r3, [sp, #4]
 160 00b4 4BEB030B 		adc	fp, fp, r3
 161              	.LVL13:
 162:DSP/Source/TransformFunctions/arm_cfft_q31.c ****         multSub_32x32_keep32_R(p1, xt, sinVal);
 162              		.loc 1 162 9 is_stmt 1 view .LVU44
 163 00b8 06FB07F7 		mul	r7, r6, r7
 164 00bc 00FB0977 		mla	r7, r0, r9, r7
 165 00c0 A6FB0006 		umull	r0, r6, r6, r0
 166              	.LVL14:
 167              		.loc 1 162 9 is_stmt 0 view .LVU45
 168 00c4 3744     		add	r7, r7, r6
 169 00c6 091A     		subs	r1, r1, r0
 170 00c8 62EB0702 		sbc	r2, r2, r7
 171 00cc 11F10041 		adds	r1, r1, #-2147483648
 172 00d0 42F10002 		adc	r2, r2, #0
 173              	.LVL15:
 163:DSP/Source/TransformFunctions/arm_cfft_q31.c **** 
 164:DSP/Source/TransformFunctions/arm_cfft_q31.c ****         pSrc[2U * l] = p0 << 1;
 174              		.loc 1 164 9 is_stmt 1 view .LVU46
 175              		.loc 1 164 27 is_stmt 0 view .LVU47
 176 00d4 4FEA4B03 		lsl	r3, fp, #1
 177              		.loc 1 164 22 view .LVU48
 178 00d8 44F83E30 		str	r3, [r4, lr, lsl #3]
ARM GAS  /var/folders/ck/g3dcd5x55xs4107jgdl0snvr0000gn/T//ccJdIc6a.s 			page 7


 165:DSP/Source/TransformFunctions/arm_cfft_q31.c ****         pSrc[2U * l + 1U] = p1 << 1;
 179              		.loc 1 165 9 is_stmt 1 view .LVU49
 180              		.loc 1 165 32 is_stmt 0 view .LVU50
 181 00dc 5200     		lsls	r2, r2, #1
 182              	.LVL16:
 183              		.loc 1 165 27 view .LVU51
 184 00de 44F80C20 		str	r2, [r4, ip]
 146:DSP/Source/TransformFunctions/arm_cfft_q31.c ****     {
 185              		.loc 1 146 26 is_stmt 1 discriminator 3 view .LVU52
 186 00e2 0135     		adds	r5, r5, #1
 187              	.LVL17:
 188              	.L2:
 146:DSP/Source/TransformFunctions/arm_cfft_q31.c ****     {
 189              		.loc 1 146 19 discriminator 1 view .LVU53
 190 00e4 009B     		ldr	r3, [sp]
 191 00e6 9D42     		cmp	r5, r3
 192 00e8 96D3     		bcc	.L3
 166:DSP/Source/TransformFunctions/arm_cfft_q31.c **** 
 167:DSP/Source/TransformFunctions/arm_cfft_q31.c ****     }
 168:DSP/Source/TransformFunctions/arm_cfft_q31.c **** 
 169:DSP/Source/TransformFunctions/arm_cfft_q31.c ****     // first col
 170:DSP/Source/TransformFunctions/arm_cfft_q31.c ****     arm_radix4_butterfly_q31( pSrc, n2, (q31_t*)pCoef, 2U);
 193              		.loc 1 170 5 is_stmt 0 view .LVU54
 194 00ea 039E     		ldr	r6, [sp, #12]
 195              		.loc 1 170 5 is_stmt 1 view .LVU55
 196 00ec 0223     		movs	r3, #2
 197 00ee 029D     		ldr	r5, [sp, #8]
 198              	.LVL18:
 199              		.loc 1 170 5 is_stmt 0 view .LVU56
 200 00f0 2A46     		mov	r2, r5
 201 00f2 DDF80080 		ldr	r8, [sp]
 202 00f6 4146     		mov	r1, r8
 203 00f8 2046     		mov	r0, r4
 204 00fa FFF7FEFF 		bl	arm_radix4_butterfly_q31
 205              	.LVL19:
 171:DSP/Source/TransformFunctions/arm_cfft_q31.c ****     // second col
 172:DSP/Source/TransformFunctions/arm_cfft_q31.c ****     arm_radix4_butterfly_q31( pSrc + fftLen, n2, (q31_t*)pCoef, 2U);
 206              		.loc 1 172 5 is_stmt 1 view .LVU57
 207 00fe 0223     		movs	r3, #2
 208 0100 2A46     		mov	r2, r5
 209 0102 4146     		mov	r1, r8
 210 0104 04EB8600 		add	r0, r4, r6, lsl #2
 211 0108 FFF7FEFF 		bl	arm_radix4_butterfly_q31
 212              	.LVL20:
 173:DSP/Source/TransformFunctions/arm_cfft_q31.c **** 
 174:DSP/Source/TransformFunctions/arm_cfft_q31.c ****     for (i = 0; i < fftLen >> 1; i++)
 213              		.loc 1 174 5 view .LVU58
 214              		.loc 1 174 12 is_stmt 0 view .LVU59
 215 010c 0022     		movs	r2, #0
 216              		.loc 1 174 5 view .LVU60
 217 010e 17E0     		b	.L4
 218              	.LVL21:
 219              	.L5:
 175:DSP/Source/TransformFunctions/arm_cfft_q31.c ****     {
 176:DSP/Source/TransformFunctions/arm_cfft_q31.c ****         p0 = pSrc[4*i+0];
 220              		.loc 1 176 9 is_stmt 1 view .LVU61
 221              		.loc 1 176 18 is_stmt 0 view .LVU62
ARM GAS  /var/folders/ck/g3dcd5x55xs4107jgdl0snvr0000gn/T//ccJdIc6a.s 			page 8


 222 0110 1301     		lsls	r3, r2, #4
 223              		.loc 1 176 12 view .LVU63
 224 0112 E658     		ldr	r6, [r4, r3]
 225              	.LVL22:
 177:DSP/Source/TransformFunctions/arm_cfft_q31.c ****         p1 = pSrc[4*i+1];
 226              		.loc 1 177 9 is_stmt 1 view .LVU64
 227              		.loc 1 177 18 is_stmt 0 view .LVU65
 228 0114 03F1040E 		add	lr, r3, #4
 229              		.loc 1 177 12 view .LVU66
 230 0118 54F80E50 		ldr	r5, [r4, lr]
 231              	.LVL23:
 178:DSP/Source/TransformFunctions/arm_cfft_q31.c ****         xt = pSrc[4*i+2];
 232              		.loc 1 178 9 is_stmt 1 view .LVU67
 233              		.loc 1 178 18 is_stmt 0 view .LVU68
 234 011c 03F1080C 		add	ip, r3, #8
 235              		.loc 1 178 12 view .LVU69
 236 0120 54F80C00 		ldr	r0, [r4, ip]
 237              	.LVL24:
 179:DSP/Source/TransformFunctions/arm_cfft_q31.c ****         yt = pSrc[4*i+3];
 238              		.loc 1 179 9 is_stmt 1 view .LVU70
 239              		.loc 1 179 18 is_stmt 0 view .LVU71
 240 0124 03F10C07 		add	r7, r3, #12
 241              		.loc 1 179 12 view .LVU72
 242 0128 E159     		ldr	r1, [r4, r7]
 243              	.LVL25:
 180:DSP/Source/TransformFunctions/arm_cfft_q31.c **** 
 181:DSP/Source/TransformFunctions/arm_cfft_q31.c ****         p0 <<= 1;
 244              		.loc 1 181 9 is_stmt 1 view .LVU73
 245              		.loc 1 181 12 is_stmt 0 view .LVU74
 246 012a 7600     		lsls	r6, r6, #1
 247              	.LVL26:
 182:DSP/Source/TransformFunctions/arm_cfft_q31.c ****         p1 <<= 1;
 248              		.loc 1 182 9 is_stmt 1 view .LVU75
 249              		.loc 1 182 12 is_stmt 0 view .LVU76
 250 012c 6D00     		lsls	r5, r5, #1
 251              	.LVL27:
 183:DSP/Source/TransformFunctions/arm_cfft_q31.c ****         xt <<= 1;
 252              		.loc 1 183 9 is_stmt 1 view .LVU77
 253              		.loc 1 183 12 is_stmt 0 view .LVU78
 254 012e 4000     		lsls	r0, r0, #1
 255              	.LVL28:
 184:DSP/Source/TransformFunctions/arm_cfft_q31.c ****         yt <<= 1;
 256              		.loc 1 184 9 is_stmt 1 view .LVU79
 257              		.loc 1 184 12 is_stmt 0 view .LVU80
 258 0130 4900     		lsls	r1, r1, #1
 259              	.LVL29:
 185:DSP/Source/TransformFunctions/arm_cfft_q31.c **** 
 186:DSP/Source/TransformFunctions/arm_cfft_q31.c ****         pSrc[4*i+0] = p0;
 260              		.loc 1 186 9 is_stmt 1 view .LVU81
 261              		.loc 1 186 21 is_stmt 0 view .LVU82
 262 0132 E650     		str	r6, [r4, r3]
 187:DSP/Source/TransformFunctions/arm_cfft_q31.c ****         pSrc[4*i+1] = p1;
 263              		.loc 1 187 9 is_stmt 1 view .LVU83
 264              		.loc 1 187 21 is_stmt 0 view .LVU84
 265 0134 44F80E50 		str	r5, [r4, lr]
 188:DSP/Source/TransformFunctions/arm_cfft_q31.c ****         pSrc[4*i+2] = xt;
 266              		.loc 1 188 9 is_stmt 1 view .LVU85
ARM GAS  /var/folders/ck/g3dcd5x55xs4107jgdl0snvr0000gn/T//ccJdIc6a.s 			page 9


 267              		.loc 1 188 21 is_stmt 0 view .LVU86
 268 0138 44F80C00 		str	r0, [r4, ip]
 189:DSP/Source/TransformFunctions/arm_cfft_q31.c ****         pSrc[4*i+3] = yt;
 269              		.loc 1 189 9 is_stmt 1 view .LVU87
 270              		.loc 1 189 21 is_stmt 0 view .LVU88
 271 013c E151     		str	r1, [r4, r7]
 174:DSP/Source/TransformFunctions/arm_cfft_q31.c ****     {
 272              		.loc 1 174 35 is_stmt 1 discriminator 3 view .LVU89
 273 013e 0132     		adds	r2, r2, #1
 274              	.LVL30:
 275              	.L4:
 174:DSP/Source/TransformFunctions/arm_cfft_q31.c ****     {
 276              		.loc 1 174 19 discriminator 1 view .LVU90
 277 0140 4245     		cmp	r2, r8
 278 0142 E5D3     		bcc	.L5
 190:DSP/Source/TransformFunctions/arm_cfft_q31.c ****     }
 191:DSP/Source/TransformFunctions/arm_cfft_q31.c **** 
 192:DSP/Source/TransformFunctions/arm_cfft_q31.c **** }
 279              		.loc 1 192 1 is_stmt 0 view .LVU91
 280 0144 05B0     		add	sp, sp, #20
 281              	.LCFI2:
 282              		.cfi_def_cfa_offset 36
 283              	.LVL31:
 284              		.loc 1 192 1 view .LVU92
 285              		@ sp needed
 286 0146 BDE8F08F 		pop	{r4, r5, r6, r7, r8, r9, r10, fp, pc}
 287              		.loc 1 192 1 view .LVU93
 288              		.cfi_endproc
 289              	.LFE140:
 291              		.section	.text.arm_cfft_radix4by2_inverse_q31,"ax",%progbits
 292              		.align	1
 293              		.global	arm_cfft_radix4by2_inverse_q31
 294              		.syntax unified
 295              		.thumb
 296              		.thumb_func
 298              	arm_cfft_radix4by2_inverse_q31:
 299              	.LVL32:
 300              	.LFB141:
 193:DSP/Source/TransformFunctions/arm_cfft_q31.c **** 
 194:DSP/Source/TransformFunctions/arm_cfft_q31.c **** void arm_cfft_radix4by2_inverse_q31(
 195:DSP/Source/TransformFunctions/arm_cfft_q31.c ****     q31_t * pSrc,
 196:DSP/Source/TransformFunctions/arm_cfft_q31.c ****     uint32_t fftLen,
 197:DSP/Source/TransformFunctions/arm_cfft_q31.c ****     const q31_t * pCoef)
 198:DSP/Source/TransformFunctions/arm_cfft_q31.c **** {
 301              		.loc 1 198 1 is_stmt 1 view -0
 302              		.cfi_startproc
 303              		@ args = 0, pretend = 0, frame = 16
 304              		@ frame_needed = 0, uses_anonymous_args = 0
 305              		.loc 1 198 1 is_stmt 0 view .LVU95
 306 0000 2DE9F04F 		push	{r4, r5, r6, r7, r8, r9, r10, fp, lr}
 307              	.LCFI3:
 308              		.cfi_def_cfa_offset 36
 309              		.cfi_offset 4, -36
 310              		.cfi_offset 5, -32
 311              		.cfi_offset 6, -28
 312              		.cfi_offset 7, -24
 313              		.cfi_offset 8, -20
ARM GAS  /var/folders/ck/g3dcd5x55xs4107jgdl0snvr0000gn/T//ccJdIc6a.s 			page 10


 314              		.cfi_offset 9, -16
 315              		.cfi_offset 10, -12
 316              		.cfi_offset 11, -8
 317              		.cfi_offset 14, -4
 318 0004 85B0     		sub	sp, sp, #20
 319              	.LCFI4:
 320              		.cfi_def_cfa_offset 56
 321 0006 0446     		mov	r4, r0
 322 0008 0292     		str	r2, [sp, #8]
 199:DSP/Source/TransformFunctions/arm_cfft_q31.c ****     uint32_t i, l;
 323              		.loc 1 199 5 is_stmt 1 view .LVU96
 200:DSP/Source/TransformFunctions/arm_cfft_q31.c ****     uint32_t n2, ia;
 324              		.loc 1 200 5 view .LVU97
 201:DSP/Source/TransformFunctions/arm_cfft_q31.c ****     q31_t xt, yt, cosVal, sinVal;
 325              		.loc 1 201 5 view .LVU98
 202:DSP/Source/TransformFunctions/arm_cfft_q31.c ****     q31_t p0, p1;
 326              		.loc 1 202 5 view .LVU99
 203:DSP/Source/TransformFunctions/arm_cfft_q31.c **** 
 204:DSP/Source/TransformFunctions/arm_cfft_q31.c ****     n2 = fftLen >> 1;
 327              		.loc 1 204 5 view .LVU100
 328              		.loc 1 204 8 is_stmt 0 view .LVU101
 329 000a 4B08     		lsrs	r3, r1, #1
 330 000c 0093     		str	r3, [sp]
 331              	.LVL33:
 205:DSP/Source/TransformFunctions/arm_cfft_q31.c ****     ia = 0;
 332              		.loc 1 205 5 is_stmt 1 view .LVU102
 206:DSP/Source/TransformFunctions/arm_cfft_q31.c ****     for (i = 0; i < n2; i++)
 333              		.loc 1 206 5 view .LVU103
 205:DSP/Source/TransformFunctions/arm_cfft_q31.c ****     ia = 0;
 334              		.loc 1 205 8 is_stmt 0 view .LVU104
 335 000e 4FF0000A 		mov	r10, #0
 336              		.loc 1 206 12 view .LVU105
 337 0012 D446     		mov	ip, r10
 338 0014 0391     		str	r1, [sp, #12]
 339              		.loc 1 206 5 view .LVU106
 340 0016 66E0     		b	.L8
 341              	.LVL34:
 342              	.L9:
 207:DSP/Source/TransformFunctions/arm_cfft_q31.c ****     {
 208:DSP/Source/TransformFunctions/arm_cfft_q31.c ****         cosVal = pCoef[2*ia];
 343              		.loc 1 208 9 is_stmt 1 view .LVU107
 344              		.loc 1 208 23 is_stmt 0 view .LVU108
 345 0018 4FEACA03 		lsl	r3, r10, #3
 346              		.loc 1 208 16 view .LVU109
 347 001c 029A     		ldr	r2, [sp, #8]
 348 001e 52F83A10 		ldr	r1, [r2, r10, lsl #3]
 349              	.LVL35:
 209:DSP/Source/TransformFunctions/arm_cfft_q31.c ****         sinVal = pCoef[2*ia + 1];
 350              		.loc 1 209 9 is_stmt 1 view .LVU110
 351              		.loc 1 209 23 is_stmt 0 view .LVU111
 352 0022 0433     		adds	r3, r3, #4
 353              		.loc 1 209 16 view .LVU112
 354 0024 D058     		ldr	r0, [r2, r3]
 355              	.LVL36:
 210:DSP/Source/TransformFunctions/arm_cfft_q31.c ****         ia++;
 356              		.loc 1 210 9 is_stmt 1 view .LVU113
 357              		.loc 1 210 11 is_stmt 0 view .LVU114
ARM GAS  /var/folders/ck/g3dcd5x55xs4107jgdl0snvr0000gn/T//ccJdIc6a.s 			page 11


 358 0026 0AF1010A 		add	r10, r10, #1
 359              	.LVL37:
 211:DSP/Source/TransformFunctions/arm_cfft_q31.c **** 
 212:DSP/Source/TransformFunctions/arm_cfft_q31.c ****         l = i + n2;
 360              		.loc 1 212 9 is_stmt 1 view .LVU115
 361              		.loc 1 212 11 is_stmt 0 view .LVU116
 362 002a 009B     		ldr	r3, [sp]
 363 002c 0CEB0308 		add	r8, ip, r3
 364              	.LVL38:
 213:DSP/Source/TransformFunctions/arm_cfft_q31.c ****         xt = (pSrc[2 * i] >> 2) - (pSrc[2 * l] >> 2);
 365              		.loc 1 213 9 is_stmt 1 view .LVU117
 366              		.loc 1 213 19 is_stmt 0 view .LVU118
 367 0030 4FEACC05 		lsl	r5, ip, #3
 368 0034 54F83C20 		ldr	r2, [r4, ip, lsl #3]
 369              		.loc 1 213 40 view .LVU119
 370 0038 4FEAC80E 		lsl	lr, r8, #3
 371 003c 54F83830 		ldr	r3, [r4, r8, lsl #3]
 372              		.loc 1 213 48 view .LVU120
 373 0040 9E10     		asrs	r6, r3, #2
 374              		.loc 1 213 12 view .LVU121
 375 0042 C6EBA203 		rsb	r3, r6, r2, asr #2
 376              	.LVL39:
 214:DSP/Source/TransformFunctions/arm_cfft_q31.c ****         pSrc[2 * i] = (pSrc[2 * i] >> 2) + (pSrc[2 * l] >> 2);
 377              		.loc 1 214 9 is_stmt 1 view .LVU122
 378              		.loc 1 214 42 is_stmt 0 view .LVU123
 379 0046 06EBA206 		add	r6, r6, r2, asr #2
 380              		.loc 1 214 21 view .LVU124
 381 004a 44F83C60 		str	r6, [r4, ip, lsl #3]
 215:DSP/Source/TransformFunctions/arm_cfft_q31.c **** 
 216:DSP/Source/TransformFunctions/arm_cfft_q31.c ****         yt = (pSrc[2 * i + 1] >> 2) - (pSrc[2 * l + 1] >> 2);
 382              		.loc 1 216 9 is_stmt 1 view .LVU125
 383              		.loc 1 216 19 is_stmt 0 view .LVU126
 384 004e 0435     		adds	r5, r5, #4
 385 0050 6659     		ldr	r6, [r4, r5]
 386              		.loc 1 216 44 view .LVU127
 387 0052 0EF1040E 		add	lr, lr, #4
 388 0056 54F80E20 		ldr	r2, [r4, lr]
 389              		.loc 1 216 56 view .LVU128
 390 005a 9710     		asrs	r7, r2, #2
 391              		.loc 1 216 12 view .LVU129
 392 005c C7EBA602 		rsb	r2, r7, r6, asr #2
 393              	.LVL40:
 217:DSP/Source/TransformFunctions/arm_cfft_q31.c ****         pSrc[2 * i + 1] = (pSrc[2 * l + 1] >> 2) + (pSrc[2 * i + 1] >> 2);
 394              		.loc 1 217 9 is_stmt 1 view .LVU130
 395              		.loc 1 217 50 is_stmt 0 view .LVU131
 396 0060 07EBA607 		add	r7, r7, r6, asr #2
 397              		.loc 1 217 25 view .LVU132
 398 0064 6751     		str	r7, [r4, r5]
 218:DSP/Source/TransformFunctions/arm_cfft_q31.c **** 
 219:DSP/Source/TransformFunctions/arm_cfft_q31.c ****         mult_32x32_keep32_R(p0, xt, cosVal);
 399              		.loc 1 219 9 is_stmt 1 view .LVU133
 400 0066 DD17     		asrs	r5, r3, #31
 401 0068 4FEAE179 		asr	r9, r1, #31
 402 006c 03FB09F7 		mul	r7, r3, r9
 403 0070 0195     		str	r5, [sp, #4]
 404 0072 01FB0577 		mla	r7, r1, r5, r7
 405 0076 A3FB0156 		umull	r5, r6, r3, r1
ARM GAS  /var/folders/ck/g3dcd5x55xs4107jgdl0snvr0000gn/T//ccJdIc6a.s 			page 12


 406 007a 15F10045 		adds	r5, r5, #-2147483648
 407 007e 47EB0607 		adc	r7, r7, r6
 408              	.LVL41:
 220:DSP/Source/TransformFunctions/arm_cfft_q31.c ****         mult_32x32_keep32_R(p1, yt, cosVal);
 409              		.loc 1 220 9 view .LVU134
 410 0082 4FEAE27B 		asr	fp, r2, #31
 411 0086 01FB0BF6 		mul	r6, r1, fp
 412 008a 02FB0966 		mla	r6, r2, r9, r6
 413 008e A1FB0215 		umull	r1, r5, r1, r2
 414              	.LVL42:
 415              		.loc 1 220 9 is_stmt 0 view .LVU135
 416 0092 11F10041 		adds	r1, r1, #-2147483648
 417 0096 46EB0506 		adc	r6, r6, r5
 418              	.LVL43:
 221:DSP/Source/TransformFunctions/arm_cfft_q31.c ****         multSub_32x32_keep32_R(p0, yt, sinVal);
 419              		.loc 1 221 9 is_stmt 1 view .LVU136
 420 009a 0021     		movs	r1, #0
 421 009c C517     		asrs	r5, r0, #31
 422 009e 02FB05F9 		mul	r9, r2, r5
 423 00a2 00FB0B99 		mla	r9, r0, fp, r9
 424 00a6 A2FB002B 		umull	r2, fp, r2, r0
 425              	.LVL44:
 426              		.loc 1 221 9 is_stmt 0 view .LVU137
 427 00aa CB44     		add	fp, fp, r9
 428 00ac 8A1A     		subs	r2, r1, r2
 429 00ae 67EB0B0B 		sbc	fp, r7, fp
 430 00b2 12F10042 		adds	r2, r2, #-2147483648
 431 00b6 4BF1000B 		adc	fp, fp, #0
 432              	.LVL45:
 222:DSP/Source/TransformFunctions/arm_cfft_q31.c ****         multAcc_32x32_keep32_R(p1, xt, sinVal);
 433              		.loc 1 222 9 is_stmt 1 view .LVU138
 434 00ba 03FB05F5 		mul	r5, r3, r5
 435 00be 019A     		ldr	r2, [sp, #4]
 436 00c0 00FB0255 		mla	r5, r0, r2, r5
 437 00c4 A3FB0003 		umull	r0, r3, r3, r0
 438              	.LVL46:
 439              		.loc 1 222 9 is_stmt 0 view .LVU139
 440 00c8 2B44     		add	r3, r3, r5
 441 00ca 0918     		adds	r1, r1, r0
 442 00cc 11F10041 		adds	r1, r1, #-2147483648
 443 00d0 43EB0603 		adc	r3, r3, r6
 444              	.LVL47:
 223:DSP/Source/TransformFunctions/arm_cfft_q31.c **** 
 224:DSP/Source/TransformFunctions/arm_cfft_q31.c ****         pSrc[2U * l] = p0 << 1;
 445              		.loc 1 224 9 is_stmt 1 view .LVU140
 446              		.loc 1 224 27 is_stmt 0 view .LVU141
 447 00d4 4FEA4B02 		lsl	r2, fp, #1
 448              		.loc 1 224 22 view .LVU142
 449 00d8 44F83820 		str	r2, [r4, r8, lsl #3]
 225:DSP/Source/TransformFunctions/arm_cfft_q31.c ****         pSrc[2U * l + 1U] = p1 << 1;
 450              		.loc 1 225 9 is_stmt 1 view .LVU143
 451              		.loc 1 225 32 is_stmt 0 view .LVU144
 452 00dc 5B00     		lsls	r3, r3, #1
 453              	.LVL48:
 454              		.loc 1 225 27 view .LVU145
 455 00de 44F80E30 		str	r3, [r4, lr]
 206:DSP/Source/TransformFunctions/arm_cfft_q31.c ****     {
ARM GAS  /var/folders/ck/g3dcd5x55xs4107jgdl0snvr0000gn/T//ccJdIc6a.s 			page 13


 456              		.loc 1 206 26 is_stmt 1 discriminator 3 view .LVU146
 457 00e2 0CF1010C 		add	ip, ip, #1
 458              	.LVL49:
 459              	.L8:
 206:DSP/Source/TransformFunctions/arm_cfft_q31.c ****     {
 460              		.loc 1 206 19 discriminator 1 view .LVU147
 461 00e6 009B     		ldr	r3, [sp]
 462 00e8 9C45     		cmp	ip, r3
 463 00ea 95D3     		bcc	.L9
 226:DSP/Source/TransformFunctions/arm_cfft_q31.c **** 
 227:DSP/Source/TransformFunctions/arm_cfft_q31.c ****     }
 228:DSP/Source/TransformFunctions/arm_cfft_q31.c **** 
 229:DSP/Source/TransformFunctions/arm_cfft_q31.c ****     // first col
 230:DSP/Source/TransformFunctions/arm_cfft_q31.c ****     arm_radix4_butterfly_inverse_q31( pSrc, n2, (q31_t*)pCoef, 2U);
 464              		.loc 1 230 5 is_stmt 0 view .LVU148
 465 00ec 039E     		ldr	r6, [sp, #12]
 466              		.loc 1 230 5 is_stmt 1 view .LVU149
 467 00ee 0223     		movs	r3, #2
 468 00f0 029D     		ldr	r5, [sp, #8]
 469 00f2 2A46     		mov	r2, r5
 470 00f4 DDF80080 		ldr	r8, [sp]
 471 00f8 4146     		mov	r1, r8
 472 00fa 2046     		mov	r0, r4
 473 00fc FFF7FEFF 		bl	arm_radix4_butterfly_inverse_q31
 474              	.LVL50:
 231:DSP/Source/TransformFunctions/arm_cfft_q31.c ****     // second col
 232:DSP/Source/TransformFunctions/arm_cfft_q31.c ****     arm_radix4_butterfly_inverse_q31( pSrc + fftLen, n2, (q31_t*)pCoef, 2U);
 475              		.loc 1 232 5 view .LVU150
 476 0100 0223     		movs	r3, #2
 477 0102 2A46     		mov	r2, r5
 478 0104 4146     		mov	r1, r8
 479 0106 04EB8600 		add	r0, r4, r6, lsl #2
 480 010a FFF7FEFF 		bl	arm_radix4_butterfly_inverse_q31
 481              	.LVL51:
 233:DSP/Source/TransformFunctions/arm_cfft_q31.c **** 
 234:DSP/Source/TransformFunctions/arm_cfft_q31.c ****     for (i = 0; i < fftLen >> 1; i++)
 482              		.loc 1 234 5 view .LVU151
 483              		.loc 1 234 12 is_stmt 0 view .LVU152
 484 010e 0022     		movs	r2, #0
 485              		.loc 1 234 5 view .LVU153
 486 0110 17E0     		b	.L10
 487              	.LVL52:
 488              	.L11:
 235:DSP/Source/TransformFunctions/arm_cfft_q31.c ****     {
 236:DSP/Source/TransformFunctions/arm_cfft_q31.c ****         p0 = pSrc[4*i+0];
 489              		.loc 1 236 9 is_stmt 1 view .LVU154
 490              		.loc 1 236 18 is_stmt 0 view .LVU155
 491 0112 1301     		lsls	r3, r2, #4
 492              		.loc 1 236 12 view .LVU156
 493 0114 E658     		ldr	r6, [r4, r3]
 494              	.LVL53:
 237:DSP/Source/TransformFunctions/arm_cfft_q31.c ****         p1 = pSrc[4*i+1];
 495              		.loc 1 237 9 is_stmt 1 view .LVU157
 496              		.loc 1 237 18 is_stmt 0 view .LVU158
 497 0116 03F1040E 		add	lr, r3, #4
 498              		.loc 1 237 12 view .LVU159
 499 011a 54F80E50 		ldr	r5, [r4, lr]
ARM GAS  /var/folders/ck/g3dcd5x55xs4107jgdl0snvr0000gn/T//ccJdIc6a.s 			page 14


 500              	.LVL54:
 238:DSP/Source/TransformFunctions/arm_cfft_q31.c ****         xt = pSrc[4*i+2];
 501              		.loc 1 238 9 is_stmt 1 view .LVU160
 502              		.loc 1 238 18 is_stmt 0 view .LVU161
 503 011e 03F1080C 		add	ip, r3, #8
 504              		.loc 1 238 12 view .LVU162
 505 0122 54F80C00 		ldr	r0, [r4, ip]
 506              	.LVL55:
 239:DSP/Source/TransformFunctions/arm_cfft_q31.c ****         yt = pSrc[4*i+3];
 507              		.loc 1 239 9 is_stmt 1 view .LVU163
 508              		.loc 1 239 18 is_stmt 0 view .LVU164
 509 0126 03F10C07 		add	r7, r3, #12
 510              		.loc 1 239 12 view .LVU165
 511 012a E159     		ldr	r1, [r4, r7]
 512              	.LVL56:
 240:DSP/Source/TransformFunctions/arm_cfft_q31.c **** 
 241:DSP/Source/TransformFunctions/arm_cfft_q31.c ****         p0 <<= 1;
 513              		.loc 1 241 9 is_stmt 1 view .LVU166
 514              		.loc 1 241 12 is_stmt 0 view .LVU167
 515 012c 7600     		lsls	r6, r6, #1
 516              	.LVL57:
 242:DSP/Source/TransformFunctions/arm_cfft_q31.c ****         p1 <<= 1;
 517              		.loc 1 242 9 is_stmt 1 view .LVU168
 518              		.loc 1 242 12 is_stmt 0 view .LVU169
 519 012e 6D00     		lsls	r5, r5, #1
 520              	.LVL58:
 243:DSP/Source/TransformFunctions/arm_cfft_q31.c ****         xt <<= 1;
 521              		.loc 1 243 9 is_stmt 1 view .LVU170
 522              		.loc 1 243 12 is_stmt 0 view .LVU171
 523 0130 4000     		lsls	r0, r0, #1
 524              	.LVL59:
 244:DSP/Source/TransformFunctions/arm_cfft_q31.c ****         yt <<= 1;
 525              		.loc 1 244 9 is_stmt 1 view .LVU172
 526              		.loc 1 244 12 is_stmt 0 view .LVU173
 527 0132 4900     		lsls	r1, r1, #1
 528              	.LVL60:
 245:DSP/Source/TransformFunctions/arm_cfft_q31.c **** 
 246:DSP/Source/TransformFunctions/arm_cfft_q31.c ****         pSrc[4*i+0] = p0;
 529              		.loc 1 246 9 is_stmt 1 view .LVU174
 530              		.loc 1 246 21 is_stmt 0 view .LVU175
 531 0134 E650     		str	r6, [r4, r3]
 247:DSP/Source/TransformFunctions/arm_cfft_q31.c ****         pSrc[4*i+1] = p1;
 532              		.loc 1 247 9 is_stmt 1 view .LVU176
 533              		.loc 1 247 21 is_stmt 0 view .LVU177
 534 0136 44F80E50 		str	r5, [r4, lr]
 248:DSP/Source/TransformFunctions/arm_cfft_q31.c ****         pSrc[4*i+2] = xt;
 535              		.loc 1 248 9 is_stmt 1 view .LVU178
 536              		.loc 1 248 21 is_stmt 0 view .LVU179
 537 013a 44F80C00 		str	r0, [r4, ip]
 249:DSP/Source/TransformFunctions/arm_cfft_q31.c ****         pSrc[4*i+3] = yt;
 538              		.loc 1 249 9 is_stmt 1 view .LVU180
 539              		.loc 1 249 21 is_stmt 0 view .LVU181
 540 013e E151     		str	r1, [r4, r7]
 234:DSP/Source/TransformFunctions/arm_cfft_q31.c ****     {
 541              		.loc 1 234 35 is_stmt 1 discriminator 3 view .LVU182
 542 0140 0132     		adds	r2, r2, #1
 543              	.LVL61:
ARM GAS  /var/folders/ck/g3dcd5x55xs4107jgdl0snvr0000gn/T//ccJdIc6a.s 			page 15


 544              	.L10:
 234:DSP/Source/TransformFunctions/arm_cfft_q31.c ****     {
 545              		.loc 1 234 19 discriminator 1 view .LVU183
 546 0142 4245     		cmp	r2, r8
 547 0144 E5D3     		bcc	.L11
 250:DSP/Source/TransformFunctions/arm_cfft_q31.c ****     }
 251:DSP/Source/TransformFunctions/arm_cfft_q31.c **** }
 548              		.loc 1 251 1 is_stmt 0 view .LVU184
 549 0146 05B0     		add	sp, sp, #20
 550              	.LCFI5:
 551              		.cfi_def_cfa_offset 36
 552              	.LVL62:
 553              		.loc 1 251 1 view .LVU185
 554              		@ sp needed
 555 0148 BDE8F08F 		pop	{r4, r5, r6, r7, r8, r9, r10, fp, pc}
 556              		.loc 1 251 1 view .LVU186
 557              		.cfi_endproc
 558              	.LFE141:
 560              		.section	.text.arm_cfft_q31,"ax",%progbits
 561              		.align	1
 562              		.global	arm_cfft_q31
 563              		.syntax unified
 564              		.thumb
 565              		.thumb_func
 567              	arm_cfft_q31:
 568              	.LVL63:
 569              	.LFB139:
  82:DSP/Source/TransformFunctions/arm_cfft_q31.c ****     uint32_t L = S->fftLen;
 570              		.loc 1 82 1 is_stmt 1 view -0
 571              		.cfi_startproc
 572              		@ args = 0, pretend = 0, frame = 0
 573              		@ frame_needed = 0, uses_anonymous_args = 0
  82:DSP/Source/TransformFunctions/arm_cfft_q31.c ****     uint32_t L = S->fftLen;
 574              		.loc 1 82 1 is_stmt 0 view .LVU188
 575 0000 70B5     		push	{r4, r5, r6, lr}
 576              	.LCFI6:
 577              		.cfi_def_cfa_offset 16
 578              		.cfi_offset 4, -16
 579              		.cfi_offset 5, -12
 580              		.cfi_offset 6, -8
 581              		.cfi_offset 14, -4
 582 0002 0446     		mov	r4, r0
 583 0004 0E46     		mov	r6, r1
 584 0006 1D46     		mov	r5, r3
  83:DSP/Source/TransformFunctions/arm_cfft_q31.c **** 
 585              		.loc 1 83 5 is_stmt 1 view .LVU189
  83:DSP/Source/TransformFunctions/arm_cfft_q31.c **** 
 586              		.loc 1 83 19 is_stmt 0 view .LVU190
 587 0008 0188     		ldrh	r1, [r0]
 588              	.LVL64:
  85:DSP/Source/TransformFunctions/arm_cfft_q31.c ****     {
 589              		.loc 1 85 5 is_stmt 1 view .LVU191
  85:DSP/Source/TransformFunctions/arm_cfft_q31.c ****     {
 590              		.loc 1 85 8 is_stmt 0 view .LVU192
 591 000a 012A     		cmp	r2, #1
 592 000c 0ED0     		beq	.L28
 107:DSP/Source/TransformFunctions/arm_cfft_q31.c ****         {
ARM GAS  /var/folders/ck/g3dcd5x55xs4107jgdl0snvr0000gn/T//ccJdIc6a.s 			page 16


 593              		.loc 1 107 9 is_stmt 1 view .LVU193
 594 000e B1F5807F 		cmp	r1, #256
 595 0012 44D0     		beq	.L21
 596 0014 31D9     		bls	.L29
 597 0016 B1F5006F 		cmp	r1, #2048
 598 001a 35D0     		beq	.L24
 599 001c 3CD8     		bhi	.L25
 600 001e B1F5007F 		cmp	r1, #512
 601 0022 31D0     		beq	.L24
 602 0024 B1F5806F 		cmp	r1, #1024
 603 0028 3ED1     		bne	.L19
 604 002a 38E0     		b	.L21
 605              	.L28:
  87:DSP/Source/TransformFunctions/arm_cfft_q31.c ****         {
 606              		.loc 1 87 9 view .LVU194
 607 002c B1F5807F 		cmp	r1, #256
 608 0030 0AD0     		beq	.L15
 609 0032 0FD9     		bls	.L30
 610 0034 B1F5006F 		cmp	r1, #2048
 611 0038 13D0     		beq	.L18
 612 003a 1AD8     		bhi	.L20
 613 003c B1F5007F 		cmp	r1, #512
 614 0040 0FD0     		beq	.L18
 615 0042 B1F5806F 		cmp	r1, #1024
 616 0046 2FD1     		bne	.L19
 617              	.L15:
  94:DSP/Source/TransformFunctions/arm_cfft_q31.c ****             break;
 618              		.loc 1 94 13 view .LVU195
 619 0048 0123     		movs	r3, #1
 620              	.LVL65:
  94:DSP/Source/TransformFunctions/arm_cfft_q31.c ****             break;
 621              		.loc 1 94 13 is_stmt 0 view .LVU196
 622 004a 6268     		ldr	r2, [r4, #4]
 623              	.LVL66:
  94:DSP/Source/TransformFunctions/arm_cfft_q31.c ****             break;
 624              		.loc 1 94 13 view .LVU197
 625 004c 3046     		mov	r0, r6
 626              	.LVL67:
  94:DSP/Source/TransformFunctions/arm_cfft_q31.c ****             break;
 627              		.loc 1 94 13 view .LVU198
 628 004e FFF7FEFF 		bl	arm_radix4_butterfly_inverse_q31
 629              	.LVL68:
  95:DSP/Source/TransformFunctions/arm_cfft_q31.c **** 
 630              		.loc 1 95 13 is_stmt 1 view .LVU199
 631 0052 29E0     		b	.L19
 632              	.LVL69:
 633              	.L30:
  87:DSP/Source/TransformFunctions/arm_cfft_q31.c ****         {
 634              		.loc 1 87 9 is_stmt 0 view .LVU200
 635 0054 4029     		cmp	r1, #64
 636 0056 F7D0     		beq	.L15
 637 0058 08D8     		bhi	.L17
 638 005a 1029     		cmp	r1, #16
 639 005c F4D0     		beq	.L15
 640 005e 2029     		cmp	r1, #32
 641 0060 22D1     		bne	.L19
 642              	.L18:
ARM GAS  /var/folders/ck/g3dcd5x55xs4107jgdl0snvr0000gn/T//ccJdIc6a.s 			page 17


 101:DSP/Source/TransformFunctions/arm_cfft_q31.c ****             break;
 643              		.loc 1 101 13 is_stmt 1 view .LVU201
 644 0062 6268     		ldr	r2, [r4, #4]
 645              	.LVL70:
 101:DSP/Source/TransformFunctions/arm_cfft_q31.c ****             break;
 646              		.loc 1 101 13 is_stmt 0 view .LVU202
 647 0064 3046     		mov	r0, r6
 648              	.LVL71:
 101:DSP/Source/TransformFunctions/arm_cfft_q31.c ****             break;
 649              		.loc 1 101 13 view .LVU203
 650 0066 FFF7FEFF 		bl	arm_cfft_radix4by2_inverse_q31
 651              	.LVL72:
 102:DSP/Source/TransformFunctions/arm_cfft_q31.c ****         }
 652              		.loc 1 102 13 is_stmt 1 view .LVU204
 653 006a 1DE0     		b	.L19
 654              	.LVL73:
 655              	.L17:
  87:DSP/Source/TransformFunctions/arm_cfft_q31.c ****         {
 656              		.loc 1 87 9 is_stmt 0 view .LVU205
 657 006c 8029     		cmp	r1, #128
 658 006e F8D0     		beq	.L18
 659 0070 1AE0     		b	.L19
 660              	.L20:
  87:DSP/Source/TransformFunctions/arm_cfft_q31.c ****         {
 661              		.loc 1 87 9 view .LVU206
 662 0072 B1F5805F 		cmp	r1, #4096
 663 0076 17D1     		bne	.L19
 664 0078 E6E7     		b	.L15
 665              	.L29:
 107:DSP/Source/TransformFunctions/arm_cfft_q31.c ****         {
 666              		.loc 1 107 9 view .LVU207
 667 007a 4029     		cmp	r1, #64
 668 007c 0FD0     		beq	.L21
 669 007e 08D8     		bhi	.L23
 670 0080 1029     		cmp	r1, #16
 671 0082 0CD0     		beq	.L21
 672 0084 2029     		cmp	r1, #32
 673 0086 0FD1     		bne	.L19
 674              	.L24:
 121:DSP/Source/TransformFunctions/arm_cfft_q31.c ****             break;
 675              		.loc 1 121 13 is_stmt 1 view .LVU208
 676 0088 6268     		ldr	r2, [r4, #4]
 677              	.LVL74:
 121:DSP/Source/TransformFunctions/arm_cfft_q31.c ****             break;
 678              		.loc 1 121 13 is_stmt 0 view .LVU209
 679 008a 3046     		mov	r0, r6
 680              	.LVL75:
 121:DSP/Source/TransformFunctions/arm_cfft_q31.c ****             break;
 681              		.loc 1 121 13 view .LVU210
 682 008c FFF7FEFF 		bl	arm_cfft_radix4by2_q31
 683              	.LVL76:
 122:DSP/Source/TransformFunctions/arm_cfft_q31.c ****         }
 684              		.loc 1 122 13 is_stmt 1 view .LVU211
 685 0090 0AE0     		b	.L19
 686              	.LVL77:
 687              	.L23:
 107:DSP/Source/TransformFunctions/arm_cfft_q31.c ****         {
ARM GAS  /var/folders/ck/g3dcd5x55xs4107jgdl0snvr0000gn/T//ccJdIc6a.s 			page 18


 688              		.loc 1 107 9 is_stmt 0 view .LVU212
 689 0092 8029     		cmp	r1, #128
 690 0094 F8D0     		beq	.L24
 691 0096 07E0     		b	.L19
 692              	.L25:
 107:DSP/Source/TransformFunctions/arm_cfft_q31.c ****         {
 693              		.loc 1 107 9 view .LVU213
 694 0098 B1F5805F 		cmp	r1, #4096
 695 009c 04D1     		bne	.L19
 696              	.L21:
 114:DSP/Source/TransformFunctions/arm_cfft_q31.c ****             break;
 697              		.loc 1 114 13 is_stmt 1 view .LVU214
 698 009e 0123     		movs	r3, #1
 699              	.LVL78:
 114:DSP/Source/TransformFunctions/arm_cfft_q31.c ****             break;
 700              		.loc 1 114 13 is_stmt 0 view .LVU215
 701 00a0 6268     		ldr	r2, [r4, #4]
 702              	.LVL79:
 114:DSP/Source/TransformFunctions/arm_cfft_q31.c ****             break;
 703              		.loc 1 114 13 view .LVU216
 704 00a2 3046     		mov	r0, r6
 705              	.LVL80:
 114:DSP/Source/TransformFunctions/arm_cfft_q31.c ****             break;
 706              		.loc 1 114 13 view .LVU217
 707 00a4 FFF7FEFF 		bl	arm_radix4_butterfly_q31
 708              	.LVL81:
 115:DSP/Source/TransformFunctions/arm_cfft_q31.c **** 
 709              		.loc 1 115 13 is_stmt 1 view .LVU218
 710              	.L19:
 126:DSP/Source/TransformFunctions/arm_cfft_q31.c ****         arm_bitreversal_32((uint32_t*)p1,S->bitRevLength,S->pBitRevTable);
 711              		.loc 1 126 5 view .LVU219
 126:DSP/Source/TransformFunctions/arm_cfft_q31.c ****         arm_bitreversal_32((uint32_t*)p1,S->bitRevLength,S->pBitRevTable);
 712              		.loc 1 126 8 is_stmt 0 view .LVU220
 713 00a8 05B9     		cbnz	r5, .L31
 714              	.L13:
 128:DSP/Source/TransformFunctions/arm_cfft_q31.c **** 
 715              		.loc 1 128 1 view .LVU221
 716 00aa 70BD     		pop	{r4, r5, r6, pc}
 717              	.LVL82:
 718              	.L31:
 127:DSP/Source/TransformFunctions/arm_cfft_q31.c **** }
 719              		.loc 1 127 9 is_stmt 1 view .LVU222
 720 00ac A268     		ldr	r2, [r4, #8]
 721 00ae A189     		ldrh	r1, [r4, #12]
 722 00b0 3046     		mov	r0, r6
 723 00b2 FFF7FEFF 		bl	arm_bitreversal_32
 724              	.LVL83:
 128:DSP/Source/TransformFunctions/arm_cfft_q31.c **** 
 725              		.loc 1 128 1 is_stmt 0 view .LVU223
 726 00b6 F8E7     		b	.L13
 727              		.cfi_endproc
 728              	.LFE139:
 730              		.text
 731              	.Letext0:
 732              		.file 2 "/Users/luban/.local/xPacks/arm-none-eabi-gcc/xpack-arm-none-eabi-gcc-13.2.1-1.1/arm-none-
 733              		.file 3 "/Users/luban/.local/xPacks/arm-none-eabi-gcc/xpack-arm-none-eabi-gcc-13.2.1-1.1/arm-none-
 734              		.file 4 "DSP/Inc/arm_math.h"
ARM GAS  /var/folders/ck/g3dcd5x55xs4107jgdl0snvr0000gn/T//ccJdIc6a.s 			page 19


ARM GAS  /var/folders/ck/g3dcd5x55xs4107jgdl0snvr0000gn/T//ccJdIc6a.s 			page 20

