ARM GAS  /var/folders/ck/g3dcd5x55xs4107jgdl0snvr0000gn/T//cc05Prz9.s 			page 1


   1              		.cpu cortex-m4
   2              		.arch armv7e-m
   3              		.fpu fpv4-sp-d16
   4              		.eabi_attribute 27, 1
   5              		.eabi_attribute 28, 1
   6              		.eabi_attribute 20, 1
   7              		.eabi_attribute 21, 1
   8              		.eabi_attribute 23, 3
   9              		.eabi_attribute 24, 1
  10              		.eabi_attribute 25, 1
  11              		.eabi_attribute 26, 1
  12              		.eabi_attribute 30, 1
  13              		.eabi_attribute 34, 1
  14              		.eabi_attribute 18, 4
  15              		.file	"arm_cfft_radix4_q15.c"
  16              		.text
  17              	.Ltext0:
  18              		.cfi_sections	.debug_frame
  19              		.file 1 "DSP/Source/TransformFunctions/arm_cfft_radix4_q15.c"
  20              		.section	.text.arm_radix4_butterfly_q15,"ax",%progbits
  21              		.align	1
  22              		.global	arm_radix4_butterfly_q15
  23              		.syntax unified
  24              		.thumb
  25              		.thumb_func
  27              	arm_radix4_butterfly_q15:
  28              	.LVL0:
  29              	.LFB140:
   1:DSP/Source/TransformFunctions/arm_cfft_radix4_q15.c **** /* ----------------------------------------------------------------------
   2:DSP/Source/TransformFunctions/arm_cfft_radix4_q15.c ****  * Project:      CMSIS DSP Library
   3:DSP/Source/TransformFunctions/arm_cfft_radix4_q15.c ****  * Title:        arm_cfft_radix4_q15.c
   4:DSP/Source/TransformFunctions/arm_cfft_radix4_q15.c ****  * Description:  This file has function definition of Radix-4 FFT & IFFT function and
   5:DSP/Source/TransformFunctions/arm_cfft_radix4_q15.c ****  *               In-place bit reversal using bit reversal table
   6:DSP/Source/TransformFunctions/arm_cfft_radix4_q15.c ****  *
   7:DSP/Source/TransformFunctions/arm_cfft_radix4_q15.c ****  * $Date:        27. January 2017
   8:DSP/Source/TransformFunctions/arm_cfft_radix4_q15.c ****  * $Revision:    V.1.5.1
   9:DSP/Source/TransformFunctions/arm_cfft_radix4_q15.c ****  *
  10:DSP/Source/TransformFunctions/arm_cfft_radix4_q15.c ****  * Target Processor: Cortex-M cores
  11:DSP/Source/TransformFunctions/arm_cfft_radix4_q15.c ****  * -------------------------------------------------------------------- */
  12:DSP/Source/TransformFunctions/arm_cfft_radix4_q15.c **** /*
  13:DSP/Source/TransformFunctions/arm_cfft_radix4_q15.c ****  * Copyright (C) 2010-2017 ARM Limited or its affiliates. All rights reserved.
  14:DSP/Source/TransformFunctions/arm_cfft_radix4_q15.c ****  *
  15:DSP/Source/TransformFunctions/arm_cfft_radix4_q15.c ****  * SPDX-License-Identifier: Apache-2.0
  16:DSP/Source/TransformFunctions/arm_cfft_radix4_q15.c ****  *
  17:DSP/Source/TransformFunctions/arm_cfft_radix4_q15.c ****  * Licensed under the Apache License, Version 2.0 (the License); you may
  18:DSP/Source/TransformFunctions/arm_cfft_radix4_q15.c ****  * not use this file except in compliance with the License.
  19:DSP/Source/TransformFunctions/arm_cfft_radix4_q15.c ****  * You may obtain a copy of the License at
  20:DSP/Source/TransformFunctions/arm_cfft_radix4_q15.c ****  *
  21:DSP/Source/TransformFunctions/arm_cfft_radix4_q15.c ****  * www.apache.org/licenses/LICENSE-2.0
  22:DSP/Source/TransformFunctions/arm_cfft_radix4_q15.c ****  *
  23:DSP/Source/TransformFunctions/arm_cfft_radix4_q15.c ****  * Unless required by applicable law or agreed to in writing, software
  24:DSP/Source/TransformFunctions/arm_cfft_radix4_q15.c ****  * distributed under the License is distributed on an AS IS BASIS, WITHOUT
  25:DSP/Source/TransformFunctions/arm_cfft_radix4_q15.c ****  * WARRANTIES OR CONDITIONS OF ANY KIND, either express or implied.
  26:DSP/Source/TransformFunctions/arm_cfft_radix4_q15.c ****  * See the License for the specific language governing permissions and
  27:DSP/Source/TransformFunctions/arm_cfft_radix4_q15.c ****  * limitations under the License.
  28:DSP/Source/TransformFunctions/arm_cfft_radix4_q15.c ****  */
  29:DSP/Source/TransformFunctions/arm_cfft_radix4_q15.c **** 
ARM GAS  /var/folders/ck/g3dcd5x55xs4107jgdl0snvr0000gn/T//cc05Prz9.s 			page 2


  30:DSP/Source/TransformFunctions/arm_cfft_radix4_q15.c **** #include "arm_math.h"
  31:DSP/Source/TransformFunctions/arm_cfft_radix4_q15.c **** 
  32:DSP/Source/TransformFunctions/arm_cfft_radix4_q15.c **** 
  33:DSP/Source/TransformFunctions/arm_cfft_radix4_q15.c **** void arm_radix4_butterfly_q15(
  34:DSP/Source/TransformFunctions/arm_cfft_radix4_q15.c ****   q15_t * pSrc16,
  35:DSP/Source/TransformFunctions/arm_cfft_radix4_q15.c ****   uint32_t fftLen,
  36:DSP/Source/TransformFunctions/arm_cfft_radix4_q15.c ****   q15_t * pCoef16,
  37:DSP/Source/TransformFunctions/arm_cfft_radix4_q15.c ****   uint32_t twidCoefModifier);
  38:DSP/Source/TransformFunctions/arm_cfft_radix4_q15.c **** 
  39:DSP/Source/TransformFunctions/arm_cfft_radix4_q15.c **** void arm_radix4_butterfly_inverse_q15(
  40:DSP/Source/TransformFunctions/arm_cfft_radix4_q15.c ****   q15_t * pSrc16,
  41:DSP/Source/TransformFunctions/arm_cfft_radix4_q15.c ****   uint32_t fftLen,
  42:DSP/Source/TransformFunctions/arm_cfft_radix4_q15.c ****   q15_t * pCoef16,
  43:DSP/Source/TransformFunctions/arm_cfft_radix4_q15.c ****   uint32_t twidCoefModifier);
  44:DSP/Source/TransformFunctions/arm_cfft_radix4_q15.c **** 
  45:DSP/Source/TransformFunctions/arm_cfft_radix4_q15.c **** void arm_bitreversal_q15(
  46:DSP/Source/TransformFunctions/arm_cfft_radix4_q15.c ****   q15_t * pSrc,
  47:DSP/Source/TransformFunctions/arm_cfft_radix4_q15.c ****   uint32_t fftLen,
  48:DSP/Source/TransformFunctions/arm_cfft_radix4_q15.c ****   uint16_t bitRevFactor,
  49:DSP/Source/TransformFunctions/arm_cfft_radix4_q15.c ****   uint16_t * pBitRevTab);
  50:DSP/Source/TransformFunctions/arm_cfft_radix4_q15.c **** 
  51:DSP/Source/TransformFunctions/arm_cfft_radix4_q15.c **** /**
  52:DSP/Source/TransformFunctions/arm_cfft_radix4_q15.c ****  * @ingroup groupTransforms
  53:DSP/Source/TransformFunctions/arm_cfft_radix4_q15.c ****  */
  54:DSP/Source/TransformFunctions/arm_cfft_radix4_q15.c **** 
  55:DSP/Source/TransformFunctions/arm_cfft_radix4_q15.c **** /**
  56:DSP/Source/TransformFunctions/arm_cfft_radix4_q15.c ****  * @addtogroup ComplexFFT
  57:DSP/Source/TransformFunctions/arm_cfft_radix4_q15.c ****  * @{
  58:DSP/Source/TransformFunctions/arm_cfft_radix4_q15.c ****  */
  59:DSP/Source/TransformFunctions/arm_cfft_radix4_q15.c **** 
  60:DSP/Source/TransformFunctions/arm_cfft_radix4_q15.c **** 
  61:DSP/Source/TransformFunctions/arm_cfft_radix4_q15.c **** /**
  62:DSP/Source/TransformFunctions/arm_cfft_radix4_q15.c ****  * @details
  63:DSP/Source/TransformFunctions/arm_cfft_radix4_q15.c ****  * @brief Processing function for the Q15 CFFT/CIFFT.
  64:DSP/Source/TransformFunctions/arm_cfft_radix4_q15.c ****  * @deprecated Do not use this function.  It has been superseded by \ref arm_cfft_q15 and will be r
  65:DSP/Source/TransformFunctions/arm_cfft_radix4_q15.c ****  * @param[in]      *S    points to an instance of the Q15 CFFT/CIFFT structure.
  66:DSP/Source/TransformFunctions/arm_cfft_radix4_q15.c ****  * @param[in, out] *pSrc points to the complex data buffer. Processing occurs in-place.
  67:DSP/Source/TransformFunctions/arm_cfft_radix4_q15.c ****  * @return none.
  68:DSP/Source/TransformFunctions/arm_cfft_radix4_q15.c ****  *
  69:DSP/Source/TransformFunctions/arm_cfft_radix4_q15.c ****  * \par Input and output formats:
  70:DSP/Source/TransformFunctions/arm_cfft_radix4_q15.c ****  * \par
  71:DSP/Source/TransformFunctions/arm_cfft_radix4_q15.c ****  * Internally input is downscaled by 2 for every stage to avoid saturations inside CFFT/CIFFT proce
  72:DSP/Source/TransformFunctions/arm_cfft_radix4_q15.c ****  * Hence the output format is different for different FFT sizes.
  73:DSP/Source/TransformFunctions/arm_cfft_radix4_q15.c ****  * The input and output formats for different FFT sizes and number of bits to upscale are mentioned
  74:DSP/Source/TransformFunctions/arm_cfft_radix4_q15.c ****  * \par
  75:DSP/Source/TransformFunctions/arm_cfft_radix4_q15.c ****  * \image html CFFTQ15.gif "Input and Output Formats for Q15 CFFT"
  76:DSP/Source/TransformFunctions/arm_cfft_radix4_q15.c ****  * \image html CIFFTQ15.gif "Input and Output Formats for Q15 CIFFT"
  77:DSP/Source/TransformFunctions/arm_cfft_radix4_q15.c ****  */
  78:DSP/Source/TransformFunctions/arm_cfft_radix4_q15.c **** 
  79:DSP/Source/TransformFunctions/arm_cfft_radix4_q15.c **** void arm_cfft_radix4_q15(
  80:DSP/Source/TransformFunctions/arm_cfft_radix4_q15.c ****   const arm_cfft_radix4_instance_q15 * S,
  81:DSP/Source/TransformFunctions/arm_cfft_radix4_q15.c ****   q15_t * pSrc)
  82:DSP/Source/TransformFunctions/arm_cfft_radix4_q15.c **** {
  83:DSP/Source/TransformFunctions/arm_cfft_radix4_q15.c ****   if (S->ifftFlag == 1U)
  84:DSP/Source/TransformFunctions/arm_cfft_radix4_q15.c ****   {
  85:DSP/Source/TransformFunctions/arm_cfft_radix4_q15.c ****     /*  Complex IFFT radix-4  */
  86:DSP/Source/TransformFunctions/arm_cfft_radix4_q15.c ****     arm_radix4_butterfly_inverse_q15(pSrc, S->fftLen, S->pTwiddle, S->twidCoefModifier);
ARM GAS  /var/folders/ck/g3dcd5x55xs4107jgdl0snvr0000gn/T//cc05Prz9.s 			page 3


  87:DSP/Source/TransformFunctions/arm_cfft_radix4_q15.c ****   }
  88:DSP/Source/TransformFunctions/arm_cfft_radix4_q15.c ****   else
  89:DSP/Source/TransformFunctions/arm_cfft_radix4_q15.c ****   {
  90:DSP/Source/TransformFunctions/arm_cfft_radix4_q15.c ****     /*  Complex FFT radix-4  */
  91:DSP/Source/TransformFunctions/arm_cfft_radix4_q15.c ****     arm_radix4_butterfly_q15(pSrc, S->fftLen, S->pTwiddle, S->twidCoefModifier);
  92:DSP/Source/TransformFunctions/arm_cfft_radix4_q15.c ****   }
  93:DSP/Source/TransformFunctions/arm_cfft_radix4_q15.c **** 
  94:DSP/Source/TransformFunctions/arm_cfft_radix4_q15.c ****   if (S->bitReverseFlag == 1U)
  95:DSP/Source/TransformFunctions/arm_cfft_radix4_q15.c ****   {
  96:DSP/Source/TransformFunctions/arm_cfft_radix4_q15.c ****     /*  Bit Reversal */
  97:DSP/Source/TransformFunctions/arm_cfft_radix4_q15.c ****     arm_bitreversal_q15(pSrc, S->fftLen, S->bitRevFactor, S->pBitRevTable);
  98:DSP/Source/TransformFunctions/arm_cfft_radix4_q15.c ****   }
  99:DSP/Source/TransformFunctions/arm_cfft_radix4_q15.c **** 
 100:DSP/Source/TransformFunctions/arm_cfft_radix4_q15.c **** }
 101:DSP/Source/TransformFunctions/arm_cfft_radix4_q15.c **** 
 102:DSP/Source/TransformFunctions/arm_cfft_radix4_q15.c **** /**
 103:DSP/Source/TransformFunctions/arm_cfft_radix4_q15.c ****  * @} end of ComplexFFT group
 104:DSP/Source/TransformFunctions/arm_cfft_radix4_q15.c ****  */
 105:DSP/Source/TransformFunctions/arm_cfft_radix4_q15.c **** 
 106:DSP/Source/TransformFunctions/arm_cfft_radix4_q15.c **** /*
 107:DSP/Source/TransformFunctions/arm_cfft_radix4_q15.c **** * Radix-4 FFT algorithm used is :
 108:DSP/Source/TransformFunctions/arm_cfft_radix4_q15.c **** *
 109:DSP/Source/TransformFunctions/arm_cfft_radix4_q15.c **** * Input real and imaginary data:
 110:DSP/Source/TransformFunctions/arm_cfft_radix4_q15.c **** * x(n) = xa + j * ya
 111:DSP/Source/TransformFunctions/arm_cfft_radix4_q15.c **** * x(n+N/4 ) = xb + j * yb
 112:DSP/Source/TransformFunctions/arm_cfft_radix4_q15.c **** * x(n+N/2 ) = xc + j * yc
 113:DSP/Source/TransformFunctions/arm_cfft_radix4_q15.c **** * x(n+3N 4) = xd + j * yd
 114:DSP/Source/TransformFunctions/arm_cfft_radix4_q15.c **** *
 115:DSP/Source/TransformFunctions/arm_cfft_radix4_q15.c **** *
 116:DSP/Source/TransformFunctions/arm_cfft_radix4_q15.c **** * Output real and imaginary data:
 117:DSP/Source/TransformFunctions/arm_cfft_radix4_q15.c **** * x(4r) = xa'+ j * ya'
 118:DSP/Source/TransformFunctions/arm_cfft_radix4_q15.c **** * x(4r+1) = xb'+ j * yb'
 119:DSP/Source/TransformFunctions/arm_cfft_radix4_q15.c **** * x(4r+2) = xc'+ j * yc'
 120:DSP/Source/TransformFunctions/arm_cfft_radix4_q15.c **** * x(4r+3) = xd'+ j * yd'
 121:DSP/Source/TransformFunctions/arm_cfft_radix4_q15.c **** *
 122:DSP/Source/TransformFunctions/arm_cfft_radix4_q15.c **** *
 123:DSP/Source/TransformFunctions/arm_cfft_radix4_q15.c **** * Twiddle factors for radix-4 FFT:
 124:DSP/Source/TransformFunctions/arm_cfft_radix4_q15.c **** * Wn = co1 + j * (- si1)
 125:DSP/Source/TransformFunctions/arm_cfft_radix4_q15.c **** * W2n = co2 + j * (- si2)
 126:DSP/Source/TransformFunctions/arm_cfft_radix4_q15.c **** * W3n = co3 + j * (- si3)
 127:DSP/Source/TransformFunctions/arm_cfft_radix4_q15.c **** 
 128:DSP/Source/TransformFunctions/arm_cfft_radix4_q15.c **** * The real and imaginary output values for the radix-4 butterfly are
 129:DSP/Source/TransformFunctions/arm_cfft_radix4_q15.c **** * xa' = xa + xb + xc + xd
 130:DSP/Source/TransformFunctions/arm_cfft_radix4_q15.c **** * ya' = ya + yb + yc + yd
 131:DSP/Source/TransformFunctions/arm_cfft_radix4_q15.c **** * xb' = (xa+yb-xc-yd)* co1 + (ya-xb-yc+xd)* (si1)
 132:DSP/Source/TransformFunctions/arm_cfft_radix4_q15.c **** * yb' = (ya-xb-yc+xd)* co1 - (xa+yb-xc-yd)* (si1)
 133:DSP/Source/TransformFunctions/arm_cfft_radix4_q15.c **** * xc' = (xa-xb+xc-xd)* co2 + (ya-yb+yc-yd)* (si2)
 134:DSP/Source/TransformFunctions/arm_cfft_radix4_q15.c **** * yc' = (ya-yb+yc-yd)* co2 - (xa-xb+xc-xd)* (si2)
 135:DSP/Source/TransformFunctions/arm_cfft_radix4_q15.c **** * xd' = (xa-yb-xc+yd)* co3 + (ya+xb-yc-xd)* (si3)
 136:DSP/Source/TransformFunctions/arm_cfft_radix4_q15.c **** * yd' = (ya+xb-yc-xd)* co3 - (xa-yb-xc+yd)* (si3)
 137:DSP/Source/TransformFunctions/arm_cfft_radix4_q15.c **** *
 138:DSP/Source/TransformFunctions/arm_cfft_radix4_q15.c **** */
 139:DSP/Source/TransformFunctions/arm_cfft_radix4_q15.c **** 
 140:DSP/Source/TransformFunctions/arm_cfft_radix4_q15.c **** /**
 141:DSP/Source/TransformFunctions/arm_cfft_radix4_q15.c ****  * @brief  Core function for the Q15 CFFT butterfly process.
 142:DSP/Source/TransformFunctions/arm_cfft_radix4_q15.c ****  * @param[in, out] *pSrc16          points to the in-place buffer of Q15 data type.
 143:DSP/Source/TransformFunctions/arm_cfft_radix4_q15.c ****  * @param[in]      fftLen           length of the FFT.
ARM GAS  /var/folders/ck/g3dcd5x55xs4107jgdl0snvr0000gn/T//cc05Prz9.s 			page 4


 144:DSP/Source/TransformFunctions/arm_cfft_radix4_q15.c ****  * @param[in]      *pCoef16         points to twiddle coefficient buffer.
 145:DSP/Source/TransformFunctions/arm_cfft_radix4_q15.c ****  * @param[in]      twidCoefModifier twiddle coefficient modifier that supports different size FFTs 
 146:DSP/Source/TransformFunctions/arm_cfft_radix4_q15.c ****  * @return none.
 147:DSP/Source/TransformFunctions/arm_cfft_radix4_q15.c ****  */
 148:DSP/Source/TransformFunctions/arm_cfft_radix4_q15.c **** 
 149:DSP/Source/TransformFunctions/arm_cfft_radix4_q15.c **** void arm_radix4_butterfly_q15(
 150:DSP/Source/TransformFunctions/arm_cfft_radix4_q15.c ****   q15_t * pSrc16,
 151:DSP/Source/TransformFunctions/arm_cfft_radix4_q15.c ****   uint32_t fftLen,
 152:DSP/Source/TransformFunctions/arm_cfft_radix4_q15.c ****   q15_t * pCoef16,
 153:DSP/Source/TransformFunctions/arm_cfft_radix4_q15.c ****   uint32_t twidCoefModifier)
 154:DSP/Source/TransformFunctions/arm_cfft_radix4_q15.c **** {
  30              		.loc 1 154 1 view -0
  31              		.cfi_startproc
  32              		@ args = 0, pretend = 0, frame = 40
  33              		@ frame_needed = 0, uses_anonymous_args = 0
  34              		.loc 1 154 1 is_stmt 0 view .LVU1
  35 0000 2DE9F04F 		push	{r4, r5, r6, r7, r8, r9, r10, fp, lr}
  36              	.LCFI0:
  37              		.cfi_def_cfa_offset 36
  38              		.cfi_offset 4, -36
  39              		.cfi_offset 5, -32
  40              		.cfi_offset 6, -28
  41              		.cfi_offset 7, -24
  42              		.cfi_offset 8, -20
  43              		.cfi_offset 9, -16
  44              		.cfi_offset 10, -12
  45              		.cfi_offset 11, -8
  46              		.cfi_offset 14, -4
  47 0004 8BB0     		sub	sp, sp, #44
  48              	.LCFI1:
  49              		.cfi_def_cfa_offset 80
  50 0006 8246     		mov	r10, r0
  51 0008 0091     		str	r1, [sp]
  52 000a 9146     		mov	r9, r2
  53 000c 9B46     		mov	fp, r3
 155:DSP/Source/TransformFunctions/arm_cfft_radix4_q15.c **** 
 156:DSP/Source/TransformFunctions/arm_cfft_radix4_q15.c **** #if defined (ARM_MATH_DSP)
 157:DSP/Source/TransformFunctions/arm_cfft_radix4_q15.c **** 
 158:DSP/Source/TransformFunctions/arm_cfft_radix4_q15.c ****   /* Run the below code for Cortex-M4 and Cortex-M3 */
 159:DSP/Source/TransformFunctions/arm_cfft_radix4_q15.c **** 
 160:DSP/Source/TransformFunctions/arm_cfft_radix4_q15.c ****   q31_t R, S, T, U;
  54              		.loc 1 160 3 is_stmt 1 view .LVU2
 161:DSP/Source/TransformFunctions/arm_cfft_radix4_q15.c ****   q31_t C1, C2, C3, out1, out2;
  55              		.loc 1 161 3 view .LVU3
 162:DSP/Source/TransformFunctions/arm_cfft_radix4_q15.c ****   uint32_t n1, n2, ic, i0, j, k;
  56              		.loc 1 162 3 view .LVU4
 163:DSP/Source/TransformFunctions/arm_cfft_radix4_q15.c **** 
 164:DSP/Source/TransformFunctions/arm_cfft_radix4_q15.c ****   q15_t *ptr1;
  57              		.loc 1 164 3 view .LVU5
 165:DSP/Source/TransformFunctions/arm_cfft_radix4_q15.c ****   q15_t *pSi0;
  58              		.loc 1 165 3 view .LVU6
 166:DSP/Source/TransformFunctions/arm_cfft_radix4_q15.c ****   q15_t *pSi1;
  59              		.loc 1 166 3 view .LVU7
 167:DSP/Source/TransformFunctions/arm_cfft_radix4_q15.c ****   q15_t *pSi2;
  60              		.loc 1 167 3 view .LVU8
 168:DSP/Source/TransformFunctions/arm_cfft_radix4_q15.c ****   q15_t *pSi3;
  61              		.loc 1 168 3 view .LVU9
ARM GAS  /var/folders/ck/g3dcd5x55xs4107jgdl0snvr0000gn/T//cc05Prz9.s 			page 5


 169:DSP/Source/TransformFunctions/arm_cfft_radix4_q15.c **** 
 170:DSP/Source/TransformFunctions/arm_cfft_radix4_q15.c ****   q31_t xaya, xbyb, xcyc, xdyd;
  62              		.loc 1 170 3 view .LVU10
 171:DSP/Source/TransformFunctions/arm_cfft_radix4_q15.c **** 
 172:DSP/Source/TransformFunctions/arm_cfft_radix4_q15.c ****   /* Total process is divided into three stages */
 173:DSP/Source/TransformFunctions/arm_cfft_radix4_q15.c **** 
 174:DSP/Source/TransformFunctions/arm_cfft_radix4_q15.c ****   /* process first stage, middle stages, & last stage */
 175:DSP/Source/TransformFunctions/arm_cfft_radix4_q15.c **** 
 176:DSP/Source/TransformFunctions/arm_cfft_radix4_q15.c ****   /*  Initializations for the first stage */
 177:DSP/Source/TransformFunctions/arm_cfft_radix4_q15.c ****   n2 = fftLen;
  63              		.loc 1 177 3 view .LVU11
  64              	.LVL1:
 178:DSP/Source/TransformFunctions/arm_cfft_radix4_q15.c ****   n1 = n2;
  65              		.loc 1 178 3 view .LVU12
 179:DSP/Source/TransformFunctions/arm_cfft_radix4_q15.c **** 
 180:DSP/Source/TransformFunctions/arm_cfft_radix4_q15.c ****   /* n2 = fftLen/4 */
 181:DSP/Source/TransformFunctions/arm_cfft_radix4_q15.c ****   n2 >>= 2U;
  66              		.loc 1 181 3 view .LVU13
  67              		.loc 1 181 6 is_stmt 0 view .LVU14
  68 000e 8F08     		lsrs	r7, r1, #2
  69              	.LVL2:
 182:DSP/Source/TransformFunctions/arm_cfft_radix4_q15.c **** 
 183:DSP/Source/TransformFunctions/arm_cfft_radix4_q15.c ****   /* Index for twiddle coefficient */
 184:DSP/Source/TransformFunctions/arm_cfft_radix4_q15.c ****   ic = 0U;
  70              		.loc 1 184 3 is_stmt 1 view .LVU15
 185:DSP/Source/TransformFunctions/arm_cfft_radix4_q15.c **** 
 186:DSP/Source/TransformFunctions/arm_cfft_radix4_q15.c ****   /* Index for input read and output write */
 187:DSP/Source/TransformFunctions/arm_cfft_radix4_q15.c ****   j = n2;
  71              		.loc 1 187 3 view .LVU16
 188:DSP/Source/TransformFunctions/arm_cfft_radix4_q15.c **** 
 189:DSP/Source/TransformFunctions/arm_cfft_radix4_q15.c ****   pSi0 = pSrc16;
  72              		.loc 1 189 3 view .LVU17
 190:DSP/Source/TransformFunctions/arm_cfft_radix4_q15.c ****   pSi1 = pSi0 + 2 * n2;
  73              		.loc 1 190 3 view .LVU18
  74              		.loc 1 190 15 is_stmt 0 view .LVU19
  75 0010 21F00300 		bic	r0, r1, #3
  76              	.LVL3:
  77              		.loc 1 190 8 view .LVU20
  78 0014 0AEB0004 		add	r4, r10, r0
  79              	.LVL4:
 191:DSP/Source/TransformFunctions/arm_cfft_radix4_q15.c ****   pSi2 = pSi1 + 2 * n2;
  80              		.loc 1 191 3 is_stmt 1 view .LVU21
  81              		.loc 1 191 8 is_stmt 0 view .LVU22
  82 0018 0AEB4005 		add	r5, r10, r0, lsl #1
  83              	.LVL5:
 192:DSP/Source/TransformFunctions/arm_cfft_radix4_q15.c ****   pSi3 = pSi2 + 2 * n2;
  84              		.loc 1 192 3 is_stmt 1 view .LVU23
  85              		.loc 1 192 8 is_stmt 0 view .LVU24
  86 001c 2844     		add	r0, r0, r5
  87              	.LVL6:
 189:DSP/Source/TransformFunctions/arm_cfft_radix4_q15.c ****   pSi1 = pSi0 + 2 * n2;
  88              		.loc 1 189 8 view .LVU25
  89 001e 5646     		mov	r6, r10
 184:DSP/Source/TransformFunctions/arm_cfft_radix4_q15.c **** 
  90              		.loc 1 184 6 view .LVU26
  91 0020 0021     		movs	r1, #0
  92              	.LVL7:
ARM GAS  /var/folders/ck/g3dcd5x55xs4107jgdl0snvr0000gn/T//cc05Prz9.s 			page 6


 184:DSP/Source/TransformFunctions/arm_cfft_radix4_q15.c **** 
  93              		.loc 1 184 6 view .LVU27
  94 0022 0197     		str	r7, [sp, #4]
  95 0024 CDF808A0 		str	r10, [sp, #8]
  96              	.LVL8:
  97              	.L2:
 193:DSP/Source/TransformFunctions/arm_cfft_radix4_q15.c **** 
 194:DSP/Source/TransformFunctions/arm_cfft_radix4_q15.c ****   /* Input is in 1.15(q15) format */
 195:DSP/Source/TransformFunctions/arm_cfft_radix4_q15.c **** 
 196:DSP/Source/TransformFunctions/arm_cfft_radix4_q15.c ****   /*  start of first stage process */
 197:DSP/Source/TransformFunctions/arm_cfft_radix4_q15.c ****   do
  98              		.loc 1 197 3 is_stmt 1 view .LVU28
 198:DSP/Source/TransformFunctions/arm_cfft_radix4_q15.c ****   {
 199:DSP/Source/TransformFunctions/arm_cfft_radix4_q15.c ****     /*  Butterfly implementation */
 200:DSP/Source/TransformFunctions/arm_cfft_radix4_q15.c **** 
 201:DSP/Source/TransformFunctions/arm_cfft_radix4_q15.c ****     /*  Reading i0, i0+fftLen/2 inputs */
 202:DSP/Source/TransformFunctions/arm_cfft_radix4_q15.c ****     /* Read ya (real), xa(imag) input */
 203:DSP/Source/TransformFunctions/arm_cfft_radix4_q15.c ****     T = _SIMD32_OFFSET(pSi0);
  99              		.loc 1 203 5 view .LVU29
 100              		.loc 1 203 7 is_stmt 0 view .LVU30
 101 0028 3268     		ldr	r2, [r6]
 102              	.LVL9:
 204:DSP/Source/TransformFunctions/arm_cfft_radix4_q15.c ****     T = __SHADD16(T, 0); // this is just a SIMD arithmetic shift right by 1
 103              		.loc 1 204 5 is_stmt 1 view .LVU31
 104              	.LBB202:
 105              	.LBI202:
 106              		.file 2 "Drivers/CMSIS/Include/cmsis_gcc.h"
   1:Drivers/CMSIS/Include/cmsis_gcc.h **** /**************************************************************************//**
   2:Drivers/CMSIS/Include/cmsis_gcc.h ****  * @file     cmsis_gcc.h
   3:Drivers/CMSIS/Include/cmsis_gcc.h ****  * @brief    CMSIS compiler GCC header file
   4:Drivers/CMSIS/Include/cmsis_gcc.h ****  * @version  V5.4.1
   5:Drivers/CMSIS/Include/cmsis_gcc.h ****  * @date     27. May 2021
   6:Drivers/CMSIS/Include/cmsis_gcc.h ****  ******************************************************************************/
   7:Drivers/CMSIS/Include/cmsis_gcc.h **** /*
   8:Drivers/CMSIS/Include/cmsis_gcc.h ****  * Copyright (c) 2009-2021 Arm Limited. All rights reserved.
   9:Drivers/CMSIS/Include/cmsis_gcc.h ****  *
  10:Drivers/CMSIS/Include/cmsis_gcc.h ****  * SPDX-License-Identifier: Apache-2.0
  11:Drivers/CMSIS/Include/cmsis_gcc.h ****  *
  12:Drivers/CMSIS/Include/cmsis_gcc.h ****  * Licensed under the Apache License, Version 2.0 (the License); you may
  13:Drivers/CMSIS/Include/cmsis_gcc.h ****  * not use this file except in compliance with the License.
  14:Drivers/CMSIS/Include/cmsis_gcc.h ****  * You may obtain a copy of the License at
  15:Drivers/CMSIS/Include/cmsis_gcc.h ****  *
  16:Drivers/CMSIS/Include/cmsis_gcc.h ****  * www.apache.org/licenses/LICENSE-2.0
  17:Drivers/CMSIS/Include/cmsis_gcc.h ****  *
  18:Drivers/CMSIS/Include/cmsis_gcc.h ****  * Unless required by applicable law or agreed to in writing, software
  19:Drivers/CMSIS/Include/cmsis_gcc.h ****  * distributed under the License is distributed on an AS IS BASIS, WITHOUT
  20:Drivers/CMSIS/Include/cmsis_gcc.h ****  * WARRANTIES OR CONDITIONS OF ANY KIND, either express or implied.
  21:Drivers/CMSIS/Include/cmsis_gcc.h ****  * See the License for the specific language governing permissions and
  22:Drivers/CMSIS/Include/cmsis_gcc.h ****  * limitations under the License.
  23:Drivers/CMSIS/Include/cmsis_gcc.h ****  */
  24:Drivers/CMSIS/Include/cmsis_gcc.h **** 
  25:Drivers/CMSIS/Include/cmsis_gcc.h **** #ifndef __CMSIS_GCC_H
  26:Drivers/CMSIS/Include/cmsis_gcc.h **** #define __CMSIS_GCC_H
  27:Drivers/CMSIS/Include/cmsis_gcc.h **** 
  28:Drivers/CMSIS/Include/cmsis_gcc.h **** /* ignore some GCC warnings */
  29:Drivers/CMSIS/Include/cmsis_gcc.h **** #pragma GCC diagnostic push
  30:Drivers/CMSIS/Include/cmsis_gcc.h **** #pragma GCC diagnostic ignored "-Wsign-conversion"
ARM GAS  /var/folders/ck/g3dcd5x55xs4107jgdl0snvr0000gn/T//cc05Prz9.s 			page 7


  31:Drivers/CMSIS/Include/cmsis_gcc.h **** #pragma GCC diagnostic ignored "-Wconversion"
  32:Drivers/CMSIS/Include/cmsis_gcc.h **** #pragma GCC diagnostic ignored "-Wunused-parameter"
  33:Drivers/CMSIS/Include/cmsis_gcc.h **** 
  34:Drivers/CMSIS/Include/cmsis_gcc.h **** /* Fallback for __has_builtin */
  35:Drivers/CMSIS/Include/cmsis_gcc.h **** #ifndef __has_builtin
  36:Drivers/CMSIS/Include/cmsis_gcc.h ****   #define __has_builtin(x) (0)
  37:Drivers/CMSIS/Include/cmsis_gcc.h **** #endif
  38:Drivers/CMSIS/Include/cmsis_gcc.h **** 
  39:Drivers/CMSIS/Include/cmsis_gcc.h **** /* CMSIS compiler specific defines */
  40:Drivers/CMSIS/Include/cmsis_gcc.h **** #ifndef   __ASM
  41:Drivers/CMSIS/Include/cmsis_gcc.h ****   #define __ASM                                  __asm
  42:Drivers/CMSIS/Include/cmsis_gcc.h **** #endif
  43:Drivers/CMSIS/Include/cmsis_gcc.h **** #ifndef   __INLINE
  44:Drivers/CMSIS/Include/cmsis_gcc.h ****   #define __INLINE                               inline
  45:Drivers/CMSIS/Include/cmsis_gcc.h **** #endif
  46:Drivers/CMSIS/Include/cmsis_gcc.h **** #ifndef   __STATIC_INLINE
  47:Drivers/CMSIS/Include/cmsis_gcc.h ****   #define __STATIC_INLINE                        static inline
  48:Drivers/CMSIS/Include/cmsis_gcc.h **** #endif
  49:Drivers/CMSIS/Include/cmsis_gcc.h **** #ifndef   __STATIC_FORCEINLINE
  50:Drivers/CMSIS/Include/cmsis_gcc.h ****   #define __STATIC_FORCEINLINE                   __attribute__((always_inline)) static inline
  51:Drivers/CMSIS/Include/cmsis_gcc.h **** #endif
  52:Drivers/CMSIS/Include/cmsis_gcc.h **** #ifndef   __NO_RETURN
  53:Drivers/CMSIS/Include/cmsis_gcc.h ****   #define __NO_RETURN                            __attribute__((__noreturn__))
  54:Drivers/CMSIS/Include/cmsis_gcc.h **** #endif
  55:Drivers/CMSIS/Include/cmsis_gcc.h **** #ifndef   __USED
  56:Drivers/CMSIS/Include/cmsis_gcc.h ****   #define __USED                                 __attribute__((used))
  57:Drivers/CMSIS/Include/cmsis_gcc.h **** #endif
  58:Drivers/CMSIS/Include/cmsis_gcc.h **** #ifndef   __WEAK
  59:Drivers/CMSIS/Include/cmsis_gcc.h ****   #define __WEAK                                 __attribute__((weak))
  60:Drivers/CMSIS/Include/cmsis_gcc.h **** #endif
  61:Drivers/CMSIS/Include/cmsis_gcc.h **** #ifndef   __PACKED
  62:Drivers/CMSIS/Include/cmsis_gcc.h ****   #define __PACKED                               __attribute__((packed, aligned(1)))
  63:Drivers/CMSIS/Include/cmsis_gcc.h **** #endif
  64:Drivers/CMSIS/Include/cmsis_gcc.h **** #ifndef   __PACKED_STRUCT
  65:Drivers/CMSIS/Include/cmsis_gcc.h ****   #define __PACKED_STRUCT                        struct __attribute__((packed, aligned(1)))
  66:Drivers/CMSIS/Include/cmsis_gcc.h **** #endif
  67:Drivers/CMSIS/Include/cmsis_gcc.h **** #ifndef   __PACKED_UNION
  68:Drivers/CMSIS/Include/cmsis_gcc.h ****   #define __PACKED_UNION                         union __attribute__((packed, aligned(1)))
  69:Drivers/CMSIS/Include/cmsis_gcc.h **** #endif
  70:Drivers/CMSIS/Include/cmsis_gcc.h **** #ifndef   __UNALIGNED_UINT32        /* deprecated */
  71:Drivers/CMSIS/Include/cmsis_gcc.h ****   #pragma GCC diagnostic push
  72:Drivers/CMSIS/Include/cmsis_gcc.h ****   #pragma GCC diagnostic ignored "-Wpacked"
  73:Drivers/CMSIS/Include/cmsis_gcc.h ****   #pragma GCC diagnostic ignored "-Wattributes"
  74:Drivers/CMSIS/Include/cmsis_gcc.h ****   struct __attribute__((packed)) T_UINT32 { uint32_t v; };
  75:Drivers/CMSIS/Include/cmsis_gcc.h ****   #pragma GCC diagnostic pop
  76:Drivers/CMSIS/Include/cmsis_gcc.h ****   #define __UNALIGNED_UINT32(x)                  (((struct T_UINT32 *)(x))->v)
  77:Drivers/CMSIS/Include/cmsis_gcc.h **** #endif
  78:Drivers/CMSIS/Include/cmsis_gcc.h **** #ifndef   __UNALIGNED_UINT16_WRITE
  79:Drivers/CMSIS/Include/cmsis_gcc.h ****   #pragma GCC diagnostic push
  80:Drivers/CMSIS/Include/cmsis_gcc.h ****   #pragma GCC diagnostic ignored "-Wpacked"
  81:Drivers/CMSIS/Include/cmsis_gcc.h ****   #pragma GCC diagnostic ignored "-Wattributes"
  82:Drivers/CMSIS/Include/cmsis_gcc.h ****   __PACKED_STRUCT T_UINT16_WRITE { uint16_t v; };
  83:Drivers/CMSIS/Include/cmsis_gcc.h ****   #pragma GCC diagnostic pop
  84:Drivers/CMSIS/Include/cmsis_gcc.h ****   #define __UNALIGNED_UINT16_WRITE(addr, val)    (void)((((struct T_UINT16_WRITE *)(void *)(addr))-
  85:Drivers/CMSIS/Include/cmsis_gcc.h **** #endif
  86:Drivers/CMSIS/Include/cmsis_gcc.h **** #ifndef   __UNALIGNED_UINT16_READ
  87:Drivers/CMSIS/Include/cmsis_gcc.h ****   #pragma GCC diagnostic push
ARM GAS  /var/folders/ck/g3dcd5x55xs4107jgdl0snvr0000gn/T//cc05Prz9.s 			page 8


  88:Drivers/CMSIS/Include/cmsis_gcc.h ****   #pragma GCC diagnostic ignored "-Wpacked"
  89:Drivers/CMSIS/Include/cmsis_gcc.h ****   #pragma GCC diagnostic ignored "-Wattributes"
  90:Drivers/CMSIS/Include/cmsis_gcc.h ****   __PACKED_STRUCT T_UINT16_READ { uint16_t v; };
  91:Drivers/CMSIS/Include/cmsis_gcc.h ****   #pragma GCC diagnostic pop
  92:Drivers/CMSIS/Include/cmsis_gcc.h ****   #define __UNALIGNED_UINT16_READ(addr)          (((const struct T_UINT16_READ *)(const void *)(add
  93:Drivers/CMSIS/Include/cmsis_gcc.h **** #endif
  94:Drivers/CMSIS/Include/cmsis_gcc.h **** #ifndef   __UNALIGNED_UINT32_WRITE
  95:Drivers/CMSIS/Include/cmsis_gcc.h ****   #pragma GCC diagnostic push
  96:Drivers/CMSIS/Include/cmsis_gcc.h ****   #pragma GCC diagnostic ignored "-Wpacked"
  97:Drivers/CMSIS/Include/cmsis_gcc.h ****   #pragma GCC diagnostic ignored "-Wattributes"
  98:Drivers/CMSIS/Include/cmsis_gcc.h ****   __PACKED_STRUCT T_UINT32_WRITE { uint32_t v; };
  99:Drivers/CMSIS/Include/cmsis_gcc.h ****   #pragma GCC diagnostic pop
 100:Drivers/CMSIS/Include/cmsis_gcc.h ****   #define __UNALIGNED_UINT32_WRITE(addr, val)    (void)((((struct T_UINT32_WRITE *)(void *)(addr))-
 101:Drivers/CMSIS/Include/cmsis_gcc.h **** #endif
 102:Drivers/CMSIS/Include/cmsis_gcc.h **** #ifndef   __UNALIGNED_UINT32_READ
 103:Drivers/CMSIS/Include/cmsis_gcc.h ****   #pragma GCC diagnostic push
 104:Drivers/CMSIS/Include/cmsis_gcc.h ****   #pragma GCC diagnostic ignored "-Wpacked"
 105:Drivers/CMSIS/Include/cmsis_gcc.h ****   #pragma GCC diagnostic ignored "-Wattributes"
 106:Drivers/CMSIS/Include/cmsis_gcc.h ****   __PACKED_STRUCT T_UINT32_READ { uint32_t v; };
 107:Drivers/CMSIS/Include/cmsis_gcc.h ****   #pragma GCC diagnostic pop
 108:Drivers/CMSIS/Include/cmsis_gcc.h ****   #define __UNALIGNED_UINT32_READ(addr)          (((const struct T_UINT32_READ *)(const void *)(add
 109:Drivers/CMSIS/Include/cmsis_gcc.h **** #endif
 110:Drivers/CMSIS/Include/cmsis_gcc.h **** #ifndef   __ALIGNED
 111:Drivers/CMSIS/Include/cmsis_gcc.h ****   #define __ALIGNED(x)                           __attribute__((aligned(x)))
 112:Drivers/CMSIS/Include/cmsis_gcc.h **** #endif
 113:Drivers/CMSIS/Include/cmsis_gcc.h **** #ifndef   __RESTRICT
 114:Drivers/CMSIS/Include/cmsis_gcc.h ****   #define __RESTRICT                             __restrict
 115:Drivers/CMSIS/Include/cmsis_gcc.h **** #endif
 116:Drivers/CMSIS/Include/cmsis_gcc.h **** #ifndef   __COMPILER_BARRIER
 117:Drivers/CMSIS/Include/cmsis_gcc.h ****   #define __COMPILER_BARRIER()                   __ASM volatile("":::"memory")
 118:Drivers/CMSIS/Include/cmsis_gcc.h **** #endif
 119:Drivers/CMSIS/Include/cmsis_gcc.h **** 
 120:Drivers/CMSIS/Include/cmsis_gcc.h **** /* #########################  Startup and Lowlevel Init  ######################## */
 121:Drivers/CMSIS/Include/cmsis_gcc.h **** 
 122:Drivers/CMSIS/Include/cmsis_gcc.h **** #ifndef __PROGRAM_START
 123:Drivers/CMSIS/Include/cmsis_gcc.h **** 
 124:Drivers/CMSIS/Include/cmsis_gcc.h **** /**
 125:Drivers/CMSIS/Include/cmsis_gcc.h ****   \brief   Initializes data and bss sections
 126:Drivers/CMSIS/Include/cmsis_gcc.h ****   \details This default implementations initialized all data and additional bss
 127:Drivers/CMSIS/Include/cmsis_gcc.h ****            sections relying on .copy.table and .zero.table specified properly
 128:Drivers/CMSIS/Include/cmsis_gcc.h ****            in the used linker script.
 129:Drivers/CMSIS/Include/cmsis_gcc.h **** 
 130:Drivers/CMSIS/Include/cmsis_gcc.h ****  */
 131:Drivers/CMSIS/Include/cmsis_gcc.h **** __STATIC_FORCEINLINE __NO_RETURN void __cmsis_start(void)
 132:Drivers/CMSIS/Include/cmsis_gcc.h **** {
 133:Drivers/CMSIS/Include/cmsis_gcc.h ****   extern void _start(void) __NO_RETURN;
 134:Drivers/CMSIS/Include/cmsis_gcc.h **** 
 135:Drivers/CMSIS/Include/cmsis_gcc.h ****   typedef struct {
 136:Drivers/CMSIS/Include/cmsis_gcc.h ****     uint32_t const* src;
 137:Drivers/CMSIS/Include/cmsis_gcc.h ****     uint32_t* dest;
 138:Drivers/CMSIS/Include/cmsis_gcc.h ****     uint32_t  wlen;
 139:Drivers/CMSIS/Include/cmsis_gcc.h ****   } __copy_table_t;
 140:Drivers/CMSIS/Include/cmsis_gcc.h **** 
 141:Drivers/CMSIS/Include/cmsis_gcc.h ****   typedef struct {
 142:Drivers/CMSIS/Include/cmsis_gcc.h ****     uint32_t* dest;
 143:Drivers/CMSIS/Include/cmsis_gcc.h ****     uint32_t  wlen;
 144:Drivers/CMSIS/Include/cmsis_gcc.h ****   } __zero_table_t;
ARM GAS  /var/folders/ck/g3dcd5x55xs4107jgdl0snvr0000gn/T//cc05Prz9.s 			page 9


 145:Drivers/CMSIS/Include/cmsis_gcc.h **** 
 146:Drivers/CMSIS/Include/cmsis_gcc.h ****   extern const __copy_table_t __copy_table_start__;
 147:Drivers/CMSIS/Include/cmsis_gcc.h ****   extern const __copy_table_t __copy_table_end__;
 148:Drivers/CMSIS/Include/cmsis_gcc.h ****   extern const __zero_table_t __zero_table_start__;
 149:Drivers/CMSIS/Include/cmsis_gcc.h ****   extern const __zero_table_t __zero_table_end__;
 150:Drivers/CMSIS/Include/cmsis_gcc.h **** 
 151:Drivers/CMSIS/Include/cmsis_gcc.h ****   for (__copy_table_t const* pTable = &__copy_table_start__; pTable < &__copy_table_end__; ++pTable
 152:Drivers/CMSIS/Include/cmsis_gcc.h ****     for(uint32_t i=0u; i<pTable->wlen; ++i) {
 153:Drivers/CMSIS/Include/cmsis_gcc.h ****       pTable->dest[i] = pTable->src[i];
 154:Drivers/CMSIS/Include/cmsis_gcc.h ****     }
 155:Drivers/CMSIS/Include/cmsis_gcc.h ****   }
 156:Drivers/CMSIS/Include/cmsis_gcc.h **** 
 157:Drivers/CMSIS/Include/cmsis_gcc.h ****   for (__zero_table_t const* pTable = &__zero_table_start__; pTable < &__zero_table_end__; ++pTable
 158:Drivers/CMSIS/Include/cmsis_gcc.h ****     for(uint32_t i=0u; i<pTable->wlen; ++i) {
 159:Drivers/CMSIS/Include/cmsis_gcc.h ****       pTable->dest[i] = 0u;
 160:Drivers/CMSIS/Include/cmsis_gcc.h ****     }
 161:Drivers/CMSIS/Include/cmsis_gcc.h ****   }
 162:Drivers/CMSIS/Include/cmsis_gcc.h **** 
 163:Drivers/CMSIS/Include/cmsis_gcc.h ****   _start();
 164:Drivers/CMSIS/Include/cmsis_gcc.h **** }
 165:Drivers/CMSIS/Include/cmsis_gcc.h **** 
 166:Drivers/CMSIS/Include/cmsis_gcc.h **** #define __PROGRAM_START           __cmsis_start
 167:Drivers/CMSIS/Include/cmsis_gcc.h **** #endif
 168:Drivers/CMSIS/Include/cmsis_gcc.h **** 
 169:Drivers/CMSIS/Include/cmsis_gcc.h **** #ifndef __INITIAL_SP
 170:Drivers/CMSIS/Include/cmsis_gcc.h **** #define __INITIAL_SP              __StackTop
 171:Drivers/CMSIS/Include/cmsis_gcc.h **** #endif
 172:Drivers/CMSIS/Include/cmsis_gcc.h **** 
 173:Drivers/CMSIS/Include/cmsis_gcc.h **** #ifndef __STACK_LIMIT
 174:Drivers/CMSIS/Include/cmsis_gcc.h **** #define __STACK_LIMIT             __StackLimit
 175:Drivers/CMSIS/Include/cmsis_gcc.h **** #endif
 176:Drivers/CMSIS/Include/cmsis_gcc.h **** 
 177:Drivers/CMSIS/Include/cmsis_gcc.h **** #ifndef __VECTOR_TABLE
 178:Drivers/CMSIS/Include/cmsis_gcc.h **** #define __VECTOR_TABLE            __Vectors
 179:Drivers/CMSIS/Include/cmsis_gcc.h **** #endif
 180:Drivers/CMSIS/Include/cmsis_gcc.h **** 
 181:Drivers/CMSIS/Include/cmsis_gcc.h **** #ifndef __VECTOR_TABLE_ATTRIBUTE
 182:Drivers/CMSIS/Include/cmsis_gcc.h **** #define __VECTOR_TABLE_ATTRIBUTE  __attribute__((used, section(".vectors")))
 183:Drivers/CMSIS/Include/cmsis_gcc.h **** #endif
 184:Drivers/CMSIS/Include/cmsis_gcc.h **** 
 185:Drivers/CMSIS/Include/cmsis_gcc.h **** #if defined (__ARM_FEATURE_CMSE) && (__ARM_FEATURE_CMSE == 3U)
 186:Drivers/CMSIS/Include/cmsis_gcc.h **** #ifndef __STACK_SEAL
 187:Drivers/CMSIS/Include/cmsis_gcc.h **** #define __STACK_SEAL              __StackSeal
 188:Drivers/CMSIS/Include/cmsis_gcc.h **** #endif
 189:Drivers/CMSIS/Include/cmsis_gcc.h **** 
 190:Drivers/CMSIS/Include/cmsis_gcc.h **** #ifndef __TZ_STACK_SEAL_SIZE
 191:Drivers/CMSIS/Include/cmsis_gcc.h **** #define __TZ_STACK_SEAL_SIZE      8U
 192:Drivers/CMSIS/Include/cmsis_gcc.h **** #endif
 193:Drivers/CMSIS/Include/cmsis_gcc.h **** 
 194:Drivers/CMSIS/Include/cmsis_gcc.h **** #ifndef __TZ_STACK_SEAL_VALUE
 195:Drivers/CMSIS/Include/cmsis_gcc.h **** #define __TZ_STACK_SEAL_VALUE     0xFEF5EDA5FEF5EDA5ULL
 196:Drivers/CMSIS/Include/cmsis_gcc.h **** #endif
 197:Drivers/CMSIS/Include/cmsis_gcc.h **** 
 198:Drivers/CMSIS/Include/cmsis_gcc.h **** 
 199:Drivers/CMSIS/Include/cmsis_gcc.h **** __STATIC_FORCEINLINE void __TZ_set_STACKSEAL_S (uint32_t* stackTop) {
 200:Drivers/CMSIS/Include/cmsis_gcc.h ****   *((uint64_t *)stackTop) = __TZ_STACK_SEAL_VALUE;
 201:Drivers/CMSIS/Include/cmsis_gcc.h **** }
ARM GAS  /var/folders/ck/g3dcd5x55xs4107jgdl0snvr0000gn/T//cc05Prz9.s 			page 10


 202:Drivers/CMSIS/Include/cmsis_gcc.h **** #endif
 203:Drivers/CMSIS/Include/cmsis_gcc.h **** 
 204:Drivers/CMSIS/Include/cmsis_gcc.h **** 
 205:Drivers/CMSIS/Include/cmsis_gcc.h **** /* ##########################  Core Instruction Access  ######################### */
 206:Drivers/CMSIS/Include/cmsis_gcc.h **** /** \defgroup CMSIS_Core_InstructionInterface CMSIS Core Instruction Interface
 207:Drivers/CMSIS/Include/cmsis_gcc.h ****   Access to dedicated instructions
 208:Drivers/CMSIS/Include/cmsis_gcc.h ****   @{
 209:Drivers/CMSIS/Include/cmsis_gcc.h **** */
 210:Drivers/CMSIS/Include/cmsis_gcc.h **** 
 211:Drivers/CMSIS/Include/cmsis_gcc.h **** /* Define macros for porting to both thumb1 and thumb2.
 212:Drivers/CMSIS/Include/cmsis_gcc.h ****  * For thumb1, use low register (r0-r7), specified by constraint "l"
 213:Drivers/CMSIS/Include/cmsis_gcc.h ****  * Otherwise, use general registers, specified by constraint "r" */
 214:Drivers/CMSIS/Include/cmsis_gcc.h **** #if defined (__thumb__) && !defined (__thumb2__)
 215:Drivers/CMSIS/Include/cmsis_gcc.h **** #define __CMSIS_GCC_OUT_REG(r) "=l" (r)
 216:Drivers/CMSIS/Include/cmsis_gcc.h **** #define __CMSIS_GCC_RW_REG(r) "+l" (r)
 217:Drivers/CMSIS/Include/cmsis_gcc.h **** #define __CMSIS_GCC_USE_REG(r) "l" (r)
 218:Drivers/CMSIS/Include/cmsis_gcc.h **** #else
 219:Drivers/CMSIS/Include/cmsis_gcc.h **** #define __CMSIS_GCC_OUT_REG(r) "=r" (r)
 220:Drivers/CMSIS/Include/cmsis_gcc.h **** #define __CMSIS_GCC_RW_REG(r) "+r" (r)
 221:Drivers/CMSIS/Include/cmsis_gcc.h **** #define __CMSIS_GCC_USE_REG(r) "r" (r)
 222:Drivers/CMSIS/Include/cmsis_gcc.h **** #endif
 223:Drivers/CMSIS/Include/cmsis_gcc.h **** 
 224:Drivers/CMSIS/Include/cmsis_gcc.h **** /**
 225:Drivers/CMSIS/Include/cmsis_gcc.h ****   \brief   No Operation
 226:Drivers/CMSIS/Include/cmsis_gcc.h ****   \details No Operation does nothing. This instruction can be used for code alignment purposes.
 227:Drivers/CMSIS/Include/cmsis_gcc.h ****  */
 228:Drivers/CMSIS/Include/cmsis_gcc.h **** #define __NOP()                             __ASM volatile ("nop")
 229:Drivers/CMSIS/Include/cmsis_gcc.h **** 
 230:Drivers/CMSIS/Include/cmsis_gcc.h **** /**
 231:Drivers/CMSIS/Include/cmsis_gcc.h ****   \brief   Wait For Interrupt
 232:Drivers/CMSIS/Include/cmsis_gcc.h ****   \details Wait For Interrupt is a hint instruction that suspends execution until one of a number o
 233:Drivers/CMSIS/Include/cmsis_gcc.h ****  */
 234:Drivers/CMSIS/Include/cmsis_gcc.h **** #define __WFI()                             __ASM volatile ("wfi":::"memory")
 235:Drivers/CMSIS/Include/cmsis_gcc.h **** 
 236:Drivers/CMSIS/Include/cmsis_gcc.h **** 
 237:Drivers/CMSIS/Include/cmsis_gcc.h **** /**
 238:Drivers/CMSIS/Include/cmsis_gcc.h ****   \brief   Wait For Event
 239:Drivers/CMSIS/Include/cmsis_gcc.h ****   \details Wait For Event is a hint instruction that permits the processor to enter
 240:Drivers/CMSIS/Include/cmsis_gcc.h ****            a low-power state until one of a number of events occurs.
 241:Drivers/CMSIS/Include/cmsis_gcc.h ****  */
 242:Drivers/CMSIS/Include/cmsis_gcc.h **** #define __WFE()                             __ASM volatile ("wfe":::"memory")
 243:Drivers/CMSIS/Include/cmsis_gcc.h **** 
 244:Drivers/CMSIS/Include/cmsis_gcc.h **** 
 245:Drivers/CMSIS/Include/cmsis_gcc.h **** /**
 246:Drivers/CMSIS/Include/cmsis_gcc.h ****   \brief   Send Event
 247:Drivers/CMSIS/Include/cmsis_gcc.h ****   \details Send Event is a hint instruction. It causes an event to be signaled to the CPU.
 248:Drivers/CMSIS/Include/cmsis_gcc.h ****  */
 249:Drivers/CMSIS/Include/cmsis_gcc.h **** #define __SEV()                             __ASM volatile ("sev")
 250:Drivers/CMSIS/Include/cmsis_gcc.h **** 
 251:Drivers/CMSIS/Include/cmsis_gcc.h **** 
 252:Drivers/CMSIS/Include/cmsis_gcc.h **** /**
 253:Drivers/CMSIS/Include/cmsis_gcc.h ****   \brief   Instruction Synchronization Barrier
 254:Drivers/CMSIS/Include/cmsis_gcc.h ****   \details Instruction Synchronization Barrier flushes the pipeline in the processor,
 255:Drivers/CMSIS/Include/cmsis_gcc.h ****            so that all instructions following the ISB are fetched from cache or memory,
 256:Drivers/CMSIS/Include/cmsis_gcc.h ****            after the instruction has been completed.
 257:Drivers/CMSIS/Include/cmsis_gcc.h ****  */
 258:Drivers/CMSIS/Include/cmsis_gcc.h **** __STATIC_FORCEINLINE void __ISB(void)
ARM GAS  /var/folders/ck/g3dcd5x55xs4107jgdl0snvr0000gn/T//cc05Prz9.s 			page 11


 259:Drivers/CMSIS/Include/cmsis_gcc.h **** {
 260:Drivers/CMSIS/Include/cmsis_gcc.h ****   __ASM volatile ("isb 0xF":::"memory");
 261:Drivers/CMSIS/Include/cmsis_gcc.h **** }
 262:Drivers/CMSIS/Include/cmsis_gcc.h **** 
 263:Drivers/CMSIS/Include/cmsis_gcc.h **** 
 264:Drivers/CMSIS/Include/cmsis_gcc.h **** /**
 265:Drivers/CMSIS/Include/cmsis_gcc.h ****   \brief   Data Synchronization Barrier
 266:Drivers/CMSIS/Include/cmsis_gcc.h ****   \details Acts as a special kind of Data Memory Barrier.
 267:Drivers/CMSIS/Include/cmsis_gcc.h ****            It completes when all explicit memory accesses before this instruction complete.
 268:Drivers/CMSIS/Include/cmsis_gcc.h ****  */
 269:Drivers/CMSIS/Include/cmsis_gcc.h **** __STATIC_FORCEINLINE void __DSB(void)
 270:Drivers/CMSIS/Include/cmsis_gcc.h **** {
 271:Drivers/CMSIS/Include/cmsis_gcc.h ****   __ASM volatile ("dsb 0xF":::"memory");
 272:Drivers/CMSIS/Include/cmsis_gcc.h **** }
 273:Drivers/CMSIS/Include/cmsis_gcc.h **** 
 274:Drivers/CMSIS/Include/cmsis_gcc.h **** 
 275:Drivers/CMSIS/Include/cmsis_gcc.h **** /**
 276:Drivers/CMSIS/Include/cmsis_gcc.h ****   \brief   Data Memory Barrier
 277:Drivers/CMSIS/Include/cmsis_gcc.h ****   \details Ensures the apparent order of the explicit memory operations before
 278:Drivers/CMSIS/Include/cmsis_gcc.h ****            and after the instruction, without ensuring their completion.
 279:Drivers/CMSIS/Include/cmsis_gcc.h ****  */
 280:Drivers/CMSIS/Include/cmsis_gcc.h **** __STATIC_FORCEINLINE void __DMB(void)
 281:Drivers/CMSIS/Include/cmsis_gcc.h **** {
 282:Drivers/CMSIS/Include/cmsis_gcc.h ****   __ASM volatile ("dmb 0xF":::"memory");
 283:Drivers/CMSIS/Include/cmsis_gcc.h **** }
 284:Drivers/CMSIS/Include/cmsis_gcc.h **** 
 285:Drivers/CMSIS/Include/cmsis_gcc.h **** 
 286:Drivers/CMSIS/Include/cmsis_gcc.h **** /**
 287:Drivers/CMSIS/Include/cmsis_gcc.h ****   \brief   Reverse byte order (32 bit)
 288:Drivers/CMSIS/Include/cmsis_gcc.h ****   \details Reverses the byte order in unsigned integer value. For example, 0x12345678 becomes 0x785
 289:Drivers/CMSIS/Include/cmsis_gcc.h ****   \param [in]    value  Value to reverse
 290:Drivers/CMSIS/Include/cmsis_gcc.h ****   \return               Reversed value
 291:Drivers/CMSIS/Include/cmsis_gcc.h ****  */
 292:Drivers/CMSIS/Include/cmsis_gcc.h **** __STATIC_FORCEINLINE uint32_t __REV(uint32_t value)
 293:Drivers/CMSIS/Include/cmsis_gcc.h **** {
 294:Drivers/CMSIS/Include/cmsis_gcc.h **** #if (__GNUC__ > 4) || (__GNUC__ == 4 && __GNUC_MINOR__ >= 5)
 295:Drivers/CMSIS/Include/cmsis_gcc.h ****   return __builtin_bswap32(value);
 296:Drivers/CMSIS/Include/cmsis_gcc.h **** #else
 297:Drivers/CMSIS/Include/cmsis_gcc.h ****   uint32_t result;
 298:Drivers/CMSIS/Include/cmsis_gcc.h **** 
 299:Drivers/CMSIS/Include/cmsis_gcc.h ****   __ASM ("rev %0, %1" : __CMSIS_GCC_OUT_REG (result) : __CMSIS_GCC_USE_REG (value) );
 300:Drivers/CMSIS/Include/cmsis_gcc.h ****   return result;
 301:Drivers/CMSIS/Include/cmsis_gcc.h **** #endif
 302:Drivers/CMSIS/Include/cmsis_gcc.h **** }
 303:Drivers/CMSIS/Include/cmsis_gcc.h **** 
 304:Drivers/CMSIS/Include/cmsis_gcc.h **** 
 305:Drivers/CMSIS/Include/cmsis_gcc.h **** /**
 306:Drivers/CMSIS/Include/cmsis_gcc.h ****   \brief   Reverse byte order (16 bit)
 307:Drivers/CMSIS/Include/cmsis_gcc.h ****   \details Reverses the byte order within each halfword of a word. For example, 0x12345678 becomes 
 308:Drivers/CMSIS/Include/cmsis_gcc.h ****   \param [in]    value  Value to reverse
 309:Drivers/CMSIS/Include/cmsis_gcc.h ****   \return               Reversed value
 310:Drivers/CMSIS/Include/cmsis_gcc.h ****  */
 311:Drivers/CMSIS/Include/cmsis_gcc.h **** __STATIC_FORCEINLINE uint32_t __REV16(uint32_t value)
 312:Drivers/CMSIS/Include/cmsis_gcc.h **** {
 313:Drivers/CMSIS/Include/cmsis_gcc.h ****   uint32_t result;
 314:Drivers/CMSIS/Include/cmsis_gcc.h **** 
 315:Drivers/CMSIS/Include/cmsis_gcc.h ****   __ASM ("rev16 %0, %1" : __CMSIS_GCC_OUT_REG (result) : __CMSIS_GCC_USE_REG (value) );
ARM GAS  /var/folders/ck/g3dcd5x55xs4107jgdl0snvr0000gn/T//cc05Prz9.s 			page 12


 316:Drivers/CMSIS/Include/cmsis_gcc.h ****   return result;
 317:Drivers/CMSIS/Include/cmsis_gcc.h **** }
 318:Drivers/CMSIS/Include/cmsis_gcc.h **** 
 319:Drivers/CMSIS/Include/cmsis_gcc.h **** 
 320:Drivers/CMSIS/Include/cmsis_gcc.h **** /**
 321:Drivers/CMSIS/Include/cmsis_gcc.h ****   \brief   Reverse byte order (16 bit)
 322:Drivers/CMSIS/Include/cmsis_gcc.h ****   \details Reverses the byte order in a 16-bit value and returns the signed 16-bit result. For exam
 323:Drivers/CMSIS/Include/cmsis_gcc.h ****   \param [in]    value  Value to reverse
 324:Drivers/CMSIS/Include/cmsis_gcc.h ****   \return               Reversed value
 325:Drivers/CMSIS/Include/cmsis_gcc.h ****  */
 326:Drivers/CMSIS/Include/cmsis_gcc.h **** __STATIC_FORCEINLINE int16_t __REVSH(int16_t value)
 327:Drivers/CMSIS/Include/cmsis_gcc.h **** {
 328:Drivers/CMSIS/Include/cmsis_gcc.h **** #if (__GNUC__ > 4) || (__GNUC__ == 4 && __GNUC_MINOR__ >= 8)
 329:Drivers/CMSIS/Include/cmsis_gcc.h ****   return (int16_t)__builtin_bswap16(value);
 330:Drivers/CMSIS/Include/cmsis_gcc.h **** #else
 331:Drivers/CMSIS/Include/cmsis_gcc.h ****   int16_t result;
 332:Drivers/CMSIS/Include/cmsis_gcc.h **** 
 333:Drivers/CMSIS/Include/cmsis_gcc.h ****   __ASM ("revsh %0, %1" : __CMSIS_GCC_OUT_REG (result) : __CMSIS_GCC_USE_REG (value) );
 334:Drivers/CMSIS/Include/cmsis_gcc.h ****   return result;
 335:Drivers/CMSIS/Include/cmsis_gcc.h **** #endif
 336:Drivers/CMSIS/Include/cmsis_gcc.h **** }
 337:Drivers/CMSIS/Include/cmsis_gcc.h **** 
 338:Drivers/CMSIS/Include/cmsis_gcc.h **** 
 339:Drivers/CMSIS/Include/cmsis_gcc.h **** /**
 340:Drivers/CMSIS/Include/cmsis_gcc.h ****   \brief   Rotate Right in unsigned value (32 bit)
 341:Drivers/CMSIS/Include/cmsis_gcc.h ****   \details Rotate Right (immediate) provides the value of the contents of a register rotated by a v
 342:Drivers/CMSIS/Include/cmsis_gcc.h ****   \param [in]    op1  Value to rotate
 343:Drivers/CMSIS/Include/cmsis_gcc.h ****   \param [in]    op2  Number of Bits to rotate
 344:Drivers/CMSIS/Include/cmsis_gcc.h ****   \return               Rotated value
 345:Drivers/CMSIS/Include/cmsis_gcc.h ****  */
 346:Drivers/CMSIS/Include/cmsis_gcc.h **** __STATIC_FORCEINLINE uint32_t __ROR(uint32_t op1, uint32_t op2)
 347:Drivers/CMSIS/Include/cmsis_gcc.h **** {
 348:Drivers/CMSIS/Include/cmsis_gcc.h ****   op2 %= 32U;
 349:Drivers/CMSIS/Include/cmsis_gcc.h ****   if (op2 == 0U)
 350:Drivers/CMSIS/Include/cmsis_gcc.h ****   {
 351:Drivers/CMSIS/Include/cmsis_gcc.h ****     return op1;
 352:Drivers/CMSIS/Include/cmsis_gcc.h ****   }
 353:Drivers/CMSIS/Include/cmsis_gcc.h ****   return (op1 >> op2) | (op1 << (32U - op2));
 354:Drivers/CMSIS/Include/cmsis_gcc.h **** }
 355:Drivers/CMSIS/Include/cmsis_gcc.h **** 
 356:Drivers/CMSIS/Include/cmsis_gcc.h **** 
 357:Drivers/CMSIS/Include/cmsis_gcc.h **** /**
 358:Drivers/CMSIS/Include/cmsis_gcc.h ****   \brief   Breakpoint
 359:Drivers/CMSIS/Include/cmsis_gcc.h ****   \details Causes the processor to enter Debug state.
 360:Drivers/CMSIS/Include/cmsis_gcc.h ****            Debug tools can use this to investigate system state when the instruction at a particula
 361:Drivers/CMSIS/Include/cmsis_gcc.h ****   \param [in]    value  is ignored by the processor.
 362:Drivers/CMSIS/Include/cmsis_gcc.h ****                  If required, a debugger can use it to store additional information about the break
 363:Drivers/CMSIS/Include/cmsis_gcc.h ****  */
 364:Drivers/CMSIS/Include/cmsis_gcc.h **** #define __BKPT(value)                       __ASM volatile ("bkpt "#value)
 365:Drivers/CMSIS/Include/cmsis_gcc.h **** 
 366:Drivers/CMSIS/Include/cmsis_gcc.h **** 
 367:Drivers/CMSIS/Include/cmsis_gcc.h **** /**
 368:Drivers/CMSIS/Include/cmsis_gcc.h ****   \brief   Reverse bit order of value
 369:Drivers/CMSIS/Include/cmsis_gcc.h ****   \details Reverses the bit order of the given value.
 370:Drivers/CMSIS/Include/cmsis_gcc.h ****   \param [in]    value  Value to reverse
 371:Drivers/CMSIS/Include/cmsis_gcc.h ****   \return               Reversed value
 372:Drivers/CMSIS/Include/cmsis_gcc.h ****  */
ARM GAS  /var/folders/ck/g3dcd5x55xs4107jgdl0snvr0000gn/T//cc05Prz9.s 			page 13


 373:Drivers/CMSIS/Include/cmsis_gcc.h **** __STATIC_FORCEINLINE uint32_t __RBIT(uint32_t value)
 374:Drivers/CMSIS/Include/cmsis_gcc.h **** {
 375:Drivers/CMSIS/Include/cmsis_gcc.h ****   uint32_t result;
 376:Drivers/CMSIS/Include/cmsis_gcc.h **** 
 377:Drivers/CMSIS/Include/cmsis_gcc.h **** #if ((defined (__ARM_ARCH_7M__      ) && (__ARM_ARCH_7M__      == 1)) || \
 378:Drivers/CMSIS/Include/cmsis_gcc.h ****      (defined (__ARM_ARCH_7EM__     ) && (__ARM_ARCH_7EM__     == 1)) || \
 379:Drivers/CMSIS/Include/cmsis_gcc.h ****      (defined (__ARM_ARCH_8M_MAIN__ ) && (__ARM_ARCH_8M_MAIN__ == 1))    )
 380:Drivers/CMSIS/Include/cmsis_gcc.h ****    __ASM ("rbit %0, %1" : "=r" (result) : "r" (value) );
 381:Drivers/CMSIS/Include/cmsis_gcc.h **** #else
 382:Drivers/CMSIS/Include/cmsis_gcc.h ****   uint32_t s = (4U /*sizeof(v)*/ * 8U) - 1U; /* extra shift needed at end */
 383:Drivers/CMSIS/Include/cmsis_gcc.h **** 
 384:Drivers/CMSIS/Include/cmsis_gcc.h ****   result = value;                      /* r will be reversed bits of v; first get LSB of v */
 385:Drivers/CMSIS/Include/cmsis_gcc.h ****   for (value >>= 1U; value != 0U; value >>= 1U)
 386:Drivers/CMSIS/Include/cmsis_gcc.h ****   {
 387:Drivers/CMSIS/Include/cmsis_gcc.h ****     result <<= 1U;
 388:Drivers/CMSIS/Include/cmsis_gcc.h ****     result |= value & 1U;
 389:Drivers/CMSIS/Include/cmsis_gcc.h ****     s--;
 390:Drivers/CMSIS/Include/cmsis_gcc.h ****   }
 391:Drivers/CMSIS/Include/cmsis_gcc.h ****   result <<= s;                        /* shift when v's highest bits are zero */
 392:Drivers/CMSIS/Include/cmsis_gcc.h **** #endif
 393:Drivers/CMSIS/Include/cmsis_gcc.h ****   return result;
 394:Drivers/CMSIS/Include/cmsis_gcc.h **** }
 395:Drivers/CMSIS/Include/cmsis_gcc.h **** 
 396:Drivers/CMSIS/Include/cmsis_gcc.h **** 
 397:Drivers/CMSIS/Include/cmsis_gcc.h **** /**
 398:Drivers/CMSIS/Include/cmsis_gcc.h ****   \brief   Count leading zeros
 399:Drivers/CMSIS/Include/cmsis_gcc.h ****   \details Counts the number of leading zeros of a data value.
 400:Drivers/CMSIS/Include/cmsis_gcc.h ****   \param [in]  value  Value to count the leading zeros
 401:Drivers/CMSIS/Include/cmsis_gcc.h ****   \return             number of leading zeros in value
 402:Drivers/CMSIS/Include/cmsis_gcc.h ****  */
 403:Drivers/CMSIS/Include/cmsis_gcc.h **** __STATIC_FORCEINLINE uint8_t __CLZ(uint32_t value)
 404:Drivers/CMSIS/Include/cmsis_gcc.h **** {
 405:Drivers/CMSIS/Include/cmsis_gcc.h ****   /* Even though __builtin_clz produces a CLZ instruction on ARM, formally
 406:Drivers/CMSIS/Include/cmsis_gcc.h ****      __builtin_clz(0) is undefined behaviour, so handle this case specially.
 407:Drivers/CMSIS/Include/cmsis_gcc.h ****      This guarantees ARM-compatible results if happening to compile on a non-ARM
 408:Drivers/CMSIS/Include/cmsis_gcc.h ****      target, and ensures the compiler doesn't decide to activate any
 409:Drivers/CMSIS/Include/cmsis_gcc.h ****      optimisations using the logic "value was passed to __builtin_clz, so it
 410:Drivers/CMSIS/Include/cmsis_gcc.h ****      is non-zero".
 411:Drivers/CMSIS/Include/cmsis_gcc.h ****      ARM GCC 7.3 and possibly earlier will optimise this test away, leaving a
 412:Drivers/CMSIS/Include/cmsis_gcc.h ****      single CLZ instruction.
 413:Drivers/CMSIS/Include/cmsis_gcc.h ****    */
 414:Drivers/CMSIS/Include/cmsis_gcc.h ****   if (value == 0U)
 415:Drivers/CMSIS/Include/cmsis_gcc.h ****   {
 416:Drivers/CMSIS/Include/cmsis_gcc.h ****     return 32U;
 417:Drivers/CMSIS/Include/cmsis_gcc.h ****   }
 418:Drivers/CMSIS/Include/cmsis_gcc.h ****   return __builtin_clz(value);
 419:Drivers/CMSIS/Include/cmsis_gcc.h **** }
 420:Drivers/CMSIS/Include/cmsis_gcc.h **** 
 421:Drivers/CMSIS/Include/cmsis_gcc.h **** 
 422:Drivers/CMSIS/Include/cmsis_gcc.h **** #if ((defined (__ARM_ARCH_7M__      ) && (__ARM_ARCH_7M__      == 1)) || \
 423:Drivers/CMSIS/Include/cmsis_gcc.h ****      (defined (__ARM_ARCH_7EM__     ) && (__ARM_ARCH_7EM__     == 1)) || \
 424:Drivers/CMSIS/Include/cmsis_gcc.h ****      (defined (__ARM_ARCH_8M_MAIN__ ) && (__ARM_ARCH_8M_MAIN__ == 1)) || \
 425:Drivers/CMSIS/Include/cmsis_gcc.h ****      (defined (__ARM_ARCH_8M_BASE__ ) && (__ARM_ARCH_8M_BASE__ == 1))    )
 426:Drivers/CMSIS/Include/cmsis_gcc.h **** /**
 427:Drivers/CMSIS/Include/cmsis_gcc.h ****   \brief   LDR Exclusive (8 bit)
 428:Drivers/CMSIS/Include/cmsis_gcc.h ****   \details Executes a exclusive LDR instruction for 8 bit value.
 429:Drivers/CMSIS/Include/cmsis_gcc.h ****   \param [in]    ptr  Pointer to data
ARM GAS  /var/folders/ck/g3dcd5x55xs4107jgdl0snvr0000gn/T//cc05Prz9.s 			page 14


 430:Drivers/CMSIS/Include/cmsis_gcc.h ****   \return             value of type uint8_t at (*ptr)
 431:Drivers/CMSIS/Include/cmsis_gcc.h ****  */
 432:Drivers/CMSIS/Include/cmsis_gcc.h **** __STATIC_FORCEINLINE uint8_t __LDREXB(volatile uint8_t *addr)
 433:Drivers/CMSIS/Include/cmsis_gcc.h **** {
 434:Drivers/CMSIS/Include/cmsis_gcc.h ****     uint32_t result;
 435:Drivers/CMSIS/Include/cmsis_gcc.h **** 
 436:Drivers/CMSIS/Include/cmsis_gcc.h **** #if (__GNUC__ > 4) || (__GNUC__ == 4 && __GNUC_MINOR__ >= 8)
 437:Drivers/CMSIS/Include/cmsis_gcc.h ****    __ASM volatile ("ldrexb %0, %1" : "=r" (result) : "Q" (*addr) );
 438:Drivers/CMSIS/Include/cmsis_gcc.h **** #else
 439:Drivers/CMSIS/Include/cmsis_gcc.h ****     /* Prior to GCC 4.8, "Q" will be expanded to [rx, #0] which is not
 440:Drivers/CMSIS/Include/cmsis_gcc.h ****        accepted by assembler. So has to use following less efficient pattern.
 441:Drivers/CMSIS/Include/cmsis_gcc.h ****     */
 442:Drivers/CMSIS/Include/cmsis_gcc.h ****    __ASM volatile ("ldrexb %0, [%1]" : "=r" (result) : "r" (addr) : "memory" );
 443:Drivers/CMSIS/Include/cmsis_gcc.h **** #endif
 444:Drivers/CMSIS/Include/cmsis_gcc.h ****    return ((uint8_t) result);    /* Add explicit type cast here */
 445:Drivers/CMSIS/Include/cmsis_gcc.h **** }
 446:Drivers/CMSIS/Include/cmsis_gcc.h **** 
 447:Drivers/CMSIS/Include/cmsis_gcc.h **** 
 448:Drivers/CMSIS/Include/cmsis_gcc.h **** /**
 449:Drivers/CMSIS/Include/cmsis_gcc.h ****   \brief   LDR Exclusive (16 bit)
 450:Drivers/CMSIS/Include/cmsis_gcc.h ****   \details Executes a exclusive LDR instruction for 16 bit values.
 451:Drivers/CMSIS/Include/cmsis_gcc.h ****   \param [in]    ptr  Pointer to data
 452:Drivers/CMSIS/Include/cmsis_gcc.h ****   \return        value of type uint16_t at (*ptr)
 453:Drivers/CMSIS/Include/cmsis_gcc.h ****  */
 454:Drivers/CMSIS/Include/cmsis_gcc.h **** __STATIC_FORCEINLINE uint16_t __LDREXH(volatile uint16_t *addr)
 455:Drivers/CMSIS/Include/cmsis_gcc.h **** {
 456:Drivers/CMSIS/Include/cmsis_gcc.h ****     uint32_t result;
 457:Drivers/CMSIS/Include/cmsis_gcc.h **** 
 458:Drivers/CMSIS/Include/cmsis_gcc.h **** #if (__GNUC__ > 4) || (__GNUC__ == 4 && __GNUC_MINOR__ >= 8)
 459:Drivers/CMSIS/Include/cmsis_gcc.h ****    __ASM volatile ("ldrexh %0, %1" : "=r" (result) : "Q" (*addr) );
 460:Drivers/CMSIS/Include/cmsis_gcc.h **** #else
 461:Drivers/CMSIS/Include/cmsis_gcc.h ****     /* Prior to GCC 4.8, "Q" will be expanded to [rx, #0] which is not
 462:Drivers/CMSIS/Include/cmsis_gcc.h ****        accepted by assembler. So has to use following less efficient pattern.
 463:Drivers/CMSIS/Include/cmsis_gcc.h ****     */
 464:Drivers/CMSIS/Include/cmsis_gcc.h ****    __ASM volatile ("ldrexh %0, [%1]" : "=r" (result) : "r" (addr) : "memory" );
 465:Drivers/CMSIS/Include/cmsis_gcc.h **** #endif
 466:Drivers/CMSIS/Include/cmsis_gcc.h ****    return ((uint16_t) result);    /* Add explicit type cast here */
 467:Drivers/CMSIS/Include/cmsis_gcc.h **** }
 468:Drivers/CMSIS/Include/cmsis_gcc.h **** 
 469:Drivers/CMSIS/Include/cmsis_gcc.h **** 
 470:Drivers/CMSIS/Include/cmsis_gcc.h **** /**
 471:Drivers/CMSIS/Include/cmsis_gcc.h ****   \brief   LDR Exclusive (32 bit)
 472:Drivers/CMSIS/Include/cmsis_gcc.h ****   \details Executes a exclusive LDR instruction for 32 bit values.
 473:Drivers/CMSIS/Include/cmsis_gcc.h ****   \param [in]    ptr  Pointer to data
 474:Drivers/CMSIS/Include/cmsis_gcc.h ****   \return        value of type uint32_t at (*ptr)
 475:Drivers/CMSIS/Include/cmsis_gcc.h ****  */
 476:Drivers/CMSIS/Include/cmsis_gcc.h **** __STATIC_FORCEINLINE uint32_t __LDREXW(volatile uint32_t *addr)
 477:Drivers/CMSIS/Include/cmsis_gcc.h **** {
 478:Drivers/CMSIS/Include/cmsis_gcc.h ****     uint32_t result;
 479:Drivers/CMSIS/Include/cmsis_gcc.h **** 
 480:Drivers/CMSIS/Include/cmsis_gcc.h ****    __ASM volatile ("ldrex %0, %1" : "=r" (result) : "Q" (*addr) );
 481:Drivers/CMSIS/Include/cmsis_gcc.h ****    return(result);
 482:Drivers/CMSIS/Include/cmsis_gcc.h **** }
 483:Drivers/CMSIS/Include/cmsis_gcc.h **** 
 484:Drivers/CMSIS/Include/cmsis_gcc.h **** 
 485:Drivers/CMSIS/Include/cmsis_gcc.h **** /**
 486:Drivers/CMSIS/Include/cmsis_gcc.h ****   \brief   STR Exclusive (8 bit)
ARM GAS  /var/folders/ck/g3dcd5x55xs4107jgdl0snvr0000gn/T//cc05Prz9.s 			page 15


 487:Drivers/CMSIS/Include/cmsis_gcc.h ****   \details Executes a exclusive STR instruction for 8 bit values.
 488:Drivers/CMSIS/Include/cmsis_gcc.h ****   \param [in]  value  Value to store
 489:Drivers/CMSIS/Include/cmsis_gcc.h ****   \param [in]    ptr  Pointer to location
 490:Drivers/CMSIS/Include/cmsis_gcc.h ****   \return          0  Function succeeded
 491:Drivers/CMSIS/Include/cmsis_gcc.h ****   \return          1  Function failed
 492:Drivers/CMSIS/Include/cmsis_gcc.h ****  */
 493:Drivers/CMSIS/Include/cmsis_gcc.h **** __STATIC_FORCEINLINE uint32_t __STREXB(uint8_t value, volatile uint8_t *addr)
 494:Drivers/CMSIS/Include/cmsis_gcc.h **** {
 495:Drivers/CMSIS/Include/cmsis_gcc.h ****    uint32_t result;
 496:Drivers/CMSIS/Include/cmsis_gcc.h **** 
 497:Drivers/CMSIS/Include/cmsis_gcc.h ****    __ASM volatile ("strexb %0, %2, %1" : "=&r" (result), "=Q" (*addr) : "r" ((uint32_t)value) );
 498:Drivers/CMSIS/Include/cmsis_gcc.h ****    return(result);
 499:Drivers/CMSIS/Include/cmsis_gcc.h **** }
 500:Drivers/CMSIS/Include/cmsis_gcc.h **** 
 501:Drivers/CMSIS/Include/cmsis_gcc.h **** 
 502:Drivers/CMSIS/Include/cmsis_gcc.h **** /**
 503:Drivers/CMSIS/Include/cmsis_gcc.h ****   \brief   STR Exclusive (16 bit)
 504:Drivers/CMSIS/Include/cmsis_gcc.h ****   \details Executes a exclusive STR instruction for 16 bit values.
 505:Drivers/CMSIS/Include/cmsis_gcc.h ****   \param [in]  value  Value to store
 506:Drivers/CMSIS/Include/cmsis_gcc.h ****   \param [in]    ptr  Pointer to location
 507:Drivers/CMSIS/Include/cmsis_gcc.h ****   \return          0  Function succeeded
 508:Drivers/CMSIS/Include/cmsis_gcc.h ****   \return          1  Function failed
 509:Drivers/CMSIS/Include/cmsis_gcc.h ****  */
 510:Drivers/CMSIS/Include/cmsis_gcc.h **** __STATIC_FORCEINLINE uint32_t __STREXH(uint16_t value, volatile uint16_t *addr)
 511:Drivers/CMSIS/Include/cmsis_gcc.h **** {
 512:Drivers/CMSIS/Include/cmsis_gcc.h ****    uint32_t result;
 513:Drivers/CMSIS/Include/cmsis_gcc.h **** 
 514:Drivers/CMSIS/Include/cmsis_gcc.h ****    __ASM volatile ("strexh %0, %2, %1" : "=&r" (result), "=Q" (*addr) : "r" ((uint32_t)value) );
 515:Drivers/CMSIS/Include/cmsis_gcc.h ****    return(result);
 516:Drivers/CMSIS/Include/cmsis_gcc.h **** }
 517:Drivers/CMSIS/Include/cmsis_gcc.h **** 
 518:Drivers/CMSIS/Include/cmsis_gcc.h **** 
 519:Drivers/CMSIS/Include/cmsis_gcc.h **** /**
 520:Drivers/CMSIS/Include/cmsis_gcc.h ****   \brief   STR Exclusive (32 bit)
 521:Drivers/CMSIS/Include/cmsis_gcc.h ****   \details Executes a exclusive STR instruction for 32 bit values.
 522:Drivers/CMSIS/Include/cmsis_gcc.h ****   \param [in]  value  Value to store
 523:Drivers/CMSIS/Include/cmsis_gcc.h ****   \param [in]    ptr  Pointer to location
 524:Drivers/CMSIS/Include/cmsis_gcc.h ****   \return          0  Function succeeded
 525:Drivers/CMSIS/Include/cmsis_gcc.h ****   \return          1  Function failed
 526:Drivers/CMSIS/Include/cmsis_gcc.h ****  */
 527:Drivers/CMSIS/Include/cmsis_gcc.h **** __STATIC_FORCEINLINE uint32_t __STREXW(uint32_t value, volatile uint32_t *addr)
 528:Drivers/CMSIS/Include/cmsis_gcc.h **** {
 529:Drivers/CMSIS/Include/cmsis_gcc.h ****    uint32_t result;
 530:Drivers/CMSIS/Include/cmsis_gcc.h **** 
 531:Drivers/CMSIS/Include/cmsis_gcc.h ****    __ASM volatile ("strex %0, %2, %1" : "=&r" (result), "=Q" (*addr) : "r" (value) );
 532:Drivers/CMSIS/Include/cmsis_gcc.h ****    return(result);
 533:Drivers/CMSIS/Include/cmsis_gcc.h **** }
 534:Drivers/CMSIS/Include/cmsis_gcc.h **** 
 535:Drivers/CMSIS/Include/cmsis_gcc.h **** 
 536:Drivers/CMSIS/Include/cmsis_gcc.h **** /**
 537:Drivers/CMSIS/Include/cmsis_gcc.h ****   \brief   Remove the exclusive lock
 538:Drivers/CMSIS/Include/cmsis_gcc.h ****   \details Removes the exclusive lock which is created by LDREX.
 539:Drivers/CMSIS/Include/cmsis_gcc.h ****  */
 540:Drivers/CMSIS/Include/cmsis_gcc.h **** __STATIC_FORCEINLINE void __CLREX(void)
 541:Drivers/CMSIS/Include/cmsis_gcc.h **** {
 542:Drivers/CMSIS/Include/cmsis_gcc.h ****   __ASM volatile ("clrex" ::: "memory");
 543:Drivers/CMSIS/Include/cmsis_gcc.h **** }
ARM GAS  /var/folders/ck/g3dcd5x55xs4107jgdl0snvr0000gn/T//cc05Prz9.s 			page 16


 544:Drivers/CMSIS/Include/cmsis_gcc.h **** 
 545:Drivers/CMSIS/Include/cmsis_gcc.h **** #endif /* ((defined (__ARM_ARCH_7M__      ) && (__ARM_ARCH_7M__      == 1)) || \
 546:Drivers/CMSIS/Include/cmsis_gcc.h ****            (defined (__ARM_ARCH_7EM__     ) && (__ARM_ARCH_7EM__     == 1)) || \
 547:Drivers/CMSIS/Include/cmsis_gcc.h ****            (defined (__ARM_ARCH_8M_MAIN__ ) && (__ARM_ARCH_8M_MAIN__ == 1)) || \
 548:Drivers/CMSIS/Include/cmsis_gcc.h ****            (defined (__ARM_ARCH_8M_BASE__ ) && (__ARM_ARCH_8M_BASE__ == 1))    ) */
 549:Drivers/CMSIS/Include/cmsis_gcc.h **** 
 550:Drivers/CMSIS/Include/cmsis_gcc.h **** 
 551:Drivers/CMSIS/Include/cmsis_gcc.h **** #if ((defined (__ARM_ARCH_7M__      ) && (__ARM_ARCH_7M__      == 1)) || \
 552:Drivers/CMSIS/Include/cmsis_gcc.h ****      (defined (__ARM_ARCH_7EM__     ) && (__ARM_ARCH_7EM__     == 1)) || \
 553:Drivers/CMSIS/Include/cmsis_gcc.h ****      (defined (__ARM_ARCH_8M_MAIN__ ) && (__ARM_ARCH_8M_MAIN__ == 1))    )
 554:Drivers/CMSIS/Include/cmsis_gcc.h **** /**
 555:Drivers/CMSIS/Include/cmsis_gcc.h ****   \brief   Signed Saturate
 556:Drivers/CMSIS/Include/cmsis_gcc.h ****   \details Saturates a signed value.
 557:Drivers/CMSIS/Include/cmsis_gcc.h ****   \param [in]  ARG1  Value to be saturated
 558:Drivers/CMSIS/Include/cmsis_gcc.h ****   \param [in]  ARG2  Bit position to saturate to (1..32)
 559:Drivers/CMSIS/Include/cmsis_gcc.h ****   \return             Saturated value
 560:Drivers/CMSIS/Include/cmsis_gcc.h ****  */
 561:Drivers/CMSIS/Include/cmsis_gcc.h **** #define __SSAT(ARG1, ARG2) \
 562:Drivers/CMSIS/Include/cmsis_gcc.h **** __extension__ \
 563:Drivers/CMSIS/Include/cmsis_gcc.h **** ({                          \
 564:Drivers/CMSIS/Include/cmsis_gcc.h ****   int32_t __RES, __ARG1 = (ARG1); \
 565:Drivers/CMSIS/Include/cmsis_gcc.h ****   __ASM volatile ("ssat %0, %1, %2" : "=r" (__RES) :  "I" (ARG2), "r" (__ARG1) : "cc" ); \
 566:Drivers/CMSIS/Include/cmsis_gcc.h ****   __RES; \
 567:Drivers/CMSIS/Include/cmsis_gcc.h ****  })
 568:Drivers/CMSIS/Include/cmsis_gcc.h **** 
 569:Drivers/CMSIS/Include/cmsis_gcc.h **** 
 570:Drivers/CMSIS/Include/cmsis_gcc.h **** /**
 571:Drivers/CMSIS/Include/cmsis_gcc.h ****   \brief   Unsigned Saturate
 572:Drivers/CMSIS/Include/cmsis_gcc.h ****   \details Saturates an unsigned value.
 573:Drivers/CMSIS/Include/cmsis_gcc.h ****   \param [in]  ARG1  Value to be saturated
 574:Drivers/CMSIS/Include/cmsis_gcc.h ****   \param [in]  ARG2  Bit position to saturate to (0..31)
 575:Drivers/CMSIS/Include/cmsis_gcc.h ****   \return             Saturated value
 576:Drivers/CMSIS/Include/cmsis_gcc.h ****  */
 577:Drivers/CMSIS/Include/cmsis_gcc.h **** #define __USAT(ARG1, ARG2) \
 578:Drivers/CMSIS/Include/cmsis_gcc.h **** __extension__ \
 579:Drivers/CMSIS/Include/cmsis_gcc.h **** ({                          \
 580:Drivers/CMSIS/Include/cmsis_gcc.h ****   uint32_t __RES, __ARG1 = (ARG1); \
 581:Drivers/CMSIS/Include/cmsis_gcc.h ****   __ASM volatile ("usat %0, %1, %2" : "=r" (__RES) :  "I" (ARG2), "r" (__ARG1) : "cc" ); \
 582:Drivers/CMSIS/Include/cmsis_gcc.h ****   __RES; \
 583:Drivers/CMSIS/Include/cmsis_gcc.h ****  })
 584:Drivers/CMSIS/Include/cmsis_gcc.h **** 
 585:Drivers/CMSIS/Include/cmsis_gcc.h **** 
 586:Drivers/CMSIS/Include/cmsis_gcc.h **** /**
 587:Drivers/CMSIS/Include/cmsis_gcc.h ****   \brief   Rotate Right with Extend (32 bit)
 588:Drivers/CMSIS/Include/cmsis_gcc.h ****   \details Moves each bit of a bitstring right by one bit.
 589:Drivers/CMSIS/Include/cmsis_gcc.h ****            The carry input is shifted in at the left end of the bitstring.
 590:Drivers/CMSIS/Include/cmsis_gcc.h ****   \param [in]    value  Value to rotate
 591:Drivers/CMSIS/Include/cmsis_gcc.h ****   \return               Rotated value
 592:Drivers/CMSIS/Include/cmsis_gcc.h ****  */
 593:Drivers/CMSIS/Include/cmsis_gcc.h **** __STATIC_FORCEINLINE uint32_t __RRX(uint32_t value)
 594:Drivers/CMSIS/Include/cmsis_gcc.h **** {
 595:Drivers/CMSIS/Include/cmsis_gcc.h ****   uint32_t result;
 596:Drivers/CMSIS/Include/cmsis_gcc.h **** 
 597:Drivers/CMSIS/Include/cmsis_gcc.h ****   __ASM volatile ("rrx %0, %1" : __CMSIS_GCC_OUT_REG (result) : __CMSIS_GCC_USE_REG (value) );
 598:Drivers/CMSIS/Include/cmsis_gcc.h ****   return(result);
 599:Drivers/CMSIS/Include/cmsis_gcc.h **** }
 600:Drivers/CMSIS/Include/cmsis_gcc.h **** 
ARM GAS  /var/folders/ck/g3dcd5x55xs4107jgdl0snvr0000gn/T//cc05Prz9.s 			page 17


 601:Drivers/CMSIS/Include/cmsis_gcc.h **** 
 602:Drivers/CMSIS/Include/cmsis_gcc.h **** /**
 603:Drivers/CMSIS/Include/cmsis_gcc.h ****   \brief   LDRT Unprivileged (8 bit)
 604:Drivers/CMSIS/Include/cmsis_gcc.h ****   \details Executes a Unprivileged LDRT instruction for 8 bit value.
 605:Drivers/CMSIS/Include/cmsis_gcc.h ****   \param [in]    ptr  Pointer to data
 606:Drivers/CMSIS/Include/cmsis_gcc.h ****   \return             value of type uint8_t at (*ptr)
 607:Drivers/CMSIS/Include/cmsis_gcc.h ****  */
 608:Drivers/CMSIS/Include/cmsis_gcc.h **** __STATIC_FORCEINLINE uint8_t __LDRBT(volatile uint8_t *ptr)
 609:Drivers/CMSIS/Include/cmsis_gcc.h **** {
 610:Drivers/CMSIS/Include/cmsis_gcc.h ****     uint32_t result;
 611:Drivers/CMSIS/Include/cmsis_gcc.h **** 
 612:Drivers/CMSIS/Include/cmsis_gcc.h **** #if (__GNUC__ > 4) || (__GNUC__ == 4 && __GNUC_MINOR__ >= 8)
 613:Drivers/CMSIS/Include/cmsis_gcc.h ****    __ASM volatile ("ldrbt %0, %1" : "=r" (result) : "Q" (*ptr) );
 614:Drivers/CMSIS/Include/cmsis_gcc.h **** #else
 615:Drivers/CMSIS/Include/cmsis_gcc.h ****     /* Prior to GCC 4.8, "Q" will be expanded to [rx, #0] which is not
 616:Drivers/CMSIS/Include/cmsis_gcc.h ****        accepted by assembler. So has to use following less efficient pattern.
 617:Drivers/CMSIS/Include/cmsis_gcc.h ****     */
 618:Drivers/CMSIS/Include/cmsis_gcc.h ****    __ASM volatile ("ldrbt %0, [%1]" : "=r" (result) : "r" (ptr) : "memory" );
 619:Drivers/CMSIS/Include/cmsis_gcc.h **** #endif
 620:Drivers/CMSIS/Include/cmsis_gcc.h ****    return ((uint8_t) result);    /* Add explicit type cast here */
 621:Drivers/CMSIS/Include/cmsis_gcc.h **** }
 622:Drivers/CMSIS/Include/cmsis_gcc.h **** 
 623:Drivers/CMSIS/Include/cmsis_gcc.h **** 
 624:Drivers/CMSIS/Include/cmsis_gcc.h **** /**
 625:Drivers/CMSIS/Include/cmsis_gcc.h ****   \brief   LDRT Unprivileged (16 bit)
 626:Drivers/CMSIS/Include/cmsis_gcc.h ****   \details Executes a Unprivileged LDRT instruction for 16 bit values.
 627:Drivers/CMSIS/Include/cmsis_gcc.h ****   \param [in]    ptr  Pointer to data
 628:Drivers/CMSIS/Include/cmsis_gcc.h ****   \return        value of type uint16_t at (*ptr)
 629:Drivers/CMSIS/Include/cmsis_gcc.h ****  */
 630:Drivers/CMSIS/Include/cmsis_gcc.h **** __STATIC_FORCEINLINE uint16_t __LDRHT(volatile uint16_t *ptr)
 631:Drivers/CMSIS/Include/cmsis_gcc.h **** {
 632:Drivers/CMSIS/Include/cmsis_gcc.h ****     uint32_t result;
 633:Drivers/CMSIS/Include/cmsis_gcc.h **** 
 634:Drivers/CMSIS/Include/cmsis_gcc.h **** #if (__GNUC__ > 4) || (__GNUC__ == 4 && __GNUC_MINOR__ >= 8)
 635:Drivers/CMSIS/Include/cmsis_gcc.h ****    __ASM volatile ("ldrht %0, %1" : "=r" (result) : "Q" (*ptr) );
 636:Drivers/CMSIS/Include/cmsis_gcc.h **** #else
 637:Drivers/CMSIS/Include/cmsis_gcc.h ****     /* Prior to GCC 4.8, "Q" will be expanded to [rx, #0] which is not
 638:Drivers/CMSIS/Include/cmsis_gcc.h ****        accepted by assembler. So has to use following less efficient pattern.
 639:Drivers/CMSIS/Include/cmsis_gcc.h ****     */
 640:Drivers/CMSIS/Include/cmsis_gcc.h ****    __ASM volatile ("ldrht %0, [%1]" : "=r" (result) : "r" (ptr) : "memory" );
 641:Drivers/CMSIS/Include/cmsis_gcc.h **** #endif
 642:Drivers/CMSIS/Include/cmsis_gcc.h ****    return ((uint16_t) result);    /* Add explicit type cast here */
 643:Drivers/CMSIS/Include/cmsis_gcc.h **** }
 644:Drivers/CMSIS/Include/cmsis_gcc.h **** 
 645:Drivers/CMSIS/Include/cmsis_gcc.h **** 
 646:Drivers/CMSIS/Include/cmsis_gcc.h **** /**
 647:Drivers/CMSIS/Include/cmsis_gcc.h ****   \brief   LDRT Unprivileged (32 bit)
 648:Drivers/CMSIS/Include/cmsis_gcc.h ****   \details Executes a Unprivileged LDRT instruction for 32 bit values.
 649:Drivers/CMSIS/Include/cmsis_gcc.h ****   \param [in]    ptr  Pointer to data
 650:Drivers/CMSIS/Include/cmsis_gcc.h ****   \return        value of type uint32_t at (*ptr)
 651:Drivers/CMSIS/Include/cmsis_gcc.h ****  */
 652:Drivers/CMSIS/Include/cmsis_gcc.h **** __STATIC_FORCEINLINE uint32_t __LDRT(volatile uint32_t *ptr)
 653:Drivers/CMSIS/Include/cmsis_gcc.h **** {
 654:Drivers/CMSIS/Include/cmsis_gcc.h ****     uint32_t result;
 655:Drivers/CMSIS/Include/cmsis_gcc.h **** 
 656:Drivers/CMSIS/Include/cmsis_gcc.h ****    __ASM volatile ("ldrt %0, %1" : "=r" (result) : "Q" (*ptr) );
 657:Drivers/CMSIS/Include/cmsis_gcc.h ****    return(result);
ARM GAS  /var/folders/ck/g3dcd5x55xs4107jgdl0snvr0000gn/T//cc05Prz9.s 			page 18


 658:Drivers/CMSIS/Include/cmsis_gcc.h **** }
 659:Drivers/CMSIS/Include/cmsis_gcc.h **** 
 660:Drivers/CMSIS/Include/cmsis_gcc.h **** 
 661:Drivers/CMSIS/Include/cmsis_gcc.h **** /**
 662:Drivers/CMSIS/Include/cmsis_gcc.h ****   \brief   STRT Unprivileged (8 bit)
 663:Drivers/CMSIS/Include/cmsis_gcc.h ****   \details Executes a Unprivileged STRT instruction for 8 bit values.
 664:Drivers/CMSIS/Include/cmsis_gcc.h ****   \param [in]  value  Value to store
 665:Drivers/CMSIS/Include/cmsis_gcc.h ****   \param [in]    ptr  Pointer to location
 666:Drivers/CMSIS/Include/cmsis_gcc.h ****  */
 667:Drivers/CMSIS/Include/cmsis_gcc.h **** __STATIC_FORCEINLINE void __STRBT(uint8_t value, volatile uint8_t *ptr)
 668:Drivers/CMSIS/Include/cmsis_gcc.h **** {
 669:Drivers/CMSIS/Include/cmsis_gcc.h ****    __ASM volatile ("strbt %1, %0" : "=Q" (*ptr) : "r" ((uint32_t)value) );
 670:Drivers/CMSIS/Include/cmsis_gcc.h **** }
 671:Drivers/CMSIS/Include/cmsis_gcc.h **** 
 672:Drivers/CMSIS/Include/cmsis_gcc.h **** 
 673:Drivers/CMSIS/Include/cmsis_gcc.h **** /**
 674:Drivers/CMSIS/Include/cmsis_gcc.h ****   \brief   STRT Unprivileged (16 bit)
 675:Drivers/CMSIS/Include/cmsis_gcc.h ****   \details Executes a Unprivileged STRT instruction for 16 bit values.
 676:Drivers/CMSIS/Include/cmsis_gcc.h ****   \param [in]  value  Value to store
 677:Drivers/CMSIS/Include/cmsis_gcc.h ****   \param [in]    ptr  Pointer to location
 678:Drivers/CMSIS/Include/cmsis_gcc.h ****  */
 679:Drivers/CMSIS/Include/cmsis_gcc.h **** __STATIC_FORCEINLINE void __STRHT(uint16_t value, volatile uint16_t *ptr)
 680:Drivers/CMSIS/Include/cmsis_gcc.h **** {
 681:Drivers/CMSIS/Include/cmsis_gcc.h ****    __ASM volatile ("strht %1, %0" : "=Q" (*ptr) : "r" ((uint32_t)value) );
 682:Drivers/CMSIS/Include/cmsis_gcc.h **** }
 683:Drivers/CMSIS/Include/cmsis_gcc.h **** 
 684:Drivers/CMSIS/Include/cmsis_gcc.h **** 
 685:Drivers/CMSIS/Include/cmsis_gcc.h **** /**
 686:Drivers/CMSIS/Include/cmsis_gcc.h ****   \brief   STRT Unprivileged (32 bit)
 687:Drivers/CMSIS/Include/cmsis_gcc.h ****   \details Executes a Unprivileged STRT instruction for 32 bit values.
 688:Drivers/CMSIS/Include/cmsis_gcc.h ****   \param [in]  value  Value to store
 689:Drivers/CMSIS/Include/cmsis_gcc.h ****   \param [in]    ptr  Pointer to location
 690:Drivers/CMSIS/Include/cmsis_gcc.h ****  */
 691:Drivers/CMSIS/Include/cmsis_gcc.h **** __STATIC_FORCEINLINE void __STRT(uint32_t value, volatile uint32_t *ptr)
 692:Drivers/CMSIS/Include/cmsis_gcc.h **** {
 693:Drivers/CMSIS/Include/cmsis_gcc.h ****    __ASM volatile ("strt %1, %0" : "=Q" (*ptr) : "r" (value) );
 694:Drivers/CMSIS/Include/cmsis_gcc.h **** }
 695:Drivers/CMSIS/Include/cmsis_gcc.h **** 
 696:Drivers/CMSIS/Include/cmsis_gcc.h **** #else  /* ((defined (__ARM_ARCH_7M__      ) && (__ARM_ARCH_7M__      == 1)) || \
 697:Drivers/CMSIS/Include/cmsis_gcc.h ****            (defined (__ARM_ARCH_7EM__     ) && (__ARM_ARCH_7EM__     == 1)) || \
 698:Drivers/CMSIS/Include/cmsis_gcc.h ****            (defined (__ARM_ARCH_8M_MAIN__ ) && (__ARM_ARCH_8M_MAIN__ == 1))    ) */
 699:Drivers/CMSIS/Include/cmsis_gcc.h **** 
 700:Drivers/CMSIS/Include/cmsis_gcc.h **** /**
 701:Drivers/CMSIS/Include/cmsis_gcc.h ****   \brief   Signed Saturate
 702:Drivers/CMSIS/Include/cmsis_gcc.h ****   \details Saturates a signed value.
 703:Drivers/CMSIS/Include/cmsis_gcc.h ****   \param [in]  value  Value to be saturated
 704:Drivers/CMSIS/Include/cmsis_gcc.h ****   \param [in]    sat  Bit position to saturate to (1..32)
 705:Drivers/CMSIS/Include/cmsis_gcc.h ****   \return             Saturated value
 706:Drivers/CMSIS/Include/cmsis_gcc.h ****  */
 707:Drivers/CMSIS/Include/cmsis_gcc.h **** __STATIC_FORCEINLINE int32_t __SSAT(int32_t val, uint32_t sat)
 708:Drivers/CMSIS/Include/cmsis_gcc.h **** {
 709:Drivers/CMSIS/Include/cmsis_gcc.h ****   if ((sat >= 1U) && (sat <= 32U))
 710:Drivers/CMSIS/Include/cmsis_gcc.h ****   {
 711:Drivers/CMSIS/Include/cmsis_gcc.h ****     const int32_t max = (int32_t)((1U << (sat - 1U)) - 1U);
 712:Drivers/CMSIS/Include/cmsis_gcc.h ****     const int32_t min = -1 - max ;
 713:Drivers/CMSIS/Include/cmsis_gcc.h ****     if (val > max)
 714:Drivers/CMSIS/Include/cmsis_gcc.h ****     {
ARM GAS  /var/folders/ck/g3dcd5x55xs4107jgdl0snvr0000gn/T//cc05Prz9.s 			page 19


 715:Drivers/CMSIS/Include/cmsis_gcc.h ****       return max;
 716:Drivers/CMSIS/Include/cmsis_gcc.h ****     }
 717:Drivers/CMSIS/Include/cmsis_gcc.h ****     else if (val < min)
 718:Drivers/CMSIS/Include/cmsis_gcc.h ****     {
 719:Drivers/CMSIS/Include/cmsis_gcc.h ****       return min;
 720:Drivers/CMSIS/Include/cmsis_gcc.h ****     }
 721:Drivers/CMSIS/Include/cmsis_gcc.h ****   }
 722:Drivers/CMSIS/Include/cmsis_gcc.h ****   return val;
 723:Drivers/CMSIS/Include/cmsis_gcc.h **** }
 724:Drivers/CMSIS/Include/cmsis_gcc.h **** 
 725:Drivers/CMSIS/Include/cmsis_gcc.h **** /**
 726:Drivers/CMSIS/Include/cmsis_gcc.h ****   \brief   Unsigned Saturate
 727:Drivers/CMSIS/Include/cmsis_gcc.h ****   \details Saturates an unsigned value.
 728:Drivers/CMSIS/Include/cmsis_gcc.h ****   \param [in]  value  Value to be saturated
 729:Drivers/CMSIS/Include/cmsis_gcc.h ****   \param [in]    sat  Bit position to saturate to (0..31)
 730:Drivers/CMSIS/Include/cmsis_gcc.h ****   \return             Saturated value
 731:Drivers/CMSIS/Include/cmsis_gcc.h ****  */
 732:Drivers/CMSIS/Include/cmsis_gcc.h **** __STATIC_FORCEINLINE uint32_t __USAT(int32_t val, uint32_t sat)
 733:Drivers/CMSIS/Include/cmsis_gcc.h **** {
 734:Drivers/CMSIS/Include/cmsis_gcc.h ****   if (sat <= 31U)
 735:Drivers/CMSIS/Include/cmsis_gcc.h ****   {
 736:Drivers/CMSIS/Include/cmsis_gcc.h ****     const uint32_t max = ((1U << sat) - 1U);
 737:Drivers/CMSIS/Include/cmsis_gcc.h ****     if (val > (int32_t)max)
 738:Drivers/CMSIS/Include/cmsis_gcc.h ****     {
 739:Drivers/CMSIS/Include/cmsis_gcc.h ****       return max;
 740:Drivers/CMSIS/Include/cmsis_gcc.h ****     }
 741:Drivers/CMSIS/Include/cmsis_gcc.h ****     else if (val < 0)
 742:Drivers/CMSIS/Include/cmsis_gcc.h ****     {
 743:Drivers/CMSIS/Include/cmsis_gcc.h ****       return 0U;
 744:Drivers/CMSIS/Include/cmsis_gcc.h ****     }
 745:Drivers/CMSIS/Include/cmsis_gcc.h ****   }
 746:Drivers/CMSIS/Include/cmsis_gcc.h ****   return (uint32_t)val;
 747:Drivers/CMSIS/Include/cmsis_gcc.h **** }
 748:Drivers/CMSIS/Include/cmsis_gcc.h **** 
 749:Drivers/CMSIS/Include/cmsis_gcc.h **** #endif /* ((defined (__ARM_ARCH_7M__      ) && (__ARM_ARCH_7M__      == 1)) || \
 750:Drivers/CMSIS/Include/cmsis_gcc.h ****            (defined (__ARM_ARCH_7EM__     ) && (__ARM_ARCH_7EM__     == 1)) || \
 751:Drivers/CMSIS/Include/cmsis_gcc.h ****            (defined (__ARM_ARCH_8M_MAIN__ ) && (__ARM_ARCH_8M_MAIN__ == 1))    ) */
 752:Drivers/CMSIS/Include/cmsis_gcc.h **** 
 753:Drivers/CMSIS/Include/cmsis_gcc.h **** 
 754:Drivers/CMSIS/Include/cmsis_gcc.h **** #if ((defined (__ARM_ARCH_8M_MAIN__ ) && (__ARM_ARCH_8M_MAIN__ == 1)) || \
 755:Drivers/CMSIS/Include/cmsis_gcc.h ****      (defined (__ARM_ARCH_8M_BASE__ ) && (__ARM_ARCH_8M_BASE__ == 1))    )
 756:Drivers/CMSIS/Include/cmsis_gcc.h **** /**
 757:Drivers/CMSIS/Include/cmsis_gcc.h ****   \brief   Load-Acquire (8 bit)
 758:Drivers/CMSIS/Include/cmsis_gcc.h ****   \details Executes a LDAB instruction for 8 bit value.
 759:Drivers/CMSIS/Include/cmsis_gcc.h ****   \param [in]    ptr  Pointer to data
 760:Drivers/CMSIS/Include/cmsis_gcc.h ****   \return             value of type uint8_t at (*ptr)
 761:Drivers/CMSIS/Include/cmsis_gcc.h ****  */
 762:Drivers/CMSIS/Include/cmsis_gcc.h **** __STATIC_FORCEINLINE uint8_t __LDAB(volatile uint8_t *ptr)
 763:Drivers/CMSIS/Include/cmsis_gcc.h **** {
 764:Drivers/CMSIS/Include/cmsis_gcc.h ****     uint32_t result;
 765:Drivers/CMSIS/Include/cmsis_gcc.h **** 
 766:Drivers/CMSIS/Include/cmsis_gcc.h ****    __ASM volatile ("ldab %0, %1" : "=r" (result) : "Q" (*ptr) : "memory" );
 767:Drivers/CMSIS/Include/cmsis_gcc.h ****    return ((uint8_t) result);
 768:Drivers/CMSIS/Include/cmsis_gcc.h **** }
 769:Drivers/CMSIS/Include/cmsis_gcc.h **** 
 770:Drivers/CMSIS/Include/cmsis_gcc.h **** 
 771:Drivers/CMSIS/Include/cmsis_gcc.h **** /**
ARM GAS  /var/folders/ck/g3dcd5x55xs4107jgdl0snvr0000gn/T//cc05Prz9.s 			page 20


 772:Drivers/CMSIS/Include/cmsis_gcc.h ****   \brief   Load-Acquire (16 bit)
 773:Drivers/CMSIS/Include/cmsis_gcc.h ****   \details Executes a LDAH instruction for 16 bit values.
 774:Drivers/CMSIS/Include/cmsis_gcc.h ****   \param [in]    ptr  Pointer to data
 775:Drivers/CMSIS/Include/cmsis_gcc.h ****   \return        value of type uint16_t at (*ptr)
 776:Drivers/CMSIS/Include/cmsis_gcc.h ****  */
 777:Drivers/CMSIS/Include/cmsis_gcc.h **** __STATIC_FORCEINLINE uint16_t __LDAH(volatile uint16_t *ptr)
 778:Drivers/CMSIS/Include/cmsis_gcc.h **** {
 779:Drivers/CMSIS/Include/cmsis_gcc.h ****     uint32_t result;
 780:Drivers/CMSIS/Include/cmsis_gcc.h **** 
 781:Drivers/CMSIS/Include/cmsis_gcc.h ****    __ASM volatile ("ldah %0, %1" : "=r" (result) : "Q" (*ptr) : "memory" );
 782:Drivers/CMSIS/Include/cmsis_gcc.h ****    return ((uint16_t) result);
 783:Drivers/CMSIS/Include/cmsis_gcc.h **** }
 784:Drivers/CMSIS/Include/cmsis_gcc.h **** 
 785:Drivers/CMSIS/Include/cmsis_gcc.h **** 
 786:Drivers/CMSIS/Include/cmsis_gcc.h **** /**
 787:Drivers/CMSIS/Include/cmsis_gcc.h ****   \brief   Load-Acquire (32 bit)
 788:Drivers/CMSIS/Include/cmsis_gcc.h ****   \details Executes a LDA instruction for 32 bit values.
 789:Drivers/CMSIS/Include/cmsis_gcc.h ****   \param [in]    ptr  Pointer to data
 790:Drivers/CMSIS/Include/cmsis_gcc.h ****   \return        value of type uint32_t at (*ptr)
 791:Drivers/CMSIS/Include/cmsis_gcc.h ****  */
 792:Drivers/CMSIS/Include/cmsis_gcc.h **** __STATIC_FORCEINLINE uint32_t __LDA(volatile uint32_t *ptr)
 793:Drivers/CMSIS/Include/cmsis_gcc.h **** {
 794:Drivers/CMSIS/Include/cmsis_gcc.h ****     uint32_t result;
 795:Drivers/CMSIS/Include/cmsis_gcc.h **** 
 796:Drivers/CMSIS/Include/cmsis_gcc.h ****    __ASM volatile ("lda %0, %1" : "=r" (result) : "Q" (*ptr) : "memory" );
 797:Drivers/CMSIS/Include/cmsis_gcc.h ****    return(result);
 798:Drivers/CMSIS/Include/cmsis_gcc.h **** }
 799:Drivers/CMSIS/Include/cmsis_gcc.h **** 
 800:Drivers/CMSIS/Include/cmsis_gcc.h **** 
 801:Drivers/CMSIS/Include/cmsis_gcc.h **** /**
 802:Drivers/CMSIS/Include/cmsis_gcc.h ****   \brief   Store-Release (8 bit)
 803:Drivers/CMSIS/Include/cmsis_gcc.h ****   \details Executes a STLB instruction for 8 bit values.
 804:Drivers/CMSIS/Include/cmsis_gcc.h ****   \param [in]  value  Value to store
 805:Drivers/CMSIS/Include/cmsis_gcc.h ****   \param [in]    ptr  Pointer to location
 806:Drivers/CMSIS/Include/cmsis_gcc.h ****  */
 807:Drivers/CMSIS/Include/cmsis_gcc.h **** __STATIC_FORCEINLINE void __STLB(uint8_t value, volatile uint8_t *ptr)
 808:Drivers/CMSIS/Include/cmsis_gcc.h **** {
 809:Drivers/CMSIS/Include/cmsis_gcc.h ****    __ASM volatile ("stlb %1, %0" : "=Q" (*ptr) : "r" ((uint32_t)value) : "memory" );
 810:Drivers/CMSIS/Include/cmsis_gcc.h **** }
 811:Drivers/CMSIS/Include/cmsis_gcc.h **** 
 812:Drivers/CMSIS/Include/cmsis_gcc.h **** 
 813:Drivers/CMSIS/Include/cmsis_gcc.h **** /**
 814:Drivers/CMSIS/Include/cmsis_gcc.h ****   \brief   Store-Release (16 bit)
 815:Drivers/CMSIS/Include/cmsis_gcc.h ****   \details Executes a STLH instruction for 16 bit values.
 816:Drivers/CMSIS/Include/cmsis_gcc.h ****   \param [in]  value  Value to store
 817:Drivers/CMSIS/Include/cmsis_gcc.h ****   \param [in]    ptr  Pointer to location
 818:Drivers/CMSIS/Include/cmsis_gcc.h ****  */
 819:Drivers/CMSIS/Include/cmsis_gcc.h **** __STATIC_FORCEINLINE void __STLH(uint16_t value, volatile uint16_t *ptr)
 820:Drivers/CMSIS/Include/cmsis_gcc.h **** {
 821:Drivers/CMSIS/Include/cmsis_gcc.h ****    __ASM volatile ("stlh %1, %0" : "=Q" (*ptr) : "r" ((uint32_t)value) : "memory" );
 822:Drivers/CMSIS/Include/cmsis_gcc.h **** }
 823:Drivers/CMSIS/Include/cmsis_gcc.h **** 
 824:Drivers/CMSIS/Include/cmsis_gcc.h **** 
 825:Drivers/CMSIS/Include/cmsis_gcc.h **** /**
 826:Drivers/CMSIS/Include/cmsis_gcc.h ****   \brief   Store-Release (32 bit)
 827:Drivers/CMSIS/Include/cmsis_gcc.h ****   \details Executes a STL instruction for 32 bit values.
 828:Drivers/CMSIS/Include/cmsis_gcc.h ****   \param [in]  value  Value to store
ARM GAS  /var/folders/ck/g3dcd5x55xs4107jgdl0snvr0000gn/T//cc05Prz9.s 			page 21


 829:Drivers/CMSIS/Include/cmsis_gcc.h ****   \param [in]    ptr  Pointer to location
 830:Drivers/CMSIS/Include/cmsis_gcc.h ****  */
 831:Drivers/CMSIS/Include/cmsis_gcc.h **** __STATIC_FORCEINLINE void __STL(uint32_t value, volatile uint32_t *ptr)
 832:Drivers/CMSIS/Include/cmsis_gcc.h **** {
 833:Drivers/CMSIS/Include/cmsis_gcc.h ****    __ASM volatile ("stl %1, %0" : "=Q" (*ptr) : "r" ((uint32_t)value) : "memory" );
 834:Drivers/CMSIS/Include/cmsis_gcc.h **** }
 835:Drivers/CMSIS/Include/cmsis_gcc.h **** 
 836:Drivers/CMSIS/Include/cmsis_gcc.h **** 
 837:Drivers/CMSIS/Include/cmsis_gcc.h **** /**
 838:Drivers/CMSIS/Include/cmsis_gcc.h ****   \brief   Load-Acquire Exclusive (8 bit)
 839:Drivers/CMSIS/Include/cmsis_gcc.h ****   \details Executes a LDAB exclusive instruction for 8 bit value.
 840:Drivers/CMSIS/Include/cmsis_gcc.h ****   \param [in]    ptr  Pointer to data
 841:Drivers/CMSIS/Include/cmsis_gcc.h ****   \return             value of type uint8_t at (*ptr)
 842:Drivers/CMSIS/Include/cmsis_gcc.h ****  */
 843:Drivers/CMSIS/Include/cmsis_gcc.h **** __STATIC_FORCEINLINE uint8_t __LDAEXB(volatile uint8_t *ptr)
 844:Drivers/CMSIS/Include/cmsis_gcc.h **** {
 845:Drivers/CMSIS/Include/cmsis_gcc.h ****     uint32_t result;
 846:Drivers/CMSIS/Include/cmsis_gcc.h **** 
 847:Drivers/CMSIS/Include/cmsis_gcc.h ****    __ASM volatile ("ldaexb %0, %1" : "=r" (result) : "Q" (*ptr) : "memory" );
 848:Drivers/CMSIS/Include/cmsis_gcc.h ****    return ((uint8_t) result);
 849:Drivers/CMSIS/Include/cmsis_gcc.h **** }
 850:Drivers/CMSIS/Include/cmsis_gcc.h **** 
 851:Drivers/CMSIS/Include/cmsis_gcc.h **** 
 852:Drivers/CMSIS/Include/cmsis_gcc.h **** /**
 853:Drivers/CMSIS/Include/cmsis_gcc.h ****   \brief   Load-Acquire Exclusive (16 bit)
 854:Drivers/CMSIS/Include/cmsis_gcc.h ****   \details Executes a LDAH exclusive instruction for 16 bit values.
 855:Drivers/CMSIS/Include/cmsis_gcc.h ****   \param [in]    ptr  Pointer to data
 856:Drivers/CMSIS/Include/cmsis_gcc.h ****   \return        value of type uint16_t at (*ptr)
 857:Drivers/CMSIS/Include/cmsis_gcc.h ****  */
 858:Drivers/CMSIS/Include/cmsis_gcc.h **** __STATIC_FORCEINLINE uint16_t __LDAEXH(volatile uint16_t *ptr)
 859:Drivers/CMSIS/Include/cmsis_gcc.h **** {
 860:Drivers/CMSIS/Include/cmsis_gcc.h ****     uint32_t result;
 861:Drivers/CMSIS/Include/cmsis_gcc.h **** 
 862:Drivers/CMSIS/Include/cmsis_gcc.h ****    __ASM volatile ("ldaexh %0, %1" : "=r" (result) : "Q" (*ptr) : "memory" );
 863:Drivers/CMSIS/Include/cmsis_gcc.h ****    return ((uint16_t) result);
 864:Drivers/CMSIS/Include/cmsis_gcc.h **** }
 865:Drivers/CMSIS/Include/cmsis_gcc.h **** 
 866:Drivers/CMSIS/Include/cmsis_gcc.h **** 
 867:Drivers/CMSIS/Include/cmsis_gcc.h **** /**
 868:Drivers/CMSIS/Include/cmsis_gcc.h ****   \brief   Load-Acquire Exclusive (32 bit)
 869:Drivers/CMSIS/Include/cmsis_gcc.h ****   \details Executes a LDA exclusive instruction for 32 bit values.
 870:Drivers/CMSIS/Include/cmsis_gcc.h ****   \param [in]    ptr  Pointer to data
 871:Drivers/CMSIS/Include/cmsis_gcc.h ****   \return        value of type uint32_t at (*ptr)
 872:Drivers/CMSIS/Include/cmsis_gcc.h ****  */
 873:Drivers/CMSIS/Include/cmsis_gcc.h **** __STATIC_FORCEINLINE uint32_t __LDAEX(volatile uint32_t *ptr)
 874:Drivers/CMSIS/Include/cmsis_gcc.h **** {
 875:Drivers/CMSIS/Include/cmsis_gcc.h ****     uint32_t result;
 876:Drivers/CMSIS/Include/cmsis_gcc.h **** 
 877:Drivers/CMSIS/Include/cmsis_gcc.h ****    __ASM volatile ("ldaex %0, %1" : "=r" (result) : "Q" (*ptr) : "memory" );
 878:Drivers/CMSIS/Include/cmsis_gcc.h ****    return(result);
 879:Drivers/CMSIS/Include/cmsis_gcc.h **** }
 880:Drivers/CMSIS/Include/cmsis_gcc.h **** 
 881:Drivers/CMSIS/Include/cmsis_gcc.h **** 
 882:Drivers/CMSIS/Include/cmsis_gcc.h **** /**
 883:Drivers/CMSIS/Include/cmsis_gcc.h ****   \brief   Store-Release Exclusive (8 bit)
 884:Drivers/CMSIS/Include/cmsis_gcc.h ****   \details Executes a STLB exclusive instruction for 8 bit values.
 885:Drivers/CMSIS/Include/cmsis_gcc.h ****   \param [in]  value  Value to store
ARM GAS  /var/folders/ck/g3dcd5x55xs4107jgdl0snvr0000gn/T//cc05Prz9.s 			page 22


 886:Drivers/CMSIS/Include/cmsis_gcc.h ****   \param [in]    ptr  Pointer to location
 887:Drivers/CMSIS/Include/cmsis_gcc.h ****   \return          0  Function succeeded
 888:Drivers/CMSIS/Include/cmsis_gcc.h ****   \return          1  Function failed
 889:Drivers/CMSIS/Include/cmsis_gcc.h ****  */
 890:Drivers/CMSIS/Include/cmsis_gcc.h **** __STATIC_FORCEINLINE uint32_t __STLEXB(uint8_t value, volatile uint8_t *ptr)
 891:Drivers/CMSIS/Include/cmsis_gcc.h **** {
 892:Drivers/CMSIS/Include/cmsis_gcc.h ****    uint32_t result;
 893:Drivers/CMSIS/Include/cmsis_gcc.h **** 
 894:Drivers/CMSIS/Include/cmsis_gcc.h ****    __ASM volatile ("stlexb %0, %2, %1" : "=&r" (result), "=Q" (*ptr) : "r" ((uint32_t)value) : "mem
 895:Drivers/CMSIS/Include/cmsis_gcc.h ****    return(result);
 896:Drivers/CMSIS/Include/cmsis_gcc.h **** }
 897:Drivers/CMSIS/Include/cmsis_gcc.h **** 
 898:Drivers/CMSIS/Include/cmsis_gcc.h **** 
 899:Drivers/CMSIS/Include/cmsis_gcc.h **** /**
 900:Drivers/CMSIS/Include/cmsis_gcc.h ****   \brief   Store-Release Exclusive (16 bit)
 901:Drivers/CMSIS/Include/cmsis_gcc.h ****   \details Executes a STLH exclusive instruction for 16 bit values.
 902:Drivers/CMSIS/Include/cmsis_gcc.h ****   \param [in]  value  Value to store
 903:Drivers/CMSIS/Include/cmsis_gcc.h ****   \param [in]    ptr  Pointer to location
 904:Drivers/CMSIS/Include/cmsis_gcc.h ****   \return          0  Function succeeded
 905:Drivers/CMSIS/Include/cmsis_gcc.h ****   \return          1  Function failed
 906:Drivers/CMSIS/Include/cmsis_gcc.h ****  */
 907:Drivers/CMSIS/Include/cmsis_gcc.h **** __STATIC_FORCEINLINE uint32_t __STLEXH(uint16_t value, volatile uint16_t *ptr)
 908:Drivers/CMSIS/Include/cmsis_gcc.h **** {
 909:Drivers/CMSIS/Include/cmsis_gcc.h ****    uint32_t result;
 910:Drivers/CMSIS/Include/cmsis_gcc.h **** 
 911:Drivers/CMSIS/Include/cmsis_gcc.h ****    __ASM volatile ("stlexh %0, %2, %1" : "=&r" (result), "=Q" (*ptr) : "r" ((uint32_t)value) : "mem
 912:Drivers/CMSIS/Include/cmsis_gcc.h ****    return(result);
 913:Drivers/CMSIS/Include/cmsis_gcc.h **** }
 914:Drivers/CMSIS/Include/cmsis_gcc.h **** 
 915:Drivers/CMSIS/Include/cmsis_gcc.h **** 
 916:Drivers/CMSIS/Include/cmsis_gcc.h **** /**
 917:Drivers/CMSIS/Include/cmsis_gcc.h ****   \brief   Store-Release Exclusive (32 bit)
 918:Drivers/CMSIS/Include/cmsis_gcc.h ****   \details Executes a STL exclusive instruction for 32 bit values.
 919:Drivers/CMSIS/Include/cmsis_gcc.h ****   \param [in]  value  Value to store
 920:Drivers/CMSIS/Include/cmsis_gcc.h ****   \param [in]    ptr  Pointer to location
 921:Drivers/CMSIS/Include/cmsis_gcc.h ****   \return          0  Function succeeded
 922:Drivers/CMSIS/Include/cmsis_gcc.h ****   \return          1  Function failed
 923:Drivers/CMSIS/Include/cmsis_gcc.h ****  */
 924:Drivers/CMSIS/Include/cmsis_gcc.h **** __STATIC_FORCEINLINE uint32_t __STLEX(uint32_t value, volatile uint32_t *ptr)
 925:Drivers/CMSIS/Include/cmsis_gcc.h **** {
 926:Drivers/CMSIS/Include/cmsis_gcc.h ****    uint32_t result;
 927:Drivers/CMSIS/Include/cmsis_gcc.h **** 
 928:Drivers/CMSIS/Include/cmsis_gcc.h ****    __ASM volatile ("stlex %0, %2, %1" : "=&r" (result), "=Q" (*ptr) : "r" ((uint32_t)value) : "memo
 929:Drivers/CMSIS/Include/cmsis_gcc.h ****    return(result);
 930:Drivers/CMSIS/Include/cmsis_gcc.h **** }
 931:Drivers/CMSIS/Include/cmsis_gcc.h **** 
 932:Drivers/CMSIS/Include/cmsis_gcc.h **** #endif /* ((defined (__ARM_ARCH_8M_MAIN__ ) && (__ARM_ARCH_8M_MAIN__ == 1)) || \
 933:Drivers/CMSIS/Include/cmsis_gcc.h ****            (defined (__ARM_ARCH_8M_BASE__ ) && (__ARM_ARCH_8M_BASE__ == 1))    ) */
 934:Drivers/CMSIS/Include/cmsis_gcc.h **** 
 935:Drivers/CMSIS/Include/cmsis_gcc.h **** /*@}*/ /* end of group CMSIS_Core_InstructionInterface */
 936:Drivers/CMSIS/Include/cmsis_gcc.h **** 
 937:Drivers/CMSIS/Include/cmsis_gcc.h **** 
 938:Drivers/CMSIS/Include/cmsis_gcc.h **** /* ###########################  Core Function Access  ########################### */
 939:Drivers/CMSIS/Include/cmsis_gcc.h **** /** \ingroup  CMSIS_Core_FunctionInterface
 940:Drivers/CMSIS/Include/cmsis_gcc.h ****     \defgroup CMSIS_Core_RegAccFunctions CMSIS Core Register Access Functions
 941:Drivers/CMSIS/Include/cmsis_gcc.h ****   @{
 942:Drivers/CMSIS/Include/cmsis_gcc.h ****  */
ARM GAS  /var/folders/ck/g3dcd5x55xs4107jgdl0snvr0000gn/T//cc05Prz9.s 			page 23


 943:Drivers/CMSIS/Include/cmsis_gcc.h **** 
 944:Drivers/CMSIS/Include/cmsis_gcc.h **** /**
 945:Drivers/CMSIS/Include/cmsis_gcc.h ****   \brief   Enable IRQ Interrupts
 946:Drivers/CMSIS/Include/cmsis_gcc.h ****   \details Enables IRQ interrupts by clearing special-purpose register PRIMASK.
 947:Drivers/CMSIS/Include/cmsis_gcc.h ****            Can only be executed in Privileged modes.
 948:Drivers/CMSIS/Include/cmsis_gcc.h ****  */
 949:Drivers/CMSIS/Include/cmsis_gcc.h **** __STATIC_FORCEINLINE void __enable_irq(void)
 950:Drivers/CMSIS/Include/cmsis_gcc.h **** {
 951:Drivers/CMSIS/Include/cmsis_gcc.h ****   __ASM volatile ("cpsie i" : : : "memory");
 952:Drivers/CMSIS/Include/cmsis_gcc.h **** }
 953:Drivers/CMSIS/Include/cmsis_gcc.h **** 
 954:Drivers/CMSIS/Include/cmsis_gcc.h **** 
 955:Drivers/CMSIS/Include/cmsis_gcc.h **** /**
 956:Drivers/CMSIS/Include/cmsis_gcc.h ****   \brief   Disable IRQ Interrupts
 957:Drivers/CMSIS/Include/cmsis_gcc.h ****   \details Disables IRQ interrupts by setting special-purpose register PRIMASK.
 958:Drivers/CMSIS/Include/cmsis_gcc.h ****            Can only be executed in Privileged modes.
 959:Drivers/CMSIS/Include/cmsis_gcc.h ****  */
 960:Drivers/CMSIS/Include/cmsis_gcc.h **** __STATIC_FORCEINLINE void __disable_irq(void)
 961:Drivers/CMSIS/Include/cmsis_gcc.h **** {
 962:Drivers/CMSIS/Include/cmsis_gcc.h ****   __ASM volatile ("cpsid i" : : : "memory");
 963:Drivers/CMSIS/Include/cmsis_gcc.h **** }
 964:Drivers/CMSIS/Include/cmsis_gcc.h **** 
 965:Drivers/CMSIS/Include/cmsis_gcc.h **** 
 966:Drivers/CMSIS/Include/cmsis_gcc.h **** /**
 967:Drivers/CMSIS/Include/cmsis_gcc.h ****   \brief   Get Control Register
 968:Drivers/CMSIS/Include/cmsis_gcc.h ****   \details Returns the content of the Control Register.
 969:Drivers/CMSIS/Include/cmsis_gcc.h ****   \return               Control Register value
 970:Drivers/CMSIS/Include/cmsis_gcc.h ****  */
 971:Drivers/CMSIS/Include/cmsis_gcc.h **** __STATIC_FORCEINLINE uint32_t __get_CONTROL(void)
 972:Drivers/CMSIS/Include/cmsis_gcc.h **** {
 973:Drivers/CMSIS/Include/cmsis_gcc.h ****   uint32_t result;
 974:Drivers/CMSIS/Include/cmsis_gcc.h **** 
 975:Drivers/CMSIS/Include/cmsis_gcc.h ****   __ASM volatile ("MRS %0, control" : "=r" (result) );
 976:Drivers/CMSIS/Include/cmsis_gcc.h ****   return(result);
 977:Drivers/CMSIS/Include/cmsis_gcc.h **** }
 978:Drivers/CMSIS/Include/cmsis_gcc.h **** 
 979:Drivers/CMSIS/Include/cmsis_gcc.h **** 
 980:Drivers/CMSIS/Include/cmsis_gcc.h **** #if (defined (__ARM_FEATURE_CMSE ) && (__ARM_FEATURE_CMSE == 3))
 981:Drivers/CMSIS/Include/cmsis_gcc.h **** /**
 982:Drivers/CMSIS/Include/cmsis_gcc.h ****   \brief   Get Control Register (non-secure)
 983:Drivers/CMSIS/Include/cmsis_gcc.h ****   \details Returns the content of the non-secure Control Register when in secure mode.
 984:Drivers/CMSIS/Include/cmsis_gcc.h ****   \return               non-secure Control Register value
 985:Drivers/CMSIS/Include/cmsis_gcc.h ****  */
 986:Drivers/CMSIS/Include/cmsis_gcc.h **** __STATIC_FORCEINLINE uint32_t __TZ_get_CONTROL_NS(void)
 987:Drivers/CMSIS/Include/cmsis_gcc.h **** {
 988:Drivers/CMSIS/Include/cmsis_gcc.h ****   uint32_t result;
 989:Drivers/CMSIS/Include/cmsis_gcc.h **** 
 990:Drivers/CMSIS/Include/cmsis_gcc.h ****   __ASM volatile ("MRS %0, control_ns" : "=r" (result) );
 991:Drivers/CMSIS/Include/cmsis_gcc.h ****   return(result);
 992:Drivers/CMSIS/Include/cmsis_gcc.h **** }
 993:Drivers/CMSIS/Include/cmsis_gcc.h **** #endif
 994:Drivers/CMSIS/Include/cmsis_gcc.h **** 
 995:Drivers/CMSIS/Include/cmsis_gcc.h **** 
 996:Drivers/CMSIS/Include/cmsis_gcc.h **** /**
 997:Drivers/CMSIS/Include/cmsis_gcc.h ****   \brief   Set Control Register
 998:Drivers/CMSIS/Include/cmsis_gcc.h ****   \details Writes the given value to the Control Register.
 999:Drivers/CMSIS/Include/cmsis_gcc.h ****   \param [in]    control  Control Register value to set
ARM GAS  /var/folders/ck/g3dcd5x55xs4107jgdl0snvr0000gn/T//cc05Prz9.s 			page 24


1000:Drivers/CMSIS/Include/cmsis_gcc.h ****  */
1001:Drivers/CMSIS/Include/cmsis_gcc.h **** __STATIC_FORCEINLINE void __set_CONTROL(uint32_t control)
1002:Drivers/CMSIS/Include/cmsis_gcc.h **** {
1003:Drivers/CMSIS/Include/cmsis_gcc.h ****   __ASM volatile ("MSR control, %0" : : "r" (control) : "memory");
1004:Drivers/CMSIS/Include/cmsis_gcc.h ****   __ISB();
1005:Drivers/CMSIS/Include/cmsis_gcc.h **** }
1006:Drivers/CMSIS/Include/cmsis_gcc.h **** 
1007:Drivers/CMSIS/Include/cmsis_gcc.h **** 
1008:Drivers/CMSIS/Include/cmsis_gcc.h **** #if (defined (__ARM_FEATURE_CMSE ) && (__ARM_FEATURE_CMSE == 3))
1009:Drivers/CMSIS/Include/cmsis_gcc.h **** /**
1010:Drivers/CMSIS/Include/cmsis_gcc.h ****   \brief   Set Control Register (non-secure)
1011:Drivers/CMSIS/Include/cmsis_gcc.h ****   \details Writes the given value to the non-secure Control Register when in secure state.
1012:Drivers/CMSIS/Include/cmsis_gcc.h ****   \param [in]    control  Control Register value to set
1013:Drivers/CMSIS/Include/cmsis_gcc.h ****  */
1014:Drivers/CMSIS/Include/cmsis_gcc.h **** __STATIC_FORCEINLINE void __TZ_set_CONTROL_NS(uint32_t control)
1015:Drivers/CMSIS/Include/cmsis_gcc.h **** {
1016:Drivers/CMSIS/Include/cmsis_gcc.h ****   __ASM volatile ("MSR control_ns, %0" : : "r" (control) : "memory");
1017:Drivers/CMSIS/Include/cmsis_gcc.h ****   __ISB();
1018:Drivers/CMSIS/Include/cmsis_gcc.h **** }
1019:Drivers/CMSIS/Include/cmsis_gcc.h **** #endif
1020:Drivers/CMSIS/Include/cmsis_gcc.h **** 
1021:Drivers/CMSIS/Include/cmsis_gcc.h **** 
1022:Drivers/CMSIS/Include/cmsis_gcc.h **** /**
1023:Drivers/CMSIS/Include/cmsis_gcc.h ****   \brief   Get IPSR Register
1024:Drivers/CMSIS/Include/cmsis_gcc.h ****   \details Returns the content of the IPSR Register.
1025:Drivers/CMSIS/Include/cmsis_gcc.h ****   \return               IPSR Register value
1026:Drivers/CMSIS/Include/cmsis_gcc.h ****  */
1027:Drivers/CMSIS/Include/cmsis_gcc.h **** __STATIC_FORCEINLINE uint32_t __get_IPSR(void)
1028:Drivers/CMSIS/Include/cmsis_gcc.h **** {
1029:Drivers/CMSIS/Include/cmsis_gcc.h ****   uint32_t result;
1030:Drivers/CMSIS/Include/cmsis_gcc.h **** 
1031:Drivers/CMSIS/Include/cmsis_gcc.h ****   __ASM volatile ("MRS %0, ipsr" : "=r" (result) );
1032:Drivers/CMSIS/Include/cmsis_gcc.h ****   return(result);
1033:Drivers/CMSIS/Include/cmsis_gcc.h **** }
1034:Drivers/CMSIS/Include/cmsis_gcc.h **** 
1035:Drivers/CMSIS/Include/cmsis_gcc.h **** 
1036:Drivers/CMSIS/Include/cmsis_gcc.h **** /**
1037:Drivers/CMSIS/Include/cmsis_gcc.h ****   \brief   Get APSR Register
1038:Drivers/CMSIS/Include/cmsis_gcc.h ****   \details Returns the content of the APSR Register.
1039:Drivers/CMSIS/Include/cmsis_gcc.h ****   \return               APSR Register value
1040:Drivers/CMSIS/Include/cmsis_gcc.h ****  */
1041:Drivers/CMSIS/Include/cmsis_gcc.h **** __STATIC_FORCEINLINE uint32_t __get_APSR(void)
1042:Drivers/CMSIS/Include/cmsis_gcc.h **** {
1043:Drivers/CMSIS/Include/cmsis_gcc.h ****   uint32_t result;
1044:Drivers/CMSIS/Include/cmsis_gcc.h **** 
1045:Drivers/CMSIS/Include/cmsis_gcc.h ****   __ASM volatile ("MRS %0, apsr" : "=r" (result) );
1046:Drivers/CMSIS/Include/cmsis_gcc.h ****   return(result);
1047:Drivers/CMSIS/Include/cmsis_gcc.h **** }
1048:Drivers/CMSIS/Include/cmsis_gcc.h **** 
1049:Drivers/CMSIS/Include/cmsis_gcc.h **** 
1050:Drivers/CMSIS/Include/cmsis_gcc.h **** /**
1051:Drivers/CMSIS/Include/cmsis_gcc.h ****   \brief   Get xPSR Register
1052:Drivers/CMSIS/Include/cmsis_gcc.h ****   \details Returns the content of the xPSR Register.
1053:Drivers/CMSIS/Include/cmsis_gcc.h ****   \return               xPSR Register value
1054:Drivers/CMSIS/Include/cmsis_gcc.h ****  */
1055:Drivers/CMSIS/Include/cmsis_gcc.h **** __STATIC_FORCEINLINE uint32_t __get_xPSR(void)
1056:Drivers/CMSIS/Include/cmsis_gcc.h **** {
ARM GAS  /var/folders/ck/g3dcd5x55xs4107jgdl0snvr0000gn/T//cc05Prz9.s 			page 25


1057:Drivers/CMSIS/Include/cmsis_gcc.h ****   uint32_t result;
1058:Drivers/CMSIS/Include/cmsis_gcc.h **** 
1059:Drivers/CMSIS/Include/cmsis_gcc.h ****   __ASM volatile ("MRS %0, xpsr" : "=r" (result) );
1060:Drivers/CMSIS/Include/cmsis_gcc.h ****   return(result);
1061:Drivers/CMSIS/Include/cmsis_gcc.h **** }
1062:Drivers/CMSIS/Include/cmsis_gcc.h **** 
1063:Drivers/CMSIS/Include/cmsis_gcc.h **** 
1064:Drivers/CMSIS/Include/cmsis_gcc.h **** /**
1065:Drivers/CMSIS/Include/cmsis_gcc.h ****   \brief   Get Process Stack Pointer
1066:Drivers/CMSIS/Include/cmsis_gcc.h ****   \details Returns the current value of the Process Stack Pointer (PSP).
1067:Drivers/CMSIS/Include/cmsis_gcc.h ****   \return               PSP Register value
1068:Drivers/CMSIS/Include/cmsis_gcc.h ****  */
1069:Drivers/CMSIS/Include/cmsis_gcc.h **** __STATIC_FORCEINLINE uint32_t __get_PSP(void)
1070:Drivers/CMSIS/Include/cmsis_gcc.h **** {
1071:Drivers/CMSIS/Include/cmsis_gcc.h ****   uint32_t result;
1072:Drivers/CMSIS/Include/cmsis_gcc.h **** 
1073:Drivers/CMSIS/Include/cmsis_gcc.h ****   __ASM volatile ("MRS %0, psp"  : "=r" (result) );
1074:Drivers/CMSIS/Include/cmsis_gcc.h ****   return(result);
1075:Drivers/CMSIS/Include/cmsis_gcc.h **** }
1076:Drivers/CMSIS/Include/cmsis_gcc.h **** 
1077:Drivers/CMSIS/Include/cmsis_gcc.h **** 
1078:Drivers/CMSIS/Include/cmsis_gcc.h **** #if (defined (__ARM_FEATURE_CMSE ) && (__ARM_FEATURE_CMSE == 3))
1079:Drivers/CMSIS/Include/cmsis_gcc.h **** /**
1080:Drivers/CMSIS/Include/cmsis_gcc.h ****   \brief   Get Process Stack Pointer (non-secure)
1081:Drivers/CMSIS/Include/cmsis_gcc.h ****   \details Returns the current value of the non-secure Process Stack Pointer (PSP) when in secure s
1082:Drivers/CMSIS/Include/cmsis_gcc.h ****   \return               PSP Register value
1083:Drivers/CMSIS/Include/cmsis_gcc.h ****  */
1084:Drivers/CMSIS/Include/cmsis_gcc.h **** __STATIC_FORCEINLINE uint32_t __TZ_get_PSP_NS(void)
1085:Drivers/CMSIS/Include/cmsis_gcc.h **** {
1086:Drivers/CMSIS/Include/cmsis_gcc.h ****   uint32_t result;
1087:Drivers/CMSIS/Include/cmsis_gcc.h **** 
1088:Drivers/CMSIS/Include/cmsis_gcc.h ****   __ASM volatile ("MRS %0, psp_ns"  : "=r" (result) );
1089:Drivers/CMSIS/Include/cmsis_gcc.h ****   return(result);
1090:Drivers/CMSIS/Include/cmsis_gcc.h **** }
1091:Drivers/CMSIS/Include/cmsis_gcc.h **** #endif
1092:Drivers/CMSIS/Include/cmsis_gcc.h **** 
1093:Drivers/CMSIS/Include/cmsis_gcc.h **** 
1094:Drivers/CMSIS/Include/cmsis_gcc.h **** /**
1095:Drivers/CMSIS/Include/cmsis_gcc.h ****   \brief   Set Process Stack Pointer
1096:Drivers/CMSIS/Include/cmsis_gcc.h ****   \details Assigns the given value to the Process Stack Pointer (PSP).
1097:Drivers/CMSIS/Include/cmsis_gcc.h ****   \param [in]    topOfProcStack  Process Stack Pointer value to set
1098:Drivers/CMSIS/Include/cmsis_gcc.h ****  */
1099:Drivers/CMSIS/Include/cmsis_gcc.h **** __STATIC_FORCEINLINE void __set_PSP(uint32_t topOfProcStack)
1100:Drivers/CMSIS/Include/cmsis_gcc.h **** {
1101:Drivers/CMSIS/Include/cmsis_gcc.h ****   __ASM volatile ("MSR psp, %0" : : "r" (topOfProcStack) : );
1102:Drivers/CMSIS/Include/cmsis_gcc.h **** }
1103:Drivers/CMSIS/Include/cmsis_gcc.h **** 
1104:Drivers/CMSIS/Include/cmsis_gcc.h **** 
1105:Drivers/CMSIS/Include/cmsis_gcc.h **** #if (defined (__ARM_FEATURE_CMSE ) && (__ARM_FEATURE_CMSE == 3))
1106:Drivers/CMSIS/Include/cmsis_gcc.h **** /**
1107:Drivers/CMSIS/Include/cmsis_gcc.h ****   \brief   Set Process Stack Pointer (non-secure)
1108:Drivers/CMSIS/Include/cmsis_gcc.h ****   \details Assigns the given value to the non-secure Process Stack Pointer (PSP) when in secure sta
1109:Drivers/CMSIS/Include/cmsis_gcc.h ****   \param [in]    topOfProcStack  Process Stack Pointer value to set
1110:Drivers/CMSIS/Include/cmsis_gcc.h ****  */
1111:Drivers/CMSIS/Include/cmsis_gcc.h **** __STATIC_FORCEINLINE void __TZ_set_PSP_NS(uint32_t topOfProcStack)
1112:Drivers/CMSIS/Include/cmsis_gcc.h **** {
1113:Drivers/CMSIS/Include/cmsis_gcc.h ****   __ASM volatile ("MSR psp_ns, %0" : : "r" (topOfProcStack) : );
ARM GAS  /var/folders/ck/g3dcd5x55xs4107jgdl0snvr0000gn/T//cc05Prz9.s 			page 26


1114:Drivers/CMSIS/Include/cmsis_gcc.h **** }
1115:Drivers/CMSIS/Include/cmsis_gcc.h **** #endif
1116:Drivers/CMSIS/Include/cmsis_gcc.h **** 
1117:Drivers/CMSIS/Include/cmsis_gcc.h **** 
1118:Drivers/CMSIS/Include/cmsis_gcc.h **** /**
1119:Drivers/CMSIS/Include/cmsis_gcc.h ****   \brief   Get Main Stack Pointer
1120:Drivers/CMSIS/Include/cmsis_gcc.h ****   \details Returns the current value of the Main Stack Pointer (MSP).
1121:Drivers/CMSIS/Include/cmsis_gcc.h ****   \return               MSP Register value
1122:Drivers/CMSIS/Include/cmsis_gcc.h ****  */
1123:Drivers/CMSIS/Include/cmsis_gcc.h **** __STATIC_FORCEINLINE uint32_t __get_MSP(void)
1124:Drivers/CMSIS/Include/cmsis_gcc.h **** {
1125:Drivers/CMSIS/Include/cmsis_gcc.h ****   uint32_t result;
1126:Drivers/CMSIS/Include/cmsis_gcc.h **** 
1127:Drivers/CMSIS/Include/cmsis_gcc.h ****   __ASM volatile ("MRS %0, msp" : "=r" (result) );
1128:Drivers/CMSIS/Include/cmsis_gcc.h ****   return(result);
1129:Drivers/CMSIS/Include/cmsis_gcc.h **** }
1130:Drivers/CMSIS/Include/cmsis_gcc.h **** 
1131:Drivers/CMSIS/Include/cmsis_gcc.h **** 
1132:Drivers/CMSIS/Include/cmsis_gcc.h **** #if (defined (__ARM_FEATURE_CMSE ) && (__ARM_FEATURE_CMSE == 3))
1133:Drivers/CMSIS/Include/cmsis_gcc.h **** /**
1134:Drivers/CMSIS/Include/cmsis_gcc.h ****   \brief   Get Main Stack Pointer (non-secure)
1135:Drivers/CMSIS/Include/cmsis_gcc.h ****   \details Returns the current value of the non-secure Main Stack Pointer (MSP) when in secure stat
1136:Drivers/CMSIS/Include/cmsis_gcc.h ****   \return               MSP Register value
1137:Drivers/CMSIS/Include/cmsis_gcc.h ****  */
1138:Drivers/CMSIS/Include/cmsis_gcc.h **** __STATIC_FORCEINLINE uint32_t __TZ_get_MSP_NS(void)
1139:Drivers/CMSIS/Include/cmsis_gcc.h **** {
1140:Drivers/CMSIS/Include/cmsis_gcc.h ****   uint32_t result;
1141:Drivers/CMSIS/Include/cmsis_gcc.h **** 
1142:Drivers/CMSIS/Include/cmsis_gcc.h ****   __ASM volatile ("MRS %0, msp_ns" : "=r" (result) );
1143:Drivers/CMSIS/Include/cmsis_gcc.h ****   return(result);
1144:Drivers/CMSIS/Include/cmsis_gcc.h **** }
1145:Drivers/CMSIS/Include/cmsis_gcc.h **** #endif
1146:Drivers/CMSIS/Include/cmsis_gcc.h **** 
1147:Drivers/CMSIS/Include/cmsis_gcc.h **** 
1148:Drivers/CMSIS/Include/cmsis_gcc.h **** /**
1149:Drivers/CMSIS/Include/cmsis_gcc.h ****   \brief   Set Main Stack Pointer
1150:Drivers/CMSIS/Include/cmsis_gcc.h ****   \details Assigns the given value to the Main Stack Pointer (MSP).
1151:Drivers/CMSIS/Include/cmsis_gcc.h ****   \param [in]    topOfMainStack  Main Stack Pointer value to set
1152:Drivers/CMSIS/Include/cmsis_gcc.h ****  */
1153:Drivers/CMSIS/Include/cmsis_gcc.h **** __STATIC_FORCEINLINE void __set_MSP(uint32_t topOfMainStack)
1154:Drivers/CMSIS/Include/cmsis_gcc.h **** {
1155:Drivers/CMSIS/Include/cmsis_gcc.h ****   __ASM volatile ("MSR msp, %0" : : "r" (topOfMainStack) : );
1156:Drivers/CMSIS/Include/cmsis_gcc.h **** }
1157:Drivers/CMSIS/Include/cmsis_gcc.h **** 
1158:Drivers/CMSIS/Include/cmsis_gcc.h **** 
1159:Drivers/CMSIS/Include/cmsis_gcc.h **** #if (defined (__ARM_FEATURE_CMSE ) && (__ARM_FEATURE_CMSE == 3))
1160:Drivers/CMSIS/Include/cmsis_gcc.h **** /**
1161:Drivers/CMSIS/Include/cmsis_gcc.h ****   \brief   Set Main Stack Pointer (non-secure)
1162:Drivers/CMSIS/Include/cmsis_gcc.h ****   \details Assigns the given value to the non-secure Main Stack Pointer (MSP) when in secure state.
1163:Drivers/CMSIS/Include/cmsis_gcc.h ****   \param [in]    topOfMainStack  Main Stack Pointer value to set
1164:Drivers/CMSIS/Include/cmsis_gcc.h ****  */
1165:Drivers/CMSIS/Include/cmsis_gcc.h **** __STATIC_FORCEINLINE void __TZ_set_MSP_NS(uint32_t topOfMainStack)
1166:Drivers/CMSIS/Include/cmsis_gcc.h **** {
1167:Drivers/CMSIS/Include/cmsis_gcc.h ****   __ASM volatile ("MSR msp_ns, %0" : : "r" (topOfMainStack) : );
1168:Drivers/CMSIS/Include/cmsis_gcc.h **** }
1169:Drivers/CMSIS/Include/cmsis_gcc.h **** #endif
1170:Drivers/CMSIS/Include/cmsis_gcc.h **** 
ARM GAS  /var/folders/ck/g3dcd5x55xs4107jgdl0snvr0000gn/T//cc05Prz9.s 			page 27


1171:Drivers/CMSIS/Include/cmsis_gcc.h **** 
1172:Drivers/CMSIS/Include/cmsis_gcc.h **** #if (defined (__ARM_FEATURE_CMSE ) && (__ARM_FEATURE_CMSE == 3))
1173:Drivers/CMSIS/Include/cmsis_gcc.h **** /**
1174:Drivers/CMSIS/Include/cmsis_gcc.h ****   \brief   Get Stack Pointer (non-secure)
1175:Drivers/CMSIS/Include/cmsis_gcc.h ****   \details Returns the current value of the non-secure Stack Pointer (SP) when in secure state.
1176:Drivers/CMSIS/Include/cmsis_gcc.h ****   \return               SP Register value
1177:Drivers/CMSIS/Include/cmsis_gcc.h ****  */
1178:Drivers/CMSIS/Include/cmsis_gcc.h **** __STATIC_FORCEINLINE uint32_t __TZ_get_SP_NS(void)
1179:Drivers/CMSIS/Include/cmsis_gcc.h **** {
1180:Drivers/CMSIS/Include/cmsis_gcc.h ****   uint32_t result;
1181:Drivers/CMSIS/Include/cmsis_gcc.h **** 
1182:Drivers/CMSIS/Include/cmsis_gcc.h ****   __ASM volatile ("MRS %0, sp_ns" : "=r" (result) );
1183:Drivers/CMSIS/Include/cmsis_gcc.h ****   return(result);
1184:Drivers/CMSIS/Include/cmsis_gcc.h **** }
1185:Drivers/CMSIS/Include/cmsis_gcc.h **** 
1186:Drivers/CMSIS/Include/cmsis_gcc.h **** 
1187:Drivers/CMSIS/Include/cmsis_gcc.h **** /**
1188:Drivers/CMSIS/Include/cmsis_gcc.h ****   \brief   Set Stack Pointer (non-secure)
1189:Drivers/CMSIS/Include/cmsis_gcc.h ****   \details Assigns the given value to the non-secure Stack Pointer (SP) when in secure state.
1190:Drivers/CMSIS/Include/cmsis_gcc.h ****   \param [in]    topOfStack  Stack Pointer value to set
1191:Drivers/CMSIS/Include/cmsis_gcc.h ****  */
1192:Drivers/CMSIS/Include/cmsis_gcc.h **** __STATIC_FORCEINLINE void __TZ_set_SP_NS(uint32_t topOfStack)
1193:Drivers/CMSIS/Include/cmsis_gcc.h **** {
1194:Drivers/CMSIS/Include/cmsis_gcc.h ****   __ASM volatile ("MSR sp_ns, %0" : : "r" (topOfStack) : );
1195:Drivers/CMSIS/Include/cmsis_gcc.h **** }
1196:Drivers/CMSIS/Include/cmsis_gcc.h **** #endif
1197:Drivers/CMSIS/Include/cmsis_gcc.h **** 
1198:Drivers/CMSIS/Include/cmsis_gcc.h **** 
1199:Drivers/CMSIS/Include/cmsis_gcc.h **** /**
1200:Drivers/CMSIS/Include/cmsis_gcc.h ****   \brief   Get Priority Mask
1201:Drivers/CMSIS/Include/cmsis_gcc.h ****   \details Returns the current state of the priority mask bit from the Priority Mask Register.
1202:Drivers/CMSIS/Include/cmsis_gcc.h ****   \return               Priority Mask value
1203:Drivers/CMSIS/Include/cmsis_gcc.h ****  */
1204:Drivers/CMSIS/Include/cmsis_gcc.h **** __STATIC_FORCEINLINE uint32_t __get_PRIMASK(void)
1205:Drivers/CMSIS/Include/cmsis_gcc.h **** {
1206:Drivers/CMSIS/Include/cmsis_gcc.h ****   uint32_t result;
1207:Drivers/CMSIS/Include/cmsis_gcc.h **** 
1208:Drivers/CMSIS/Include/cmsis_gcc.h ****   __ASM volatile ("MRS %0, primask" : "=r" (result) );
1209:Drivers/CMSIS/Include/cmsis_gcc.h ****   return(result);
1210:Drivers/CMSIS/Include/cmsis_gcc.h **** }
1211:Drivers/CMSIS/Include/cmsis_gcc.h **** 
1212:Drivers/CMSIS/Include/cmsis_gcc.h **** 
1213:Drivers/CMSIS/Include/cmsis_gcc.h **** #if (defined (__ARM_FEATURE_CMSE ) && (__ARM_FEATURE_CMSE == 3))
1214:Drivers/CMSIS/Include/cmsis_gcc.h **** /**
1215:Drivers/CMSIS/Include/cmsis_gcc.h ****   \brief   Get Priority Mask (non-secure)
1216:Drivers/CMSIS/Include/cmsis_gcc.h ****   \details Returns the current state of the non-secure priority mask bit from the Priority Mask Reg
1217:Drivers/CMSIS/Include/cmsis_gcc.h ****   \return               Priority Mask value
1218:Drivers/CMSIS/Include/cmsis_gcc.h ****  */
1219:Drivers/CMSIS/Include/cmsis_gcc.h **** __STATIC_FORCEINLINE uint32_t __TZ_get_PRIMASK_NS(void)
1220:Drivers/CMSIS/Include/cmsis_gcc.h **** {
1221:Drivers/CMSIS/Include/cmsis_gcc.h ****   uint32_t result;
1222:Drivers/CMSIS/Include/cmsis_gcc.h **** 
1223:Drivers/CMSIS/Include/cmsis_gcc.h ****   __ASM volatile ("MRS %0, primask_ns" : "=r" (result) );
1224:Drivers/CMSIS/Include/cmsis_gcc.h ****   return(result);
1225:Drivers/CMSIS/Include/cmsis_gcc.h **** }
1226:Drivers/CMSIS/Include/cmsis_gcc.h **** #endif
1227:Drivers/CMSIS/Include/cmsis_gcc.h **** 
ARM GAS  /var/folders/ck/g3dcd5x55xs4107jgdl0snvr0000gn/T//cc05Prz9.s 			page 28


1228:Drivers/CMSIS/Include/cmsis_gcc.h **** 
1229:Drivers/CMSIS/Include/cmsis_gcc.h **** /**
1230:Drivers/CMSIS/Include/cmsis_gcc.h ****   \brief   Set Priority Mask
1231:Drivers/CMSIS/Include/cmsis_gcc.h ****   \details Assigns the given value to the Priority Mask Register.
1232:Drivers/CMSIS/Include/cmsis_gcc.h ****   \param [in]    priMask  Priority Mask
1233:Drivers/CMSIS/Include/cmsis_gcc.h ****  */
1234:Drivers/CMSIS/Include/cmsis_gcc.h **** __STATIC_FORCEINLINE void __set_PRIMASK(uint32_t priMask)
1235:Drivers/CMSIS/Include/cmsis_gcc.h **** {
1236:Drivers/CMSIS/Include/cmsis_gcc.h ****   __ASM volatile ("MSR primask, %0" : : "r" (priMask) : "memory");
1237:Drivers/CMSIS/Include/cmsis_gcc.h **** }
1238:Drivers/CMSIS/Include/cmsis_gcc.h **** 
1239:Drivers/CMSIS/Include/cmsis_gcc.h **** 
1240:Drivers/CMSIS/Include/cmsis_gcc.h **** #if (defined (__ARM_FEATURE_CMSE ) && (__ARM_FEATURE_CMSE == 3))
1241:Drivers/CMSIS/Include/cmsis_gcc.h **** /**
1242:Drivers/CMSIS/Include/cmsis_gcc.h ****   \brief   Set Priority Mask (non-secure)
1243:Drivers/CMSIS/Include/cmsis_gcc.h ****   \details Assigns the given value to the non-secure Priority Mask Register when in secure state.
1244:Drivers/CMSIS/Include/cmsis_gcc.h ****   \param [in]    priMask  Priority Mask
1245:Drivers/CMSIS/Include/cmsis_gcc.h ****  */
1246:Drivers/CMSIS/Include/cmsis_gcc.h **** __STATIC_FORCEINLINE void __TZ_set_PRIMASK_NS(uint32_t priMask)
1247:Drivers/CMSIS/Include/cmsis_gcc.h **** {
1248:Drivers/CMSIS/Include/cmsis_gcc.h ****   __ASM volatile ("MSR primask_ns, %0" : : "r" (priMask) : "memory");
1249:Drivers/CMSIS/Include/cmsis_gcc.h **** }
1250:Drivers/CMSIS/Include/cmsis_gcc.h **** #endif
1251:Drivers/CMSIS/Include/cmsis_gcc.h **** 
1252:Drivers/CMSIS/Include/cmsis_gcc.h **** 
1253:Drivers/CMSIS/Include/cmsis_gcc.h **** #if ((defined (__ARM_ARCH_7M__      ) && (__ARM_ARCH_7M__      == 1)) || \
1254:Drivers/CMSIS/Include/cmsis_gcc.h ****      (defined (__ARM_ARCH_7EM__     ) && (__ARM_ARCH_7EM__     == 1)) || \
1255:Drivers/CMSIS/Include/cmsis_gcc.h ****      (defined (__ARM_ARCH_8M_MAIN__ ) && (__ARM_ARCH_8M_MAIN__ == 1))    )
1256:Drivers/CMSIS/Include/cmsis_gcc.h **** /**
1257:Drivers/CMSIS/Include/cmsis_gcc.h ****   \brief   Enable FIQ
1258:Drivers/CMSIS/Include/cmsis_gcc.h ****   \details Enables FIQ interrupts by clearing special-purpose register FAULTMASK.
1259:Drivers/CMSIS/Include/cmsis_gcc.h ****            Can only be executed in Privileged modes.
1260:Drivers/CMSIS/Include/cmsis_gcc.h ****  */
1261:Drivers/CMSIS/Include/cmsis_gcc.h **** __STATIC_FORCEINLINE void __enable_fault_irq(void)
1262:Drivers/CMSIS/Include/cmsis_gcc.h **** {
1263:Drivers/CMSIS/Include/cmsis_gcc.h ****   __ASM volatile ("cpsie f" : : : "memory");
1264:Drivers/CMSIS/Include/cmsis_gcc.h **** }
1265:Drivers/CMSIS/Include/cmsis_gcc.h **** 
1266:Drivers/CMSIS/Include/cmsis_gcc.h **** 
1267:Drivers/CMSIS/Include/cmsis_gcc.h **** /**
1268:Drivers/CMSIS/Include/cmsis_gcc.h ****   \brief   Disable FIQ
1269:Drivers/CMSIS/Include/cmsis_gcc.h ****   \details Disables FIQ interrupts by setting special-purpose register FAULTMASK.
1270:Drivers/CMSIS/Include/cmsis_gcc.h ****            Can only be executed in Privileged modes.
1271:Drivers/CMSIS/Include/cmsis_gcc.h ****  */
1272:Drivers/CMSIS/Include/cmsis_gcc.h **** __STATIC_FORCEINLINE void __disable_fault_irq(void)
1273:Drivers/CMSIS/Include/cmsis_gcc.h **** {
1274:Drivers/CMSIS/Include/cmsis_gcc.h ****   __ASM volatile ("cpsid f" : : : "memory");
1275:Drivers/CMSIS/Include/cmsis_gcc.h **** }
1276:Drivers/CMSIS/Include/cmsis_gcc.h **** 
1277:Drivers/CMSIS/Include/cmsis_gcc.h **** 
1278:Drivers/CMSIS/Include/cmsis_gcc.h **** /**
1279:Drivers/CMSIS/Include/cmsis_gcc.h ****   \brief   Get Base Priority
1280:Drivers/CMSIS/Include/cmsis_gcc.h ****   \details Returns the current value of the Base Priority register.
1281:Drivers/CMSIS/Include/cmsis_gcc.h ****   \return               Base Priority register value
1282:Drivers/CMSIS/Include/cmsis_gcc.h ****  */
1283:Drivers/CMSIS/Include/cmsis_gcc.h **** __STATIC_FORCEINLINE uint32_t __get_BASEPRI(void)
1284:Drivers/CMSIS/Include/cmsis_gcc.h **** {
ARM GAS  /var/folders/ck/g3dcd5x55xs4107jgdl0snvr0000gn/T//cc05Prz9.s 			page 29


1285:Drivers/CMSIS/Include/cmsis_gcc.h ****   uint32_t result;
1286:Drivers/CMSIS/Include/cmsis_gcc.h **** 
1287:Drivers/CMSIS/Include/cmsis_gcc.h ****   __ASM volatile ("MRS %0, basepri" : "=r" (result) );
1288:Drivers/CMSIS/Include/cmsis_gcc.h ****   return(result);
1289:Drivers/CMSIS/Include/cmsis_gcc.h **** }
1290:Drivers/CMSIS/Include/cmsis_gcc.h **** 
1291:Drivers/CMSIS/Include/cmsis_gcc.h **** 
1292:Drivers/CMSIS/Include/cmsis_gcc.h **** #if (defined (__ARM_FEATURE_CMSE ) && (__ARM_FEATURE_CMSE == 3))
1293:Drivers/CMSIS/Include/cmsis_gcc.h **** /**
1294:Drivers/CMSIS/Include/cmsis_gcc.h ****   \brief   Get Base Priority (non-secure)
1295:Drivers/CMSIS/Include/cmsis_gcc.h ****   \details Returns the current value of the non-secure Base Priority register when in secure state.
1296:Drivers/CMSIS/Include/cmsis_gcc.h ****   \return               Base Priority register value
1297:Drivers/CMSIS/Include/cmsis_gcc.h ****  */
1298:Drivers/CMSIS/Include/cmsis_gcc.h **** __STATIC_FORCEINLINE uint32_t __TZ_get_BASEPRI_NS(void)
1299:Drivers/CMSIS/Include/cmsis_gcc.h **** {
1300:Drivers/CMSIS/Include/cmsis_gcc.h ****   uint32_t result;
1301:Drivers/CMSIS/Include/cmsis_gcc.h **** 
1302:Drivers/CMSIS/Include/cmsis_gcc.h ****   __ASM volatile ("MRS %0, basepri_ns" : "=r" (result) );
1303:Drivers/CMSIS/Include/cmsis_gcc.h ****   return(result);
1304:Drivers/CMSIS/Include/cmsis_gcc.h **** }
1305:Drivers/CMSIS/Include/cmsis_gcc.h **** #endif
1306:Drivers/CMSIS/Include/cmsis_gcc.h **** 
1307:Drivers/CMSIS/Include/cmsis_gcc.h **** 
1308:Drivers/CMSIS/Include/cmsis_gcc.h **** /**
1309:Drivers/CMSIS/Include/cmsis_gcc.h ****   \brief   Set Base Priority
1310:Drivers/CMSIS/Include/cmsis_gcc.h ****   \details Assigns the given value to the Base Priority register.
1311:Drivers/CMSIS/Include/cmsis_gcc.h ****   \param [in]    basePri  Base Priority value to set
1312:Drivers/CMSIS/Include/cmsis_gcc.h ****  */
1313:Drivers/CMSIS/Include/cmsis_gcc.h **** __STATIC_FORCEINLINE void __set_BASEPRI(uint32_t basePri)
1314:Drivers/CMSIS/Include/cmsis_gcc.h **** {
1315:Drivers/CMSIS/Include/cmsis_gcc.h ****   __ASM volatile ("MSR basepri, %0" : : "r" (basePri) : "memory");
1316:Drivers/CMSIS/Include/cmsis_gcc.h **** }
1317:Drivers/CMSIS/Include/cmsis_gcc.h **** 
1318:Drivers/CMSIS/Include/cmsis_gcc.h **** 
1319:Drivers/CMSIS/Include/cmsis_gcc.h **** #if (defined (__ARM_FEATURE_CMSE ) && (__ARM_FEATURE_CMSE == 3))
1320:Drivers/CMSIS/Include/cmsis_gcc.h **** /**
1321:Drivers/CMSIS/Include/cmsis_gcc.h ****   \brief   Set Base Priority (non-secure)
1322:Drivers/CMSIS/Include/cmsis_gcc.h ****   \details Assigns the given value to the non-secure Base Priority register when in secure state.
1323:Drivers/CMSIS/Include/cmsis_gcc.h ****   \param [in]    basePri  Base Priority value to set
1324:Drivers/CMSIS/Include/cmsis_gcc.h ****  */
1325:Drivers/CMSIS/Include/cmsis_gcc.h **** __STATIC_FORCEINLINE void __TZ_set_BASEPRI_NS(uint32_t basePri)
1326:Drivers/CMSIS/Include/cmsis_gcc.h **** {
1327:Drivers/CMSIS/Include/cmsis_gcc.h ****   __ASM volatile ("MSR basepri_ns, %0" : : "r" (basePri) : "memory");
1328:Drivers/CMSIS/Include/cmsis_gcc.h **** }
1329:Drivers/CMSIS/Include/cmsis_gcc.h **** #endif
1330:Drivers/CMSIS/Include/cmsis_gcc.h **** 
1331:Drivers/CMSIS/Include/cmsis_gcc.h **** 
1332:Drivers/CMSIS/Include/cmsis_gcc.h **** /**
1333:Drivers/CMSIS/Include/cmsis_gcc.h ****   \brief   Set Base Priority with condition
1334:Drivers/CMSIS/Include/cmsis_gcc.h ****   \details Assigns the given value to the Base Priority register only if BASEPRI masking is disable
1335:Drivers/CMSIS/Include/cmsis_gcc.h ****            or the new value increases the BASEPRI priority level.
1336:Drivers/CMSIS/Include/cmsis_gcc.h ****   \param [in]    basePri  Base Priority value to set
1337:Drivers/CMSIS/Include/cmsis_gcc.h ****  */
1338:Drivers/CMSIS/Include/cmsis_gcc.h **** __STATIC_FORCEINLINE void __set_BASEPRI_MAX(uint32_t basePri)
1339:Drivers/CMSIS/Include/cmsis_gcc.h **** {
1340:Drivers/CMSIS/Include/cmsis_gcc.h ****   __ASM volatile ("MSR basepri_max, %0" : : "r" (basePri) : "memory");
1341:Drivers/CMSIS/Include/cmsis_gcc.h **** }
ARM GAS  /var/folders/ck/g3dcd5x55xs4107jgdl0snvr0000gn/T//cc05Prz9.s 			page 30


1342:Drivers/CMSIS/Include/cmsis_gcc.h **** 
1343:Drivers/CMSIS/Include/cmsis_gcc.h **** 
1344:Drivers/CMSIS/Include/cmsis_gcc.h **** /**
1345:Drivers/CMSIS/Include/cmsis_gcc.h ****   \brief   Get Fault Mask
1346:Drivers/CMSIS/Include/cmsis_gcc.h ****   \details Returns the current value of the Fault Mask register.
1347:Drivers/CMSIS/Include/cmsis_gcc.h ****   \return               Fault Mask register value
1348:Drivers/CMSIS/Include/cmsis_gcc.h ****  */
1349:Drivers/CMSIS/Include/cmsis_gcc.h **** __STATIC_FORCEINLINE uint32_t __get_FAULTMASK(void)
1350:Drivers/CMSIS/Include/cmsis_gcc.h **** {
1351:Drivers/CMSIS/Include/cmsis_gcc.h ****   uint32_t result;
1352:Drivers/CMSIS/Include/cmsis_gcc.h **** 
1353:Drivers/CMSIS/Include/cmsis_gcc.h ****   __ASM volatile ("MRS %0, faultmask" : "=r" (result) );
1354:Drivers/CMSIS/Include/cmsis_gcc.h ****   return(result);
1355:Drivers/CMSIS/Include/cmsis_gcc.h **** }
1356:Drivers/CMSIS/Include/cmsis_gcc.h **** 
1357:Drivers/CMSIS/Include/cmsis_gcc.h **** 
1358:Drivers/CMSIS/Include/cmsis_gcc.h **** #if (defined (__ARM_FEATURE_CMSE ) && (__ARM_FEATURE_CMSE == 3))
1359:Drivers/CMSIS/Include/cmsis_gcc.h **** /**
1360:Drivers/CMSIS/Include/cmsis_gcc.h ****   \brief   Get Fault Mask (non-secure)
1361:Drivers/CMSIS/Include/cmsis_gcc.h ****   \details Returns the current value of the non-secure Fault Mask register when in secure state.
1362:Drivers/CMSIS/Include/cmsis_gcc.h ****   \return               Fault Mask register value
1363:Drivers/CMSIS/Include/cmsis_gcc.h ****  */
1364:Drivers/CMSIS/Include/cmsis_gcc.h **** __STATIC_FORCEINLINE uint32_t __TZ_get_FAULTMASK_NS(void)
1365:Drivers/CMSIS/Include/cmsis_gcc.h **** {
1366:Drivers/CMSIS/Include/cmsis_gcc.h ****   uint32_t result;
1367:Drivers/CMSIS/Include/cmsis_gcc.h **** 
1368:Drivers/CMSIS/Include/cmsis_gcc.h ****   __ASM volatile ("MRS %0, faultmask_ns" : "=r" (result) );
1369:Drivers/CMSIS/Include/cmsis_gcc.h ****   return(result);
1370:Drivers/CMSIS/Include/cmsis_gcc.h **** }
1371:Drivers/CMSIS/Include/cmsis_gcc.h **** #endif
1372:Drivers/CMSIS/Include/cmsis_gcc.h **** 
1373:Drivers/CMSIS/Include/cmsis_gcc.h **** 
1374:Drivers/CMSIS/Include/cmsis_gcc.h **** /**
1375:Drivers/CMSIS/Include/cmsis_gcc.h ****   \brief   Set Fault Mask
1376:Drivers/CMSIS/Include/cmsis_gcc.h ****   \details Assigns the given value to the Fault Mask register.
1377:Drivers/CMSIS/Include/cmsis_gcc.h ****   \param [in]    faultMask  Fault Mask value to set
1378:Drivers/CMSIS/Include/cmsis_gcc.h ****  */
1379:Drivers/CMSIS/Include/cmsis_gcc.h **** __STATIC_FORCEINLINE void __set_FAULTMASK(uint32_t faultMask)
1380:Drivers/CMSIS/Include/cmsis_gcc.h **** {
1381:Drivers/CMSIS/Include/cmsis_gcc.h ****   __ASM volatile ("MSR faultmask, %0" : : "r" (faultMask) : "memory");
1382:Drivers/CMSIS/Include/cmsis_gcc.h **** }
1383:Drivers/CMSIS/Include/cmsis_gcc.h **** 
1384:Drivers/CMSIS/Include/cmsis_gcc.h **** 
1385:Drivers/CMSIS/Include/cmsis_gcc.h **** #if (defined (__ARM_FEATURE_CMSE ) && (__ARM_FEATURE_CMSE == 3))
1386:Drivers/CMSIS/Include/cmsis_gcc.h **** /**
1387:Drivers/CMSIS/Include/cmsis_gcc.h ****   \brief   Set Fault Mask (non-secure)
1388:Drivers/CMSIS/Include/cmsis_gcc.h ****   \details Assigns the given value to the non-secure Fault Mask register when in secure state.
1389:Drivers/CMSIS/Include/cmsis_gcc.h ****   \param [in]    faultMask  Fault Mask value to set
1390:Drivers/CMSIS/Include/cmsis_gcc.h ****  */
1391:Drivers/CMSIS/Include/cmsis_gcc.h **** __STATIC_FORCEINLINE void __TZ_set_FAULTMASK_NS(uint32_t faultMask)
1392:Drivers/CMSIS/Include/cmsis_gcc.h **** {
1393:Drivers/CMSIS/Include/cmsis_gcc.h ****   __ASM volatile ("MSR faultmask_ns, %0" : : "r" (faultMask) : "memory");
1394:Drivers/CMSIS/Include/cmsis_gcc.h **** }
1395:Drivers/CMSIS/Include/cmsis_gcc.h **** #endif
1396:Drivers/CMSIS/Include/cmsis_gcc.h **** 
1397:Drivers/CMSIS/Include/cmsis_gcc.h **** #endif /* ((defined (__ARM_ARCH_7M__      ) && (__ARM_ARCH_7M__      == 1)) || \
1398:Drivers/CMSIS/Include/cmsis_gcc.h ****            (defined (__ARM_ARCH_7EM__     ) && (__ARM_ARCH_7EM__     == 1)) || \
ARM GAS  /var/folders/ck/g3dcd5x55xs4107jgdl0snvr0000gn/T//cc05Prz9.s 			page 31


1399:Drivers/CMSIS/Include/cmsis_gcc.h ****            (defined (__ARM_ARCH_8M_MAIN__ ) && (__ARM_ARCH_8M_MAIN__ == 1))    ) */
1400:Drivers/CMSIS/Include/cmsis_gcc.h **** 
1401:Drivers/CMSIS/Include/cmsis_gcc.h **** 
1402:Drivers/CMSIS/Include/cmsis_gcc.h **** #if ((defined (__ARM_ARCH_8M_MAIN__ ) && (__ARM_ARCH_8M_MAIN__ == 1)) || \
1403:Drivers/CMSIS/Include/cmsis_gcc.h ****      (defined (__ARM_ARCH_8M_BASE__ ) && (__ARM_ARCH_8M_BASE__ == 1))    )
1404:Drivers/CMSIS/Include/cmsis_gcc.h **** 
1405:Drivers/CMSIS/Include/cmsis_gcc.h **** /**
1406:Drivers/CMSIS/Include/cmsis_gcc.h ****   \brief   Get Process Stack Pointer Limit
1407:Drivers/CMSIS/Include/cmsis_gcc.h ****   Devices without ARMv8-M Main Extensions (i.e. Cortex-M23) lack the non-secure
1408:Drivers/CMSIS/Include/cmsis_gcc.h ****   Stack Pointer Limit register hence zero is returned always in non-secure
1409:Drivers/CMSIS/Include/cmsis_gcc.h ****   mode.
1410:Drivers/CMSIS/Include/cmsis_gcc.h **** 
1411:Drivers/CMSIS/Include/cmsis_gcc.h ****   \details Returns the current value of the Process Stack Pointer Limit (PSPLIM).
1412:Drivers/CMSIS/Include/cmsis_gcc.h ****   \return               PSPLIM Register value
1413:Drivers/CMSIS/Include/cmsis_gcc.h ****  */
1414:Drivers/CMSIS/Include/cmsis_gcc.h **** __STATIC_FORCEINLINE uint32_t __get_PSPLIM(void)
1415:Drivers/CMSIS/Include/cmsis_gcc.h **** {
1416:Drivers/CMSIS/Include/cmsis_gcc.h **** #if (!(defined (__ARM_ARCH_8M_MAIN__ ) && (__ARM_ARCH_8M_MAIN__ == 1)) && \
1417:Drivers/CMSIS/Include/cmsis_gcc.h ****     (!defined (__ARM_FEATURE_CMSE) || (__ARM_FEATURE_CMSE < 3)))
1418:Drivers/CMSIS/Include/cmsis_gcc.h ****     // without main extensions, the non-secure PSPLIM is RAZ/WI
1419:Drivers/CMSIS/Include/cmsis_gcc.h ****   return 0U;
1420:Drivers/CMSIS/Include/cmsis_gcc.h **** #else
1421:Drivers/CMSIS/Include/cmsis_gcc.h ****   uint32_t result;
1422:Drivers/CMSIS/Include/cmsis_gcc.h ****   __ASM volatile ("MRS %0, psplim"  : "=r" (result) );
1423:Drivers/CMSIS/Include/cmsis_gcc.h ****   return result;
1424:Drivers/CMSIS/Include/cmsis_gcc.h **** #endif
1425:Drivers/CMSIS/Include/cmsis_gcc.h **** }
1426:Drivers/CMSIS/Include/cmsis_gcc.h **** 
1427:Drivers/CMSIS/Include/cmsis_gcc.h **** #if (defined (__ARM_FEATURE_CMSE) && (__ARM_FEATURE_CMSE == 3))
1428:Drivers/CMSIS/Include/cmsis_gcc.h **** /**
1429:Drivers/CMSIS/Include/cmsis_gcc.h ****   \brief   Get Process Stack Pointer Limit (non-secure)
1430:Drivers/CMSIS/Include/cmsis_gcc.h ****   Devices without ARMv8-M Main Extensions (i.e. Cortex-M23) lack the non-secure
1431:Drivers/CMSIS/Include/cmsis_gcc.h ****   Stack Pointer Limit register hence zero is returned always.
1432:Drivers/CMSIS/Include/cmsis_gcc.h **** 
1433:Drivers/CMSIS/Include/cmsis_gcc.h ****   \details Returns the current value of the non-secure Process Stack Pointer Limit (PSPLIM) when in
1434:Drivers/CMSIS/Include/cmsis_gcc.h ****   \return               PSPLIM Register value
1435:Drivers/CMSIS/Include/cmsis_gcc.h ****  */
1436:Drivers/CMSIS/Include/cmsis_gcc.h **** __STATIC_FORCEINLINE uint32_t __TZ_get_PSPLIM_NS(void)
1437:Drivers/CMSIS/Include/cmsis_gcc.h **** {
1438:Drivers/CMSIS/Include/cmsis_gcc.h **** #if (!(defined (__ARM_ARCH_8M_MAIN__ ) && (__ARM_ARCH_8M_MAIN__ == 1)))
1439:Drivers/CMSIS/Include/cmsis_gcc.h ****   // without main extensions, the non-secure PSPLIM is RAZ/WI
1440:Drivers/CMSIS/Include/cmsis_gcc.h ****   return 0U;
1441:Drivers/CMSIS/Include/cmsis_gcc.h **** #else
1442:Drivers/CMSIS/Include/cmsis_gcc.h ****   uint32_t result;
1443:Drivers/CMSIS/Include/cmsis_gcc.h ****   __ASM volatile ("MRS %0, psplim_ns"  : "=r" (result) );
1444:Drivers/CMSIS/Include/cmsis_gcc.h ****   return result;
1445:Drivers/CMSIS/Include/cmsis_gcc.h **** #endif
1446:Drivers/CMSIS/Include/cmsis_gcc.h **** }
1447:Drivers/CMSIS/Include/cmsis_gcc.h **** #endif
1448:Drivers/CMSIS/Include/cmsis_gcc.h **** 
1449:Drivers/CMSIS/Include/cmsis_gcc.h **** 
1450:Drivers/CMSIS/Include/cmsis_gcc.h **** /**
1451:Drivers/CMSIS/Include/cmsis_gcc.h ****   \brief   Set Process Stack Pointer Limit
1452:Drivers/CMSIS/Include/cmsis_gcc.h ****   Devices without ARMv8-M Main Extensions (i.e. Cortex-M23) lack the non-secure
1453:Drivers/CMSIS/Include/cmsis_gcc.h ****   Stack Pointer Limit register hence the write is silently ignored in non-secure
1454:Drivers/CMSIS/Include/cmsis_gcc.h ****   mode.
1455:Drivers/CMSIS/Include/cmsis_gcc.h **** 
ARM GAS  /var/folders/ck/g3dcd5x55xs4107jgdl0snvr0000gn/T//cc05Prz9.s 			page 32


1456:Drivers/CMSIS/Include/cmsis_gcc.h ****   \details Assigns the given value to the Process Stack Pointer Limit (PSPLIM).
1457:Drivers/CMSIS/Include/cmsis_gcc.h ****   \param [in]    ProcStackPtrLimit  Process Stack Pointer Limit value to set
1458:Drivers/CMSIS/Include/cmsis_gcc.h ****  */
1459:Drivers/CMSIS/Include/cmsis_gcc.h **** __STATIC_FORCEINLINE void __set_PSPLIM(uint32_t ProcStackPtrLimit)
1460:Drivers/CMSIS/Include/cmsis_gcc.h **** {
1461:Drivers/CMSIS/Include/cmsis_gcc.h **** #if (!(defined (__ARM_ARCH_8M_MAIN__ ) && (__ARM_ARCH_8M_MAIN__ == 1)) && \
1462:Drivers/CMSIS/Include/cmsis_gcc.h ****     (!defined (__ARM_FEATURE_CMSE) || (__ARM_FEATURE_CMSE < 3)))
1463:Drivers/CMSIS/Include/cmsis_gcc.h ****   // without main extensions, the non-secure PSPLIM is RAZ/WI
1464:Drivers/CMSIS/Include/cmsis_gcc.h ****   (void)ProcStackPtrLimit;
1465:Drivers/CMSIS/Include/cmsis_gcc.h **** #else
1466:Drivers/CMSIS/Include/cmsis_gcc.h ****   __ASM volatile ("MSR psplim, %0" : : "r" (ProcStackPtrLimit));
1467:Drivers/CMSIS/Include/cmsis_gcc.h **** #endif
1468:Drivers/CMSIS/Include/cmsis_gcc.h **** }
1469:Drivers/CMSIS/Include/cmsis_gcc.h **** 
1470:Drivers/CMSIS/Include/cmsis_gcc.h **** 
1471:Drivers/CMSIS/Include/cmsis_gcc.h **** #if (defined (__ARM_FEATURE_CMSE  ) && (__ARM_FEATURE_CMSE   == 3))
1472:Drivers/CMSIS/Include/cmsis_gcc.h **** /**
1473:Drivers/CMSIS/Include/cmsis_gcc.h ****   \brief   Set Process Stack Pointer (non-secure)
1474:Drivers/CMSIS/Include/cmsis_gcc.h ****   Devices without ARMv8-M Main Extensions (i.e. Cortex-M23) lack the non-secure
1475:Drivers/CMSIS/Include/cmsis_gcc.h ****   Stack Pointer Limit register hence the write is silently ignored.
1476:Drivers/CMSIS/Include/cmsis_gcc.h **** 
1477:Drivers/CMSIS/Include/cmsis_gcc.h ****   \details Assigns the given value to the non-secure Process Stack Pointer Limit (PSPLIM) when in s
1478:Drivers/CMSIS/Include/cmsis_gcc.h ****   \param [in]    ProcStackPtrLimit  Process Stack Pointer Limit value to set
1479:Drivers/CMSIS/Include/cmsis_gcc.h ****  */
1480:Drivers/CMSIS/Include/cmsis_gcc.h **** __STATIC_FORCEINLINE void __TZ_set_PSPLIM_NS(uint32_t ProcStackPtrLimit)
1481:Drivers/CMSIS/Include/cmsis_gcc.h **** {
1482:Drivers/CMSIS/Include/cmsis_gcc.h **** #if (!(defined (__ARM_ARCH_8M_MAIN__ ) && (__ARM_ARCH_8M_MAIN__ == 1)))
1483:Drivers/CMSIS/Include/cmsis_gcc.h ****   // without main extensions, the non-secure PSPLIM is RAZ/WI
1484:Drivers/CMSIS/Include/cmsis_gcc.h ****   (void)ProcStackPtrLimit;
1485:Drivers/CMSIS/Include/cmsis_gcc.h **** #else
1486:Drivers/CMSIS/Include/cmsis_gcc.h ****   __ASM volatile ("MSR psplim_ns, %0\n" : : "r" (ProcStackPtrLimit));
1487:Drivers/CMSIS/Include/cmsis_gcc.h **** #endif
1488:Drivers/CMSIS/Include/cmsis_gcc.h **** }
1489:Drivers/CMSIS/Include/cmsis_gcc.h **** #endif
1490:Drivers/CMSIS/Include/cmsis_gcc.h **** 
1491:Drivers/CMSIS/Include/cmsis_gcc.h **** 
1492:Drivers/CMSIS/Include/cmsis_gcc.h **** /**
1493:Drivers/CMSIS/Include/cmsis_gcc.h ****   \brief   Get Main Stack Pointer Limit
1494:Drivers/CMSIS/Include/cmsis_gcc.h ****   Devices without ARMv8-M Main Extensions (i.e. Cortex-M23) lack the non-secure
1495:Drivers/CMSIS/Include/cmsis_gcc.h ****   Stack Pointer Limit register hence zero is returned always in non-secure
1496:Drivers/CMSIS/Include/cmsis_gcc.h ****   mode.
1497:Drivers/CMSIS/Include/cmsis_gcc.h **** 
1498:Drivers/CMSIS/Include/cmsis_gcc.h ****   \details Returns the current value of the Main Stack Pointer Limit (MSPLIM).
1499:Drivers/CMSIS/Include/cmsis_gcc.h ****   \return               MSPLIM Register value
1500:Drivers/CMSIS/Include/cmsis_gcc.h ****  */
1501:Drivers/CMSIS/Include/cmsis_gcc.h **** __STATIC_FORCEINLINE uint32_t __get_MSPLIM(void)
1502:Drivers/CMSIS/Include/cmsis_gcc.h **** {
1503:Drivers/CMSIS/Include/cmsis_gcc.h **** #if (!(defined (__ARM_ARCH_8M_MAIN__ ) && (__ARM_ARCH_8M_MAIN__ == 1)) && \
1504:Drivers/CMSIS/Include/cmsis_gcc.h ****     (!defined (__ARM_FEATURE_CMSE) || (__ARM_FEATURE_CMSE < 3)))
1505:Drivers/CMSIS/Include/cmsis_gcc.h ****   // without main extensions, the non-secure MSPLIM is RAZ/WI
1506:Drivers/CMSIS/Include/cmsis_gcc.h ****   return 0U;
1507:Drivers/CMSIS/Include/cmsis_gcc.h **** #else
1508:Drivers/CMSIS/Include/cmsis_gcc.h ****   uint32_t result;
1509:Drivers/CMSIS/Include/cmsis_gcc.h ****   __ASM volatile ("MRS %0, msplim" : "=r" (result) );
1510:Drivers/CMSIS/Include/cmsis_gcc.h ****   return result;
1511:Drivers/CMSIS/Include/cmsis_gcc.h **** #endif
1512:Drivers/CMSIS/Include/cmsis_gcc.h **** }
ARM GAS  /var/folders/ck/g3dcd5x55xs4107jgdl0snvr0000gn/T//cc05Prz9.s 			page 33


1513:Drivers/CMSIS/Include/cmsis_gcc.h **** 
1514:Drivers/CMSIS/Include/cmsis_gcc.h **** 
1515:Drivers/CMSIS/Include/cmsis_gcc.h **** #if (defined (__ARM_FEATURE_CMSE  ) && (__ARM_FEATURE_CMSE   == 3))
1516:Drivers/CMSIS/Include/cmsis_gcc.h **** /**
1517:Drivers/CMSIS/Include/cmsis_gcc.h ****   \brief   Get Main Stack Pointer Limit (non-secure)
1518:Drivers/CMSIS/Include/cmsis_gcc.h ****   Devices without ARMv8-M Main Extensions (i.e. Cortex-M23) lack the non-secure
1519:Drivers/CMSIS/Include/cmsis_gcc.h ****   Stack Pointer Limit register hence zero is returned always.
1520:Drivers/CMSIS/Include/cmsis_gcc.h **** 
1521:Drivers/CMSIS/Include/cmsis_gcc.h ****   \details Returns the current value of the non-secure Main Stack Pointer Limit(MSPLIM) when in sec
1522:Drivers/CMSIS/Include/cmsis_gcc.h ****   \return               MSPLIM Register value
1523:Drivers/CMSIS/Include/cmsis_gcc.h ****  */
1524:Drivers/CMSIS/Include/cmsis_gcc.h **** __STATIC_FORCEINLINE uint32_t __TZ_get_MSPLIM_NS(void)
1525:Drivers/CMSIS/Include/cmsis_gcc.h **** {
1526:Drivers/CMSIS/Include/cmsis_gcc.h **** #if (!(defined (__ARM_ARCH_8M_MAIN__ ) && (__ARM_ARCH_8M_MAIN__ == 1)))
1527:Drivers/CMSIS/Include/cmsis_gcc.h ****   // without main extensions, the non-secure MSPLIM is RAZ/WI
1528:Drivers/CMSIS/Include/cmsis_gcc.h ****   return 0U;
1529:Drivers/CMSIS/Include/cmsis_gcc.h **** #else
1530:Drivers/CMSIS/Include/cmsis_gcc.h ****   uint32_t result;
1531:Drivers/CMSIS/Include/cmsis_gcc.h ****   __ASM volatile ("MRS %0, msplim_ns" : "=r" (result) );
1532:Drivers/CMSIS/Include/cmsis_gcc.h ****   return result;
1533:Drivers/CMSIS/Include/cmsis_gcc.h **** #endif
1534:Drivers/CMSIS/Include/cmsis_gcc.h **** }
1535:Drivers/CMSIS/Include/cmsis_gcc.h **** #endif
1536:Drivers/CMSIS/Include/cmsis_gcc.h **** 
1537:Drivers/CMSIS/Include/cmsis_gcc.h **** 
1538:Drivers/CMSIS/Include/cmsis_gcc.h **** /**
1539:Drivers/CMSIS/Include/cmsis_gcc.h ****   \brief   Set Main Stack Pointer Limit
1540:Drivers/CMSIS/Include/cmsis_gcc.h ****   Devices without ARMv8-M Main Extensions (i.e. Cortex-M23) lack the non-secure
1541:Drivers/CMSIS/Include/cmsis_gcc.h ****   Stack Pointer Limit register hence the write is silently ignored in non-secure
1542:Drivers/CMSIS/Include/cmsis_gcc.h ****   mode.
1543:Drivers/CMSIS/Include/cmsis_gcc.h **** 
1544:Drivers/CMSIS/Include/cmsis_gcc.h ****   \details Assigns the given value to the Main Stack Pointer Limit (MSPLIM).
1545:Drivers/CMSIS/Include/cmsis_gcc.h ****   \param [in]    MainStackPtrLimit  Main Stack Pointer Limit value to set
1546:Drivers/CMSIS/Include/cmsis_gcc.h ****  */
1547:Drivers/CMSIS/Include/cmsis_gcc.h **** __STATIC_FORCEINLINE void __set_MSPLIM(uint32_t MainStackPtrLimit)
1548:Drivers/CMSIS/Include/cmsis_gcc.h **** {
1549:Drivers/CMSIS/Include/cmsis_gcc.h **** #if (!(defined (__ARM_ARCH_8M_MAIN__ ) && (__ARM_ARCH_8M_MAIN__ == 1)) && \
1550:Drivers/CMSIS/Include/cmsis_gcc.h ****     (!defined (__ARM_FEATURE_CMSE) || (__ARM_FEATURE_CMSE < 3)))
1551:Drivers/CMSIS/Include/cmsis_gcc.h ****   // without main extensions, the non-secure MSPLIM is RAZ/WI
1552:Drivers/CMSIS/Include/cmsis_gcc.h ****   (void)MainStackPtrLimit;
1553:Drivers/CMSIS/Include/cmsis_gcc.h **** #else
1554:Drivers/CMSIS/Include/cmsis_gcc.h ****   __ASM volatile ("MSR msplim, %0" : : "r" (MainStackPtrLimit));
1555:Drivers/CMSIS/Include/cmsis_gcc.h **** #endif
1556:Drivers/CMSIS/Include/cmsis_gcc.h **** }
1557:Drivers/CMSIS/Include/cmsis_gcc.h **** 
1558:Drivers/CMSIS/Include/cmsis_gcc.h **** 
1559:Drivers/CMSIS/Include/cmsis_gcc.h **** #if (defined (__ARM_FEATURE_CMSE  ) && (__ARM_FEATURE_CMSE   == 3))
1560:Drivers/CMSIS/Include/cmsis_gcc.h **** /**
1561:Drivers/CMSIS/Include/cmsis_gcc.h ****   \brief   Set Main Stack Pointer Limit (non-secure)
1562:Drivers/CMSIS/Include/cmsis_gcc.h ****   Devices without ARMv8-M Main Extensions (i.e. Cortex-M23) lack the non-secure
1563:Drivers/CMSIS/Include/cmsis_gcc.h ****   Stack Pointer Limit register hence the write is silently ignored.
1564:Drivers/CMSIS/Include/cmsis_gcc.h **** 
1565:Drivers/CMSIS/Include/cmsis_gcc.h ****   \details Assigns the given value to the non-secure Main Stack Pointer Limit (MSPLIM) when in secu
1566:Drivers/CMSIS/Include/cmsis_gcc.h ****   \param [in]    MainStackPtrLimit  Main Stack Pointer value to set
1567:Drivers/CMSIS/Include/cmsis_gcc.h ****  */
1568:Drivers/CMSIS/Include/cmsis_gcc.h **** __STATIC_FORCEINLINE void __TZ_set_MSPLIM_NS(uint32_t MainStackPtrLimit)
1569:Drivers/CMSIS/Include/cmsis_gcc.h **** {
ARM GAS  /var/folders/ck/g3dcd5x55xs4107jgdl0snvr0000gn/T//cc05Prz9.s 			page 34


1570:Drivers/CMSIS/Include/cmsis_gcc.h **** #if (!(defined (__ARM_ARCH_8M_MAIN__ ) && (__ARM_ARCH_8M_MAIN__ == 1)))
1571:Drivers/CMSIS/Include/cmsis_gcc.h ****   // without main extensions, the non-secure MSPLIM is RAZ/WI
1572:Drivers/CMSIS/Include/cmsis_gcc.h ****   (void)MainStackPtrLimit;
1573:Drivers/CMSIS/Include/cmsis_gcc.h **** #else
1574:Drivers/CMSIS/Include/cmsis_gcc.h ****   __ASM volatile ("MSR msplim_ns, %0" : : "r" (MainStackPtrLimit));
1575:Drivers/CMSIS/Include/cmsis_gcc.h **** #endif
1576:Drivers/CMSIS/Include/cmsis_gcc.h **** }
1577:Drivers/CMSIS/Include/cmsis_gcc.h **** #endif
1578:Drivers/CMSIS/Include/cmsis_gcc.h **** 
1579:Drivers/CMSIS/Include/cmsis_gcc.h **** #endif /* ((defined (__ARM_ARCH_8M_MAIN__ ) && (__ARM_ARCH_8M_MAIN__ == 1)) || \
1580:Drivers/CMSIS/Include/cmsis_gcc.h ****            (defined (__ARM_ARCH_8M_BASE__ ) && (__ARM_ARCH_8M_BASE__ == 1))    ) */
1581:Drivers/CMSIS/Include/cmsis_gcc.h **** 
1582:Drivers/CMSIS/Include/cmsis_gcc.h **** 
1583:Drivers/CMSIS/Include/cmsis_gcc.h **** /**
1584:Drivers/CMSIS/Include/cmsis_gcc.h ****   \brief   Get FPSCR
1585:Drivers/CMSIS/Include/cmsis_gcc.h ****   \details Returns the current value of the Floating Point Status/Control register.
1586:Drivers/CMSIS/Include/cmsis_gcc.h ****   \return               Floating Point Status/Control register value
1587:Drivers/CMSIS/Include/cmsis_gcc.h ****  */
1588:Drivers/CMSIS/Include/cmsis_gcc.h **** __STATIC_FORCEINLINE uint32_t __get_FPSCR(void)
1589:Drivers/CMSIS/Include/cmsis_gcc.h **** {
1590:Drivers/CMSIS/Include/cmsis_gcc.h **** #if ((defined (__FPU_PRESENT) && (__FPU_PRESENT == 1U)) && \
1591:Drivers/CMSIS/Include/cmsis_gcc.h ****      (defined (__FPU_USED   ) && (__FPU_USED    == 1U))     )
1592:Drivers/CMSIS/Include/cmsis_gcc.h **** #if __has_builtin(__builtin_arm_get_fpscr)
1593:Drivers/CMSIS/Include/cmsis_gcc.h **** // Re-enable using built-in when GCC has been fixed
1594:Drivers/CMSIS/Include/cmsis_gcc.h **** // || (__GNUC__ > 7) || (__GNUC__ == 7 && __GNUC_MINOR__ >= 2)
1595:Drivers/CMSIS/Include/cmsis_gcc.h ****   /* see https://gcc.gnu.org/ml/gcc-patches/2017-04/msg00443.html */
1596:Drivers/CMSIS/Include/cmsis_gcc.h ****   return __builtin_arm_get_fpscr();
1597:Drivers/CMSIS/Include/cmsis_gcc.h **** #else
1598:Drivers/CMSIS/Include/cmsis_gcc.h ****   uint32_t result;
1599:Drivers/CMSIS/Include/cmsis_gcc.h **** 
1600:Drivers/CMSIS/Include/cmsis_gcc.h ****   __ASM volatile ("VMRS %0, fpscr" : "=r" (result) );
1601:Drivers/CMSIS/Include/cmsis_gcc.h ****   return(result);
1602:Drivers/CMSIS/Include/cmsis_gcc.h **** #endif
1603:Drivers/CMSIS/Include/cmsis_gcc.h **** #else
1604:Drivers/CMSIS/Include/cmsis_gcc.h ****   return(0U);
1605:Drivers/CMSIS/Include/cmsis_gcc.h **** #endif
1606:Drivers/CMSIS/Include/cmsis_gcc.h **** }
1607:Drivers/CMSIS/Include/cmsis_gcc.h **** 
1608:Drivers/CMSIS/Include/cmsis_gcc.h **** 
1609:Drivers/CMSIS/Include/cmsis_gcc.h **** /**
1610:Drivers/CMSIS/Include/cmsis_gcc.h ****   \brief   Set FPSCR
1611:Drivers/CMSIS/Include/cmsis_gcc.h ****   \details Assigns the given value to the Floating Point Status/Control register.
1612:Drivers/CMSIS/Include/cmsis_gcc.h ****   \param [in]    fpscr  Floating Point Status/Control value to set
1613:Drivers/CMSIS/Include/cmsis_gcc.h ****  */
1614:Drivers/CMSIS/Include/cmsis_gcc.h **** __STATIC_FORCEINLINE void __set_FPSCR(uint32_t fpscr)
1615:Drivers/CMSIS/Include/cmsis_gcc.h **** {
1616:Drivers/CMSIS/Include/cmsis_gcc.h **** #if ((defined (__FPU_PRESENT) && (__FPU_PRESENT == 1U)) && \
1617:Drivers/CMSIS/Include/cmsis_gcc.h ****      (defined (__FPU_USED   ) && (__FPU_USED    == 1U))     )
1618:Drivers/CMSIS/Include/cmsis_gcc.h **** #if __has_builtin(__builtin_arm_set_fpscr)
1619:Drivers/CMSIS/Include/cmsis_gcc.h **** // Re-enable using built-in when GCC has been fixed
1620:Drivers/CMSIS/Include/cmsis_gcc.h **** // || (__GNUC__ > 7) || (__GNUC__ == 7 && __GNUC_MINOR__ >= 2)
1621:Drivers/CMSIS/Include/cmsis_gcc.h ****   /* see https://gcc.gnu.org/ml/gcc-patches/2017-04/msg00443.html */
1622:Drivers/CMSIS/Include/cmsis_gcc.h ****   __builtin_arm_set_fpscr(fpscr);
1623:Drivers/CMSIS/Include/cmsis_gcc.h **** #else
1624:Drivers/CMSIS/Include/cmsis_gcc.h ****   __ASM volatile ("VMSR fpscr, %0" : : "r" (fpscr) : "vfpcc", "memory");
1625:Drivers/CMSIS/Include/cmsis_gcc.h **** #endif
1626:Drivers/CMSIS/Include/cmsis_gcc.h **** #else
ARM GAS  /var/folders/ck/g3dcd5x55xs4107jgdl0snvr0000gn/T//cc05Prz9.s 			page 35


1627:Drivers/CMSIS/Include/cmsis_gcc.h ****   (void)fpscr;
1628:Drivers/CMSIS/Include/cmsis_gcc.h **** #endif
1629:Drivers/CMSIS/Include/cmsis_gcc.h **** }
1630:Drivers/CMSIS/Include/cmsis_gcc.h **** 
1631:Drivers/CMSIS/Include/cmsis_gcc.h **** 
1632:Drivers/CMSIS/Include/cmsis_gcc.h **** /*@} end of CMSIS_Core_RegAccFunctions */
1633:Drivers/CMSIS/Include/cmsis_gcc.h **** 
1634:Drivers/CMSIS/Include/cmsis_gcc.h **** 
1635:Drivers/CMSIS/Include/cmsis_gcc.h **** /* ###################  Compiler specific Intrinsics  ########################### */
1636:Drivers/CMSIS/Include/cmsis_gcc.h **** /** \defgroup CMSIS_SIMD_intrinsics CMSIS SIMD Intrinsics
1637:Drivers/CMSIS/Include/cmsis_gcc.h ****   Access to dedicated SIMD instructions
1638:Drivers/CMSIS/Include/cmsis_gcc.h ****   @{
1639:Drivers/CMSIS/Include/cmsis_gcc.h **** */
1640:Drivers/CMSIS/Include/cmsis_gcc.h **** 
1641:Drivers/CMSIS/Include/cmsis_gcc.h **** #if (defined (__ARM_FEATURE_DSP) && (__ARM_FEATURE_DSP == 1))
1642:Drivers/CMSIS/Include/cmsis_gcc.h **** 
1643:Drivers/CMSIS/Include/cmsis_gcc.h **** __STATIC_FORCEINLINE uint32_t __SADD8(uint32_t op1, uint32_t op2)
1644:Drivers/CMSIS/Include/cmsis_gcc.h **** {
1645:Drivers/CMSIS/Include/cmsis_gcc.h ****   uint32_t result;
1646:Drivers/CMSIS/Include/cmsis_gcc.h **** 
1647:Drivers/CMSIS/Include/cmsis_gcc.h ****   __ASM volatile ("sadd8 %0, %1, %2" : "=r" (result) : "r" (op1), "r" (op2) );
1648:Drivers/CMSIS/Include/cmsis_gcc.h ****   return(result);
1649:Drivers/CMSIS/Include/cmsis_gcc.h **** }
1650:Drivers/CMSIS/Include/cmsis_gcc.h **** 
1651:Drivers/CMSIS/Include/cmsis_gcc.h **** __STATIC_FORCEINLINE uint32_t __QADD8(uint32_t op1, uint32_t op2)
1652:Drivers/CMSIS/Include/cmsis_gcc.h **** {
1653:Drivers/CMSIS/Include/cmsis_gcc.h ****   uint32_t result;
1654:Drivers/CMSIS/Include/cmsis_gcc.h **** 
1655:Drivers/CMSIS/Include/cmsis_gcc.h ****   __ASM ("qadd8 %0, %1, %2" : "=r" (result) : "r" (op1), "r" (op2) );
1656:Drivers/CMSIS/Include/cmsis_gcc.h ****   return(result);
1657:Drivers/CMSIS/Include/cmsis_gcc.h **** }
1658:Drivers/CMSIS/Include/cmsis_gcc.h **** 
1659:Drivers/CMSIS/Include/cmsis_gcc.h **** __STATIC_FORCEINLINE uint32_t __SHADD8(uint32_t op1, uint32_t op2)
1660:Drivers/CMSIS/Include/cmsis_gcc.h **** {
1661:Drivers/CMSIS/Include/cmsis_gcc.h ****   uint32_t result;
1662:Drivers/CMSIS/Include/cmsis_gcc.h **** 
1663:Drivers/CMSIS/Include/cmsis_gcc.h ****   __ASM ("shadd8 %0, %1, %2" : "=r" (result) : "r" (op1), "r" (op2) );
1664:Drivers/CMSIS/Include/cmsis_gcc.h ****   return(result);
1665:Drivers/CMSIS/Include/cmsis_gcc.h **** }
1666:Drivers/CMSIS/Include/cmsis_gcc.h **** 
1667:Drivers/CMSIS/Include/cmsis_gcc.h **** __STATIC_FORCEINLINE uint32_t __UADD8(uint32_t op1, uint32_t op2)
1668:Drivers/CMSIS/Include/cmsis_gcc.h **** {
1669:Drivers/CMSIS/Include/cmsis_gcc.h ****   uint32_t result;
1670:Drivers/CMSIS/Include/cmsis_gcc.h **** 
1671:Drivers/CMSIS/Include/cmsis_gcc.h ****   __ASM volatile ("uadd8 %0, %1, %2" : "=r" (result) : "r" (op1), "r" (op2) );
1672:Drivers/CMSIS/Include/cmsis_gcc.h ****   return(result);
1673:Drivers/CMSIS/Include/cmsis_gcc.h **** }
1674:Drivers/CMSIS/Include/cmsis_gcc.h **** 
1675:Drivers/CMSIS/Include/cmsis_gcc.h **** __STATIC_FORCEINLINE uint32_t __UQADD8(uint32_t op1, uint32_t op2)
1676:Drivers/CMSIS/Include/cmsis_gcc.h **** {
1677:Drivers/CMSIS/Include/cmsis_gcc.h ****   uint32_t result;
1678:Drivers/CMSIS/Include/cmsis_gcc.h **** 
1679:Drivers/CMSIS/Include/cmsis_gcc.h ****   __ASM ("uqadd8 %0, %1, %2" : "=r" (result) : "r" (op1), "r" (op2) );
1680:Drivers/CMSIS/Include/cmsis_gcc.h ****   return(result);
1681:Drivers/CMSIS/Include/cmsis_gcc.h **** }
1682:Drivers/CMSIS/Include/cmsis_gcc.h **** 
1683:Drivers/CMSIS/Include/cmsis_gcc.h **** __STATIC_FORCEINLINE uint32_t __UHADD8(uint32_t op1, uint32_t op2)
ARM GAS  /var/folders/ck/g3dcd5x55xs4107jgdl0snvr0000gn/T//cc05Prz9.s 			page 36


1684:Drivers/CMSIS/Include/cmsis_gcc.h **** {
1685:Drivers/CMSIS/Include/cmsis_gcc.h ****   uint32_t result;
1686:Drivers/CMSIS/Include/cmsis_gcc.h **** 
1687:Drivers/CMSIS/Include/cmsis_gcc.h ****   __ASM ("uhadd8 %0, %1, %2" : "=r" (result) : "r" (op1), "r" (op2) );
1688:Drivers/CMSIS/Include/cmsis_gcc.h ****   return(result);
1689:Drivers/CMSIS/Include/cmsis_gcc.h **** }
1690:Drivers/CMSIS/Include/cmsis_gcc.h **** 
1691:Drivers/CMSIS/Include/cmsis_gcc.h **** 
1692:Drivers/CMSIS/Include/cmsis_gcc.h **** __STATIC_FORCEINLINE uint32_t __SSUB8(uint32_t op1, uint32_t op2)
1693:Drivers/CMSIS/Include/cmsis_gcc.h **** {
1694:Drivers/CMSIS/Include/cmsis_gcc.h ****   uint32_t result;
1695:Drivers/CMSIS/Include/cmsis_gcc.h **** 
1696:Drivers/CMSIS/Include/cmsis_gcc.h ****   __ASM volatile ("ssub8 %0, %1, %2" : "=r" (result) : "r" (op1), "r" (op2) );
1697:Drivers/CMSIS/Include/cmsis_gcc.h ****   return(result);
1698:Drivers/CMSIS/Include/cmsis_gcc.h **** }
1699:Drivers/CMSIS/Include/cmsis_gcc.h **** 
1700:Drivers/CMSIS/Include/cmsis_gcc.h **** __STATIC_FORCEINLINE uint32_t __QSUB8(uint32_t op1, uint32_t op2)
1701:Drivers/CMSIS/Include/cmsis_gcc.h **** {
1702:Drivers/CMSIS/Include/cmsis_gcc.h ****   uint32_t result;
1703:Drivers/CMSIS/Include/cmsis_gcc.h **** 
1704:Drivers/CMSIS/Include/cmsis_gcc.h ****   __ASM ("qsub8 %0, %1, %2" : "=r" (result) : "r" (op1), "r" (op2) );
1705:Drivers/CMSIS/Include/cmsis_gcc.h ****   return(result);
1706:Drivers/CMSIS/Include/cmsis_gcc.h **** }
1707:Drivers/CMSIS/Include/cmsis_gcc.h **** 
1708:Drivers/CMSIS/Include/cmsis_gcc.h **** __STATIC_FORCEINLINE uint32_t __SHSUB8(uint32_t op1, uint32_t op2)
1709:Drivers/CMSIS/Include/cmsis_gcc.h **** {
1710:Drivers/CMSIS/Include/cmsis_gcc.h ****   uint32_t result;
1711:Drivers/CMSIS/Include/cmsis_gcc.h **** 
1712:Drivers/CMSIS/Include/cmsis_gcc.h ****   __ASM ("shsub8 %0, %1, %2" : "=r" (result) : "r" (op1), "r" (op2) );
1713:Drivers/CMSIS/Include/cmsis_gcc.h ****   return(result);
1714:Drivers/CMSIS/Include/cmsis_gcc.h **** }
1715:Drivers/CMSIS/Include/cmsis_gcc.h **** 
1716:Drivers/CMSIS/Include/cmsis_gcc.h **** __STATIC_FORCEINLINE uint32_t __USUB8(uint32_t op1, uint32_t op2)
1717:Drivers/CMSIS/Include/cmsis_gcc.h **** {
1718:Drivers/CMSIS/Include/cmsis_gcc.h ****   uint32_t result;
1719:Drivers/CMSIS/Include/cmsis_gcc.h **** 
1720:Drivers/CMSIS/Include/cmsis_gcc.h ****   __ASM volatile ("usub8 %0, %1, %2" : "=r" (result) : "r" (op1), "r" (op2) );
1721:Drivers/CMSIS/Include/cmsis_gcc.h ****   return(result);
1722:Drivers/CMSIS/Include/cmsis_gcc.h **** }
1723:Drivers/CMSIS/Include/cmsis_gcc.h **** 
1724:Drivers/CMSIS/Include/cmsis_gcc.h **** __STATIC_FORCEINLINE uint32_t __UQSUB8(uint32_t op1, uint32_t op2)
1725:Drivers/CMSIS/Include/cmsis_gcc.h **** {
1726:Drivers/CMSIS/Include/cmsis_gcc.h ****   uint32_t result;
1727:Drivers/CMSIS/Include/cmsis_gcc.h **** 
1728:Drivers/CMSIS/Include/cmsis_gcc.h ****   __ASM ("uqsub8 %0, %1, %2" : "=r" (result) : "r" (op1), "r" (op2) );
1729:Drivers/CMSIS/Include/cmsis_gcc.h ****   return(result);
1730:Drivers/CMSIS/Include/cmsis_gcc.h **** }
1731:Drivers/CMSIS/Include/cmsis_gcc.h **** 
1732:Drivers/CMSIS/Include/cmsis_gcc.h **** __STATIC_FORCEINLINE uint32_t __UHSUB8(uint32_t op1, uint32_t op2)
1733:Drivers/CMSIS/Include/cmsis_gcc.h **** {
1734:Drivers/CMSIS/Include/cmsis_gcc.h ****   uint32_t result;
1735:Drivers/CMSIS/Include/cmsis_gcc.h **** 
1736:Drivers/CMSIS/Include/cmsis_gcc.h ****   __ASM ("uhsub8 %0, %1, %2" : "=r" (result) : "r" (op1), "r" (op2) );
1737:Drivers/CMSIS/Include/cmsis_gcc.h ****   return(result);
1738:Drivers/CMSIS/Include/cmsis_gcc.h **** }
1739:Drivers/CMSIS/Include/cmsis_gcc.h **** 
1740:Drivers/CMSIS/Include/cmsis_gcc.h **** 
ARM GAS  /var/folders/ck/g3dcd5x55xs4107jgdl0snvr0000gn/T//cc05Prz9.s 			page 37


1741:Drivers/CMSIS/Include/cmsis_gcc.h **** __STATIC_FORCEINLINE uint32_t __SADD16(uint32_t op1, uint32_t op2)
1742:Drivers/CMSIS/Include/cmsis_gcc.h **** {
1743:Drivers/CMSIS/Include/cmsis_gcc.h ****   uint32_t result;
1744:Drivers/CMSIS/Include/cmsis_gcc.h **** 
1745:Drivers/CMSIS/Include/cmsis_gcc.h ****   __ASM volatile ("sadd16 %0, %1, %2" : "=r" (result) : "r" (op1), "r" (op2) );
1746:Drivers/CMSIS/Include/cmsis_gcc.h ****   return(result);
1747:Drivers/CMSIS/Include/cmsis_gcc.h **** }
1748:Drivers/CMSIS/Include/cmsis_gcc.h **** 
1749:Drivers/CMSIS/Include/cmsis_gcc.h **** __STATIC_FORCEINLINE uint32_t __QADD16(uint32_t op1, uint32_t op2)
1750:Drivers/CMSIS/Include/cmsis_gcc.h **** {
1751:Drivers/CMSIS/Include/cmsis_gcc.h ****   uint32_t result;
1752:Drivers/CMSIS/Include/cmsis_gcc.h **** 
1753:Drivers/CMSIS/Include/cmsis_gcc.h ****   __ASM ("qadd16 %0, %1, %2" : "=r" (result) : "r" (op1), "r" (op2) );
1754:Drivers/CMSIS/Include/cmsis_gcc.h ****   return(result);
1755:Drivers/CMSIS/Include/cmsis_gcc.h **** }
1756:Drivers/CMSIS/Include/cmsis_gcc.h **** 
1757:Drivers/CMSIS/Include/cmsis_gcc.h **** __STATIC_FORCEINLINE uint32_t __SHADD16(uint32_t op1, uint32_t op2)
 107              		.loc 2 1757 31 view .LVU32
 108              	.LBB203:
1758:Drivers/CMSIS/Include/cmsis_gcc.h **** {
1759:Drivers/CMSIS/Include/cmsis_gcc.h ****   uint32_t result;
 109              		.loc 2 1759 3 view .LVU33
1760:Drivers/CMSIS/Include/cmsis_gcc.h **** 
1761:Drivers/CMSIS/Include/cmsis_gcc.h ****   __ASM ("shadd16 %0, %1, %2" : "=r" (result) : "r" (op1), "r" (op2) );
 110              		.loc 2 1761 3 view .LVU34
 111 002a 0023     		movs	r3, #0
 112              		.syntax unified
 113              	@ 1761 "Drivers/CMSIS/Include/cmsis_gcc.h" 1
 114 002c 92FA23FC 		shadd16 ip, r2, r3
 115              	@ 0 "" 2
 116              	.LVL10:
1762:Drivers/CMSIS/Include/cmsis_gcc.h ****   return(result);
 117              		.loc 2 1762 3 view .LVU35
 118              		.loc 2 1762 3 is_stmt 0 view .LVU36
 119              		.thumb
 120              		.syntax unified
 121              	.LBE203:
 122              	.LBE202:
 205:DSP/Source/TransformFunctions/arm_cfft_radix4_q15.c ****     T = __SHADD16(T, 0); // it turns out doing this twice is 2 cycles, the alternative takes 3 cycl
 123              		.loc 1 205 5 is_stmt 1 view .LVU37
 124              	.LBB204:
 125              	.LBI204:
1757:Drivers/CMSIS/Include/cmsis_gcc.h **** {
 126              		.loc 2 1757 31 view .LVU38
 127              	.LBB205:
1759:Drivers/CMSIS/Include/cmsis_gcc.h **** 
 128              		.loc 2 1759 3 view .LVU39
1761:Drivers/CMSIS/Include/cmsis_gcc.h ****   return(result);
 129              		.loc 2 1761 3 view .LVU40
 130              		.syntax unified
 131              	@ 1761 "Drivers/CMSIS/Include/cmsis_gcc.h" 1
 132 0030 9CFA23FC 		shadd16 ip, ip, r3
 133              	@ 0 "" 2
 134              	.LVL11:
 135              		.loc 2 1762 3 view .LVU41
 136              		.loc 2 1762 3 is_stmt 0 view .LVU42
 137              		.thumb
ARM GAS  /var/folders/ck/g3dcd5x55xs4107jgdl0snvr0000gn/T//cc05Prz9.s 			page 38


 138              		.syntax unified
 139              	.LBE205:
 140              	.LBE204:
 206:DSP/Source/TransformFunctions/arm_cfft_radix4_q15.c ****     //in = ((int16_t) (T & 0xFFFF)) >> 2;       // alternative code that takes 3 cycles
 207:DSP/Source/TransformFunctions/arm_cfft_radix4_q15.c ****     //T = ((T >> 2) & 0xFFFF0000) | (in & 0xFFFF);
 208:DSP/Source/TransformFunctions/arm_cfft_radix4_q15.c **** 
 209:DSP/Source/TransformFunctions/arm_cfft_radix4_q15.c ****     /* Read yc (real), xc(imag) input */
 210:DSP/Source/TransformFunctions/arm_cfft_radix4_q15.c ****     S = _SIMD32_OFFSET(pSi2);
 141              		.loc 1 210 5 is_stmt 1 view .LVU43
 142              		.loc 1 210 7 is_stmt 0 view .LVU44
 143 0034 2A68     		ldr	r2, [r5]
 144              	.LVL12:
 211:DSP/Source/TransformFunctions/arm_cfft_radix4_q15.c ****     S = __SHADD16(S, 0);
 145              		.loc 1 211 5 is_stmt 1 view .LVU45
 146              	.LBB206:
 147              	.LBI206:
1757:Drivers/CMSIS/Include/cmsis_gcc.h **** {
 148              		.loc 2 1757 31 view .LVU46
 149              	.LBB207:
1759:Drivers/CMSIS/Include/cmsis_gcc.h **** 
 150              		.loc 2 1759 3 view .LVU47
1761:Drivers/CMSIS/Include/cmsis_gcc.h ****   return(result);
 151              		.loc 2 1761 3 view .LVU48
 152              		.syntax unified
 153              	@ 1761 "Drivers/CMSIS/Include/cmsis_gcc.h" 1
 154 0036 92FA23F2 		shadd16 r2, r2, r3
 155              	@ 0 "" 2
 156              	.LVL13:
 157              		.loc 2 1762 3 view .LVU49
 158              		.loc 2 1762 3 is_stmt 0 view .LVU50
 159              		.thumb
 160              		.syntax unified
 161              	.LBE207:
 162              	.LBE206:
 212:DSP/Source/TransformFunctions/arm_cfft_radix4_q15.c ****     S = __SHADD16(S, 0);
 163              		.loc 1 212 5 is_stmt 1 view .LVU51
 164              	.LBB208:
 165              	.LBI208:
1757:Drivers/CMSIS/Include/cmsis_gcc.h **** {
 166              		.loc 2 1757 31 view .LVU52
 167              	.LBB209:
1759:Drivers/CMSIS/Include/cmsis_gcc.h **** 
 168              		.loc 2 1759 3 view .LVU53
1761:Drivers/CMSIS/Include/cmsis_gcc.h ****   return(result);
 169              		.loc 2 1761 3 view .LVU54
 170              		.syntax unified
 171              	@ 1761 "Drivers/CMSIS/Include/cmsis_gcc.h" 1
 172 003a 92FA23F2 		shadd16 r2, r2, r3
 173              	@ 0 "" 2
 174              	.LVL14:
 175              		.loc 2 1762 3 view .LVU55
 176              		.loc 2 1762 3 is_stmt 0 view .LVU56
 177              		.thumb
 178              		.syntax unified
 179              	.LBE209:
 180              	.LBE208:
 213:DSP/Source/TransformFunctions/arm_cfft_radix4_q15.c **** 
ARM GAS  /var/folders/ck/g3dcd5x55xs4107jgdl0snvr0000gn/T//cc05Prz9.s 			page 39


 214:DSP/Source/TransformFunctions/arm_cfft_radix4_q15.c ****     /* R = packed((ya + yc), (xa + xc) ) */
 215:DSP/Source/TransformFunctions/arm_cfft_radix4_q15.c ****     R = __QADD16(T, S);
 181              		.loc 1 215 5 is_stmt 1 view .LVU57
 182              	.LBB210:
 183              	.LBI210:
1749:Drivers/CMSIS/Include/cmsis_gcc.h **** {
 184              		.loc 2 1749 31 view .LVU58
 185              	.LBB211:
1751:Drivers/CMSIS/Include/cmsis_gcc.h **** 
 186              		.loc 2 1751 3 view .LVU59
1753:Drivers/CMSIS/Include/cmsis_gcc.h ****   return(result);
 187              		.loc 2 1753 3 view .LVU60
 188              		.syntax unified
 189              	@ 1753 "Drivers/CMSIS/Include/cmsis_gcc.h" 1
 190 003e 9CFA12FE 		qadd16 lr, ip, r2
 191              	@ 0 "" 2
 192              	.LVL15:
1754:Drivers/CMSIS/Include/cmsis_gcc.h **** }
 193              		.loc 2 1754 3 view .LVU61
1754:Drivers/CMSIS/Include/cmsis_gcc.h **** }
 194              		.loc 2 1754 3 is_stmt 0 view .LVU62
 195              		.thumb
 196              		.syntax unified
 197              	.LBE211:
 198              	.LBE210:
 216:DSP/Source/TransformFunctions/arm_cfft_radix4_q15.c **** 
 217:DSP/Source/TransformFunctions/arm_cfft_radix4_q15.c ****     /* S = packed((ya - yc), (xa - xc) ) */
 218:DSP/Source/TransformFunctions/arm_cfft_radix4_q15.c ****     S = __QSUB16(T, S);
 199              		.loc 1 218 5 is_stmt 1 view .LVU63
 200              	.LBB212:
 201              	.LBI212:
1763:Drivers/CMSIS/Include/cmsis_gcc.h **** }
1764:Drivers/CMSIS/Include/cmsis_gcc.h **** 
1765:Drivers/CMSIS/Include/cmsis_gcc.h **** __STATIC_FORCEINLINE uint32_t __UADD16(uint32_t op1, uint32_t op2)
1766:Drivers/CMSIS/Include/cmsis_gcc.h **** {
1767:Drivers/CMSIS/Include/cmsis_gcc.h ****   uint32_t result;
1768:Drivers/CMSIS/Include/cmsis_gcc.h **** 
1769:Drivers/CMSIS/Include/cmsis_gcc.h ****   __ASM volatile ("uadd16 %0, %1, %2" : "=r" (result) : "r" (op1), "r" (op2) );
1770:Drivers/CMSIS/Include/cmsis_gcc.h ****   return(result);
1771:Drivers/CMSIS/Include/cmsis_gcc.h **** }
1772:Drivers/CMSIS/Include/cmsis_gcc.h **** 
1773:Drivers/CMSIS/Include/cmsis_gcc.h **** __STATIC_FORCEINLINE uint32_t __UQADD16(uint32_t op1, uint32_t op2)
1774:Drivers/CMSIS/Include/cmsis_gcc.h **** {
1775:Drivers/CMSIS/Include/cmsis_gcc.h ****   uint32_t result;
1776:Drivers/CMSIS/Include/cmsis_gcc.h **** 
1777:Drivers/CMSIS/Include/cmsis_gcc.h ****   __ASM ("uqadd16 %0, %1, %2" : "=r" (result) : "r" (op1), "r" (op2) );
1778:Drivers/CMSIS/Include/cmsis_gcc.h ****   return(result);
1779:Drivers/CMSIS/Include/cmsis_gcc.h **** }
1780:Drivers/CMSIS/Include/cmsis_gcc.h **** 
1781:Drivers/CMSIS/Include/cmsis_gcc.h **** __STATIC_FORCEINLINE uint32_t __UHADD16(uint32_t op1, uint32_t op2)
1782:Drivers/CMSIS/Include/cmsis_gcc.h **** {
1783:Drivers/CMSIS/Include/cmsis_gcc.h ****   uint32_t result;
1784:Drivers/CMSIS/Include/cmsis_gcc.h **** 
1785:Drivers/CMSIS/Include/cmsis_gcc.h ****   __ASM ("uhadd16 %0, %1, %2" : "=r" (result) : "r" (op1), "r" (op2) );
1786:Drivers/CMSIS/Include/cmsis_gcc.h ****   return(result);
1787:Drivers/CMSIS/Include/cmsis_gcc.h **** }
1788:Drivers/CMSIS/Include/cmsis_gcc.h **** 
ARM GAS  /var/folders/ck/g3dcd5x55xs4107jgdl0snvr0000gn/T//cc05Prz9.s 			page 40


1789:Drivers/CMSIS/Include/cmsis_gcc.h **** __STATIC_FORCEINLINE uint32_t __SSUB16(uint32_t op1, uint32_t op2)
1790:Drivers/CMSIS/Include/cmsis_gcc.h **** {
1791:Drivers/CMSIS/Include/cmsis_gcc.h ****   uint32_t result;
1792:Drivers/CMSIS/Include/cmsis_gcc.h **** 
1793:Drivers/CMSIS/Include/cmsis_gcc.h ****   __ASM volatile ("ssub16 %0, %1, %2" : "=r" (result) : "r" (op1), "r" (op2) );
1794:Drivers/CMSIS/Include/cmsis_gcc.h ****   return(result);
1795:Drivers/CMSIS/Include/cmsis_gcc.h **** }
1796:Drivers/CMSIS/Include/cmsis_gcc.h **** 
1797:Drivers/CMSIS/Include/cmsis_gcc.h **** __STATIC_FORCEINLINE uint32_t __QSUB16(uint32_t op1, uint32_t op2)
 202              		.loc 2 1797 31 view .LVU64
 203              	.LBB213:
1798:Drivers/CMSIS/Include/cmsis_gcc.h **** {
1799:Drivers/CMSIS/Include/cmsis_gcc.h ****   uint32_t result;
 204              		.loc 2 1799 3 view .LVU65
1800:Drivers/CMSIS/Include/cmsis_gcc.h **** 
1801:Drivers/CMSIS/Include/cmsis_gcc.h ****   __ASM ("qsub16 %0, %1, %2" : "=r" (result) : "r" (op1), "r" (op2) );
 205              		.loc 2 1801 3 view .LVU66
 206              		.syntax unified
 207              	@ 1801 "Drivers/CMSIS/Include/cmsis_gcc.h" 1
 208 0042 DCFA12FC 		qsub16 ip, ip, r2
 209              	@ 0 "" 2
 210              	.LVL16:
1802:Drivers/CMSIS/Include/cmsis_gcc.h ****   return(result);
 211              		.loc 2 1802 3 view .LVU67
 212              		.loc 2 1802 3 is_stmt 0 view .LVU68
 213              		.thumb
 214              		.syntax unified
 215              	.LBE213:
 216              	.LBE212:
 219:DSP/Source/TransformFunctions/arm_cfft_radix4_q15.c **** 
 220:DSP/Source/TransformFunctions/arm_cfft_radix4_q15.c ****     /*  Reading i0+fftLen/4 , i0+3fftLen/4 inputs */
 221:DSP/Source/TransformFunctions/arm_cfft_radix4_q15.c ****     /* Read yb (real), xb(imag) input */
 222:DSP/Source/TransformFunctions/arm_cfft_radix4_q15.c ****     T = _SIMD32_OFFSET(pSi1);
 217              		.loc 1 222 5 is_stmt 1 view .LVU69
 218              		.loc 1 222 7 is_stmt 0 view .LVU70
 219 0046 2268     		ldr	r2, [r4]
 220              	.LVL17:
 223:DSP/Source/TransformFunctions/arm_cfft_radix4_q15.c ****     T = __SHADD16(T, 0);
 221              		.loc 1 223 5 is_stmt 1 view .LVU71
 222              	.LBB214:
 223              	.LBI214:
1757:Drivers/CMSIS/Include/cmsis_gcc.h **** {
 224              		.loc 2 1757 31 view .LVU72
 225              	.LBB215:
1759:Drivers/CMSIS/Include/cmsis_gcc.h **** 
 226              		.loc 2 1759 3 view .LVU73
1761:Drivers/CMSIS/Include/cmsis_gcc.h ****   return(result);
 227              		.loc 2 1761 3 view .LVU74
 228              		.syntax unified
 229              	@ 1761 "Drivers/CMSIS/Include/cmsis_gcc.h" 1
 230 0048 92FA23F2 		shadd16 r2, r2, r3
 231              	@ 0 "" 2
 232              	.LVL18:
1762:Drivers/CMSIS/Include/cmsis_gcc.h **** }
 233              		.loc 2 1762 3 view .LVU75
1762:Drivers/CMSIS/Include/cmsis_gcc.h **** }
 234              		.loc 2 1762 3 is_stmt 0 view .LVU76
ARM GAS  /var/folders/ck/g3dcd5x55xs4107jgdl0snvr0000gn/T//cc05Prz9.s 			page 41


 235              		.thumb
 236              		.syntax unified
 237              	.LBE215:
 238              	.LBE214:
 224:DSP/Source/TransformFunctions/arm_cfft_radix4_q15.c ****     T = __SHADD16(T, 0);
 239              		.loc 1 224 5 is_stmt 1 view .LVU77
 240              	.LBB216:
 241              	.LBI216:
1757:Drivers/CMSIS/Include/cmsis_gcc.h **** {
 242              		.loc 2 1757 31 view .LVU78
 243              	.LBB217:
1759:Drivers/CMSIS/Include/cmsis_gcc.h **** 
 244              		.loc 2 1759 3 view .LVU79
1761:Drivers/CMSIS/Include/cmsis_gcc.h ****   return(result);
 245              		.loc 2 1761 3 view .LVU80
 246              		.syntax unified
 247              	@ 1761 "Drivers/CMSIS/Include/cmsis_gcc.h" 1
 248 004c 92FA23F8 		shadd16 r8, r2, r3
 249              	@ 0 "" 2
 250              	.LVL19:
1762:Drivers/CMSIS/Include/cmsis_gcc.h **** }
 251              		.loc 2 1762 3 view .LVU81
1762:Drivers/CMSIS/Include/cmsis_gcc.h **** }
 252              		.loc 2 1762 3 is_stmt 0 view .LVU82
 253              		.thumb
 254              		.syntax unified
 255              	.LBE217:
 256              	.LBE216:
 225:DSP/Source/TransformFunctions/arm_cfft_radix4_q15.c **** 
 226:DSP/Source/TransformFunctions/arm_cfft_radix4_q15.c ****     /* Read yd (real), xd(imag) input */
 227:DSP/Source/TransformFunctions/arm_cfft_radix4_q15.c ****     U = _SIMD32_OFFSET(pSi3);
 257              		.loc 1 227 5 is_stmt 1 view .LVU83
 258              		.loc 1 227 7 is_stmt 0 view .LVU84
 259 0050 0268     		ldr	r2, [r0]
 260              	.LVL20:
 228:DSP/Source/TransformFunctions/arm_cfft_radix4_q15.c ****     U = __SHADD16(U, 0);
 261              		.loc 1 228 5 is_stmt 1 view .LVU85
 262              	.LBB218:
 263              	.LBI218:
1757:Drivers/CMSIS/Include/cmsis_gcc.h **** {
 264              		.loc 2 1757 31 view .LVU86
 265              	.LBB219:
1759:Drivers/CMSIS/Include/cmsis_gcc.h **** 
 266              		.loc 2 1759 3 view .LVU87
1761:Drivers/CMSIS/Include/cmsis_gcc.h ****   return(result);
 267              		.loc 2 1761 3 view .LVU88
 268              		.syntax unified
 269              	@ 1761 "Drivers/CMSIS/Include/cmsis_gcc.h" 1
 270 0052 92FA23F2 		shadd16 r2, r2, r3
 271              	@ 0 "" 2
 272              	.LVL21:
1762:Drivers/CMSIS/Include/cmsis_gcc.h **** }
 273              		.loc 2 1762 3 view .LVU89
1762:Drivers/CMSIS/Include/cmsis_gcc.h **** }
 274              		.loc 2 1762 3 is_stmt 0 view .LVU90
 275              		.thumb
 276              		.syntax unified
ARM GAS  /var/folders/ck/g3dcd5x55xs4107jgdl0snvr0000gn/T//cc05Prz9.s 			page 42


 277              	.LBE219:
 278              	.LBE218:
 229:DSP/Source/TransformFunctions/arm_cfft_radix4_q15.c ****     U = __SHADD16(U, 0);
 279              		.loc 1 229 5 is_stmt 1 view .LVU91
 280              	.LBB220:
 281              	.LBI220:
1757:Drivers/CMSIS/Include/cmsis_gcc.h **** {
 282              		.loc 2 1757 31 view .LVU92
 283              	.LBB221:
1759:Drivers/CMSIS/Include/cmsis_gcc.h **** 
 284              		.loc 2 1759 3 view .LVU93
1761:Drivers/CMSIS/Include/cmsis_gcc.h ****   return(result);
 285              		.loc 2 1761 3 view .LVU94
 286              		.syntax unified
 287              	@ 1761 "Drivers/CMSIS/Include/cmsis_gcc.h" 1
 288 0056 92FA23F2 		shadd16 r2, r2, r3
 289              	@ 0 "" 2
 290              	.LVL22:
1762:Drivers/CMSIS/Include/cmsis_gcc.h **** }
 291              		.loc 2 1762 3 view .LVU95
1762:Drivers/CMSIS/Include/cmsis_gcc.h **** }
 292              		.loc 2 1762 3 is_stmt 0 view .LVU96
 293              		.thumb
 294              		.syntax unified
 295              	.LBE221:
 296              	.LBE220:
 230:DSP/Source/TransformFunctions/arm_cfft_radix4_q15.c **** 
 231:DSP/Source/TransformFunctions/arm_cfft_radix4_q15.c ****     /* T = packed((yb + yd), (xb + xd) ) */
 232:DSP/Source/TransformFunctions/arm_cfft_radix4_q15.c ****     T = __QADD16(T, U);
 297              		.loc 1 232 5 is_stmt 1 view .LVU97
 298              	.LBB222:
 299              	.LBI222:
1749:Drivers/CMSIS/Include/cmsis_gcc.h **** {
 300              		.loc 2 1749 31 view .LVU98
 301              	.LBB223:
1751:Drivers/CMSIS/Include/cmsis_gcc.h **** 
 302              		.loc 2 1751 3 view .LVU99
1753:Drivers/CMSIS/Include/cmsis_gcc.h ****   return(result);
 303              		.loc 2 1753 3 view .LVU100
 304              		.syntax unified
 305              	@ 1753 "Drivers/CMSIS/Include/cmsis_gcc.h" 1
 306 005a 98FA12F2 		qadd16 r2, r8, r2
 307              	@ 0 "" 2
 308              	.LVL23:
1754:Drivers/CMSIS/Include/cmsis_gcc.h **** }
 309              		.loc 2 1754 3 view .LVU101
1754:Drivers/CMSIS/Include/cmsis_gcc.h **** }
 310              		.loc 2 1754 3 is_stmt 0 view .LVU102
 311              		.thumb
 312              		.syntax unified
 313              	.LBE223:
 314              	.LBE222:
 233:DSP/Source/TransformFunctions/arm_cfft_radix4_q15.c **** 
 234:DSP/Source/TransformFunctions/arm_cfft_radix4_q15.c ****     /*  writing the butterfly processed i0 sample */
 235:DSP/Source/TransformFunctions/arm_cfft_radix4_q15.c ****     /* xa' = xa + xb + xc + xd */
 236:DSP/Source/TransformFunctions/arm_cfft_radix4_q15.c ****     /* ya' = ya + yb + yc + yd */
 237:DSP/Source/TransformFunctions/arm_cfft_radix4_q15.c ****     _SIMD32_OFFSET(pSi0) = __SHADD16(R, T);
ARM GAS  /var/folders/ck/g3dcd5x55xs4107jgdl0snvr0000gn/T//cc05Prz9.s 			page 43


 315              		.loc 1 237 5 is_stmt 1 view .LVU103
 316              	.LBB224:
 317              	.LBI224:
1757:Drivers/CMSIS/Include/cmsis_gcc.h **** {
 318              		.loc 2 1757 31 view .LVU104
 319              	.LBB225:
1759:Drivers/CMSIS/Include/cmsis_gcc.h **** 
 320              		.loc 2 1759 3 view .LVU105
1761:Drivers/CMSIS/Include/cmsis_gcc.h ****   return(result);
 321              		.loc 2 1761 3 view .LVU106
 322              		.syntax unified
 323              	@ 1761 "Drivers/CMSIS/Include/cmsis_gcc.h" 1
 324 005e 9EFA22F8 		shadd16 r8, lr, r2
 325              	@ 0 "" 2
 326              	.LVL24:
1762:Drivers/CMSIS/Include/cmsis_gcc.h **** }
 327              		.loc 2 1762 3 view .LVU107
1762:Drivers/CMSIS/Include/cmsis_gcc.h **** }
 328              		.loc 2 1762 3 is_stmt 0 view .LVU108
 329              		.thumb
 330              		.syntax unified
 331              	.LBE225:
 332              	.LBE224:
 333              		.loc 1 237 26 discriminator 1 view .LVU109
 334 0062 46F8048B 		str	r8, [r6], #4
 335              	.LVL25:
 238:DSP/Source/TransformFunctions/arm_cfft_radix4_q15.c ****     pSi0 += 2;
 336              		.loc 1 238 5 is_stmt 1 view .LVU110
 239:DSP/Source/TransformFunctions/arm_cfft_radix4_q15.c **** 
 240:DSP/Source/TransformFunctions/arm_cfft_radix4_q15.c ****     /* R = packed((ya + yc) - (yb + yd), (xa + xc)- (xb + xd)) */
 241:DSP/Source/TransformFunctions/arm_cfft_radix4_q15.c ****     R = __QSUB16(R, T);
 337              		.loc 1 241 5 view .LVU111
 338              	.LBB226:
 339              	.LBI226:
1797:Drivers/CMSIS/Include/cmsis_gcc.h **** {
 340              		.loc 2 1797 31 view .LVU112
 341              	.LBB227:
1799:Drivers/CMSIS/Include/cmsis_gcc.h **** 
 342              		.loc 2 1799 3 view .LVU113
1801:Drivers/CMSIS/Include/cmsis_gcc.h ****   return(result);
 343              		.loc 2 1801 3 view .LVU114
 344              		.syntax unified
 345              	@ 1801 "Drivers/CMSIS/Include/cmsis_gcc.h" 1
 346 0066 DEFA12F2 		qsub16 r2, lr, r2
 347              	@ 0 "" 2
 348              	.LVL26:
 349              		.loc 2 1802 3 view .LVU115
 350              		.loc 2 1802 3 is_stmt 0 view .LVU116
 351              		.thumb
 352              		.syntax unified
 353              	.LBE227:
 354              	.LBE226:
 242:DSP/Source/TransformFunctions/arm_cfft_radix4_q15.c **** 
 243:DSP/Source/TransformFunctions/arm_cfft_radix4_q15.c ****     /* co2 & si2 are read from SIMD Coefficient pointer */
 244:DSP/Source/TransformFunctions/arm_cfft_radix4_q15.c ****     C2 = _SIMD32_OFFSET(pCoef16 + (4U * ic));
 355              		.loc 1 244 5 is_stmt 1 view .LVU117
 356              		.loc 1 244 8 is_stmt 0 view .LVU118
ARM GAS  /var/folders/ck/g3dcd5x55xs4107jgdl0snvr0000gn/T//cc05Prz9.s 			page 44


 357 006a 59F83180 		ldr	r8, [r9, r1, lsl #3]
 358              	.LVL27:
 245:DSP/Source/TransformFunctions/arm_cfft_radix4_q15.c **** 
 246:DSP/Source/TransformFunctions/arm_cfft_radix4_q15.c **** #ifndef ARM_MATH_BIG_ENDIAN
 247:DSP/Source/TransformFunctions/arm_cfft_radix4_q15.c **** 
 248:DSP/Source/TransformFunctions/arm_cfft_radix4_q15.c ****     /* xc' = (xa-xb+xc-xd)* co2 + (ya-yb+yc-yd)* (si2) */
 249:DSP/Source/TransformFunctions/arm_cfft_radix4_q15.c ****     out1 = __SMUAD(C2, R) >> 16U;
 359              		.loc 1 249 5 is_stmt 1 view .LVU119
 360              	.LBB228:
 361              	.LBI228:
1803:Drivers/CMSIS/Include/cmsis_gcc.h **** }
1804:Drivers/CMSIS/Include/cmsis_gcc.h **** 
1805:Drivers/CMSIS/Include/cmsis_gcc.h **** __STATIC_FORCEINLINE uint32_t __SHSUB16(uint32_t op1, uint32_t op2)
1806:Drivers/CMSIS/Include/cmsis_gcc.h **** {
1807:Drivers/CMSIS/Include/cmsis_gcc.h ****   uint32_t result;
1808:Drivers/CMSIS/Include/cmsis_gcc.h **** 
1809:Drivers/CMSIS/Include/cmsis_gcc.h ****   __ASM ("shsub16 %0, %1, %2" : "=r" (result) : "r" (op1), "r" (op2) );
1810:Drivers/CMSIS/Include/cmsis_gcc.h ****   return(result);
1811:Drivers/CMSIS/Include/cmsis_gcc.h **** }
1812:Drivers/CMSIS/Include/cmsis_gcc.h **** 
1813:Drivers/CMSIS/Include/cmsis_gcc.h **** __STATIC_FORCEINLINE uint32_t __USUB16(uint32_t op1, uint32_t op2)
1814:Drivers/CMSIS/Include/cmsis_gcc.h **** {
1815:Drivers/CMSIS/Include/cmsis_gcc.h ****   uint32_t result;
1816:Drivers/CMSIS/Include/cmsis_gcc.h **** 
1817:Drivers/CMSIS/Include/cmsis_gcc.h ****   __ASM volatile ("usub16 %0, %1, %2" : "=r" (result) : "r" (op1), "r" (op2) );
1818:Drivers/CMSIS/Include/cmsis_gcc.h ****   return(result);
1819:Drivers/CMSIS/Include/cmsis_gcc.h **** }
1820:Drivers/CMSIS/Include/cmsis_gcc.h **** 
1821:Drivers/CMSIS/Include/cmsis_gcc.h **** __STATIC_FORCEINLINE uint32_t __UQSUB16(uint32_t op1, uint32_t op2)
1822:Drivers/CMSIS/Include/cmsis_gcc.h **** {
1823:Drivers/CMSIS/Include/cmsis_gcc.h ****   uint32_t result;
1824:Drivers/CMSIS/Include/cmsis_gcc.h **** 
1825:Drivers/CMSIS/Include/cmsis_gcc.h ****   __ASM ("uqsub16 %0, %1, %2" : "=r" (result) : "r" (op1), "r" (op2) );
1826:Drivers/CMSIS/Include/cmsis_gcc.h ****   return(result);
1827:Drivers/CMSIS/Include/cmsis_gcc.h **** }
1828:Drivers/CMSIS/Include/cmsis_gcc.h **** 
1829:Drivers/CMSIS/Include/cmsis_gcc.h **** __STATIC_FORCEINLINE uint32_t __UHSUB16(uint32_t op1, uint32_t op2)
1830:Drivers/CMSIS/Include/cmsis_gcc.h **** {
1831:Drivers/CMSIS/Include/cmsis_gcc.h ****   uint32_t result;
1832:Drivers/CMSIS/Include/cmsis_gcc.h **** 
1833:Drivers/CMSIS/Include/cmsis_gcc.h ****   __ASM ("uhsub16 %0, %1, %2" : "=r" (result) : "r" (op1), "r" (op2) );
1834:Drivers/CMSIS/Include/cmsis_gcc.h ****   return(result);
1835:Drivers/CMSIS/Include/cmsis_gcc.h **** }
1836:Drivers/CMSIS/Include/cmsis_gcc.h **** 
1837:Drivers/CMSIS/Include/cmsis_gcc.h **** __STATIC_FORCEINLINE uint32_t __SASX(uint32_t op1, uint32_t op2)
1838:Drivers/CMSIS/Include/cmsis_gcc.h **** {
1839:Drivers/CMSIS/Include/cmsis_gcc.h ****   uint32_t result;
1840:Drivers/CMSIS/Include/cmsis_gcc.h **** 
1841:Drivers/CMSIS/Include/cmsis_gcc.h ****   __ASM volatile ("sasx %0, %1, %2" : "=r" (result) : "r" (op1), "r" (op2) );
1842:Drivers/CMSIS/Include/cmsis_gcc.h ****   return(result);
1843:Drivers/CMSIS/Include/cmsis_gcc.h **** }
1844:Drivers/CMSIS/Include/cmsis_gcc.h **** 
1845:Drivers/CMSIS/Include/cmsis_gcc.h **** __STATIC_FORCEINLINE uint32_t __QASX(uint32_t op1, uint32_t op2)
1846:Drivers/CMSIS/Include/cmsis_gcc.h **** {
1847:Drivers/CMSIS/Include/cmsis_gcc.h ****   uint32_t result;
1848:Drivers/CMSIS/Include/cmsis_gcc.h **** 
1849:Drivers/CMSIS/Include/cmsis_gcc.h ****   __ASM ("qasx %0, %1, %2" : "=r" (result) : "r" (op1), "r" (op2) );
ARM GAS  /var/folders/ck/g3dcd5x55xs4107jgdl0snvr0000gn/T//cc05Prz9.s 			page 45


1850:Drivers/CMSIS/Include/cmsis_gcc.h ****   return(result);
1851:Drivers/CMSIS/Include/cmsis_gcc.h **** }
1852:Drivers/CMSIS/Include/cmsis_gcc.h **** 
1853:Drivers/CMSIS/Include/cmsis_gcc.h **** __STATIC_FORCEINLINE uint32_t __SHASX(uint32_t op1, uint32_t op2)
1854:Drivers/CMSIS/Include/cmsis_gcc.h **** {
1855:Drivers/CMSIS/Include/cmsis_gcc.h ****   uint32_t result;
1856:Drivers/CMSIS/Include/cmsis_gcc.h **** 
1857:Drivers/CMSIS/Include/cmsis_gcc.h ****   __ASM ("shasx %0, %1, %2" : "=r" (result) : "r" (op1), "r" (op2) );
1858:Drivers/CMSIS/Include/cmsis_gcc.h ****   return(result);
1859:Drivers/CMSIS/Include/cmsis_gcc.h **** }
1860:Drivers/CMSIS/Include/cmsis_gcc.h **** 
1861:Drivers/CMSIS/Include/cmsis_gcc.h **** __STATIC_FORCEINLINE uint32_t __UASX(uint32_t op1, uint32_t op2)
1862:Drivers/CMSIS/Include/cmsis_gcc.h **** {
1863:Drivers/CMSIS/Include/cmsis_gcc.h ****   uint32_t result;
1864:Drivers/CMSIS/Include/cmsis_gcc.h **** 
1865:Drivers/CMSIS/Include/cmsis_gcc.h ****   __ASM volatile ("uasx %0, %1, %2" : "=r" (result) : "r" (op1), "r" (op2) );
1866:Drivers/CMSIS/Include/cmsis_gcc.h ****   return(result);
1867:Drivers/CMSIS/Include/cmsis_gcc.h **** }
1868:Drivers/CMSIS/Include/cmsis_gcc.h **** 
1869:Drivers/CMSIS/Include/cmsis_gcc.h **** __STATIC_FORCEINLINE uint32_t __UQASX(uint32_t op1, uint32_t op2)
1870:Drivers/CMSIS/Include/cmsis_gcc.h **** {
1871:Drivers/CMSIS/Include/cmsis_gcc.h ****   uint32_t result;
1872:Drivers/CMSIS/Include/cmsis_gcc.h **** 
1873:Drivers/CMSIS/Include/cmsis_gcc.h ****   __ASM ("uqasx %0, %1, %2" : "=r" (result) : "r" (op1), "r" (op2) );
1874:Drivers/CMSIS/Include/cmsis_gcc.h ****   return(result);
1875:Drivers/CMSIS/Include/cmsis_gcc.h **** }
1876:Drivers/CMSIS/Include/cmsis_gcc.h **** 
1877:Drivers/CMSIS/Include/cmsis_gcc.h **** __STATIC_FORCEINLINE uint32_t __UHASX(uint32_t op1, uint32_t op2)
1878:Drivers/CMSIS/Include/cmsis_gcc.h **** {
1879:Drivers/CMSIS/Include/cmsis_gcc.h ****   uint32_t result;
1880:Drivers/CMSIS/Include/cmsis_gcc.h **** 
1881:Drivers/CMSIS/Include/cmsis_gcc.h ****   __ASM ("uhasx %0, %1, %2" : "=r" (result) : "r" (op1), "r" (op2) );
1882:Drivers/CMSIS/Include/cmsis_gcc.h ****   return(result);
1883:Drivers/CMSIS/Include/cmsis_gcc.h **** }
1884:Drivers/CMSIS/Include/cmsis_gcc.h **** 
1885:Drivers/CMSIS/Include/cmsis_gcc.h **** __STATIC_FORCEINLINE uint32_t __SSAX(uint32_t op1, uint32_t op2)
1886:Drivers/CMSIS/Include/cmsis_gcc.h **** {
1887:Drivers/CMSIS/Include/cmsis_gcc.h ****   uint32_t result;
1888:Drivers/CMSIS/Include/cmsis_gcc.h **** 
1889:Drivers/CMSIS/Include/cmsis_gcc.h ****   __ASM volatile ("ssax %0, %1, %2" : "=r" (result) : "r" (op1), "r" (op2) );
1890:Drivers/CMSIS/Include/cmsis_gcc.h ****   return(result);
1891:Drivers/CMSIS/Include/cmsis_gcc.h **** }
1892:Drivers/CMSIS/Include/cmsis_gcc.h **** 
1893:Drivers/CMSIS/Include/cmsis_gcc.h **** __STATIC_FORCEINLINE uint32_t __QSAX(uint32_t op1, uint32_t op2)
1894:Drivers/CMSIS/Include/cmsis_gcc.h **** {
1895:Drivers/CMSIS/Include/cmsis_gcc.h ****   uint32_t result;
1896:Drivers/CMSIS/Include/cmsis_gcc.h **** 
1897:Drivers/CMSIS/Include/cmsis_gcc.h ****   __ASM ("qsax %0, %1, %2" : "=r" (result) : "r" (op1), "r" (op2) );
1898:Drivers/CMSIS/Include/cmsis_gcc.h ****   return(result);
1899:Drivers/CMSIS/Include/cmsis_gcc.h **** }
1900:Drivers/CMSIS/Include/cmsis_gcc.h **** 
1901:Drivers/CMSIS/Include/cmsis_gcc.h **** __STATIC_FORCEINLINE uint32_t __SHSAX(uint32_t op1, uint32_t op2)
1902:Drivers/CMSIS/Include/cmsis_gcc.h **** {
1903:Drivers/CMSIS/Include/cmsis_gcc.h ****   uint32_t result;
1904:Drivers/CMSIS/Include/cmsis_gcc.h **** 
1905:Drivers/CMSIS/Include/cmsis_gcc.h ****   __ASM ("shsax %0, %1, %2" : "=r" (result) : "r" (op1), "r" (op2) );
1906:Drivers/CMSIS/Include/cmsis_gcc.h ****   return(result);
ARM GAS  /var/folders/ck/g3dcd5x55xs4107jgdl0snvr0000gn/T//cc05Prz9.s 			page 46


1907:Drivers/CMSIS/Include/cmsis_gcc.h **** }
1908:Drivers/CMSIS/Include/cmsis_gcc.h **** 
1909:Drivers/CMSIS/Include/cmsis_gcc.h **** __STATIC_FORCEINLINE uint32_t __USAX(uint32_t op1, uint32_t op2)
1910:Drivers/CMSIS/Include/cmsis_gcc.h **** {
1911:Drivers/CMSIS/Include/cmsis_gcc.h ****   uint32_t result;
1912:Drivers/CMSIS/Include/cmsis_gcc.h **** 
1913:Drivers/CMSIS/Include/cmsis_gcc.h ****   __ASM volatile ("usax %0, %1, %2" : "=r" (result) : "r" (op1), "r" (op2) );
1914:Drivers/CMSIS/Include/cmsis_gcc.h ****   return(result);
1915:Drivers/CMSIS/Include/cmsis_gcc.h **** }
1916:Drivers/CMSIS/Include/cmsis_gcc.h **** 
1917:Drivers/CMSIS/Include/cmsis_gcc.h **** __STATIC_FORCEINLINE uint32_t __UQSAX(uint32_t op1, uint32_t op2)
1918:Drivers/CMSIS/Include/cmsis_gcc.h **** {
1919:Drivers/CMSIS/Include/cmsis_gcc.h ****   uint32_t result;
1920:Drivers/CMSIS/Include/cmsis_gcc.h **** 
1921:Drivers/CMSIS/Include/cmsis_gcc.h ****   __ASM ("uqsax %0, %1, %2" : "=r" (result) : "r" (op1), "r" (op2) );
1922:Drivers/CMSIS/Include/cmsis_gcc.h ****   return(result);
1923:Drivers/CMSIS/Include/cmsis_gcc.h **** }
1924:Drivers/CMSIS/Include/cmsis_gcc.h **** 
1925:Drivers/CMSIS/Include/cmsis_gcc.h **** __STATIC_FORCEINLINE uint32_t __UHSAX(uint32_t op1, uint32_t op2)
1926:Drivers/CMSIS/Include/cmsis_gcc.h **** {
1927:Drivers/CMSIS/Include/cmsis_gcc.h ****   uint32_t result;
1928:Drivers/CMSIS/Include/cmsis_gcc.h **** 
1929:Drivers/CMSIS/Include/cmsis_gcc.h ****   __ASM ("uhsax %0, %1, %2" : "=r" (result) : "r" (op1), "r" (op2) );
1930:Drivers/CMSIS/Include/cmsis_gcc.h ****   return(result);
1931:Drivers/CMSIS/Include/cmsis_gcc.h **** }
1932:Drivers/CMSIS/Include/cmsis_gcc.h **** 
1933:Drivers/CMSIS/Include/cmsis_gcc.h **** __STATIC_FORCEINLINE uint32_t __USAD8(uint32_t op1, uint32_t op2)
1934:Drivers/CMSIS/Include/cmsis_gcc.h **** {
1935:Drivers/CMSIS/Include/cmsis_gcc.h ****   uint32_t result;
1936:Drivers/CMSIS/Include/cmsis_gcc.h **** 
1937:Drivers/CMSIS/Include/cmsis_gcc.h ****   __ASM ("usad8 %0, %1, %2" : "=r" (result) : "r" (op1), "r" (op2) );
1938:Drivers/CMSIS/Include/cmsis_gcc.h ****   return(result);
1939:Drivers/CMSIS/Include/cmsis_gcc.h **** }
1940:Drivers/CMSIS/Include/cmsis_gcc.h **** 
1941:Drivers/CMSIS/Include/cmsis_gcc.h **** __STATIC_FORCEINLINE uint32_t __USADA8(uint32_t op1, uint32_t op2, uint32_t op3)
1942:Drivers/CMSIS/Include/cmsis_gcc.h **** {
1943:Drivers/CMSIS/Include/cmsis_gcc.h ****   uint32_t result;
1944:Drivers/CMSIS/Include/cmsis_gcc.h **** 
1945:Drivers/CMSIS/Include/cmsis_gcc.h ****   __ASM ("usada8 %0, %1, %2, %3" : "=r" (result) : "r" (op1), "r" (op2), "r" (op3) );
1946:Drivers/CMSIS/Include/cmsis_gcc.h ****   return(result);
1947:Drivers/CMSIS/Include/cmsis_gcc.h **** }
1948:Drivers/CMSIS/Include/cmsis_gcc.h **** 
1949:Drivers/CMSIS/Include/cmsis_gcc.h **** #define __SSAT16(ARG1, ARG2) \
1950:Drivers/CMSIS/Include/cmsis_gcc.h **** __extension__ \
1951:Drivers/CMSIS/Include/cmsis_gcc.h **** ({                          \
1952:Drivers/CMSIS/Include/cmsis_gcc.h ****   int32_t __RES, __ARG1 = (ARG1); \
1953:Drivers/CMSIS/Include/cmsis_gcc.h ****   __ASM volatile ("ssat16 %0, %1, %2" : "=r" (__RES) :  "I" (ARG2), "r" (__ARG1) : "cc" ); \
1954:Drivers/CMSIS/Include/cmsis_gcc.h ****   __RES; \
1955:Drivers/CMSIS/Include/cmsis_gcc.h ****  })
1956:Drivers/CMSIS/Include/cmsis_gcc.h **** 
1957:Drivers/CMSIS/Include/cmsis_gcc.h **** #define __USAT16(ARG1, ARG2) \
1958:Drivers/CMSIS/Include/cmsis_gcc.h **** __extension__ \
1959:Drivers/CMSIS/Include/cmsis_gcc.h **** ({                          \
1960:Drivers/CMSIS/Include/cmsis_gcc.h ****   uint32_t __RES, __ARG1 = (ARG1); \
1961:Drivers/CMSIS/Include/cmsis_gcc.h ****   __ASM volatile ("usat16 %0, %1, %2" : "=r" (__RES) :  "I" (ARG2), "r" (__ARG1) : "cc" ); \
1962:Drivers/CMSIS/Include/cmsis_gcc.h ****   __RES; \
1963:Drivers/CMSIS/Include/cmsis_gcc.h ****  })
ARM GAS  /var/folders/ck/g3dcd5x55xs4107jgdl0snvr0000gn/T//cc05Prz9.s 			page 47


1964:Drivers/CMSIS/Include/cmsis_gcc.h **** 
1965:Drivers/CMSIS/Include/cmsis_gcc.h **** __STATIC_FORCEINLINE uint32_t __UXTB16(uint32_t op1)
1966:Drivers/CMSIS/Include/cmsis_gcc.h **** {
1967:Drivers/CMSIS/Include/cmsis_gcc.h ****   uint32_t result;
1968:Drivers/CMSIS/Include/cmsis_gcc.h **** 
1969:Drivers/CMSIS/Include/cmsis_gcc.h ****   __ASM ("uxtb16 %0, %1" : "=r" (result) : "r" (op1));
1970:Drivers/CMSIS/Include/cmsis_gcc.h ****   return(result);
1971:Drivers/CMSIS/Include/cmsis_gcc.h **** }
1972:Drivers/CMSIS/Include/cmsis_gcc.h **** 
1973:Drivers/CMSIS/Include/cmsis_gcc.h **** __STATIC_FORCEINLINE uint32_t __UXTAB16(uint32_t op1, uint32_t op2)
1974:Drivers/CMSIS/Include/cmsis_gcc.h **** {
1975:Drivers/CMSIS/Include/cmsis_gcc.h ****   uint32_t result;
1976:Drivers/CMSIS/Include/cmsis_gcc.h **** 
1977:Drivers/CMSIS/Include/cmsis_gcc.h ****   __ASM ("uxtab16 %0, %1, %2" : "=r" (result) : "r" (op1), "r" (op2) );
1978:Drivers/CMSIS/Include/cmsis_gcc.h ****   return(result);
1979:Drivers/CMSIS/Include/cmsis_gcc.h **** }
1980:Drivers/CMSIS/Include/cmsis_gcc.h **** 
1981:Drivers/CMSIS/Include/cmsis_gcc.h **** __STATIC_FORCEINLINE uint32_t __SXTB16(uint32_t op1)
1982:Drivers/CMSIS/Include/cmsis_gcc.h **** {
1983:Drivers/CMSIS/Include/cmsis_gcc.h ****   uint32_t result;
1984:Drivers/CMSIS/Include/cmsis_gcc.h **** 
1985:Drivers/CMSIS/Include/cmsis_gcc.h ****   __ASM ("sxtb16 %0, %1" : "=r" (result) : "r" (op1));
1986:Drivers/CMSIS/Include/cmsis_gcc.h ****   return(result);
1987:Drivers/CMSIS/Include/cmsis_gcc.h **** }
1988:Drivers/CMSIS/Include/cmsis_gcc.h **** 
1989:Drivers/CMSIS/Include/cmsis_gcc.h **** __STATIC_FORCEINLINE uint32_t __SXTB16_RORn(uint32_t op1, uint32_t rotate)
1990:Drivers/CMSIS/Include/cmsis_gcc.h **** {
1991:Drivers/CMSIS/Include/cmsis_gcc.h ****   uint32_t result;
1992:Drivers/CMSIS/Include/cmsis_gcc.h ****   if (__builtin_constant_p(rotate) && ((rotate == 8U) || (rotate == 16U) || (rotate == 24U))) {
1993:Drivers/CMSIS/Include/cmsis_gcc.h ****     __ASM volatile ("sxtb16 %0, %1, ROR %2" : "=r" (result) : "r" (op1), "i" (rotate) );
1994:Drivers/CMSIS/Include/cmsis_gcc.h ****   } else {
1995:Drivers/CMSIS/Include/cmsis_gcc.h ****     result = __SXTB16(__ROR(op1, rotate)) ;
1996:Drivers/CMSIS/Include/cmsis_gcc.h ****   }
1997:Drivers/CMSIS/Include/cmsis_gcc.h ****   return result;
1998:Drivers/CMSIS/Include/cmsis_gcc.h **** }
1999:Drivers/CMSIS/Include/cmsis_gcc.h **** 
2000:Drivers/CMSIS/Include/cmsis_gcc.h **** __STATIC_FORCEINLINE uint32_t __SXTAB16(uint32_t op1, uint32_t op2)
2001:Drivers/CMSIS/Include/cmsis_gcc.h **** {
2002:Drivers/CMSIS/Include/cmsis_gcc.h ****   uint32_t result;
2003:Drivers/CMSIS/Include/cmsis_gcc.h **** 
2004:Drivers/CMSIS/Include/cmsis_gcc.h ****   __ASM ("sxtab16 %0, %1, %2" : "=r" (result) : "r" (op1), "r" (op2) );
2005:Drivers/CMSIS/Include/cmsis_gcc.h ****   return(result);
2006:Drivers/CMSIS/Include/cmsis_gcc.h **** }
2007:Drivers/CMSIS/Include/cmsis_gcc.h **** 
2008:Drivers/CMSIS/Include/cmsis_gcc.h **** __STATIC_FORCEINLINE uint32_t __SXTAB16_RORn(uint32_t op1, uint32_t op2, uint32_t rotate)
2009:Drivers/CMSIS/Include/cmsis_gcc.h **** {
2010:Drivers/CMSIS/Include/cmsis_gcc.h ****   uint32_t result;
2011:Drivers/CMSIS/Include/cmsis_gcc.h ****   if (__builtin_constant_p(rotate) && ((rotate == 8U) || (rotate == 16U) || (rotate == 24U))) {
2012:Drivers/CMSIS/Include/cmsis_gcc.h ****     __ASM volatile ("sxtab16 %0, %1, %2, ROR %3" : "=r" (result) : "r" (op1) , "r" (op2) , "i" (rot
2013:Drivers/CMSIS/Include/cmsis_gcc.h ****   } else {
2014:Drivers/CMSIS/Include/cmsis_gcc.h ****     result = __SXTAB16(op1, __ROR(op2, rotate));
2015:Drivers/CMSIS/Include/cmsis_gcc.h ****   }
2016:Drivers/CMSIS/Include/cmsis_gcc.h ****   return result;
2017:Drivers/CMSIS/Include/cmsis_gcc.h **** }
2018:Drivers/CMSIS/Include/cmsis_gcc.h **** 
2019:Drivers/CMSIS/Include/cmsis_gcc.h **** 
2020:Drivers/CMSIS/Include/cmsis_gcc.h **** __STATIC_FORCEINLINE uint32_t __SMUAD  (uint32_t op1, uint32_t op2)
ARM GAS  /var/folders/ck/g3dcd5x55xs4107jgdl0snvr0000gn/T//cc05Prz9.s 			page 48


 362              		.loc 2 2020 31 view .LVU120
 363              	.LBB229:
2021:Drivers/CMSIS/Include/cmsis_gcc.h **** {
2022:Drivers/CMSIS/Include/cmsis_gcc.h ****   uint32_t result;
 364              		.loc 2 2022 3 view .LVU121
2023:Drivers/CMSIS/Include/cmsis_gcc.h **** 
2024:Drivers/CMSIS/Include/cmsis_gcc.h ****   __ASM volatile ("smuad %0, %1, %2" : "=r" (result) : "r" (op1), "r" (op2) );
 365              		.loc 2 2024 3 view .LVU122
 366              		.syntax unified
 367              	@ 2024 "Drivers/CMSIS/Include/cmsis_gcc.h" 1
 368 006e 28FB02FA 		smuad r10, r8, r2
 369              	@ 0 "" 2
 370              	.LVL28:
2025:Drivers/CMSIS/Include/cmsis_gcc.h ****   return(result);
 371              		.loc 2 2025 3 view .LVU123
 372              		.loc 2 2025 3 is_stmt 0 view .LVU124
 373              		.thumb
 374              		.syntax unified
 375              	.LBE229:
 376              	.LBE228:
 377              		.loc 1 249 27 discriminator 1 view .LVU125
 378 0072 4FEA1A4A 		lsr	r10, r10, #16
 379              	.LVL29:
 250:DSP/Source/TransformFunctions/arm_cfft_radix4_q15.c ****     /* yc' = (ya-yb+yc-yd)* co2 - (xa-xb+xc-xd)* (si2) */
 251:DSP/Source/TransformFunctions/arm_cfft_radix4_q15.c ****     out2 = __SMUSDX(C2, R);
 380              		.loc 1 251 5 is_stmt 1 view .LVU126
 381              	.LBB230:
 382              	.LBI230:
2026:Drivers/CMSIS/Include/cmsis_gcc.h **** }
2027:Drivers/CMSIS/Include/cmsis_gcc.h **** 
2028:Drivers/CMSIS/Include/cmsis_gcc.h **** __STATIC_FORCEINLINE uint32_t __SMUADX (uint32_t op1, uint32_t op2)
2029:Drivers/CMSIS/Include/cmsis_gcc.h **** {
2030:Drivers/CMSIS/Include/cmsis_gcc.h ****   uint32_t result;
2031:Drivers/CMSIS/Include/cmsis_gcc.h **** 
2032:Drivers/CMSIS/Include/cmsis_gcc.h ****   __ASM volatile ("smuadx %0, %1, %2" : "=r" (result) : "r" (op1), "r" (op2) );
2033:Drivers/CMSIS/Include/cmsis_gcc.h ****   return(result);
2034:Drivers/CMSIS/Include/cmsis_gcc.h **** }
2035:Drivers/CMSIS/Include/cmsis_gcc.h **** 
2036:Drivers/CMSIS/Include/cmsis_gcc.h **** __STATIC_FORCEINLINE uint32_t __SMLAD (uint32_t op1, uint32_t op2, uint32_t op3)
2037:Drivers/CMSIS/Include/cmsis_gcc.h **** {
2038:Drivers/CMSIS/Include/cmsis_gcc.h ****   uint32_t result;
2039:Drivers/CMSIS/Include/cmsis_gcc.h **** 
2040:Drivers/CMSIS/Include/cmsis_gcc.h ****   __ASM volatile ("smlad %0, %1, %2, %3" : "=r" (result) : "r" (op1), "r" (op2), "r" (op3) );
2041:Drivers/CMSIS/Include/cmsis_gcc.h ****   return(result);
2042:Drivers/CMSIS/Include/cmsis_gcc.h **** }
2043:Drivers/CMSIS/Include/cmsis_gcc.h **** 
2044:Drivers/CMSIS/Include/cmsis_gcc.h **** __STATIC_FORCEINLINE uint32_t __SMLADX (uint32_t op1, uint32_t op2, uint32_t op3)
2045:Drivers/CMSIS/Include/cmsis_gcc.h **** {
2046:Drivers/CMSIS/Include/cmsis_gcc.h ****   uint32_t result;
2047:Drivers/CMSIS/Include/cmsis_gcc.h **** 
2048:Drivers/CMSIS/Include/cmsis_gcc.h ****   __ASM volatile ("smladx %0, %1, %2, %3" : "=r" (result) : "r" (op1), "r" (op2), "r" (op3) );
2049:Drivers/CMSIS/Include/cmsis_gcc.h ****   return(result);
2050:Drivers/CMSIS/Include/cmsis_gcc.h **** }
2051:Drivers/CMSIS/Include/cmsis_gcc.h **** 
2052:Drivers/CMSIS/Include/cmsis_gcc.h **** __STATIC_FORCEINLINE uint64_t __SMLALD (uint32_t op1, uint32_t op2, uint64_t acc)
2053:Drivers/CMSIS/Include/cmsis_gcc.h **** {
2054:Drivers/CMSIS/Include/cmsis_gcc.h ****   union llreg_u{
ARM GAS  /var/folders/ck/g3dcd5x55xs4107jgdl0snvr0000gn/T//cc05Prz9.s 			page 49


2055:Drivers/CMSIS/Include/cmsis_gcc.h ****     uint32_t w32[2];
2056:Drivers/CMSIS/Include/cmsis_gcc.h ****     uint64_t w64;
2057:Drivers/CMSIS/Include/cmsis_gcc.h ****   } llr;
2058:Drivers/CMSIS/Include/cmsis_gcc.h ****   llr.w64 = acc;
2059:Drivers/CMSIS/Include/cmsis_gcc.h **** 
2060:Drivers/CMSIS/Include/cmsis_gcc.h **** #ifndef __ARMEB__   /* Little endian */
2061:Drivers/CMSIS/Include/cmsis_gcc.h ****   __ASM volatile ("smlald %0, %1, %2, %3" : "=r" (llr.w32[0]), "=r" (llr.w32[1]): "r" (op1), "r" (o
2062:Drivers/CMSIS/Include/cmsis_gcc.h **** #else               /* Big endian */
2063:Drivers/CMSIS/Include/cmsis_gcc.h ****   __ASM volatile ("smlald %0, %1, %2, %3" : "=r" (llr.w32[1]), "=r" (llr.w32[0]): "r" (op1), "r" (o
2064:Drivers/CMSIS/Include/cmsis_gcc.h **** #endif
2065:Drivers/CMSIS/Include/cmsis_gcc.h **** 
2066:Drivers/CMSIS/Include/cmsis_gcc.h ****   return(llr.w64);
2067:Drivers/CMSIS/Include/cmsis_gcc.h **** }
2068:Drivers/CMSIS/Include/cmsis_gcc.h **** 
2069:Drivers/CMSIS/Include/cmsis_gcc.h **** __STATIC_FORCEINLINE uint64_t __SMLALDX (uint32_t op1, uint32_t op2, uint64_t acc)
2070:Drivers/CMSIS/Include/cmsis_gcc.h **** {
2071:Drivers/CMSIS/Include/cmsis_gcc.h ****   union llreg_u{
2072:Drivers/CMSIS/Include/cmsis_gcc.h ****     uint32_t w32[2];
2073:Drivers/CMSIS/Include/cmsis_gcc.h ****     uint64_t w64;
2074:Drivers/CMSIS/Include/cmsis_gcc.h ****   } llr;
2075:Drivers/CMSIS/Include/cmsis_gcc.h ****   llr.w64 = acc;
2076:Drivers/CMSIS/Include/cmsis_gcc.h **** 
2077:Drivers/CMSIS/Include/cmsis_gcc.h **** #ifndef __ARMEB__   /* Little endian */
2078:Drivers/CMSIS/Include/cmsis_gcc.h ****   __ASM volatile ("smlaldx %0, %1, %2, %3" : "=r" (llr.w32[0]), "=r" (llr.w32[1]): "r" (op1), "r" (
2079:Drivers/CMSIS/Include/cmsis_gcc.h **** #else               /* Big endian */
2080:Drivers/CMSIS/Include/cmsis_gcc.h ****   __ASM volatile ("smlaldx %0, %1, %2, %3" : "=r" (llr.w32[1]), "=r" (llr.w32[0]): "r" (op1), "r" (
2081:Drivers/CMSIS/Include/cmsis_gcc.h **** #endif
2082:Drivers/CMSIS/Include/cmsis_gcc.h **** 
2083:Drivers/CMSIS/Include/cmsis_gcc.h ****   return(llr.w64);
2084:Drivers/CMSIS/Include/cmsis_gcc.h **** }
2085:Drivers/CMSIS/Include/cmsis_gcc.h **** 
2086:Drivers/CMSIS/Include/cmsis_gcc.h **** __STATIC_FORCEINLINE uint32_t __SMUSD  (uint32_t op1, uint32_t op2)
2087:Drivers/CMSIS/Include/cmsis_gcc.h **** {
2088:Drivers/CMSIS/Include/cmsis_gcc.h ****   uint32_t result;
2089:Drivers/CMSIS/Include/cmsis_gcc.h **** 
2090:Drivers/CMSIS/Include/cmsis_gcc.h ****   __ASM volatile ("smusd %0, %1, %2" : "=r" (result) : "r" (op1), "r" (op2) );
2091:Drivers/CMSIS/Include/cmsis_gcc.h ****   return(result);
2092:Drivers/CMSIS/Include/cmsis_gcc.h **** }
2093:Drivers/CMSIS/Include/cmsis_gcc.h **** 
2094:Drivers/CMSIS/Include/cmsis_gcc.h **** __STATIC_FORCEINLINE uint32_t __SMUSDX (uint32_t op1, uint32_t op2)
 383              		.loc 2 2094 31 view .LVU127
 384              	.LBB231:
2095:Drivers/CMSIS/Include/cmsis_gcc.h **** {
2096:Drivers/CMSIS/Include/cmsis_gcc.h ****   uint32_t result;
 385              		.loc 2 2096 3 view .LVU128
2097:Drivers/CMSIS/Include/cmsis_gcc.h **** 
2098:Drivers/CMSIS/Include/cmsis_gcc.h ****   __ASM volatile ("smusdx %0, %1, %2" : "=r" (result) : "r" (op1), "r" (op2) );
 386              		.loc 2 2098 3 view .LVU129
 387              		.syntax unified
 388              	@ 2098 "Drivers/CMSIS/Include/cmsis_gcc.h" 1
 389 0076 48FB12F8 		smusdx r8, r8, r2
 390              	@ 0 "" 2
 391              	.LVL30:
2099:Drivers/CMSIS/Include/cmsis_gcc.h ****   return(result);
 392              		.loc 2 2099 3 view .LVU130
 393              		.loc 2 2099 3 is_stmt 0 view .LVU131
 394              		.thumb
ARM GAS  /var/folders/ck/g3dcd5x55xs4107jgdl0snvr0000gn/T//cc05Prz9.s 			page 50


 395              		.syntax unified
 396              	.LBE231:
 397              	.LBE230:
 252:DSP/Source/TransformFunctions/arm_cfft_radix4_q15.c **** 
 253:DSP/Source/TransformFunctions/arm_cfft_radix4_q15.c **** #else
 254:DSP/Source/TransformFunctions/arm_cfft_radix4_q15.c **** 
 255:DSP/Source/TransformFunctions/arm_cfft_radix4_q15.c ****     /* xc' = (ya-yb+yc-yd)* co2 - (xa-xb+xc-xd)* (si2) */
 256:DSP/Source/TransformFunctions/arm_cfft_radix4_q15.c ****     out1 = __SMUSDX(R, C2) >> 16U;
 257:DSP/Source/TransformFunctions/arm_cfft_radix4_q15.c ****     /* yc' = (xa-xb+xc-xd)* co2 + (ya-yb+yc-yd)* (si2) */
 258:DSP/Source/TransformFunctions/arm_cfft_radix4_q15.c ****     out2 = __SMUAD(C2, R);
 259:DSP/Source/TransformFunctions/arm_cfft_radix4_q15.c **** 
 260:DSP/Source/TransformFunctions/arm_cfft_radix4_q15.c **** #endif /*      #ifndef ARM_MATH_BIG_ENDIAN     */
 261:DSP/Source/TransformFunctions/arm_cfft_radix4_q15.c **** 
 262:DSP/Source/TransformFunctions/arm_cfft_radix4_q15.c ****     /*  Reading i0+fftLen/4 */
 263:DSP/Source/TransformFunctions/arm_cfft_radix4_q15.c ****     /* T = packed(yb, xb) */
 264:DSP/Source/TransformFunctions/arm_cfft_radix4_q15.c ****     T = _SIMD32_OFFSET(pSi1);
 398              		.loc 1 264 5 is_stmt 1 view .LVU132
 399              		.loc 1 264 7 is_stmt 0 view .LVU133
 400 007a 2268     		ldr	r2, [r4]
 401              	.LVL31:
 265:DSP/Source/TransformFunctions/arm_cfft_radix4_q15.c ****     T = __SHADD16(T, 0);
 402              		.loc 1 265 5 is_stmt 1 view .LVU134
 403              	.LBB232:
 404              	.LBI232:
1757:Drivers/CMSIS/Include/cmsis_gcc.h **** {
 405              		.loc 2 1757 31 view .LVU135
 406              	.LBB233:
1759:Drivers/CMSIS/Include/cmsis_gcc.h **** 
 407              		.loc 2 1759 3 view .LVU136
1761:Drivers/CMSIS/Include/cmsis_gcc.h ****   return(result);
 408              		.loc 2 1761 3 view .LVU137
 409              		.syntax unified
 410              	@ 1761 "Drivers/CMSIS/Include/cmsis_gcc.h" 1
 411 007c 92FA23F2 		shadd16 r2, r2, r3
 412              	@ 0 "" 2
 413              	.LVL32:
1762:Drivers/CMSIS/Include/cmsis_gcc.h **** }
 414              		.loc 2 1762 3 view .LVU138
1762:Drivers/CMSIS/Include/cmsis_gcc.h **** }
 415              		.loc 2 1762 3 is_stmt 0 view .LVU139
 416              		.thumb
 417              		.syntax unified
 418              	.LBE233:
 419              	.LBE232:
 266:DSP/Source/TransformFunctions/arm_cfft_radix4_q15.c ****     T = __SHADD16(T, 0);
 420              		.loc 1 266 5 is_stmt 1 view .LVU140
 421              	.LBB234:
 422              	.LBI234:
1757:Drivers/CMSIS/Include/cmsis_gcc.h **** {
 423              		.loc 2 1757 31 view .LVU141
 424              	.LBB235:
1759:Drivers/CMSIS/Include/cmsis_gcc.h **** 
 425              		.loc 2 1759 3 view .LVU142
1761:Drivers/CMSIS/Include/cmsis_gcc.h ****   return(result);
 426              		.loc 2 1761 3 view .LVU143
 427              		.syntax unified
 428              	@ 1761 "Drivers/CMSIS/Include/cmsis_gcc.h" 1
ARM GAS  /var/folders/ck/g3dcd5x55xs4107jgdl0snvr0000gn/T//cc05Prz9.s 			page 51


 429 0080 92FA23FE 		shadd16 lr, r2, r3
 430              	@ 0 "" 2
 431              	.LVL33:
1762:Drivers/CMSIS/Include/cmsis_gcc.h **** }
 432              		.loc 2 1762 3 view .LVU144
1762:Drivers/CMSIS/Include/cmsis_gcc.h **** }
 433              		.loc 2 1762 3 is_stmt 0 view .LVU145
 434              		.thumb
 435              		.syntax unified
 436              	.LBE235:
 437              	.LBE234:
 267:DSP/Source/TransformFunctions/arm_cfft_radix4_q15.c **** 
 268:DSP/Source/TransformFunctions/arm_cfft_radix4_q15.c ****     /* writing the butterfly processed i0 + fftLen/4 sample */
 269:DSP/Source/TransformFunctions/arm_cfft_radix4_q15.c ****     /* writing output(xc', yc') in little endian format */
 270:DSP/Source/TransformFunctions/arm_cfft_radix4_q15.c ****     _SIMD32_OFFSET(pSi1) =
 438              		.loc 1 270 5 is_stmt 1 view .LVU146
 271:DSP/Source/TransformFunctions/arm_cfft_radix4_q15.c ****       (q31_t) ((out2) & 0xFFFF0000) | (out1 & 0x0000FFFF);
 439              		.loc 1 271 37 is_stmt 0 view .LVU147
 440 0084 6FF30F08 		bfc	r8, #0, #16
 441              	.LVL34:
 442              		.loc 1 271 37 view .LVU148
 443 0088 48EA0A02 		orr	r2, r8, r10
 270:DSP/Source/TransformFunctions/arm_cfft_radix4_q15.c ****       (q31_t) ((out2) & 0xFFFF0000) | (out1 & 0x0000FFFF);
 444              		.loc 1 270 26 view .LVU149
 445 008c 44F8042B 		str	r2, [r4], #4
 446              	.LVL35:
 272:DSP/Source/TransformFunctions/arm_cfft_radix4_q15.c ****     pSi1 += 2;
 447              		.loc 1 272 5 is_stmt 1 view .LVU150
 273:DSP/Source/TransformFunctions/arm_cfft_radix4_q15.c **** 
 274:DSP/Source/TransformFunctions/arm_cfft_radix4_q15.c ****     /*  Butterfly calculations */
 275:DSP/Source/TransformFunctions/arm_cfft_radix4_q15.c ****     /* U = packed(yd, xd) */
 276:DSP/Source/TransformFunctions/arm_cfft_radix4_q15.c ****     U = _SIMD32_OFFSET(pSi3);
 448              		.loc 1 276 5 view .LVU151
 449              		.loc 1 276 7 is_stmt 0 view .LVU152
 450 0090 0268     		ldr	r2, [r0]
 451              	.LVL36:
 277:DSP/Source/TransformFunctions/arm_cfft_radix4_q15.c ****     U = __SHADD16(U, 0);
 452              		.loc 1 277 5 is_stmt 1 view .LVU153
 453              	.LBB236:
 454              	.LBI236:
1757:Drivers/CMSIS/Include/cmsis_gcc.h **** {
 455              		.loc 2 1757 31 view .LVU154
 456              	.LBB237:
1759:Drivers/CMSIS/Include/cmsis_gcc.h **** 
 457              		.loc 2 1759 3 view .LVU155
1761:Drivers/CMSIS/Include/cmsis_gcc.h ****   return(result);
 458              		.loc 2 1761 3 view .LVU156
 459              		.syntax unified
 460              	@ 1761 "Drivers/CMSIS/Include/cmsis_gcc.h" 1
 461 0092 92FA23F2 		shadd16 r2, r2, r3
 462              	@ 0 "" 2
 463              	.LVL37:
1762:Drivers/CMSIS/Include/cmsis_gcc.h **** }
 464              		.loc 2 1762 3 view .LVU157
1762:Drivers/CMSIS/Include/cmsis_gcc.h **** }
 465              		.loc 2 1762 3 is_stmt 0 view .LVU158
 466              		.thumb
ARM GAS  /var/folders/ck/g3dcd5x55xs4107jgdl0snvr0000gn/T//cc05Prz9.s 			page 52


 467              		.syntax unified
 468              	.LBE237:
 469              	.LBE236:
 278:DSP/Source/TransformFunctions/arm_cfft_radix4_q15.c ****     U = __SHADD16(U, 0);
 470              		.loc 1 278 5 is_stmt 1 view .LVU159
 471              	.LBB238:
 472              	.LBI238:
1757:Drivers/CMSIS/Include/cmsis_gcc.h **** {
 473              		.loc 2 1757 31 view .LVU160
 474              	.LBB239:
1759:Drivers/CMSIS/Include/cmsis_gcc.h **** 
 475              		.loc 2 1759 3 view .LVU161
1761:Drivers/CMSIS/Include/cmsis_gcc.h ****   return(result);
 476              		.loc 2 1761 3 view .LVU162
 477              		.syntax unified
 478              	@ 1761 "Drivers/CMSIS/Include/cmsis_gcc.h" 1
 479 0096 92FA23F3 		shadd16 r3, r2, r3
 480              	@ 0 "" 2
 481              	.LVL38:
1762:Drivers/CMSIS/Include/cmsis_gcc.h **** }
 482              		.loc 2 1762 3 view .LVU163
1762:Drivers/CMSIS/Include/cmsis_gcc.h **** }
 483              		.loc 2 1762 3 is_stmt 0 view .LVU164
 484              		.thumb
 485              		.syntax unified
 486              	.LBE239:
 487              	.LBE238:
 279:DSP/Source/TransformFunctions/arm_cfft_radix4_q15.c **** 
 280:DSP/Source/TransformFunctions/arm_cfft_radix4_q15.c ****     /* T = packed(yb-yd, xb-xd) */
 281:DSP/Source/TransformFunctions/arm_cfft_radix4_q15.c ****     T = __QSUB16(T, U);
 488              		.loc 1 281 5 is_stmt 1 view .LVU165
 489              	.LBB240:
 490              	.LBI240:
1797:Drivers/CMSIS/Include/cmsis_gcc.h **** {
 491              		.loc 2 1797 31 view .LVU166
 492              	.LBB241:
1799:Drivers/CMSIS/Include/cmsis_gcc.h **** 
 493              		.loc 2 1799 3 view .LVU167
1801:Drivers/CMSIS/Include/cmsis_gcc.h ****   return(result);
 494              		.loc 2 1801 3 view .LVU168
 495              		.syntax unified
 496              	@ 1801 "Drivers/CMSIS/Include/cmsis_gcc.h" 1
 497 009a DEFA13F3 		qsub16 r3, lr, r3
 498              	@ 0 "" 2
 499              	.LVL39:
1802:Drivers/CMSIS/Include/cmsis_gcc.h **** }
 500              		.loc 2 1802 3 view .LVU169
1802:Drivers/CMSIS/Include/cmsis_gcc.h **** }
 501              		.loc 2 1802 3 is_stmt 0 view .LVU170
 502              		.thumb
 503              		.syntax unified
 504              	.LBE241:
 505              	.LBE240:
 282:DSP/Source/TransformFunctions/arm_cfft_radix4_q15.c **** 
 283:DSP/Source/TransformFunctions/arm_cfft_radix4_q15.c **** #ifndef ARM_MATH_BIG_ENDIAN
 284:DSP/Source/TransformFunctions/arm_cfft_radix4_q15.c **** 
 285:DSP/Source/TransformFunctions/arm_cfft_radix4_q15.c ****     /* R = packed((ya-yc) + (xb- xd) , (xa-xc) - (yb-yd)) */
ARM GAS  /var/folders/ck/g3dcd5x55xs4107jgdl0snvr0000gn/T//cc05Prz9.s 			page 53


 286:DSP/Source/TransformFunctions/arm_cfft_radix4_q15.c ****     R = __QASX(S, T);
 506              		.loc 1 286 5 is_stmt 1 view .LVU171
 507              	.LBB242:
 508              	.LBI242:
1845:Drivers/CMSIS/Include/cmsis_gcc.h **** {
 509              		.loc 2 1845 31 view .LVU172
 510              	.LBB243:
1847:Drivers/CMSIS/Include/cmsis_gcc.h **** 
 511              		.loc 2 1847 3 view .LVU173
1849:Drivers/CMSIS/Include/cmsis_gcc.h ****   return(result);
 512              		.loc 2 1849 3 view .LVU174
 513              		.syntax unified
 514              	@ 1849 "Drivers/CMSIS/Include/cmsis_gcc.h" 1
 515 009e ACFA13F2 		qasx r2, ip, r3
 516              	@ 0 "" 2
 517              	.LVL40:
1850:Drivers/CMSIS/Include/cmsis_gcc.h **** }
 518              		.loc 2 1850 3 view .LVU175
1850:Drivers/CMSIS/Include/cmsis_gcc.h **** }
 519              		.loc 2 1850 3 is_stmt 0 view .LVU176
 520              		.thumb
 521              		.syntax unified
 522              	.LBE243:
 523              	.LBE242:
 287:DSP/Source/TransformFunctions/arm_cfft_radix4_q15.c ****     /* S = packed((ya-yc) - (xb- xd),  (xa-xc) + (yb-yd)) */
 288:DSP/Source/TransformFunctions/arm_cfft_radix4_q15.c ****     S = __QSAX(S, T);
 524              		.loc 1 288 5 is_stmt 1 view .LVU177
 525              	.LBB244:
 526              	.LBI244:
1893:Drivers/CMSIS/Include/cmsis_gcc.h **** {
 527              		.loc 2 1893 31 view .LVU178
 528              	.LBB245:
1895:Drivers/CMSIS/Include/cmsis_gcc.h **** 
 529              		.loc 2 1895 3 view .LVU179
1897:Drivers/CMSIS/Include/cmsis_gcc.h ****   return(result);
 530              		.loc 2 1897 3 view .LVU180
 531              		.syntax unified
 532              	@ 1897 "Drivers/CMSIS/Include/cmsis_gcc.h" 1
 533 00a2 ECFA13F3 		qsax r3, ip, r3
 534              	@ 0 "" 2
 535              	.LVL41:
1898:Drivers/CMSIS/Include/cmsis_gcc.h **** }
 536              		.loc 2 1898 3 view .LVU181
1898:Drivers/CMSIS/Include/cmsis_gcc.h **** }
 537              		.loc 2 1898 3 is_stmt 0 view .LVU182
 538              		.thumb
 539              		.syntax unified
 540              	.LBE245:
 541              	.LBE244:
 289:DSP/Source/TransformFunctions/arm_cfft_radix4_q15.c **** 
 290:DSP/Source/TransformFunctions/arm_cfft_radix4_q15.c **** #else
 291:DSP/Source/TransformFunctions/arm_cfft_radix4_q15.c **** 
 292:DSP/Source/TransformFunctions/arm_cfft_radix4_q15.c ****     /* R = packed((ya-yc) + (xb- xd) , (xa-xc) - (yb-yd)) */
 293:DSP/Source/TransformFunctions/arm_cfft_radix4_q15.c ****     R = __QSAX(S, T);
 294:DSP/Source/TransformFunctions/arm_cfft_radix4_q15.c ****     /* S = packed((ya-yc) - (xb- xd),  (xa-xc) + (yb-yd)) */
 295:DSP/Source/TransformFunctions/arm_cfft_radix4_q15.c ****     S = __QASX(S, T);
 296:DSP/Source/TransformFunctions/arm_cfft_radix4_q15.c **** 
ARM GAS  /var/folders/ck/g3dcd5x55xs4107jgdl0snvr0000gn/T//cc05Prz9.s 			page 54


 297:DSP/Source/TransformFunctions/arm_cfft_radix4_q15.c **** #endif /*      #ifndef ARM_MATH_BIG_ENDIAN     */
 298:DSP/Source/TransformFunctions/arm_cfft_radix4_q15.c **** 
 299:DSP/Source/TransformFunctions/arm_cfft_radix4_q15.c ****     /* co1 & si1 are read from SIMD Coefficient pointer */
 300:DSP/Source/TransformFunctions/arm_cfft_radix4_q15.c ****     C1 = _SIMD32_OFFSET(pCoef16 + (2U * ic));
 542              		.loc 1 300 5 is_stmt 1 view .LVU183
 543              		.loc 1 300 8 is_stmt 0 view .LVU184
 544 00a6 59F821C0 		ldr	ip, [r9, r1, lsl #2]
 545              	.LVL42:
 301:DSP/Source/TransformFunctions/arm_cfft_radix4_q15.c ****     /*  Butterfly process for the i0+fftLen/2 sample */
 302:DSP/Source/TransformFunctions/arm_cfft_radix4_q15.c **** 
 303:DSP/Source/TransformFunctions/arm_cfft_radix4_q15.c **** #ifndef ARM_MATH_BIG_ENDIAN
 304:DSP/Source/TransformFunctions/arm_cfft_radix4_q15.c **** 
 305:DSP/Source/TransformFunctions/arm_cfft_radix4_q15.c ****     /* xb' = (xa+yb-xc-yd)* co1 + (ya-xb-yc+xd)* (si1) */
 306:DSP/Source/TransformFunctions/arm_cfft_radix4_q15.c ****     out1 = __SMUAD(C1, S) >> 16U;
 546              		.loc 1 306 5 is_stmt 1 view .LVU185
 547              	.LBB246:
 548              	.LBI246:
2020:Drivers/CMSIS/Include/cmsis_gcc.h **** {
 549              		.loc 2 2020 31 view .LVU186
 550              	.LBB247:
2022:Drivers/CMSIS/Include/cmsis_gcc.h **** 
 551              		.loc 2 2022 3 view .LVU187
2024:Drivers/CMSIS/Include/cmsis_gcc.h ****   return(result);
 552              		.loc 2 2024 3 view .LVU188
 553              		.syntax unified
 554              	@ 2024 "Drivers/CMSIS/Include/cmsis_gcc.h" 1
 555 00aa 2CFB03FE 		smuad lr, ip, r3
 556              	@ 0 "" 2
 557              	.LVL43:
2025:Drivers/CMSIS/Include/cmsis_gcc.h **** }
 558              		.loc 2 2025 3 view .LVU189
2025:Drivers/CMSIS/Include/cmsis_gcc.h **** }
 559              		.loc 2 2025 3 is_stmt 0 view .LVU190
 560              		.thumb
 561              		.syntax unified
 562              	.LBE247:
 563              	.LBE246:
 564              		.loc 1 306 27 discriminator 1 view .LVU191
 565 00ae 4FEA1E4E 		lsr	lr, lr, #16
 566              	.LVL44:
 307:DSP/Source/TransformFunctions/arm_cfft_radix4_q15.c ****     /* yb' = (ya-xb-yc+xd)* co1 - (xa+yb-xc-yd)* (si1) */
 308:DSP/Source/TransformFunctions/arm_cfft_radix4_q15.c ****     out2 = __SMUSDX(C1, S);
 567              		.loc 1 308 5 is_stmt 1 view .LVU192
 568              	.LBB248:
 569              	.LBI248:
2094:Drivers/CMSIS/Include/cmsis_gcc.h **** {
 570              		.loc 2 2094 31 view .LVU193
 571              	.LBB249:
2096:Drivers/CMSIS/Include/cmsis_gcc.h **** 
 572              		.loc 2 2096 3 view .LVU194
2098:Drivers/CMSIS/Include/cmsis_gcc.h ****   return(result);
 573              		.loc 2 2098 3 view .LVU195
 574              		.syntax unified
 575              	@ 2098 "Drivers/CMSIS/Include/cmsis_gcc.h" 1
 576 00b2 4CFB13FC 		smusdx ip, ip, r3
 577              	@ 0 "" 2
 578              	.LVL45:
ARM GAS  /var/folders/ck/g3dcd5x55xs4107jgdl0snvr0000gn/T//cc05Prz9.s 			page 55


 579              		.loc 2 2099 3 view .LVU196
 580              		.loc 2 2099 3 is_stmt 0 view .LVU197
 581              		.thumb
 582              		.syntax unified
 583              	.LBE249:
 584              	.LBE248:
 309:DSP/Source/TransformFunctions/arm_cfft_radix4_q15.c **** 
 310:DSP/Source/TransformFunctions/arm_cfft_radix4_q15.c **** #else
 311:DSP/Source/TransformFunctions/arm_cfft_radix4_q15.c **** 
 312:DSP/Source/TransformFunctions/arm_cfft_radix4_q15.c ****     /* xb' = (ya-xb-yc+xd)* co1 - (xa+yb-xc-yd)* (si1) */
 313:DSP/Source/TransformFunctions/arm_cfft_radix4_q15.c ****     out1 = __SMUSDX(S, C1) >> 16U;
 314:DSP/Source/TransformFunctions/arm_cfft_radix4_q15.c ****     /* yb' = (xa+yb-xc-yd)* co1 + (ya-xb-yc+xd)* (si1) */
 315:DSP/Source/TransformFunctions/arm_cfft_radix4_q15.c ****     out2 = __SMUAD(C1, S);
 316:DSP/Source/TransformFunctions/arm_cfft_radix4_q15.c **** 
 317:DSP/Source/TransformFunctions/arm_cfft_radix4_q15.c **** #endif /*      #ifndef ARM_MATH_BIG_ENDIAN     */
 318:DSP/Source/TransformFunctions/arm_cfft_radix4_q15.c **** 
 319:DSP/Source/TransformFunctions/arm_cfft_radix4_q15.c ****     /* writing output(xb', yb') in little endian format */
 320:DSP/Source/TransformFunctions/arm_cfft_radix4_q15.c ****     _SIMD32_OFFSET(pSi2) =
 585              		.loc 1 320 5 is_stmt 1 view .LVU198
 321:DSP/Source/TransformFunctions/arm_cfft_radix4_q15.c ****       ((out2) & 0xFFFF0000) | ((out1) & 0x0000FFFF);
 586              		.loc 1 321 15 is_stmt 0 view .LVU199
 587 00b6 6FF30F0C 		bfc	ip, #0, #16
 588              	.LVL46:
 589              		.loc 1 321 29 view .LVU200
 590 00ba 4EEA0C03 		orr	r3, lr, ip
 591              	.LVL47:
 320:DSP/Source/TransformFunctions/arm_cfft_radix4_q15.c ****       ((out2) & 0xFFFF0000) | ((out1) & 0x0000FFFF);
 592              		.loc 1 320 26 view .LVU201
 593 00be 45F8043B 		str	r3, [r5], #4
 594              	.LVL48:
 322:DSP/Source/TransformFunctions/arm_cfft_radix4_q15.c ****     pSi2 += 2;
 595              		.loc 1 322 5 is_stmt 1 view .LVU202
 323:DSP/Source/TransformFunctions/arm_cfft_radix4_q15.c **** 
 324:DSP/Source/TransformFunctions/arm_cfft_radix4_q15.c **** 
 325:DSP/Source/TransformFunctions/arm_cfft_radix4_q15.c ****     /* co3 & si3 are read from SIMD Coefficient pointer */
 326:DSP/Source/TransformFunctions/arm_cfft_radix4_q15.c ****     C3 = _SIMD32_OFFSET(pCoef16 + (6U * ic));
 596              		.loc 1 326 5 view .LVU203
 597              		.loc 1 326 10 is_stmt 0 view .LVU204
 598 00c2 01EB4103 		add	r3, r1, r1, lsl #1
 599              		.loc 1 326 8 view .LVU205
 600 00c6 59F82330 		ldr	r3, [r9, r3, lsl #2]
 601              	.LVL49:
 327:DSP/Source/TransformFunctions/arm_cfft_radix4_q15.c ****     /*  Butterfly process for the i0+3fftLen/4 sample */
 328:DSP/Source/TransformFunctions/arm_cfft_radix4_q15.c **** 
 329:DSP/Source/TransformFunctions/arm_cfft_radix4_q15.c **** #ifndef ARM_MATH_BIG_ENDIAN
 330:DSP/Source/TransformFunctions/arm_cfft_radix4_q15.c **** 
 331:DSP/Source/TransformFunctions/arm_cfft_radix4_q15.c ****     /* xd' = (xa-yb-xc+yd)* co3 + (ya+xb-yc-xd)* (si3) */
 332:DSP/Source/TransformFunctions/arm_cfft_radix4_q15.c ****     out1 = __SMUAD(C3, R) >> 16U;
 602              		.loc 1 332 5 is_stmt 1 view .LVU206
 603              	.LBB250:
 604              	.LBI250:
2020:Drivers/CMSIS/Include/cmsis_gcc.h **** {
 605              		.loc 2 2020 31 view .LVU207
 606              	.LBB251:
2022:Drivers/CMSIS/Include/cmsis_gcc.h **** 
 607              		.loc 2 2022 3 view .LVU208
2024:Drivers/CMSIS/Include/cmsis_gcc.h ****   return(result);
ARM GAS  /var/folders/ck/g3dcd5x55xs4107jgdl0snvr0000gn/T//cc05Prz9.s 			page 56


 608              		.loc 2 2024 3 view .LVU209
 609              		.syntax unified
 610              	@ 2024 "Drivers/CMSIS/Include/cmsis_gcc.h" 1
 611 00ca 23FB02FC 		smuad ip, r3, r2
 612              	@ 0 "" 2
 613              	.LVL50:
2025:Drivers/CMSIS/Include/cmsis_gcc.h **** }
 614              		.loc 2 2025 3 view .LVU210
2025:Drivers/CMSIS/Include/cmsis_gcc.h **** }
 615              		.loc 2 2025 3 is_stmt 0 view .LVU211
 616              		.thumb
 617              		.syntax unified
 618              	.LBE251:
 619              	.LBE250:
 620              		.loc 1 332 27 discriminator 1 view .LVU212
 621 00ce 4FEA1C4C 		lsr	ip, ip, #16
 622              	.LVL51:
 333:DSP/Source/TransformFunctions/arm_cfft_radix4_q15.c ****     /* yd' = (ya+xb-yc-xd)* co3 - (xa-yb-xc+yd)* (si3) */
 334:DSP/Source/TransformFunctions/arm_cfft_radix4_q15.c ****     out2 = __SMUSDX(C3, R);
 623              		.loc 1 334 5 is_stmt 1 view .LVU213
 624              	.LBB252:
 625              	.LBI252:
2094:Drivers/CMSIS/Include/cmsis_gcc.h **** {
 626              		.loc 2 2094 31 view .LVU214
 627              	.LBB253:
2096:Drivers/CMSIS/Include/cmsis_gcc.h **** 
 628              		.loc 2 2096 3 view .LVU215
2098:Drivers/CMSIS/Include/cmsis_gcc.h ****   return(result);
 629              		.loc 2 2098 3 view .LVU216
 630              		.syntax unified
 631              	@ 2098 "Drivers/CMSIS/Include/cmsis_gcc.h" 1
 632 00d2 43FB12F3 		smusdx r3, r3, r2
 633              	@ 0 "" 2
 634              	.LVL52:
 635              		.loc 2 2099 3 view .LVU217
 636              		.loc 2 2099 3 is_stmt 0 view .LVU218
 637              		.thumb
 638              		.syntax unified
 639              	.LBE253:
 640              	.LBE252:
 335:DSP/Source/TransformFunctions/arm_cfft_radix4_q15.c **** 
 336:DSP/Source/TransformFunctions/arm_cfft_radix4_q15.c **** #else
 337:DSP/Source/TransformFunctions/arm_cfft_radix4_q15.c **** 
 338:DSP/Source/TransformFunctions/arm_cfft_radix4_q15.c ****     /* xd' = (ya+xb-yc-xd)* co3 - (xa-yb-xc+yd)* (si3) */
 339:DSP/Source/TransformFunctions/arm_cfft_radix4_q15.c ****     out1 = __SMUSDX(R, C3) >> 16U;
 340:DSP/Source/TransformFunctions/arm_cfft_radix4_q15.c ****     /* yd' = (xa-yb-xc+yd)* co3 + (ya+xb-yc-xd)* (si3) */
 341:DSP/Source/TransformFunctions/arm_cfft_radix4_q15.c ****     out2 = __SMUAD(C3, R);
 342:DSP/Source/TransformFunctions/arm_cfft_radix4_q15.c **** 
 343:DSP/Source/TransformFunctions/arm_cfft_radix4_q15.c **** #endif /*      #ifndef ARM_MATH_BIG_ENDIAN     */
 344:DSP/Source/TransformFunctions/arm_cfft_radix4_q15.c **** 
 345:DSP/Source/TransformFunctions/arm_cfft_radix4_q15.c ****     /* writing output(xd', yd') in little endian format */
 346:DSP/Source/TransformFunctions/arm_cfft_radix4_q15.c ****     _SIMD32_OFFSET(pSi3) =
 641              		.loc 1 346 5 is_stmt 1 view .LVU219
 347:DSP/Source/TransformFunctions/arm_cfft_radix4_q15.c ****       ((out2) & 0xFFFF0000) | (out1 & 0x0000FFFF);
 642              		.loc 1 347 15 is_stmt 0 view .LVU220
 643 00d6 6FF30F03 		bfc	r3, #0, #16
 644              	.LVL53:
ARM GAS  /var/folders/ck/g3dcd5x55xs4107jgdl0snvr0000gn/T//cc05Prz9.s 			page 57


 645              		.loc 1 347 29 view .LVU221
 646 00da 4CEA0303 		orr	r3, ip, r3
 346:DSP/Source/TransformFunctions/arm_cfft_radix4_q15.c ****       ((out2) & 0xFFFF0000) | (out1 & 0x0000FFFF);
 647              		.loc 1 346 26 view .LVU222
 648 00de 40F8043B 		str	r3, [r0], #4
 649              	.LVL54:
 348:DSP/Source/TransformFunctions/arm_cfft_radix4_q15.c ****     pSi3 += 2;
 650              		.loc 1 348 5 is_stmt 1 view .LVU223
 349:DSP/Source/TransformFunctions/arm_cfft_radix4_q15.c **** 
 350:DSP/Source/TransformFunctions/arm_cfft_radix4_q15.c ****     /*  Twiddle coefficients index modifier */
 351:DSP/Source/TransformFunctions/arm_cfft_radix4_q15.c ****     ic = ic + twidCoefModifier;
 651              		.loc 1 351 5 view .LVU224
 652              		.loc 1 351 8 is_stmt 0 view .LVU225
 653 00e2 5944     		add	r1, r1, fp
 654              	.LVL55:
 352:DSP/Source/TransformFunctions/arm_cfft_radix4_q15.c **** 
 353:DSP/Source/TransformFunctions/arm_cfft_radix4_q15.c ****   } while (--j);
 655              		.loc 1 353 12 is_stmt 1 discriminator 1 view .LVU226
 656              		.loc 1 353 12 is_stmt 0 discriminator 1 view .LVU227
 657 00e4 013F     		subs	r7, r7, #1
 658              	.LVL56:
 659              		.loc 1 353 12 discriminator 1 view .LVU228
 660 00e6 9FD1     		bne	.L2
 354:DSP/Source/TransformFunctions/arm_cfft_radix4_q15.c ****   /* data is in 4.11(q11) format */
 355:DSP/Source/TransformFunctions/arm_cfft_radix4_q15.c **** 
 356:DSP/Source/TransformFunctions/arm_cfft_radix4_q15.c ****   /* end of first stage process */
 357:DSP/Source/TransformFunctions/arm_cfft_radix4_q15.c **** 
 358:DSP/Source/TransformFunctions/arm_cfft_radix4_q15.c **** 
 359:DSP/Source/TransformFunctions/arm_cfft_radix4_q15.c ****   /* start of middle stage process */
 360:DSP/Source/TransformFunctions/arm_cfft_radix4_q15.c **** 
 361:DSP/Source/TransformFunctions/arm_cfft_radix4_q15.c ****   /*  Twiddle coefficients index modifier */
 362:DSP/Source/TransformFunctions/arm_cfft_radix4_q15.c ****   twidCoefModifier <<= 2U;
 661              		.loc 1 362 20 view .LVU229
 662 00e8 0897     		str	r7, [sp, #32]
 663 00ea 019F     		ldr	r7, [sp, #4]
 664              	.LVL57:
 665              		.loc 1 362 20 view .LVU230
 666 00ec DDF808A0 		ldr	r10, [sp, #8]
 667              		.loc 1 362 3 is_stmt 1 view .LVU231
 668              		.loc 1 362 20 is_stmt 0 view .LVU232
 669 00f0 4FEA8B03 		lsl	r3, fp, #2
 670 00f4 0593     		str	r3, [sp, #20]
 671              	.LVL58:
 363:DSP/Source/TransformFunctions/arm_cfft_radix4_q15.c **** 
 364:DSP/Source/TransformFunctions/arm_cfft_radix4_q15.c ****   /*  Calculation of Middle stage */
 365:DSP/Source/TransformFunctions/arm_cfft_radix4_q15.c ****   for (k = fftLen / 4U; k > 4U; k >>= 2U)
 672              		.loc 1 365 3 is_stmt 1 view .LVU233
 673              		.loc 1 365 10 is_stmt 0 view .LVU234
 674 00f6 009B     		ldr	r3, [sp]
 675              	.LVL59:
 676              		.loc 1 365 10 view .LVU235
 677 00f8 9B08     		lsrs	r3, r3, #2
 678              	.LVL60:
 181:DSP/Source/TransformFunctions/arm_cfft_radix4_q15.c **** 
 679              		.loc 1 181 6 view .LVU236
 680 00fa B846     		mov	r8, r7
 681 00fc 0997     		str	r7, [sp, #36]
ARM GAS  /var/folders/ck/g3dcd5x55xs4107jgdl0snvr0000gn/T//cc05Prz9.s 			page 58


 682 00fe 1A46     		mov	r2, r3
 683              	.LVL61:
 181:DSP/Source/TransformFunctions/arm_cfft_radix4_q15.c **** 
 684              		.loc 1 181 6 view .LVU237
 685 0100 CDF818A0 		str	r10, [sp, #24]
 686 0104 CB46     		mov	fp, r9
 687              		.loc 1 365 3 view .LVU238
 688 0106 70E0     		b	.L3
 689              	.LVL62:
 690              	.L6:
 366:DSP/Source/TransformFunctions/arm_cfft_radix4_q15.c ****   {
 367:DSP/Source/TransformFunctions/arm_cfft_radix4_q15.c ****     /*  Initializations for the middle stage */
 368:DSP/Source/TransformFunctions/arm_cfft_radix4_q15.c ****     n1 = n2;
 369:DSP/Source/TransformFunctions/arm_cfft_radix4_q15.c ****     n2 >>= 2U;
 370:DSP/Source/TransformFunctions/arm_cfft_radix4_q15.c ****     ic = 0U;
 371:DSP/Source/TransformFunctions/arm_cfft_radix4_q15.c **** 
 372:DSP/Source/TransformFunctions/arm_cfft_radix4_q15.c ****     for (j = 0U; j <= (n2 - 1U); j++)
 373:DSP/Source/TransformFunctions/arm_cfft_radix4_q15.c ****     {
 374:DSP/Source/TransformFunctions/arm_cfft_radix4_q15.c ****       /*  index calculation for the coefficients */
 375:DSP/Source/TransformFunctions/arm_cfft_radix4_q15.c ****       C1 = _SIMD32_OFFSET(pCoef16 + (2U * ic));
 376:DSP/Source/TransformFunctions/arm_cfft_radix4_q15.c ****       C2 = _SIMD32_OFFSET(pCoef16 + (4U * ic));
 377:DSP/Source/TransformFunctions/arm_cfft_radix4_q15.c ****       C3 = _SIMD32_OFFSET(pCoef16 + (6U * ic));
 378:DSP/Source/TransformFunctions/arm_cfft_radix4_q15.c **** 
 379:DSP/Source/TransformFunctions/arm_cfft_radix4_q15.c ****       /*  Twiddle coefficients index modifier */
 380:DSP/Source/TransformFunctions/arm_cfft_radix4_q15.c ****       ic = ic + twidCoefModifier;
 381:DSP/Source/TransformFunctions/arm_cfft_radix4_q15.c **** 
 382:DSP/Source/TransformFunctions/arm_cfft_radix4_q15.c ****       pSi0 = pSrc16 + 2 * j;
 383:DSP/Source/TransformFunctions/arm_cfft_radix4_q15.c ****       pSi1 = pSi0 + 2 * n2;
 384:DSP/Source/TransformFunctions/arm_cfft_radix4_q15.c ****       pSi2 = pSi1 + 2 * n2;
 385:DSP/Source/TransformFunctions/arm_cfft_radix4_q15.c ****       pSi3 = pSi2 + 2 * n2;
 386:DSP/Source/TransformFunctions/arm_cfft_radix4_q15.c **** 
 387:DSP/Source/TransformFunctions/arm_cfft_radix4_q15.c ****       /*  Butterfly implementation */
 388:DSP/Source/TransformFunctions/arm_cfft_radix4_q15.c ****       for (i0 = j; i0 < fftLen; i0 += n1)
 389:DSP/Source/TransformFunctions/arm_cfft_radix4_q15.c ****       {
 390:DSP/Source/TransformFunctions/arm_cfft_radix4_q15.c ****         /*  Reading i0, i0+fftLen/2 inputs */
 391:DSP/Source/TransformFunctions/arm_cfft_radix4_q15.c ****         /* Read ya (real), xa(imag) input */
 392:DSP/Source/TransformFunctions/arm_cfft_radix4_q15.c ****         T = _SIMD32_OFFSET(pSi0);
 691              		.loc 1 392 9 is_stmt 1 view .LVU239
 692              		.loc 1 392 11 is_stmt 0 view .LVU240
 693 0108 2268     		ldr	r2, [r4]
 694              	.LVL63:
 393:DSP/Source/TransformFunctions/arm_cfft_radix4_q15.c **** 
 394:DSP/Source/TransformFunctions/arm_cfft_radix4_q15.c ****         /* Read yc (real), xc(imag) input */
 395:DSP/Source/TransformFunctions/arm_cfft_radix4_q15.c ****         S = _SIMD32_OFFSET(pSi2);
 695              		.loc 1 395 9 is_stmt 1 view .LVU241
 696              		.loc 1 395 11 is_stmt 0 view .LVU242
 697 010a 2B68     		ldr	r3, [r5]
 698              	.LVL64:
 396:DSP/Source/TransformFunctions/arm_cfft_radix4_q15.c **** 
 397:DSP/Source/TransformFunctions/arm_cfft_radix4_q15.c ****         /* R = packed( (ya + yc), (xa + xc)) */
 398:DSP/Source/TransformFunctions/arm_cfft_radix4_q15.c ****         R = __QADD16(T, S);
 699              		.loc 1 398 9 is_stmt 1 view .LVU243
 700              	.LBB254:
 701              	.LBI254:
1749:Drivers/CMSIS/Include/cmsis_gcc.h **** {
 702              		.loc 2 1749 31 view .LVU244
 703              	.LBB255:
ARM GAS  /var/folders/ck/g3dcd5x55xs4107jgdl0snvr0000gn/T//cc05Prz9.s 			page 59


1751:Drivers/CMSIS/Include/cmsis_gcc.h **** 
 704              		.loc 2 1751 3 view .LVU245
1753:Drivers/CMSIS/Include/cmsis_gcc.h ****   return(result);
 705              		.loc 2 1753 3 view .LVU246
 706              		.syntax unified
 707              	@ 1753 "Drivers/CMSIS/Include/cmsis_gcc.h" 1
 708 010c 92FA13FA 		qadd16 r10, r2, r3
 709              	@ 0 "" 2
 710              	.LVL65:
1754:Drivers/CMSIS/Include/cmsis_gcc.h **** }
 711              		.loc 2 1754 3 view .LVU247
1754:Drivers/CMSIS/Include/cmsis_gcc.h **** }
 712              		.loc 2 1754 3 is_stmt 0 view .LVU248
 713              		.thumb
 714              		.syntax unified
 715              	.LBE255:
 716              	.LBE254:
 399:DSP/Source/TransformFunctions/arm_cfft_radix4_q15.c **** 
 400:DSP/Source/TransformFunctions/arm_cfft_radix4_q15.c ****         /* S = packed((ya - yc), (xa - xc)) */
 401:DSP/Source/TransformFunctions/arm_cfft_radix4_q15.c ****         S = __QSUB16(T, S);
 717              		.loc 1 401 9 is_stmt 1 view .LVU249
 718              	.LBB256:
 719              	.LBI256:
1797:Drivers/CMSIS/Include/cmsis_gcc.h **** {
 720              		.loc 2 1797 31 view .LVU250
 721              	.LBB257:
1799:Drivers/CMSIS/Include/cmsis_gcc.h **** 
 722              		.loc 2 1799 3 view .LVU251
1801:Drivers/CMSIS/Include/cmsis_gcc.h ****   return(result);
 723              		.loc 2 1801 3 view .LVU252
 724              		.syntax unified
 725              	@ 1801 "Drivers/CMSIS/Include/cmsis_gcc.h" 1
 726 0110 D2FA13F2 		qsub16 r2, r2, r3
 727              	@ 0 "" 2
 728              	.LVL66:
1802:Drivers/CMSIS/Include/cmsis_gcc.h **** }
 729              		.loc 2 1802 3 view .LVU253
1802:Drivers/CMSIS/Include/cmsis_gcc.h **** }
 730              		.loc 2 1802 3 is_stmt 0 view .LVU254
 731              		.thumb
 732              		.syntax unified
 733              	.LBE257:
 734              	.LBE256:
 402:DSP/Source/TransformFunctions/arm_cfft_radix4_q15.c **** 
 403:DSP/Source/TransformFunctions/arm_cfft_radix4_q15.c ****         /*  Reading i0+fftLen/4 , i0+3fftLen/4 inputs */
 404:DSP/Source/TransformFunctions/arm_cfft_radix4_q15.c ****         /* Read yb (real), xb(imag) input */
 405:DSP/Source/TransformFunctions/arm_cfft_radix4_q15.c ****         T = _SIMD32_OFFSET(pSi1);
 735              		.loc 1 405 9 is_stmt 1 view .LVU255
 736              		.loc 1 405 11 is_stmt 0 view .LVU256
 737 0114 0368     		ldr	r3, [r0]
 738              	.LVL67:
 406:DSP/Source/TransformFunctions/arm_cfft_radix4_q15.c **** 
 407:DSP/Source/TransformFunctions/arm_cfft_radix4_q15.c ****         /* Read yd (real), xd(imag) input */
 408:DSP/Source/TransformFunctions/arm_cfft_radix4_q15.c ****         U = _SIMD32_OFFSET(pSi3);
 739              		.loc 1 408 9 is_stmt 1 view .LVU257
 740              		.loc 1 408 11 is_stmt 0 view .LVU258
 741 0116 0F68     		ldr	r7, [r1]
ARM GAS  /var/folders/ck/g3dcd5x55xs4107jgdl0snvr0000gn/T//cc05Prz9.s 			page 60


 742              	.LVL68:
 409:DSP/Source/TransformFunctions/arm_cfft_radix4_q15.c **** 
 410:DSP/Source/TransformFunctions/arm_cfft_radix4_q15.c ****         /* T = packed( (yb + yd), (xb + xd)) */
 411:DSP/Source/TransformFunctions/arm_cfft_radix4_q15.c ****         T = __QADD16(T, U);
 743              		.loc 1 411 9 is_stmt 1 view .LVU259
 744              	.LBB258:
 745              	.LBI258:
1749:Drivers/CMSIS/Include/cmsis_gcc.h **** {
 746              		.loc 2 1749 31 view .LVU260
 747              	.LBB259:
1751:Drivers/CMSIS/Include/cmsis_gcc.h **** 
 748              		.loc 2 1751 3 view .LVU261
1753:Drivers/CMSIS/Include/cmsis_gcc.h ****   return(result);
 749              		.loc 2 1753 3 view .LVU262
 750              		.syntax unified
 751              	@ 1753 "Drivers/CMSIS/Include/cmsis_gcc.h" 1
 752 0118 93FA17F3 		qadd16 r3, r3, r7
 753              	@ 0 "" 2
 754              	.LVL69:
1754:Drivers/CMSIS/Include/cmsis_gcc.h **** }
 755              		.loc 2 1754 3 view .LVU263
1754:Drivers/CMSIS/Include/cmsis_gcc.h **** }
 756              		.loc 2 1754 3 is_stmt 0 view .LVU264
 757              		.thumb
 758              		.syntax unified
 759              	.LBE259:
 760              	.LBE258:
 412:DSP/Source/TransformFunctions/arm_cfft_radix4_q15.c **** 
 413:DSP/Source/TransformFunctions/arm_cfft_radix4_q15.c ****         /*  writing the butterfly processed i0 sample */
 414:DSP/Source/TransformFunctions/arm_cfft_radix4_q15.c **** 
 415:DSP/Source/TransformFunctions/arm_cfft_radix4_q15.c ****         /* xa' = xa + xb + xc + xd */
 416:DSP/Source/TransformFunctions/arm_cfft_radix4_q15.c ****         /* ya' = ya + yb + yc + yd */
 417:DSP/Source/TransformFunctions/arm_cfft_radix4_q15.c ****         out1 = __SHADD16(R, T);
 761              		.loc 1 417 9 is_stmt 1 view .LVU265
 762              	.LBB260:
 763              	.LBI260:
1757:Drivers/CMSIS/Include/cmsis_gcc.h **** {
 764              		.loc 2 1757 31 view .LVU266
 765              	.LBB261:
1759:Drivers/CMSIS/Include/cmsis_gcc.h **** 
 766              		.loc 2 1759 3 view .LVU267
1761:Drivers/CMSIS/Include/cmsis_gcc.h ****   return(result);
 767              		.loc 2 1761 3 view .LVU268
 768              		.syntax unified
 769              	@ 1761 "Drivers/CMSIS/Include/cmsis_gcc.h" 1
 770 011c 9AFA23F7 		shadd16 r7, r10, r3
 771              	@ 0 "" 2
 772              	.LVL70:
1762:Drivers/CMSIS/Include/cmsis_gcc.h **** }
 773              		.loc 2 1762 3 view .LVU269
1762:Drivers/CMSIS/Include/cmsis_gcc.h **** }
 774              		.loc 2 1762 3 is_stmt 0 view .LVU270
 775              		.thumb
 776              		.syntax unified
 777              	.LBE261:
 778              	.LBE260:
 418:DSP/Source/TransformFunctions/arm_cfft_radix4_q15.c ****         out1 = __SHADD16(out1, 0);
ARM GAS  /var/folders/ck/g3dcd5x55xs4107jgdl0snvr0000gn/T//cc05Prz9.s 			page 61


 779              		.loc 1 418 9 is_stmt 1 view .LVU271
 780              	.LBB262:
 781              	.LBI262:
1757:Drivers/CMSIS/Include/cmsis_gcc.h **** {
 782              		.loc 2 1757 31 view .LVU272
 783              	.LBB263:
1759:Drivers/CMSIS/Include/cmsis_gcc.h **** 
 784              		.loc 2 1759 3 view .LVU273
1761:Drivers/CMSIS/Include/cmsis_gcc.h ****   return(result);
 785              		.loc 2 1761 3 view .LVU274
 786 0120 4FF0000B 		mov	fp, #0
 787              		.syntax unified
 788              	@ 1761 "Drivers/CMSIS/Include/cmsis_gcc.h" 1
 789 0124 97FA2BF7 		shadd16 r7, r7, fp
 790              	@ 0 "" 2
 791              	.LVL71:
1762:Drivers/CMSIS/Include/cmsis_gcc.h **** }
 792              		.loc 2 1762 3 view .LVU275
1762:Drivers/CMSIS/Include/cmsis_gcc.h **** }
 793              		.loc 2 1762 3 is_stmt 0 view .LVU276
 794              		.thumb
 795              		.syntax unified
 796              	.LBE263:
 797              	.LBE262:
 419:DSP/Source/TransformFunctions/arm_cfft_radix4_q15.c ****         _SIMD32_OFFSET(pSi0) = out1;
 798              		.loc 1 419 9 is_stmt 1 view .LVU277
 799              		.loc 1 419 30 is_stmt 0 view .LVU278
 800 0128 2760     		str	r7, [r4]
 801              	.LVL72:
 420:DSP/Source/TransformFunctions/arm_cfft_radix4_q15.c ****         pSi0 += 2 * n1;
 802              		.loc 1 420 9 is_stmt 1 view .LVU279
 803              		.loc 1 420 14 is_stmt 0 view .LVU280
 804 012a 4FEA8807 		lsl	r7, r8, #2
 805              	.LVL73:
 806              		.loc 1 420 14 view .LVU281
 807 012e 04EB8804 		add	r4, r4, r8, lsl #2
 808              	.LVL74:
 421:DSP/Source/TransformFunctions/arm_cfft_radix4_q15.c **** 
 422:DSP/Source/TransformFunctions/arm_cfft_radix4_q15.c ****         /* R = packed( (ya + yc) - (yb + yd), (xa + xc) - (xb + xd)) */
 423:DSP/Source/TransformFunctions/arm_cfft_radix4_q15.c ****         R = __SHSUB16(R, T);
 809              		.loc 1 423 9 is_stmt 1 view .LVU282
 810              	.LBB264:
 811              	.LBI264:
1805:Drivers/CMSIS/Include/cmsis_gcc.h **** {
 812              		.loc 2 1805 31 view .LVU283
 813              	.LBB265:
1807:Drivers/CMSIS/Include/cmsis_gcc.h **** 
 814              		.loc 2 1807 3 view .LVU284
1809:Drivers/CMSIS/Include/cmsis_gcc.h ****   return(result);
 815              		.loc 2 1809 3 view .LVU285
 816              		.syntax unified
 817              	@ 1809 "Drivers/CMSIS/Include/cmsis_gcc.h" 1
 818 0132 DAFA23F3 		shsub16 r3, r10, r3
 819              	@ 0 "" 2
 820              	.LVL75:
1810:Drivers/CMSIS/Include/cmsis_gcc.h **** }
 821              		.loc 2 1810 3 view .LVU286
ARM GAS  /var/folders/ck/g3dcd5x55xs4107jgdl0snvr0000gn/T//cc05Prz9.s 			page 62


1810:Drivers/CMSIS/Include/cmsis_gcc.h **** }
 822              		.loc 2 1810 3 is_stmt 0 view .LVU287
 823              		.thumb
 824              		.syntax unified
 825              	.LBE265:
 826              	.LBE264:
 424:DSP/Source/TransformFunctions/arm_cfft_radix4_q15.c **** 
 425:DSP/Source/TransformFunctions/arm_cfft_radix4_q15.c **** #ifndef ARM_MATH_BIG_ENDIAN
 426:DSP/Source/TransformFunctions/arm_cfft_radix4_q15.c **** 
 427:DSP/Source/TransformFunctions/arm_cfft_radix4_q15.c ****         /* (ya-yb+yc-yd)* (si2) + (xa-xb+xc-xd)* co2 */
 428:DSP/Source/TransformFunctions/arm_cfft_radix4_q15.c ****         out1 = __SMUAD(C2, R) >> 16U;
 827              		.loc 1 428 9 is_stmt 1 view .LVU288
 828              	.LBB266:
 829              	.LBI266:
2020:Drivers/CMSIS/Include/cmsis_gcc.h **** {
 830              		.loc 2 2020 31 view .LVU289
 831              	.LBB267:
2022:Drivers/CMSIS/Include/cmsis_gcc.h **** 
 832              		.loc 2 2022 3 view .LVU290
2024:Drivers/CMSIS/Include/cmsis_gcc.h ****   return(result);
 833              		.loc 2 2024 3 view .LVU291
 834              		.syntax unified
 835              	@ 2024 "Drivers/CMSIS/Include/cmsis_gcc.h" 1
 836 0136 2EFB03FB 		smuad fp, lr, r3
 837              	@ 0 "" 2
 838              	.LVL76:
2025:Drivers/CMSIS/Include/cmsis_gcc.h **** }
 839              		.loc 2 2025 3 view .LVU292
2025:Drivers/CMSIS/Include/cmsis_gcc.h **** }
 840              		.loc 2 2025 3 is_stmt 0 view .LVU293
 841              		.thumb
 842              		.syntax unified
 843              	.LBE267:
 844              	.LBE266:
 845              		.loc 1 428 31 discriminator 1 view .LVU294
 846 013a 4FEA1B4B 		lsr	fp, fp, #16
 847              	.LVL77:
 429:DSP/Source/TransformFunctions/arm_cfft_radix4_q15.c **** 
 430:DSP/Source/TransformFunctions/arm_cfft_radix4_q15.c ****         /* (ya-yb+yc-yd)* co2 - (xa-xb+xc-xd)* (si2) */
 431:DSP/Source/TransformFunctions/arm_cfft_radix4_q15.c ****         out2 = __SMUSDX(C2, R);
 848              		.loc 1 431 9 is_stmt 1 view .LVU295
 849              	.LBB268:
 850              	.LBI268:
2094:Drivers/CMSIS/Include/cmsis_gcc.h **** {
 851              		.loc 2 2094 31 view .LVU296
 852              	.LBB269:
2096:Drivers/CMSIS/Include/cmsis_gcc.h **** 
 853              		.loc 2 2096 3 view .LVU297
2098:Drivers/CMSIS/Include/cmsis_gcc.h ****   return(result);
 854              		.loc 2 2098 3 view .LVU298
 855              		.syntax unified
 856              	@ 2098 "Drivers/CMSIS/Include/cmsis_gcc.h" 1
 857 013e 4EFB13FA 		smusdx r10, lr, r3
 858              	@ 0 "" 2
 859              	.LVL78:
 860              		.loc 2 2099 3 view .LVU299
 861              		.loc 2 2099 3 is_stmt 0 view .LVU300
ARM GAS  /var/folders/ck/g3dcd5x55xs4107jgdl0snvr0000gn/T//cc05Prz9.s 			page 63


 862              		.thumb
 863              		.syntax unified
 864              	.LBE269:
 865              	.LBE268:
 432:DSP/Source/TransformFunctions/arm_cfft_radix4_q15.c **** 
 433:DSP/Source/TransformFunctions/arm_cfft_radix4_q15.c **** #else
 434:DSP/Source/TransformFunctions/arm_cfft_radix4_q15.c **** 
 435:DSP/Source/TransformFunctions/arm_cfft_radix4_q15.c ****         /* (ya-yb+yc-yd)* co2 - (xa-xb+xc-xd)* (si2) */
 436:DSP/Source/TransformFunctions/arm_cfft_radix4_q15.c ****         out1 = __SMUSDX(R, C2) >> 16U;
 437:DSP/Source/TransformFunctions/arm_cfft_radix4_q15.c **** 
 438:DSP/Source/TransformFunctions/arm_cfft_radix4_q15.c ****         /* (ya-yb+yc-yd)* (si2) + (xa-xb+xc-xd)* co2 */
 439:DSP/Source/TransformFunctions/arm_cfft_radix4_q15.c ****         out2 = __SMUAD(C2, R);
 440:DSP/Source/TransformFunctions/arm_cfft_radix4_q15.c **** 
 441:DSP/Source/TransformFunctions/arm_cfft_radix4_q15.c **** #endif /*      #ifndef ARM_MATH_BIG_ENDIAN     */
 442:DSP/Source/TransformFunctions/arm_cfft_radix4_q15.c **** 
 443:DSP/Source/TransformFunctions/arm_cfft_radix4_q15.c ****         /*  Reading i0+3fftLen/4 */
 444:DSP/Source/TransformFunctions/arm_cfft_radix4_q15.c ****         /* Read yb (real), xb(imag) input */
 445:DSP/Source/TransformFunctions/arm_cfft_radix4_q15.c ****         T = _SIMD32_OFFSET(pSi1);
 866              		.loc 1 445 9 is_stmt 1 view .LVU301
 867              		.loc 1 445 11 is_stmt 0 view .LVU302
 868 0142 0368     		ldr	r3, [r0]
 869              	.LVL79:
 446:DSP/Source/TransformFunctions/arm_cfft_radix4_q15.c **** 
 447:DSP/Source/TransformFunctions/arm_cfft_radix4_q15.c ****         /*  writing the butterfly processed i0 + fftLen/4 sample */
 448:DSP/Source/TransformFunctions/arm_cfft_radix4_q15.c ****         /* xc' = (xa-xb+xc-xd)* co2 + (ya-yb+yc-yd)* (si2) */
 449:DSP/Source/TransformFunctions/arm_cfft_radix4_q15.c ****         /* yc' = (ya-yb+yc-yd)* co2 - (xa-xb+xc-xd)* (si2) */
 450:DSP/Source/TransformFunctions/arm_cfft_radix4_q15.c ****         _SIMD32_OFFSET(pSi1) =
 870              		.loc 1 450 9 is_stmt 1 view .LVU303
 451:DSP/Source/TransformFunctions/arm_cfft_radix4_q15.c ****           ((out2) & 0xFFFF0000) | (out1 & 0x0000FFFF);
 871              		.loc 1 451 19 is_stmt 0 view .LVU304
 872 0144 6FF30F0A 		bfc	r10, #0, #16
 873              	.LVL80:
 874              		.loc 1 451 33 view .LVU305
 875 0148 4BEA0A0B 		orr	fp, fp, r10
 876              	.LVL81:
 450:DSP/Source/TransformFunctions/arm_cfft_radix4_q15.c ****           ((out2) & 0xFFFF0000) | (out1 & 0x0000FFFF);
 877              		.loc 1 450 30 view .LVU306
 878 014c C0F800B0 		str	fp, [r0]
 452:DSP/Source/TransformFunctions/arm_cfft_radix4_q15.c ****         pSi1 += 2 * n1;
 879              		.loc 1 452 9 is_stmt 1 view .LVU307
 880              		.loc 1 452 14 is_stmt 0 view .LVU308
 881 0150 BA46     		mov	r10, r7
 882 0152 3844     		add	r0, r0, r7
 883              	.LVL82:
 453:DSP/Source/TransformFunctions/arm_cfft_radix4_q15.c **** 
 454:DSP/Source/TransformFunctions/arm_cfft_radix4_q15.c ****         /*  Butterfly calculations */
 455:DSP/Source/TransformFunctions/arm_cfft_radix4_q15.c **** 
 456:DSP/Source/TransformFunctions/arm_cfft_radix4_q15.c ****         /* Read yd (real), xd(imag) input */
 457:DSP/Source/TransformFunctions/arm_cfft_radix4_q15.c ****         U = _SIMD32_OFFSET(pSi3);
 884              		.loc 1 457 9 is_stmt 1 view .LVU309
 885              		.loc 1 457 11 is_stmt 0 view .LVU310
 886 0154 0F68     		ldr	r7, [r1]
 887              	.LVL83:
 458:DSP/Source/TransformFunctions/arm_cfft_radix4_q15.c **** 
 459:DSP/Source/TransformFunctions/arm_cfft_radix4_q15.c ****         /* T = packed(yb-yd, xb-xd) */
 460:DSP/Source/TransformFunctions/arm_cfft_radix4_q15.c ****         T = __QSUB16(T, U);
 888              		.loc 1 460 9 is_stmt 1 view .LVU311
ARM GAS  /var/folders/ck/g3dcd5x55xs4107jgdl0snvr0000gn/T//cc05Prz9.s 			page 64


 889              	.LBB270:
 890              	.LBI270:
1797:Drivers/CMSIS/Include/cmsis_gcc.h **** {
 891              		.loc 2 1797 31 view .LVU312
 892              	.LBB271:
1799:Drivers/CMSIS/Include/cmsis_gcc.h **** 
 893              		.loc 2 1799 3 view .LVU313
1801:Drivers/CMSIS/Include/cmsis_gcc.h ****   return(result);
 894              		.loc 2 1801 3 view .LVU314
 895              		.syntax unified
 896              	@ 1801 "Drivers/CMSIS/Include/cmsis_gcc.h" 1
 897 0156 D3FA17F3 		qsub16 r3, r3, r7
 898              	@ 0 "" 2
 899              	.LVL84:
1802:Drivers/CMSIS/Include/cmsis_gcc.h **** }
 900              		.loc 2 1802 3 view .LVU315
1802:Drivers/CMSIS/Include/cmsis_gcc.h **** }
 901              		.loc 2 1802 3 is_stmt 0 view .LVU316
 902              		.thumb
 903              		.syntax unified
 904              	.LBE271:
 905              	.LBE270:
 461:DSP/Source/TransformFunctions/arm_cfft_radix4_q15.c **** 
 462:DSP/Source/TransformFunctions/arm_cfft_radix4_q15.c **** #ifndef ARM_MATH_BIG_ENDIAN
 463:DSP/Source/TransformFunctions/arm_cfft_radix4_q15.c **** 
 464:DSP/Source/TransformFunctions/arm_cfft_radix4_q15.c ****         /* R = packed((ya-yc) + (xb- xd) , (xa-xc) - (yb-yd)) */
 465:DSP/Source/TransformFunctions/arm_cfft_radix4_q15.c ****         R = __SHASX(S, T);
 906              		.loc 1 465 9 is_stmt 1 view .LVU317
 907              	.LBB272:
 908              	.LBI272:
1853:Drivers/CMSIS/Include/cmsis_gcc.h **** {
 909              		.loc 2 1853 31 view .LVU318
 910              	.LBB273:
1855:Drivers/CMSIS/Include/cmsis_gcc.h **** 
 911              		.loc 2 1855 3 view .LVU319
1857:Drivers/CMSIS/Include/cmsis_gcc.h ****   return(result);
 912              		.loc 2 1857 3 view .LVU320
 913              		.syntax unified
 914              	@ 1857 "Drivers/CMSIS/Include/cmsis_gcc.h" 1
 915 015a A2FA23F7 		shasx r7, r2, r3
 916              	@ 0 "" 2
 917              	.LVL85:
1858:Drivers/CMSIS/Include/cmsis_gcc.h **** }
 918              		.loc 2 1858 3 view .LVU321
1858:Drivers/CMSIS/Include/cmsis_gcc.h **** }
 919              		.loc 2 1858 3 is_stmt 0 view .LVU322
 920              		.thumb
 921              		.syntax unified
 922              	.LBE273:
 923              	.LBE272:
 466:DSP/Source/TransformFunctions/arm_cfft_radix4_q15.c **** 
 467:DSP/Source/TransformFunctions/arm_cfft_radix4_q15.c ****         /* S = packed((ya-yc) - (xb- xd),  (xa-xc) + (yb-yd)) */
 468:DSP/Source/TransformFunctions/arm_cfft_radix4_q15.c ****         S = __SHSAX(S, T);
 924              		.loc 1 468 9 is_stmt 1 view .LVU323
 925              	.LBB274:
 926              	.LBI274:
1901:Drivers/CMSIS/Include/cmsis_gcc.h **** {
ARM GAS  /var/folders/ck/g3dcd5x55xs4107jgdl0snvr0000gn/T//cc05Prz9.s 			page 65


 927              		.loc 2 1901 31 view .LVU324
 928              	.LBB275:
1903:Drivers/CMSIS/Include/cmsis_gcc.h **** 
 929              		.loc 2 1903 3 view .LVU325
1905:Drivers/CMSIS/Include/cmsis_gcc.h ****   return(result);
 930              		.loc 2 1905 3 view .LVU326
 931              		.syntax unified
 932              	@ 1905 "Drivers/CMSIS/Include/cmsis_gcc.h" 1
 933 015e E2FA23F3 		shsax r3, r2, r3
 934              	@ 0 "" 2
 935              	.LVL86:
1906:Drivers/CMSIS/Include/cmsis_gcc.h **** }
 936              		.loc 2 1906 3 view .LVU327
1906:Drivers/CMSIS/Include/cmsis_gcc.h **** }
 937              		.loc 2 1906 3 is_stmt 0 view .LVU328
 938              		.thumb
 939              		.syntax unified
 940              	.LBE275:
 941              	.LBE274:
 469:DSP/Source/TransformFunctions/arm_cfft_radix4_q15.c **** 
 470:DSP/Source/TransformFunctions/arm_cfft_radix4_q15.c **** 
 471:DSP/Source/TransformFunctions/arm_cfft_radix4_q15.c ****         /*  Butterfly process for the i0+fftLen/2 sample */
 472:DSP/Source/TransformFunctions/arm_cfft_radix4_q15.c ****         out1 = __SMUAD(C1, S) >> 16U;
 942              		.loc 1 472 9 is_stmt 1 view .LVU329
 943              	.LBB276:
 944              	.LBI276:
2020:Drivers/CMSIS/Include/cmsis_gcc.h **** {
 945              		.loc 2 2020 31 view .LVU330
 946              	.LBB277:
2022:Drivers/CMSIS/Include/cmsis_gcc.h **** 
 947              		.loc 2 2022 3 view .LVU331
2024:Drivers/CMSIS/Include/cmsis_gcc.h ****   return(result);
 948              		.loc 2 2024 3 view .LVU332
 949              		.syntax unified
 950              	@ 2024 "Drivers/CMSIS/Include/cmsis_gcc.h" 1
 951 0162 29FB03F2 		smuad r2, r9, r3
 952              	@ 0 "" 2
 953              	.LVL87:
2025:Drivers/CMSIS/Include/cmsis_gcc.h **** }
 954              		.loc 2 2025 3 view .LVU333
2025:Drivers/CMSIS/Include/cmsis_gcc.h **** }
 955              		.loc 2 2025 3 is_stmt 0 view .LVU334
 956              		.thumb
 957              		.syntax unified
 958              	.LBE277:
 959              	.LBE276:
 960              		.loc 1 472 31 discriminator 1 view .LVU335
 961 0166 120C     		lsrs	r2, r2, #16
 962              	.LVL88:
 473:DSP/Source/TransformFunctions/arm_cfft_radix4_q15.c ****         out2 = __SMUSDX(C1, S);
 963              		.loc 1 473 9 is_stmt 1 view .LVU336
 964              	.LBB278:
 965              	.LBI278:
2094:Drivers/CMSIS/Include/cmsis_gcc.h **** {
 966              		.loc 2 2094 31 view .LVU337
 967              	.LBB279:
2096:Drivers/CMSIS/Include/cmsis_gcc.h **** 
ARM GAS  /var/folders/ck/g3dcd5x55xs4107jgdl0snvr0000gn/T//cc05Prz9.s 			page 66


 968              		.loc 2 2096 3 view .LVU338
2098:Drivers/CMSIS/Include/cmsis_gcc.h ****   return(result);
 969              		.loc 2 2098 3 view .LVU339
 970              		.syntax unified
 971              	@ 2098 "Drivers/CMSIS/Include/cmsis_gcc.h" 1
 972 0168 49FB13F3 		smusdx r3, r9, r3
 973              	@ 0 "" 2
 974              	.LVL89:
 975              		.loc 2 2099 3 view .LVU340
 976              		.loc 2 2099 3 is_stmt 0 view .LVU341
 977              		.thumb
 978              		.syntax unified
 979              	.LBE279:
 980              	.LBE278:
 474:DSP/Source/TransformFunctions/arm_cfft_radix4_q15.c **** 
 475:DSP/Source/TransformFunctions/arm_cfft_radix4_q15.c **** #else
 476:DSP/Source/TransformFunctions/arm_cfft_radix4_q15.c **** 
 477:DSP/Source/TransformFunctions/arm_cfft_radix4_q15.c ****         /* R = packed((ya-yc) + (xb- xd) , (xa-xc) - (yb-yd)) */
 478:DSP/Source/TransformFunctions/arm_cfft_radix4_q15.c ****         R = __SHSAX(S, T);
 479:DSP/Source/TransformFunctions/arm_cfft_radix4_q15.c **** 
 480:DSP/Source/TransformFunctions/arm_cfft_radix4_q15.c ****         /* S = packed((ya-yc) - (xb- xd),  (xa-xc) + (yb-yd)) */
 481:DSP/Source/TransformFunctions/arm_cfft_radix4_q15.c ****         S = __SHASX(S, T);
 482:DSP/Source/TransformFunctions/arm_cfft_radix4_q15.c **** 
 483:DSP/Source/TransformFunctions/arm_cfft_radix4_q15.c **** 
 484:DSP/Source/TransformFunctions/arm_cfft_radix4_q15.c ****         /*  Butterfly process for the i0+fftLen/2 sample */
 485:DSP/Source/TransformFunctions/arm_cfft_radix4_q15.c ****         out1 = __SMUSDX(S, C1) >> 16U;
 486:DSP/Source/TransformFunctions/arm_cfft_radix4_q15.c ****         out2 = __SMUAD(C1, S);
 487:DSP/Source/TransformFunctions/arm_cfft_radix4_q15.c **** 
 488:DSP/Source/TransformFunctions/arm_cfft_radix4_q15.c **** #endif /*      #ifndef ARM_MATH_BIG_ENDIAN     */
 489:DSP/Source/TransformFunctions/arm_cfft_radix4_q15.c **** 
 490:DSP/Source/TransformFunctions/arm_cfft_radix4_q15.c ****         /* xb' = (xa+yb-xc-yd)* co1 + (ya-xb-yc+xd)* (si1) */
 491:DSP/Source/TransformFunctions/arm_cfft_radix4_q15.c ****         /* yb' = (ya-xb-yc+xd)* co1 - (xa+yb-xc-yd)* (si1) */
 492:DSP/Source/TransformFunctions/arm_cfft_radix4_q15.c ****         _SIMD32_OFFSET(pSi2) =
 981              		.loc 1 492 9 is_stmt 1 view .LVU342
 493:DSP/Source/TransformFunctions/arm_cfft_radix4_q15.c ****           ((out2) & 0xFFFF0000) | (out1 & 0x0000FFFF);
 982              		.loc 1 493 19 is_stmt 0 view .LVU343
 983 016c 6FF30F03 		bfc	r3, #0, #16
 984              	.LVL90:
 985              		.loc 1 493 33 view .LVU344
 986 0170 1A43     		orrs	r2, r2, r3
 987              	.LVL91:
 492:DSP/Source/TransformFunctions/arm_cfft_radix4_q15.c ****           ((out2) & 0xFFFF0000) | (out1 & 0x0000FFFF);
 988              		.loc 1 492 30 view .LVU345
 989 0172 2A60     		str	r2, [r5]
 990              	.LVL92:
 494:DSP/Source/TransformFunctions/arm_cfft_radix4_q15.c ****         pSi2 += 2 * n1;
 991              		.loc 1 494 9 is_stmt 1 view .LVU346
