ARM GAS  /var/folders/ck/g3dcd5x55xs4107jgdl0snvr0000gn/T//ccEUws1d.s 			page 1


   1              		.cpu cortex-m4
   2              		.arch armv7e-m
   3              		.fpu fpv4-sp-d16
   4              		.eabi_attribute 27, 1
   5              		.eabi_attribute 28, 1
   6              		.eabi_attribute 20, 1
   7              		.eabi_attribute 21, 1
   8              		.eabi_attribute 23, 3
   9              		.eabi_attribute 24, 1
  10              		.eabi_attribute 25, 1
  11              		.eabi_attribute 26, 1
  12              		.eabi_attribute 30, 1
  13              		.eabi_attribute 34, 1
  14              		.eabi_attribute 18, 4
  15              		.file	"arm_fir_interpolate_q15.c"
  16              		.text
  17              	.Ltext0:
  18              		.cfi_sections	.debug_frame
  19              		.file 1 "DSP/Source/FilteringFunctions/arm_fir_interpolate_q15.c"
  20              		.section	.text.arm_fir_interpolate_q15,"ax",%progbits
  21              		.align	1
  22              		.global	arm_fir_interpolate_q15
  23              		.syntax unified
  24              		.thumb
  25              		.thumb_func
  27              	arm_fir_interpolate_q15:
  28              	.LVL0:
  29              	.LFB139:
   1:DSP/Source/FilteringFunctions/arm_fir_interpolate_q15.c **** /* ----------------------------------------------------------------------
   2:DSP/Source/FilteringFunctions/arm_fir_interpolate_q15.c ****  * Project:      CMSIS DSP Library
   3:DSP/Source/FilteringFunctions/arm_fir_interpolate_q15.c ****  * Title:        arm_fir_interpolate_q15.c
   4:DSP/Source/FilteringFunctions/arm_fir_interpolate_q15.c ****  * Description:  Q15 FIR interpolation
   5:DSP/Source/FilteringFunctions/arm_fir_interpolate_q15.c ****  *
   6:DSP/Source/FilteringFunctions/arm_fir_interpolate_q15.c ****  * $Date:        27. January 2017
   7:DSP/Source/FilteringFunctions/arm_fir_interpolate_q15.c ****  * $Revision:    V.1.5.1
   8:DSP/Source/FilteringFunctions/arm_fir_interpolate_q15.c ****  *
   9:DSP/Source/FilteringFunctions/arm_fir_interpolate_q15.c ****  * Target Processor: Cortex-M cores
  10:DSP/Source/FilteringFunctions/arm_fir_interpolate_q15.c ****  * -------------------------------------------------------------------- */
  11:DSP/Source/FilteringFunctions/arm_fir_interpolate_q15.c **** /*
  12:DSP/Source/FilteringFunctions/arm_fir_interpolate_q15.c ****  * Copyright (C) 2010-2017 ARM Limited or its affiliates. All rights reserved.
  13:DSP/Source/FilteringFunctions/arm_fir_interpolate_q15.c ****  *
  14:DSP/Source/FilteringFunctions/arm_fir_interpolate_q15.c ****  * SPDX-License-Identifier: Apache-2.0
  15:DSP/Source/FilteringFunctions/arm_fir_interpolate_q15.c ****  *
  16:DSP/Source/FilteringFunctions/arm_fir_interpolate_q15.c ****  * Licensed under the Apache License, Version 2.0 (the License); you may
  17:DSP/Source/FilteringFunctions/arm_fir_interpolate_q15.c ****  * not use this file except in compliance with the License.
  18:DSP/Source/FilteringFunctions/arm_fir_interpolate_q15.c ****  * You may obtain a copy of the License at
  19:DSP/Source/FilteringFunctions/arm_fir_interpolate_q15.c ****  *
  20:DSP/Source/FilteringFunctions/arm_fir_interpolate_q15.c ****  * www.apache.org/licenses/LICENSE-2.0
  21:DSP/Source/FilteringFunctions/arm_fir_interpolate_q15.c ****  *
  22:DSP/Source/FilteringFunctions/arm_fir_interpolate_q15.c ****  * Unless required by applicable law or agreed to in writing, software
  23:DSP/Source/FilteringFunctions/arm_fir_interpolate_q15.c ****  * distributed under the License is distributed on an AS IS BASIS, WITHOUT
  24:DSP/Source/FilteringFunctions/arm_fir_interpolate_q15.c ****  * WARRANTIES OR CONDITIONS OF ANY KIND, either express or implied.
  25:DSP/Source/FilteringFunctions/arm_fir_interpolate_q15.c ****  * See the License for the specific language governing permissions and
  26:DSP/Source/FilteringFunctions/arm_fir_interpolate_q15.c ****  * limitations under the License.
  27:DSP/Source/FilteringFunctions/arm_fir_interpolate_q15.c ****  */
  28:DSP/Source/FilteringFunctions/arm_fir_interpolate_q15.c **** 
  29:DSP/Source/FilteringFunctions/arm_fir_interpolate_q15.c **** #include "arm_math.h"
ARM GAS  /var/folders/ck/g3dcd5x55xs4107jgdl0snvr0000gn/T//ccEUws1d.s 			page 2


  30:DSP/Source/FilteringFunctions/arm_fir_interpolate_q15.c **** 
  31:DSP/Source/FilteringFunctions/arm_fir_interpolate_q15.c **** /**
  32:DSP/Source/FilteringFunctions/arm_fir_interpolate_q15.c ****  * @ingroup groupFilters
  33:DSP/Source/FilteringFunctions/arm_fir_interpolate_q15.c ****  */
  34:DSP/Source/FilteringFunctions/arm_fir_interpolate_q15.c **** 
  35:DSP/Source/FilteringFunctions/arm_fir_interpolate_q15.c **** /**
  36:DSP/Source/FilteringFunctions/arm_fir_interpolate_q15.c ****  * @addtogroup FIR_Interpolate
  37:DSP/Source/FilteringFunctions/arm_fir_interpolate_q15.c ****  * @{
  38:DSP/Source/FilteringFunctions/arm_fir_interpolate_q15.c ****  */
  39:DSP/Source/FilteringFunctions/arm_fir_interpolate_q15.c **** 
  40:DSP/Source/FilteringFunctions/arm_fir_interpolate_q15.c **** /**
  41:DSP/Source/FilteringFunctions/arm_fir_interpolate_q15.c ****  * @brief Processing function for the Q15 FIR interpolator.
  42:DSP/Source/FilteringFunctions/arm_fir_interpolate_q15.c ****  * @param[in] *S        points to an instance of the Q15 FIR interpolator structure.
  43:DSP/Source/FilteringFunctions/arm_fir_interpolate_q15.c ****  * @param[in] *pSrc     points to the block of input data.
  44:DSP/Source/FilteringFunctions/arm_fir_interpolate_q15.c ****  * @param[out] *pDst    points to the block of output data.
  45:DSP/Source/FilteringFunctions/arm_fir_interpolate_q15.c ****  * @param[in] blockSize number of input samples to process per call.
  46:DSP/Source/FilteringFunctions/arm_fir_interpolate_q15.c ****  * @return none.
  47:DSP/Source/FilteringFunctions/arm_fir_interpolate_q15.c ****  *
  48:DSP/Source/FilteringFunctions/arm_fir_interpolate_q15.c ****  * <b>Scaling and Overflow Behavior:</b>
  49:DSP/Source/FilteringFunctions/arm_fir_interpolate_q15.c ****  * \par
  50:DSP/Source/FilteringFunctions/arm_fir_interpolate_q15.c ****  * The function is implemented using a 64-bit internal accumulator.
  51:DSP/Source/FilteringFunctions/arm_fir_interpolate_q15.c ****  * Both coefficients and state variables are represented in 1.15 format and multiplications yield a
  52:DSP/Source/FilteringFunctions/arm_fir_interpolate_q15.c ****  * The 2.30 intermediate results are accumulated in a 64-bit accumulator in 34.30 format.
  53:DSP/Source/FilteringFunctions/arm_fir_interpolate_q15.c ****  * There is no risk of internal overflow with this approach and the full precision of intermediate 
  54:DSP/Source/FilteringFunctions/arm_fir_interpolate_q15.c ****  * After all additions have been performed, the accumulator is truncated to 34.15 format by discard
  55:DSP/Source/FilteringFunctions/arm_fir_interpolate_q15.c ****  * Lastly, the accumulator is saturated to yield a result in 1.15 format.
  56:DSP/Source/FilteringFunctions/arm_fir_interpolate_q15.c ****  */
  57:DSP/Source/FilteringFunctions/arm_fir_interpolate_q15.c **** 
  58:DSP/Source/FilteringFunctions/arm_fir_interpolate_q15.c **** #if defined (ARM_MATH_DSP)
  59:DSP/Source/FilteringFunctions/arm_fir_interpolate_q15.c **** 
  60:DSP/Source/FilteringFunctions/arm_fir_interpolate_q15.c ****   /* Run the below code for Cortex-M4 and Cortex-M3 */
  61:DSP/Source/FilteringFunctions/arm_fir_interpolate_q15.c **** 
  62:DSP/Source/FilteringFunctions/arm_fir_interpolate_q15.c **** void arm_fir_interpolate_q15(
  63:DSP/Source/FilteringFunctions/arm_fir_interpolate_q15.c ****   const arm_fir_interpolate_instance_q15 * S,
  64:DSP/Source/FilteringFunctions/arm_fir_interpolate_q15.c ****   q15_t * pSrc,
  65:DSP/Source/FilteringFunctions/arm_fir_interpolate_q15.c ****   q15_t * pDst,
  66:DSP/Source/FilteringFunctions/arm_fir_interpolate_q15.c ****   uint32_t blockSize)
  67:DSP/Source/FilteringFunctions/arm_fir_interpolate_q15.c **** {
  30              		.loc 1 67 1 view -0
  31              		.cfi_startproc
  32              		@ args = 0, pretend = 0, frame = 48
  33              		@ frame_needed = 0, uses_anonymous_args = 0
  34              		.loc 1 67 1 is_stmt 0 view .LVU1
  35 0000 2DE9F04F 		push	{r4, r5, r6, r7, r8, r9, r10, fp, lr}
  36              	.LCFI0:
  37              		.cfi_def_cfa_offset 36
  38              		.cfi_offset 4, -36
  39              		.cfi_offset 5, -32
  40              		.cfi_offset 6, -28
  41              		.cfi_offset 7, -24
  42              		.cfi_offset 8, -20
  43              		.cfi_offset 9, -16
  44              		.cfi_offset 10, -12
  45              		.cfi_offset 11, -8
  46              		.cfi_offset 14, -4
  47 0004 8DB0     		sub	sp, sp, #52
  48              	.LCFI1:
ARM GAS  /var/folders/ck/g3dcd5x55xs4107jgdl0snvr0000gn/T//ccEUws1d.s 			page 3


  49              		.cfi_def_cfa_offset 88
  50 0006 0490     		str	r0, [sp, #16]
  51 0008 0D46     		mov	r5, r1
  68:DSP/Source/FilteringFunctions/arm_fir_interpolate_q15.c ****   q15_t *pState = S->pState;                     /* State pointer                                  
  52              		.loc 1 68 3 is_stmt 1 view .LVU2
  53              		.loc 1 68 20 is_stmt 0 view .LVU3
  54 000a 0146     		mov	r1, r0
  55              	.LVL1:
  56              		.loc 1 68 20 view .LVU4
  57 000c 8068     		ldr	r0, [r0, #8]
  58              	.LVL2:
  59              		.loc 1 68 20 view .LVU5
  60 000e 0390     		str	r0, [sp, #12]
  61              	.LVL3:
  69:DSP/Source/FilteringFunctions/arm_fir_interpolate_q15.c ****   q15_t *pCoeffs = S->pCoeffs;                   /* Coefficient pointer                            
  62              		.loc 1 69 3 is_stmt 1 view .LVU6
  63              		.loc 1 69 10 is_stmt 0 view .LVU7
  64 0010 4C68     		ldr	r4, [r1, #4]
  65 0012 0694     		str	r4, [sp, #24]
  66              	.LVL4:
  70:DSP/Source/FilteringFunctions/arm_fir_interpolate_q15.c ****   q15_t *pStateCurnt;                            /* Points to the current sample of the state      
  67              		.loc 1 70 3 is_stmt 1 view .LVU8
  71:DSP/Source/FilteringFunctions/arm_fir_interpolate_q15.c ****   q15_t *ptr1, *ptr2;                            /* Temporary pointers for state and coefficient bu
  68              		.loc 1 71 3 view .LVU9
  72:DSP/Source/FilteringFunctions/arm_fir_interpolate_q15.c ****   q63_t sum0;                                    /* Accumulators                                   
  69              		.loc 1 72 3 view .LVU10
  73:DSP/Source/FilteringFunctions/arm_fir_interpolate_q15.c ****   q15_t x0, c0;                                  /* Temporary variables to hold state and coefficie
  70              		.loc 1 73 3 view .LVU11
  74:DSP/Source/FilteringFunctions/arm_fir_interpolate_q15.c ****   uint32_t i, blkCnt, j, tapCnt;                 /* Loop counters                                  
  71              		.loc 1 74 3 view .LVU12
  75:DSP/Source/FilteringFunctions/arm_fir_interpolate_q15.c ****   uint16_t phaseLen = S->phaseLength;            /* Length of each polyphase filter component */
  72              		.loc 1 75 3 view .LVU13
  73              		.loc 1 75 12 is_stmt 0 view .LVU14
  74 0014 B1F80290 		ldrh	r9, [r1, #2]
  75              	.LVL5:
  76:DSP/Source/FilteringFunctions/arm_fir_interpolate_q15.c ****   uint32_t blkCntN2;
  76              		.loc 1 76 3 is_stmt 1 view .LVU15
  77:DSP/Source/FilteringFunctions/arm_fir_interpolate_q15.c ****   q63_t acc0, acc1;
  77              		.loc 1 77 3 view .LVU16
  78:DSP/Source/FilteringFunctions/arm_fir_interpolate_q15.c ****   q15_t x1;
  78              		.loc 1 78 3 view .LVU17
  79:DSP/Source/FilteringFunctions/arm_fir_interpolate_q15.c **** 
  80:DSP/Source/FilteringFunctions/arm_fir_interpolate_q15.c ****   /* S->pState buffer contains previous frame (phaseLen - 1) samples */
  81:DSP/Source/FilteringFunctions/arm_fir_interpolate_q15.c ****   /* pStateCurnt points to the location where the new input data should be written */
  82:DSP/Source/FilteringFunctions/arm_fir_interpolate_q15.c ****   pStateCurnt = S->pState + ((q31_t) phaseLen - 1);
  79              		.loc 1 82 3 view .LVU18
  80              		.loc 1 82 27 is_stmt 0 view .LVU19
  81 0018 09F1004C 		add	ip, r9, #-2147483648
  82 001c 0CF1FF3C 		add	ip, ip, #-1
  83 0020 00EB4C0C 		add	ip, r0, ip, lsl #1
  84              	.LVL6:
  83:DSP/Source/FilteringFunctions/arm_fir_interpolate_q15.c **** 
  84:DSP/Source/FilteringFunctions/arm_fir_interpolate_q15.c ****   /* Initialise  blkCnt */
  85:DSP/Source/FilteringFunctions/arm_fir_interpolate_q15.c ****   blkCnt = blockSize / 2;
  85              		.loc 1 85 3 is_stmt 1 view .LVU20
  86              		.loc 1 85 10 is_stmt 0 view .LVU21
  87 0024 5C08     		lsrs	r4, r3, #1
ARM GAS  /var/folders/ck/g3dcd5x55xs4107jgdl0snvr0000gn/T//ccEUws1d.s 			page 4


  88              	.LVL7:
  86:DSP/Source/FilteringFunctions/arm_fir_interpolate_q15.c ****   blkCntN2 = blockSize - (2 * blkCnt);
  89              		.loc 1 86 3 is_stmt 1 view .LVU22
  90 0026 03F00101 		and	r1, r3, #1
  91              	.LVL8:
  87:DSP/Source/FilteringFunctions/arm_fir_interpolate_q15.c **** 
  88:DSP/Source/FilteringFunctions/arm_fir_interpolate_q15.c ****   /* Samples loop unrolled by 2 */
  89:DSP/Source/FilteringFunctions/arm_fir_interpolate_q15.c ****   while (blkCnt > 0U)
  92              		.loc 1 89 3 view .LVU23
  93 002a 0B91     		str	r1, [sp, #44]
  94 002c 2146     		mov	r1, r4
  95              	.LVL9:
  96              		.loc 1 89 3 is_stmt 0 view .LVU24
  97 002e CDF81490 		str	r9, [sp, #20]
  98 0032 1646     		mov	r6, r2
  99              		.loc 1 89 9 view .LVU25
 100 0034 E8E0     		b	.L2
 101              	.LVL10:
 102              	.L5:
  90:DSP/Source/FilteringFunctions/arm_fir_interpolate_q15.c ****   {
  91:DSP/Source/FilteringFunctions/arm_fir_interpolate_q15.c ****     /* Copy new input sample into the state buffer */
  92:DSP/Source/FilteringFunctions/arm_fir_interpolate_q15.c ****     *pStateCurnt++ = *pSrc++;
  93:DSP/Source/FilteringFunctions/arm_fir_interpolate_q15.c ****     *pStateCurnt++ = *pSrc++;
  94:DSP/Source/FilteringFunctions/arm_fir_interpolate_q15.c **** 
  95:DSP/Source/FilteringFunctions/arm_fir_interpolate_q15.c ****     /* Address modifier index of coefficient buffer */
  96:DSP/Source/FilteringFunctions/arm_fir_interpolate_q15.c ****     j = 1U;
  97:DSP/Source/FilteringFunctions/arm_fir_interpolate_q15.c **** 
  98:DSP/Source/FilteringFunctions/arm_fir_interpolate_q15.c ****     /* Loop over the Interpolation factor. */
  99:DSP/Source/FilteringFunctions/arm_fir_interpolate_q15.c ****     i = (S->L);
 100:DSP/Source/FilteringFunctions/arm_fir_interpolate_q15.c **** 
 101:DSP/Source/FilteringFunctions/arm_fir_interpolate_q15.c ****     while (i > 0U)
 102:DSP/Source/FilteringFunctions/arm_fir_interpolate_q15.c ****     {
 103:DSP/Source/FilteringFunctions/arm_fir_interpolate_q15.c ****       /* Set accumulator to zero */
 104:DSP/Source/FilteringFunctions/arm_fir_interpolate_q15.c ****       acc0 = 0;
 105:DSP/Source/FilteringFunctions/arm_fir_interpolate_q15.c ****       acc1 = 0;
 106:DSP/Source/FilteringFunctions/arm_fir_interpolate_q15.c **** 
 107:DSP/Source/FilteringFunctions/arm_fir_interpolate_q15.c ****       /* Initialize state pointer */
 108:DSP/Source/FilteringFunctions/arm_fir_interpolate_q15.c ****       ptr1 = pState;
 109:DSP/Source/FilteringFunctions/arm_fir_interpolate_q15.c **** 
 110:DSP/Source/FilteringFunctions/arm_fir_interpolate_q15.c ****       /* Initialize coefficient pointer */
 111:DSP/Source/FilteringFunctions/arm_fir_interpolate_q15.c ****       ptr2 = pCoeffs + (S->L - j);
 112:DSP/Source/FilteringFunctions/arm_fir_interpolate_q15.c **** 
 113:DSP/Source/FilteringFunctions/arm_fir_interpolate_q15.c ****       /* Loop over the polyPhase length. Unroll by a factor of 4.
 114:DSP/Source/FilteringFunctions/arm_fir_interpolate_q15.c ****        ** Repeat until we've computed numTaps-(4*S->L) coefficients. */
 115:DSP/Source/FilteringFunctions/arm_fir_interpolate_q15.c ****       tapCnt = phaseLen >> 2U;
 116:DSP/Source/FilteringFunctions/arm_fir_interpolate_q15.c **** 
 117:DSP/Source/FilteringFunctions/arm_fir_interpolate_q15.c ****       x0 = *(ptr1++);
 118:DSP/Source/FilteringFunctions/arm_fir_interpolate_q15.c **** 
 119:DSP/Source/FilteringFunctions/arm_fir_interpolate_q15.c ****       while (tapCnt > 0U)
 120:DSP/Source/FilteringFunctions/arm_fir_interpolate_q15.c ****       {
 121:DSP/Source/FilteringFunctions/arm_fir_interpolate_q15.c **** 
 122:DSP/Source/FilteringFunctions/arm_fir_interpolate_q15.c ****         /* Read the input sample */
 123:DSP/Source/FilteringFunctions/arm_fir_interpolate_q15.c ****         x1 = *(ptr1++);
 103              		.loc 1 123 9 is_stmt 1 view .LVU26
 104              		.loc 1 123 12 is_stmt 0 view .LVU27
 105 0036 B6F90040 		ldrsh	r4, [r6]
 106              	.LVL11:
ARM GAS  /var/folders/ck/g3dcd5x55xs4107jgdl0snvr0000gn/T//ccEUws1d.s 			page 5


 124:DSP/Source/FilteringFunctions/arm_fir_interpolate_q15.c **** 
 125:DSP/Source/FilteringFunctions/arm_fir_interpolate_q15.c ****         /* Read the coefficient */
 126:DSP/Source/FilteringFunctions/arm_fir_interpolate_q15.c ****         c0 = *(ptr2);
 107              		.loc 1 126 9 is_stmt 1 view .LVU28
 108              		.loc 1 126 12 is_stmt 0 view .LVU29
 109 003a B7F90050 		ldrsh	r5, [r7]
 110              	.LVL12:
 127:DSP/Source/FilteringFunctions/arm_fir_interpolate_q15.c **** 
 128:DSP/Source/FilteringFunctions/arm_fir_interpolate_q15.c ****         /* Perform the multiply-accumulate */
 129:DSP/Source/FilteringFunctions/arm_fir_interpolate_q15.c ****         acc0 += (q63_t) x0 *c0;
 111              		.loc 1 129 9 is_stmt 1 view .LVU30
 112              		.loc 1 129 17 is_stmt 0 view .LVU31
 113 003e 4FEAEE7A 		asr	r10, lr, #31
 114              		.loc 1 129 28 view .LVU32
 115 0042 4FEAE578 		asr	r8, r5, #31
 116 0046 0EFB08F9 		mul	r9, lr, r8
 117 004a 05FB0A99 		mla	r9, r5, r10, r9
 118 004e AEFB05EA 		umull	lr, r10, lr, r5
 119              	.LVL13:
 120              		.loc 1 129 28 view .LVU33
 121 0052 CA44     		add	r10, r10, r9
 122              		.loc 1 129 14 view .LVU34
 123 0054 1EEB0209 		adds	r9, lr, r2
 124 0058 4AEB000A 		adc	r10, r10, r0
 125              	.LVL14:
 130:DSP/Source/FilteringFunctions/arm_fir_interpolate_q15.c ****         acc1 += (q63_t) x1 *c0;
 126              		.loc 1 130 9 is_stmt 1 view .LVU35
 127              		.loc 1 130 17 is_stmt 0 view .LVU36
 128 005c E217     		asrs	r2, r4, #31
 129              		.loc 1 130 28 view .LVU37
 130 005e 05FB02FE 		mul	lr, r5, r2
 131 0062 04FB08EE 		mla	lr, r4, r8, lr
 132 0066 A5FB0408 		umull	r0, r8, r5, r4
 133 006a F044     		add	r8, r8, lr
 134              		.loc 1 130 14 view .LVU38
 135 006c C318     		adds	r3, r0, r3
 136              	.LVL15:
 137              		.loc 1 130 14 view .LVU39
 138 006e 48EB0108 		adc	r8, r8, r1
 139              	.LVL16:
 131:DSP/Source/FilteringFunctions/arm_fir_interpolate_q15.c **** 
 132:DSP/Source/FilteringFunctions/arm_fir_interpolate_q15.c **** 
 133:DSP/Source/FilteringFunctions/arm_fir_interpolate_q15.c ****         /* Read the coefficient */
 134:DSP/Source/FilteringFunctions/arm_fir_interpolate_q15.c ****         c0 = *(ptr2 + S->L);
 140              		.loc 1 134 9 is_stmt 1 view .LVU40
 141              		.loc 1 134 12 is_stmt 0 view .LVU41
 142 0072 37F91C10 		ldrsh	r1, [r7, ip, lsl #1]
 143              	.LVL17:
 135:DSP/Source/FilteringFunctions/arm_fir_interpolate_q15.c **** 
 136:DSP/Source/FilteringFunctions/arm_fir_interpolate_q15.c ****         /* Read the input sample */
 137:DSP/Source/FilteringFunctions/arm_fir_interpolate_q15.c ****         x0 = *(ptr1++);
 144              		.loc 1 137 9 is_stmt 1 view .LVU42
 145              		.loc 1 137 12 is_stmt 0 view .LVU43
 146 0076 B6F90200 		ldrsh	r0, [r6, #2]
 147              	.LVL18:
 138:DSP/Source/FilteringFunctions/arm_fir_interpolate_q15.c **** 
 139:DSP/Source/FilteringFunctions/arm_fir_interpolate_q15.c ****         /* Perform the multiply-accumulate */
ARM GAS  /var/folders/ck/g3dcd5x55xs4107jgdl0snvr0000gn/T//ccEUws1d.s 			page 6


 140:DSP/Source/FilteringFunctions/arm_fir_interpolate_q15.c ****         acc0 += (q63_t) x1 *c0;
 148              		.loc 1 140 9 is_stmt 1 view .LVU44
 149              		.loc 1 140 28 is_stmt 0 view .LVU45
 150 007a CD17     		asrs	r5, r1, #31
 151 007c 04FB05FE 		mul	lr, r4, r5
 152 0080 01FB02EE 		mla	lr, r1, r2, lr
 153 0084 A4FB0124 		umull	r2, r4, r4, r1
 154              	.LVL19:
 155              		.loc 1 140 28 view .LVU46
 156 0088 A644     		add	lr, lr, r4
 157              		.loc 1 140 14 view .LVU47
 158 008a 12EB0902 		adds	r2, r2, r9
 159 008e 4EEB0A0E 		adc	lr, lr, r10
 160              	.LVL20:
 141:DSP/Source/FilteringFunctions/arm_fir_interpolate_q15.c ****         acc1 += (q63_t) x0 *c0;
 161              		.loc 1 141 9 is_stmt 1 view .LVU48
 162              		.loc 1 141 17 is_stmt 0 view .LVU49
 163 0092 4FEAE079 		asr	r9, r0, #31
 164              		.loc 1 141 28 view .LVU50
 165 0096 01FB09F4 		mul	r4, r1, r9
 166 009a 00FB0544 		mla	r4, r0, r5, r4
 167 009e A1FB00A5 		umull	r10, r5, r1, r0
 168 00a2 2544     		add	r5, r5, r4
 169              		.loc 1 141 14 view .LVU51
 170 00a4 1AEB030A 		adds	r10, r10, r3
 171 00a8 45EB0805 		adc	r5, r5, r8
 172              	.LVL21:
 142:DSP/Source/FilteringFunctions/arm_fir_interpolate_q15.c **** 
 143:DSP/Source/FilteringFunctions/arm_fir_interpolate_q15.c **** 
 144:DSP/Source/FilteringFunctions/arm_fir_interpolate_q15.c ****         /* Read the coefficient */
 145:DSP/Source/FilteringFunctions/arm_fir_interpolate_q15.c ****         c0 = *(ptr2 + S->L * 2);
 173              		.loc 1 145 9 is_stmt 1 view .LVU52
 174              		.loc 1 145 12 is_stmt 0 view .LVU53
 175 00ac 37F92C10 		ldrsh	r1, [r7, ip, lsl #2]
 176              	.LVL22:
 146:DSP/Source/FilteringFunctions/arm_fir_interpolate_q15.c **** 
 147:DSP/Source/FilteringFunctions/arm_fir_interpolate_q15.c ****         /* Read the input sample */
 148:DSP/Source/FilteringFunctions/arm_fir_interpolate_q15.c ****         x1 = *(ptr1++);
 177              		.loc 1 148 9 is_stmt 1 view .LVU54
 178              		.loc 1 148 12 is_stmt 0 view .LVU55
 179 00b0 B6F90440 		ldrsh	r4, [r6, #4]
 180              	.LVL23:
 149:DSP/Source/FilteringFunctions/arm_fir_interpolate_q15.c **** 
 150:DSP/Source/FilteringFunctions/arm_fir_interpolate_q15.c ****         /* Perform the multiply-accumulate */
 151:DSP/Source/FilteringFunctions/arm_fir_interpolate_q15.c ****         acc0 += (q63_t) x0 *c0;
 181              		.loc 1 151 9 is_stmt 1 view .LVU56
 182              		.loc 1 151 28 is_stmt 0 view .LVU57
 183 00b4 4FEAE178 		asr	r8, r1, #31
 184 00b8 00FB08F3 		mul	r3, r0, r8
 185 00bc 01FB0939 		mla	r9, r1, r9, r3
 186 00c0 A0FB0130 		umull	r3, r0, r0, r1
 187              	.LVL24:
 188              		.loc 1 151 28 view .LVU58
 189 00c4 8144     		add	r9, r9, r0
 190              		.loc 1 151 14 view .LVU59
 191 00c6 9B18     		adds	r3, r3, r2
 192 00c8 49EB0E09 		adc	r9, r9, lr
ARM GAS  /var/folders/ck/g3dcd5x55xs4107jgdl0snvr0000gn/T//ccEUws1d.s 			page 7


 193              	.LVL25:
 152:DSP/Source/FilteringFunctions/arm_fir_interpolate_q15.c ****         acc1 += (q63_t) x1 *c0;
 194              		.loc 1 152 9 is_stmt 1 view .LVU60
 195              		.loc 1 152 17 is_stmt 0 view .LVU61
 196 00cc E217     		asrs	r2, r4, #31
 197              		.loc 1 152 28 view .LVU62
 198 00ce 01FB02FE 		mul	lr, r1, r2
 199 00d2 04FB08EE 		mla	lr, r4, r8, lr
 200 00d6 A1FB0408 		umull	r0, r8, r1, r4
 201 00da F044     		add	r8, r8, lr
 202              		.loc 1 152 14 view .LVU63
 203 00dc 10EB0A0A 		adds	r10, r0, r10
 204              	.LVL26:
 205              		.loc 1 152 14 view .LVU64
 206 00e0 48EB0508 		adc	r8, r8, r5
 207              	.LVL27:
 153:DSP/Source/FilteringFunctions/arm_fir_interpolate_q15.c **** 
 154:DSP/Source/FilteringFunctions/arm_fir_interpolate_q15.c ****         /* Read the coefficient */
 155:DSP/Source/FilteringFunctions/arm_fir_interpolate_q15.c ****         c0 = *(ptr2 + S->L * 3);
 208              		.loc 1 155 9 is_stmt 1 view .LVU65
 209              		.loc 1 155 21 is_stmt 0 view .LVU66
 210 00e4 0CEB4C01 		add	r1, ip, ip, lsl #1
 211              	.LVL28:
 212              		.loc 1 155 12 view .LVU67
 213 00e8 37F91150 		ldrsh	r5, [r7, r1, lsl #1]
 214              	.LVL29:
 156:DSP/Source/FilteringFunctions/arm_fir_interpolate_q15.c **** 
 157:DSP/Source/FilteringFunctions/arm_fir_interpolate_q15.c ****         /* Read the input sample */
 158:DSP/Source/FilteringFunctions/arm_fir_interpolate_q15.c ****         x0 = *(ptr1++);
 215              		.loc 1 158 9 is_stmt 1 view .LVU68
 216              		.loc 1 158 12 is_stmt 0 view .LVU69
 217 00ec B6F906E0 		ldrsh	lr, [r6, #6]
 218              	.LVL30:
 159:DSP/Source/FilteringFunctions/arm_fir_interpolate_q15.c **** 
 160:DSP/Source/FilteringFunctions/arm_fir_interpolate_q15.c ****         /* Perform the multiply-accumulate */
 161:DSP/Source/FilteringFunctions/arm_fir_interpolate_q15.c ****         acc0 += (q63_t) x1 *c0;
 219              		.loc 1 161 9 is_stmt 1 view .LVU70
 220              		.loc 1 161 28 is_stmt 0 view .LVU71
 221 00f0 E917     		asrs	r1, r5, #31
 222 00f2 04FB01F0 		mul	r0, r4, r1
 223 00f6 05FB0200 		mla	r0, r5, r2, r0
 224 00fa A4FB0524 		umull	r2, r4, r4, r5
 225              	.LVL31:
 226              		.loc 1 161 28 view .LVU72
 227 00fe 2044     		add	r0, r0, r4
 228              		.loc 1 161 14 view .LVU73
 229 0100 D218     		adds	r2, r2, r3
 230 0102 40EB0900 		adc	r0, r0, r9
 231              	.LVL32:
 162:DSP/Source/FilteringFunctions/arm_fir_interpolate_q15.c ****         acc1 += (q63_t) x0 *c0;
 232              		.loc 1 162 9 is_stmt 1 view .LVU74
 233              		.loc 1 162 17 is_stmt 0 view .LVU75
 234 0106 4FEAEE74 		asr	r4, lr, #31
 235              		.loc 1 162 28 view .LVU76
 236 010a 05FB04F4 		mul	r4, r5, r4
 237 010e 0EFB0144 		mla	r4, lr, r1, r4
 238 0112 A5FB0E31 		umull	r3, r1, r5, lr
ARM GAS  /var/folders/ck/g3dcd5x55xs4107jgdl0snvr0000gn/T//ccEUws1d.s 			page 8


 239 0116 2144     		add	r1, r1, r4
 240              		.loc 1 162 14 view .LVU77
 241 0118 13EB0A03 		adds	r3, r3, r10
 242 011c 41EB0801 		adc	r1, r1, r8
 243              	.LVL33:
 163:DSP/Source/FilteringFunctions/arm_fir_interpolate_q15.c **** 
 164:DSP/Source/FilteringFunctions/arm_fir_interpolate_q15.c **** 
 165:DSP/Source/FilteringFunctions/arm_fir_interpolate_q15.c ****         /* Upsampling is done by stuffing L-1 zeros between each sample.
 166:DSP/Source/FilteringFunctions/arm_fir_interpolate_q15.c ****          * So instead of multiplying zeros with coefficients,
 167:DSP/Source/FilteringFunctions/arm_fir_interpolate_q15.c ****          * Increment the coefficient pointer by interpolation factor times. */
 168:DSP/Source/FilteringFunctions/arm_fir_interpolate_q15.c ****         ptr2 += 4 * S->L;
 244              		.loc 1 168 9 is_stmt 1 view .LVU78
 245              		.loc 1 168 14 is_stmt 0 view .LVU79
 246 0120 07EBCC07 		add	r7, r7, ip, lsl #3
 247              	.LVL34:
 169:DSP/Source/FilteringFunctions/arm_fir_interpolate_q15.c **** 
 170:DSP/Source/FilteringFunctions/arm_fir_interpolate_q15.c ****         /* Decrement the loop counter */
 171:DSP/Source/FilteringFunctions/arm_fir_interpolate_q15.c ****         tapCnt--;
 248              		.loc 1 171 9 is_stmt 1 view .LVU80
 249              		.loc 1 171 15 is_stmt 0 view .LVU81
 250 0124 0BF1FF3B 		add	fp, fp, #-1
 251              	.LVL35:
 158:DSP/Source/FilteringFunctions/arm_fir_interpolate_q15.c **** 
 252              		.loc 1 158 20 view .LVU82
 253 0128 0836     		adds	r6, r6, #8
 254              	.LVL36:
 255              	.L4:
 119:DSP/Source/FilteringFunctions/arm_fir_interpolate_q15.c ****       {
 256              		.loc 1 119 21 is_stmt 1 view .LVU83
 257 012a BBF1000F 		cmp	fp, #0
 258 012e 82D1     		bne	.L5
 172:DSP/Source/FilteringFunctions/arm_fir_interpolate_q15.c ****       }
 173:DSP/Source/FilteringFunctions/arm_fir_interpolate_q15.c **** 
 174:DSP/Source/FilteringFunctions/arm_fir_interpolate_q15.c ****       /* If the polyPhase length is not a multiple of 4, compute the remaining filter taps */
 175:DSP/Source/FilteringFunctions/arm_fir_interpolate_q15.c ****       tapCnt = phaseLen % 0x4U;
 259              		.loc 1 175 7 view .LVU84
 260              		.loc 1 175 14 is_stmt 0 view .LVU85
 261 0130 059C     		ldr	r4, [sp, #20]
 262 0132 04F0030A 		and	r10, r4, #3
 263              	.LVL37:
 176:DSP/Source/FilteringFunctions/arm_fir_interpolate_q15.c **** 
 177:DSP/Source/FilteringFunctions/arm_fir_interpolate_q15.c ****       while (tapCnt > 0U)
 264              		.loc 1 177 7 is_stmt 1 view .LVU86
 265 0136 B946     		mov	r9, r7
 266 0138 5746     		mov	r7, r10
 267              	.LVL38:
 268              		.loc 1 177 13 is_stmt 0 view .LVU87
 269 013a 24E0     		b	.L6
 270              	.LVL39:
 271              	.L7:
 178:DSP/Source/FilteringFunctions/arm_fir_interpolate_q15.c ****       {
 179:DSP/Source/FilteringFunctions/arm_fir_interpolate_q15.c **** 
 180:DSP/Source/FilteringFunctions/arm_fir_interpolate_q15.c ****         /* Read the input sample */
 181:DSP/Source/FilteringFunctions/arm_fir_interpolate_q15.c ****         x1 = *(ptr1++);
 272              		.loc 1 181 9 is_stmt 1 view .LVU88
 273              		.loc 1 181 12 is_stmt 0 view .LVU89
 274 013c 36F9025B 		ldrsh	r5, [r6], #2
ARM GAS  /var/folders/ck/g3dcd5x55xs4107jgdl0snvr0000gn/T//ccEUws1d.s 			page 9


 275              	.LVL40:
 182:DSP/Source/FilteringFunctions/arm_fir_interpolate_q15.c **** 
 183:DSP/Source/FilteringFunctions/arm_fir_interpolate_q15.c ****         /* Read the coefficient */
 184:DSP/Source/FilteringFunctions/arm_fir_interpolate_q15.c ****         c0 = *(ptr2);
 276              		.loc 1 184 9 is_stmt 1 view .LVU90
 277              		.loc 1 184 12 is_stmt 0 view .LVU91
 278 0140 B9F90040 		ldrsh	r4, [r9]
 279              	.LVL41:
 185:DSP/Source/FilteringFunctions/arm_fir_interpolate_q15.c **** 
 186:DSP/Source/FilteringFunctions/arm_fir_interpolate_q15.c ****         /* Perform the multiply-accumulate */
 187:DSP/Source/FilteringFunctions/arm_fir_interpolate_q15.c ****         acc0 += (q63_t) x0 *c0;
 280              		.loc 1 187 9 is_stmt 1 view .LVU92
 281              		.loc 1 187 17 is_stmt 0 view .LVU93
 282 0144 4FEAEE7B 		asr	fp, lr, #31
 283              		.loc 1 187 28 view .LVU94
 284 0148 4FEAE47A 		asr	r10, r4, #31
 285 014c 0EFB0AF8 		mul	r8, lr, r10
 286 0150 04FB0B88 		mla	r8, r4, fp, r8
 287 0154 AEFB04EB 		umull	lr, fp, lr, r4
 288              	.LVL42:
 289              		.loc 1 187 28 view .LVU95
 290 0158 D844     		add	r8, r8, fp
 291              		.loc 1 187 14 view .LVU96
 292 015a 1EEB020E 		adds	lr, lr, r2
 293 015e 7246     		mov	r2, lr
 294              	.LVL43:
 295              		.loc 1 187 14 view .LVU97
 296 0160 48EB0000 		adc	r0, r8, r0
 297              	.LVL44:
 188:DSP/Source/FilteringFunctions/arm_fir_interpolate_q15.c ****         acc1 += (q63_t) x1 *c0;
 298              		.loc 1 188 9 is_stmt 1 view .LVU98
 299              		.loc 1 188 17 is_stmt 0 view .LVU99
 300 0164 4FEAE57E 		asr	lr, r5, #31
 301              		.loc 1 188 28 view .LVU100
 302 0168 04FB0EFE 		mul	lr, r4, lr
 303 016c 05FB0AEE 		mla	lr, r5, r10, lr
 304 0170 A4FB0548 		umull	r4, r8, r4, r5
 305              	.LVL45:
 306              		.loc 1 188 28 view .LVU101
 307 0174 C644     		add	lr, lr, r8
 308              		.loc 1 188 14 view .LVU102
 309 0176 E418     		adds	r4, r4, r3
 310 0178 2346     		mov	r3, r4
 311              	.LVL46:
 312              		.loc 1 188 14 view .LVU103
 313 017a 4EEB0101 		adc	r1, lr, r1
 314              	.LVL47:
 189:DSP/Source/FilteringFunctions/arm_fir_interpolate_q15.c **** 
 190:DSP/Source/FilteringFunctions/arm_fir_interpolate_q15.c ****         /* Increment the coefficient pointer by interpolation factor times. */
 191:DSP/Source/FilteringFunctions/arm_fir_interpolate_q15.c ****         ptr2 += S->L;
 315              		.loc 1 191 9 is_stmt 1 view .LVU104
 316              		.loc 1 191 14 is_stmt 0 view .LVU105
 317 017e 09EB4C09 		add	r9, r9, ip, lsl #1
 318              	.LVL48:
 192:DSP/Source/FilteringFunctions/arm_fir_interpolate_q15.c **** 
 193:DSP/Source/FilteringFunctions/arm_fir_interpolate_q15.c ****         /* update states for next sample processing */
 194:DSP/Source/FilteringFunctions/arm_fir_interpolate_q15.c ****         x0 = x1;
ARM GAS  /var/folders/ck/g3dcd5x55xs4107jgdl0snvr0000gn/T//ccEUws1d.s 			page 10


 319              		.loc 1 194 9 is_stmt 1 view .LVU106
 195:DSP/Source/FilteringFunctions/arm_fir_interpolate_q15.c **** 
 196:DSP/Source/FilteringFunctions/arm_fir_interpolate_q15.c ****         /* Decrement the loop counter */
 197:DSP/Source/FilteringFunctions/arm_fir_interpolate_q15.c ****         tapCnt--;
 320              		.loc 1 197 9 view .LVU107
 321              		.loc 1 197 15 is_stmt 0 view .LVU108
 322 0182 013F     		subs	r7, r7, #1
 323              	.LVL49:
 194:DSP/Source/FilteringFunctions/arm_fir_interpolate_q15.c **** 
 324              		.loc 1 194 12 view .LVU109
 325 0184 AE46     		mov	lr, r5
 326              	.LVL50:
 327              	.L6:
 177:DSP/Source/FilteringFunctions/arm_fir_interpolate_q15.c ****       {
 328              		.loc 1 177 21 is_stmt 1 view .LVU110
 329 0186 002F     		cmp	r7, #0
 330 0188 D8D1     		bne	.L7
 331              	.LBB2:
 198:DSP/Source/FilteringFunctions/arm_fir_interpolate_q15.c ****       }
 199:DSP/Source/FilteringFunctions/arm_fir_interpolate_q15.c **** 
 200:DSP/Source/FilteringFunctions/arm_fir_interpolate_q15.c ****       /* The result is in the accumulator, store in the destination buffer. */
 201:DSP/Source/FilteringFunctions/arm_fir_interpolate_q15.c ****       *pDst = (q15_t) (__SSAT((acc0 >> 15), 16));
 332              		.loc 1 201 24 is_stmt 0 view .LVU111
 333 018a DDF81C80 		ldr	r8, [sp, #28]
 334              	.LBE2:
 335              		.loc 1 201 7 is_stmt 1 view .LVU112
 336              	.LBB3:
 337              		.loc 1 201 24 view .LVU113
 338 018e D20B     		lsrs	r2, r2, #15
 339              	.LVL51:
 340              		.loc 1 201 24 is_stmt 0 view .LVU114
 341 0190 42EA4042 		orr	r2, r2, r0, lsl #17
 342              	.LVL52:
 343              		.loc 1 201 24 is_stmt 1 view .LVU115
 344              		.syntax unified
 345              	@ 201 "DSP/Source/FilteringFunctions/arm_fir_interpolate_q15.c" 1
 346 0194 02F30F02 		ssat r2, #16, r2
 347              	@ 0 "" 2
 348              	.LVL53:
 349              		.loc 1 201 24 view .LVU116
 350              		.thumb
 351              		.syntax unified
 352              	.LBE3:
 353              		.loc 1 201 13 is_stmt 0 view .LVU117
 354 0198 A8F80020 		strh	r2, [r8]	@ movhi
 202:DSP/Source/FilteringFunctions/arm_fir_interpolate_q15.c ****       *(pDst + S->L) = (q15_t) (__SSAT((acc1 >> 15), 16));
 355              		.loc 1 202 7 is_stmt 1 view .LVU118
 356              	.LBB4:
 357              		.loc 1 202 33 view .LVU119
 358 019c DB0B     		lsrs	r3, r3, #15
 359              	.LVL54:
 360              		.loc 1 202 33 is_stmt 0 view .LVU120
 361 019e 43EA4143 		orr	r3, r3, r1, lsl #17
 362              	.LVL55:
 363              		.loc 1 202 33 is_stmt 1 view .LVU121
 364              		.syntax unified
 365              	@ 202 "DSP/Source/FilteringFunctions/arm_fir_interpolate_q15.c" 1
ARM GAS  /var/folders/ck/g3dcd5x55xs4107jgdl0snvr0000gn/T//ccEUws1d.s 			page 11


 366 01a2 03F30F03 		ssat r3, #16, r3
 367              	@ 0 "" 2
 368              	.LVL56:
 369              		.loc 1 202 33 view .LVU122
 370              		.thumb
 371              		.syntax unified
 372              	.LBE4:
 373              		.loc 1 202 17 is_stmt 0 view .LVU123
 374 01a6 049A     		ldr	r2, [sp, #16]
 375              	.LVL57:
 376              		.loc 1 202 17 view .LVU124
 377 01a8 1278     		ldrb	r2, [r2]	@ zero_extendqisi2
 378              		.loc 1 202 22 view .LVU125
 379 01aa 28F81230 		strh	r3, [r8, r2, lsl #1]	@ movhi
 203:DSP/Source/FilteringFunctions/arm_fir_interpolate_q15.c **** 
 204:DSP/Source/FilteringFunctions/arm_fir_interpolate_q15.c ****       pDst++;
 380              		.loc 1 204 7 is_stmt 1 view .LVU126
 381              		.loc 1 204 11 is_stmt 0 view .LVU127
 382 01ae 08F10208 		add	r8, r8, #2
 383              	.LVL58:
 205:DSP/Source/FilteringFunctions/arm_fir_interpolate_q15.c **** 
 206:DSP/Source/FilteringFunctions/arm_fir_interpolate_q15.c ****       /* Increment the address modifier index of coefficient buffer */
 207:DSP/Source/FilteringFunctions/arm_fir_interpolate_q15.c ****       j++;
 384              		.loc 1 207 7 is_stmt 1 view .LVU128
 385              		.loc 1 207 8 is_stmt 0 view .LVU129
 386 01b2 029B     		ldr	r3, [sp, #8]
 387              	.LVL59:
 388              		.loc 1 207 8 view .LVU130
 389 01b4 0133     		adds	r3, r3, #1
 390 01b6 0293     		str	r3, [sp, #8]
 391              	.LVL60:
 208:DSP/Source/FilteringFunctions/arm_fir_interpolate_q15.c **** 
 209:DSP/Source/FilteringFunctions/arm_fir_interpolate_q15.c ****       /* Decrement the loop counter */
 210:DSP/Source/FilteringFunctions/arm_fir_interpolate_q15.c ****       i--;
 392              		.loc 1 210 7 is_stmt 1 view .LVU131
 393              		.loc 1 210 8 is_stmt 0 view .LVU132
 394 01b8 019B     		ldr	r3, [sp, #4]
 395              	.LVL61:
 396              		.loc 1 210 8 view .LVU133
 397 01ba 013B     		subs	r3, r3, #1
 398 01bc 0193     		str	r3, [sp, #4]
 399              	.LVL62:
 400              	.L3:
 101:DSP/Source/FilteringFunctions/arm_fir_interpolate_q15.c ****     {
 401              		.loc 1 101 14 is_stmt 1 view .LVU134
 402 01be 019B     		ldr	r3, [sp, #4]
 403 01c0 ABB1     		cbz	r3, .L23
 104:DSP/Source/FilteringFunctions/arm_fir_interpolate_q15.c ****       acc1 = 0;
 404              		.loc 1 104 7 view .LVU135
 405              	.LVL63:
 105:DSP/Source/FilteringFunctions/arm_fir_interpolate_q15.c **** 
 406              		.loc 1 105 7 view .LVU136
 108:DSP/Source/FilteringFunctions/arm_fir_interpolate_q15.c **** 
 407              		.loc 1 108 7 view .LVU137
 111:DSP/Source/FilteringFunctions/arm_fir_interpolate_q15.c **** 
 408              		.loc 1 111 7 view .LVU138
 111:DSP/Source/FilteringFunctions/arm_fir_interpolate_q15.c **** 
ARM GAS  /var/folders/ck/g3dcd5x55xs4107jgdl0snvr0000gn/T//ccEUws1d.s 			page 12


 409              		.loc 1 111 26 is_stmt 0 view .LVU139
 410 01c2 049B     		ldr	r3, [sp, #16]
 411 01c4 93F800C0 		ldrb	ip, [r3]	@ zero_extendqisi2
 111:DSP/Source/FilteringFunctions/arm_fir_interpolate_q15.c **** 
 412              		.loc 1 111 30 view .LVU140
 413 01c8 029B     		ldr	r3, [sp, #8]
 414 01ca ACEB0307 		sub	r7, ip, r3
 111:DSP/Source/FilteringFunctions/arm_fir_interpolate_q15.c **** 
 415              		.loc 1 111 12 view .LVU141
 416 01ce 069B     		ldr	r3, [sp, #24]
 417 01d0 03EB4707 		add	r7, r3, r7, lsl #1
 418              	.LVL64:
 115:DSP/Source/FilteringFunctions/arm_fir_interpolate_q15.c **** 
 419              		.loc 1 115 7 is_stmt 1 view .LVU142
 115:DSP/Source/FilteringFunctions/arm_fir_interpolate_q15.c **** 
 420              		.loc 1 115 25 is_stmt 0 view .LVU143
 421 01d4 059B     		ldr	r3, [sp, #20]
 422 01d6 4FEA930B 		lsr	fp, r3, #2
 423              	.LVL65:
 117:DSP/Source/FilteringFunctions/arm_fir_interpolate_q15.c **** 
 424              		.loc 1 117 7 is_stmt 1 view .LVU144
 117:DSP/Source/FilteringFunctions/arm_fir_interpolate_q15.c **** 
 425              		.loc 1 117 18 is_stmt 0 view .LVU145
 426 01da 039E     		ldr	r6, [sp, #12]
 427              	.LVL66:
 117:DSP/Source/FilteringFunctions/arm_fir_interpolate_q15.c **** 
 428              		.loc 1 117 10 view .LVU146
 429 01dc 36F902EB 		ldrsh	lr, [r6], #2
 430              	.LVL67:
 119:DSP/Source/FilteringFunctions/arm_fir_interpolate_q15.c ****       {
 431              		.loc 1 119 7 is_stmt 1 view .LVU147
 105:DSP/Source/FilteringFunctions/arm_fir_interpolate_q15.c **** 
 432              		.loc 1 105 12 is_stmt 0 view .LVU148
 433 01e0 0023     		movs	r3, #0
 434 01e2 1946     		mov	r1, r3
 104:DSP/Source/FilteringFunctions/arm_fir_interpolate_q15.c ****       acc1 = 0;
 435              		.loc 1 104 12 view .LVU149
 436 01e4 1A46     		mov	r2, r3
 437 01e6 1846     		mov	r0, r3
 438 01e8 CDF81C80 		str	r8, [sp, #28]
 119:DSP/Source/FilteringFunctions/arm_fir_interpolate_q15.c ****       {
 439              		.loc 1 119 13 view .LVU150
 440 01ec 9DE7     		b	.L4
 441              	.LVL68:
 442              	.L23:
 211:DSP/Source/FilteringFunctions/arm_fir_interpolate_q15.c ****     }
 212:DSP/Source/FilteringFunctions/arm_fir_interpolate_q15.c **** 
 213:DSP/Source/FilteringFunctions/arm_fir_interpolate_q15.c ****     /* Advance the state pointer by 1
 214:DSP/Source/FilteringFunctions/arm_fir_interpolate_q15.c ****      * to process the next group of interpolation factor number samples */
 215:DSP/Source/FilteringFunctions/arm_fir_interpolate_q15.c ****     pState = pState + 2;
 443              		.loc 1 215 21 view .LVU151
 444 01ee 0898     		ldr	r0, [sp, #32]
 445 01f0 0999     		ldr	r1, [sp, #36]
 446 01f2 0A9F     		ldr	r7, [sp, #40]
 447              		.loc 1 215 5 is_stmt 1 view .LVU152
 448              		.loc 1 215 21 is_stmt 0 view .LVU153
 449 01f4 039B     		ldr	r3, [sp, #12]
ARM GAS  /var/folders/ck/g3dcd5x55xs4107jgdl0snvr0000gn/T//ccEUws1d.s 			page 13


 450              	.LVL69:
 451              		.loc 1 215 21 view .LVU154
 452 01f6 0433     		adds	r3, r3, #4
 453 01f8 0393     		str	r3, [sp, #12]
 454              	.LVL70:
 216:DSP/Source/FilteringFunctions/arm_fir_interpolate_q15.c **** 
 217:DSP/Source/FilteringFunctions/arm_fir_interpolate_q15.c ****     pDst += S->L;
 455              		.loc 1 217 5 is_stmt 1 view .LVU155
 456              		.loc 1 217 14 is_stmt 0 view .LVU156
 457 01fa 049B     		ldr	r3, [sp, #16]
 458              	.LVL71:
 459              		.loc 1 217 14 view .LVU157
 460 01fc 1B78     		ldrb	r3, [r3]	@ zero_extendqisi2
 461              		.loc 1 217 10 view .LVU158
 462 01fe 08EB4306 		add	r6, r8, r3, lsl #1
 463              	.LVL72:
 218:DSP/Source/FilteringFunctions/arm_fir_interpolate_q15.c **** 
 219:DSP/Source/FilteringFunctions/arm_fir_interpolate_q15.c ****     /* Decrement the loop counter */
 220:DSP/Source/FilteringFunctions/arm_fir_interpolate_q15.c ****     blkCnt--;
 464              		.loc 1 220 5 is_stmt 1 view .LVU159
 465              		.loc 1 220 11 is_stmt 0 view .LVU160
 466 0202 0139     		subs	r1, r1, #1
 467              	.LVL73:
  93:DSP/Source/FilteringFunctions/arm_fir_interpolate_q15.c **** 
 468              		.loc 1 93 17 view .LVU161
 469 0204 8446     		mov	ip, r0
  93:DSP/Source/FilteringFunctions/arm_fir_interpolate_q15.c **** 
 470              		.loc 1 93 27 view .LVU162
 471 0206 3D46     		mov	r5, r7
 472              	.LVL74:
 473              	.L2:
  89:DSP/Source/FilteringFunctions/arm_fir_interpolate_q15.c ****   {
 474              		.loc 1 89 17 is_stmt 1 view .LVU163
 475 0208 B9B1     		cbz	r1, .L24
  92:DSP/Source/FilteringFunctions/arm_fir_interpolate_q15.c ****     *pStateCurnt++ = *pSrc++;
 476              		.loc 1 92 5 view .LVU164
 477              	.LVL75:
  92:DSP/Source/FilteringFunctions/arm_fir_interpolate_q15.c ****     *pStateCurnt++ = *pSrc++;
 478              		.loc 1 92 22 is_stmt 0 view .LVU165
 479 020a 2F46     		mov	r7, r5
 480 020c 37F9043B 		ldrsh	r3, [r7], #4
  92:DSP/Source/FilteringFunctions/arm_fir_interpolate_q15.c ****     *pStateCurnt++ = *pSrc++;
 481              		.loc 1 92 20 view .LVU166
 482 0210 6046     		mov	r0, ip
 483 0212 20F8043B 		strh	r3, [r0], #4	@ movhi
  93:DSP/Source/FilteringFunctions/arm_fir_interpolate_q15.c **** 
 484              		.loc 1 93 5 is_stmt 1 view .LVU167
 485              	.LVL76:
  93:DSP/Source/FilteringFunctions/arm_fir_interpolate_q15.c **** 
 486              		.loc 1 93 22 is_stmt 0 view .LVU168
 487 0216 B5F90230 		ldrsh	r3, [r5, #2]
  93:DSP/Source/FilteringFunctions/arm_fir_interpolate_q15.c **** 
 488              		.loc 1 93 20 view .LVU169
 489 021a ACF80230 		strh	r3, [ip, #2]	@ movhi
  96:DSP/Source/FilteringFunctions/arm_fir_interpolate_q15.c **** 
 490              		.loc 1 96 5 is_stmt 1 view .LVU170
 491              	.LVL77:
ARM GAS  /var/folders/ck/g3dcd5x55xs4107jgdl0snvr0000gn/T//ccEUws1d.s 			page 14


  99:DSP/Source/FilteringFunctions/arm_fir_interpolate_q15.c **** 
 492              		.loc 1 99 5 view .LVU171
  99:DSP/Source/FilteringFunctions/arm_fir_interpolate_q15.c **** 
 493              		.loc 1 99 11 is_stmt 0 view .LVU172
 494 021e 049B     		ldr	r3, [sp, #16]
 495 0220 93F800B0 		ldrb	fp, [r3]	@ zero_extendqisi2
 496              	.LVL78:
 101:DSP/Source/FilteringFunctions/arm_fir_interpolate_q15.c ****     {
 497              		.loc 1 101 5 is_stmt 1 view .LVU173
  96:DSP/Source/FilteringFunctions/arm_fir_interpolate_q15.c **** 
 498              		.loc 1 96 7 is_stmt 0 view .LVU174
 499 0224 4FF00109 		mov	r9, #1
 500 0228 0890     		str	r0, [sp, #32]
 501 022a CDF804B0 		str	fp, [sp, #4]
 502 022e 0991     		str	r1, [sp, #36]
 503 0230 CDF80890 		str	r9, [sp, #8]
 504 0234 0A97     		str	r7, [sp, #40]
 505 0236 B046     		mov	r8, r6
 101:DSP/Source/FilteringFunctions/arm_fir_interpolate_q15.c ****     {
 506              		.loc 1 101 11 view .LVU175
 507 0238 C1E7     		b	.L3
 508              	.LVL79:
 509              	.L24:
 101:DSP/Source/FilteringFunctions/arm_fir_interpolate_q15.c ****     {
 510              		.loc 1 101 11 view .LVU176
 511 023a 0B99     		ldr	r1, [sp, #44]
 512              	.LVL80:
 101:DSP/Source/FilteringFunctions/arm_fir_interpolate_q15.c ****     {
 513              		.loc 1 101 11 view .LVU177
 514 023c DDF81490 		ldr	r9, [sp, #20]
 515 0240 DDF810B0 		ldr	fp, [sp, #16]
 516 0244 2C46     		mov	r4, r5
 517 0246 3346     		mov	r3, r6
 518 0248 6246     		mov	r2, ip
 519 024a 95E0     		b	.L10
 520              	.LVL81:
 521              	.L13:
 221:DSP/Source/FilteringFunctions/arm_fir_interpolate_q15.c ****   }
 222:DSP/Source/FilteringFunctions/arm_fir_interpolate_q15.c **** 
 223:DSP/Source/FilteringFunctions/arm_fir_interpolate_q15.c ****   /* If the blockSize is not a multiple of 2, compute any remaining output samples here.
 224:DSP/Source/FilteringFunctions/arm_fir_interpolate_q15.c ****    ** No loop unrolling is used. */
 225:DSP/Source/FilteringFunctions/arm_fir_interpolate_q15.c ****   blkCnt = blkCntN2;
 226:DSP/Source/FilteringFunctions/arm_fir_interpolate_q15.c **** 
 227:DSP/Source/FilteringFunctions/arm_fir_interpolate_q15.c ****   /* Loop over the blockSize. */
 228:DSP/Source/FilteringFunctions/arm_fir_interpolate_q15.c ****   while (blkCnt > 0U)
 229:DSP/Source/FilteringFunctions/arm_fir_interpolate_q15.c ****   {
 230:DSP/Source/FilteringFunctions/arm_fir_interpolate_q15.c ****     /* Copy new input sample into the state buffer */
 231:DSP/Source/FilteringFunctions/arm_fir_interpolate_q15.c ****     *pStateCurnt++ = *pSrc++;
 232:DSP/Source/FilteringFunctions/arm_fir_interpolate_q15.c **** 
 233:DSP/Source/FilteringFunctions/arm_fir_interpolate_q15.c ****     /* Address modifier index of coefficient buffer */
 234:DSP/Source/FilteringFunctions/arm_fir_interpolate_q15.c ****     j = 1U;
 235:DSP/Source/FilteringFunctions/arm_fir_interpolate_q15.c **** 
 236:DSP/Source/FilteringFunctions/arm_fir_interpolate_q15.c ****     /* Loop over the Interpolation factor. */
 237:DSP/Source/FilteringFunctions/arm_fir_interpolate_q15.c ****     i = S->L;
 238:DSP/Source/FilteringFunctions/arm_fir_interpolate_q15.c ****     while (i > 0U)
 239:DSP/Source/FilteringFunctions/arm_fir_interpolate_q15.c ****     {
 240:DSP/Source/FilteringFunctions/arm_fir_interpolate_q15.c ****       /* Set accumulator to zero */
ARM GAS  /var/folders/ck/g3dcd5x55xs4107jgdl0snvr0000gn/T//ccEUws1d.s 			page 15


 241:DSP/Source/FilteringFunctions/arm_fir_interpolate_q15.c ****       sum0 = 0;
 242:DSP/Source/FilteringFunctions/arm_fir_interpolate_q15.c **** 
 243:DSP/Source/FilteringFunctions/arm_fir_interpolate_q15.c ****       /* Initialize state pointer */
 244:DSP/Source/FilteringFunctions/arm_fir_interpolate_q15.c ****       ptr1 = pState;
 245:DSP/Source/FilteringFunctions/arm_fir_interpolate_q15.c **** 
 246:DSP/Source/FilteringFunctions/arm_fir_interpolate_q15.c ****       /* Initialize coefficient pointer */
 247:DSP/Source/FilteringFunctions/arm_fir_interpolate_q15.c ****       ptr2 = pCoeffs + (S->L - j);
 248:DSP/Source/FilteringFunctions/arm_fir_interpolate_q15.c **** 
 249:DSP/Source/FilteringFunctions/arm_fir_interpolate_q15.c ****       /* Loop over the polyPhase length. Unroll by a factor of 4.
 250:DSP/Source/FilteringFunctions/arm_fir_interpolate_q15.c ****        ** Repeat until we've computed numTaps-(4*S->L) coefficients. */
 251:DSP/Source/FilteringFunctions/arm_fir_interpolate_q15.c ****       tapCnt = phaseLen >> 2;
 252:DSP/Source/FilteringFunctions/arm_fir_interpolate_q15.c ****       while (tapCnt > 0U)
 253:DSP/Source/FilteringFunctions/arm_fir_interpolate_q15.c ****       {
 254:DSP/Source/FilteringFunctions/arm_fir_interpolate_q15.c **** 
 255:DSP/Source/FilteringFunctions/arm_fir_interpolate_q15.c ****         /* Read the coefficient */
 256:DSP/Source/FilteringFunctions/arm_fir_interpolate_q15.c ****         c0 = *(ptr2);
 522              		.loc 1 256 9 is_stmt 1 view .LVU178
 523              		.loc 1 256 12 is_stmt 0 view .LVU179
 524 024c B5F900E0 		ldrsh	lr, [r5]
 525              	.LVL82:
 257:DSP/Source/FilteringFunctions/arm_fir_interpolate_q15.c **** 
 258:DSP/Source/FilteringFunctions/arm_fir_interpolate_q15.c ****         /* Upsampling is done by stuffing L-1 zeros between each sample.
 259:DSP/Source/FilteringFunctions/arm_fir_interpolate_q15.c ****          * So instead of multiplying zeros with coefficients,
 260:DSP/Source/FilteringFunctions/arm_fir_interpolate_q15.c ****          * Increment the coefficient pointer by interpolation factor times. */
 261:DSP/Source/FilteringFunctions/arm_fir_interpolate_q15.c ****         ptr2 += S->L;
 526              		.loc 1 261 9 is_stmt 1 view .LVU180
 262:DSP/Source/FilteringFunctions/arm_fir_interpolate_q15.c **** 
 263:DSP/Source/FilteringFunctions/arm_fir_interpolate_q15.c ****         /* Read the input sample */
 264:DSP/Source/FilteringFunctions/arm_fir_interpolate_q15.c ****         x0 = *(ptr1++);
 527              		.loc 1 264 9 view .LVU181
 528              		.loc 1 264 12 is_stmt 0 view .LVU182
 529 0250 B1F90080 		ldrsh	r8, [r1]
 530              	.LVL83:
 265:DSP/Source/FilteringFunctions/arm_fir_interpolate_q15.c **** 
 266:DSP/Source/FilteringFunctions/arm_fir_interpolate_q15.c ****         /* Perform the multiply-accumulate */
 267:DSP/Source/FilteringFunctions/arm_fir_interpolate_q15.c ****         sum0 += (q63_t) x0 *c0;
 531              		.loc 1 267 9 is_stmt 1 view .LVU183
 532              		.loc 1 267 17 is_stmt 0 view .LVU184
 533 0254 4FEAE872 		asr	r2, r8, #31
 534              		.loc 1 267 28 view .LVU185
 535 0258 4FEAEE79 		asr	r9, lr, #31
 536 025c 0EFB02F2 		mul	r2, lr, r2
 537 0260 08FB0922 		mla	r2, r8, r9, r2
 538 0264 AEFB088E 		umull	r8, lr, lr, r8
 539              	.LVL84:
 540              		.loc 1 267 28 view .LVU186
 541 0268 9644     		add	lr, lr, r2
 542              		.loc 1 267 14 view .LVU187
 543 026a 18EB0000 		adds	r0, r8, r0
 544              	.LVL85:
 545              		.loc 1 267 14 view .LVU188
 546 026e 4EEB0404 		adc	r4, lr, r4
 547              	.LVL86:
 268:DSP/Source/FilteringFunctions/arm_fir_interpolate_q15.c **** 
 269:DSP/Source/FilteringFunctions/arm_fir_interpolate_q15.c ****         /* Read the coefficient */
 270:DSP/Source/FilteringFunctions/arm_fir_interpolate_q15.c ****         c0 = *(ptr2);
 548              		.loc 1 270 9 is_stmt 1 view .LVU189
ARM GAS  /var/folders/ck/g3dcd5x55xs4107jgdl0snvr0000gn/T//ccEUws1d.s 			page 16


 549              		.loc 1 270 12 is_stmt 0 view .LVU190
 550 0272 35F916E0 		ldrsh	lr, [r5, r6, lsl #1]
 551              	.LVL87:
 271:DSP/Source/FilteringFunctions/arm_fir_interpolate_q15.c **** 
 272:DSP/Source/FilteringFunctions/arm_fir_interpolate_q15.c ****         /* Increment the coefficient pointer by interpolation factor times. */
 273:DSP/Source/FilteringFunctions/arm_fir_interpolate_q15.c ****         ptr2 += S->L;
 552              		.loc 1 273 9 is_stmt 1 view .LVU191
 553              		.loc 1 273 14 is_stmt 0 view .LVU192
 554 0276 05EB8609 		add	r9, r5, r6, lsl #2
 555              	.LVL88:
 274:DSP/Source/FilteringFunctions/arm_fir_interpolate_q15.c **** 
 275:DSP/Source/FilteringFunctions/arm_fir_interpolate_q15.c ****         /* Read the input sample */
 276:DSP/Source/FilteringFunctions/arm_fir_interpolate_q15.c ****         x0 = *(ptr1++);
 556              		.loc 1 276 9 is_stmt 1 view .LVU193
 557              		.loc 1 276 12 is_stmt 0 view .LVU194
 558 027a B1F90220 		ldrsh	r2, [r1, #2]
 559              	.LVL89:
 277:DSP/Source/FilteringFunctions/arm_fir_interpolate_q15.c **** 
 278:DSP/Source/FilteringFunctions/arm_fir_interpolate_q15.c ****         /* Perform the multiply-accumulate */
 279:DSP/Source/FilteringFunctions/arm_fir_interpolate_q15.c ****         sum0 += (q63_t) x0 *c0;
 560              		.loc 1 279 9 is_stmt 1 view .LVU195
 561              		.loc 1 279 17 is_stmt 0 view .LVU196
 562 027e 4FEAE278 		asr	r8, r2, #31
 563              		.loc 1 279 28 view .LVU197
 564 0282 4FEAEE7A 		asr	r10, lr, #31
 565 0286 0EFB08F8 		mul	r8, lr, r8
 566 028a 02FB0A88 		mla	r8, r2, r10, r8
 567 028e AEFB022E 		umull	r2, lr, lr, r2
 568              	.LVL90:
 569              		.loc 1 279 28 view .LVU198
 570 0292 C644     		add	lr, lr, r8
 571              		.loc 1 279 14 view .LVU199
 572 0294 1218     		adds	r2, r2, r0
 573 0296 4EEB040E 		adc	lr, lr, r4
 574              	.LVL91:
 280:DSP/Source/FilteringFunctions/arm_fir_interpolate_q15.c **** 
 281:DSP/Source/FilteringFunctions/arm_fir_interpolate_q15.c ****         /* Read the coefficient */
 282:DSP/Source/FilteringFunctions/arm_fir_interpolate_q15.c ****         c0 = *(ptr2);
 575              		.loc 1 282 9 is_stmt 1 view .LVU200
 576              		.loc 1 282 12 is_stmt 0 view .LVU201
 577 029a 35F92640 		ldrsh	r4, [r5, r6, lsl #2]
 578              	.LVL92:
 283:DSP/Source/FilteringFunctions/arm_fir_interpolate_q15.c **** 
 284:DSP/Source/FilteringFunctions/arm_fir_interpolate_q15.c ****         /* Increment the coefficient pointer by interpolation factor times. */
 285:DSP/Source/FilteringFunctions/arm_fir_interpolate_q15.c ****         ptr2 += S->L;
 579              		.loc 1 285 9 is_stmt 1 view .LVU202
 286:DSP/Source/FilteringFunctions/arm_fir_interpolate_q15.c **** 
 287:DSP/Source/FilteringFunctions/arm_fir_interpolate_q15.c ****         /* Read the input sample */
 288:DSP/Source/FilteringFunctions/arm_fir_interpolate_q15.c ****         x0 = *(ptr1++);
 580              		.loc 1 288 9 view .LVU203
 581              		.loc 1 288 12 is_stmt 0 view .LVU204
 582 029e B1F90450 		ldrsh	r5, [r1, #4]
 583              	.LVL93:
 289:DSP/Source/FilteringFunctions/arm_fir_interpolate_q15.c **** 
 290:DSP/Source/FilteringFunctions/arm_fir_interpolate_q15.c ****         /* Perform the multiply-accumulate */
 291:DSP/Source/FilteringFunctions/arm_fir_interpolate_q15.c ****         sum0 += (q63_t) x0 *c0;
 584              		.loc 1 291 9 is_stmt 1 view .LVU205
ARM GAS  /var/folders/ck/g3dcd5x55xs4107jgdl0snvr0000gn/T//ccEUws1d.s 			page 17


 585              		.loc 1 291 17 is_stmt 0 view .LVU206
 586 02a2 E817     		asrs	r0, r5, #31
 587              		.loc 1 291 28 view .LVU207
 588 02a4 4FEAE478 		asr	r8, r4, #31
 589 02a8 04FB00F0 		mul	r0, r4, r0
 590 02ac 05FB0800 		mla	r0, r5, r8, r0
 591 02b0 A4FB0554 		umull	r5, r4, r4, r5
 592              	.LVL94:
 593              		.loc 1 291 28 view .LVU208
 594 02b4 0444     		add	r4, r4, r0
 595              		.loc 1 291 14 view .LVU209
 596 02b6 15EB0208 		adds	r8, r5, r2
 597 02ba 44EB0E0E 		adc	lr, r4, lr
 598              	.LVL95:
 292:DSP/Source/FilteringFunctions/arm_fir_interpolate_q15.c **** 
 293:DSP/Source/FilteringFunctions/arm_fir_interpolate_q15.c ****         /* Read the coefficient */
 294:DSP/Source/FilteringFunctions/arm_fir_interpolate_q15.c ****         c0 = *(ptr2);
 599              		.loc 1 294 9 is_stmt 1 view .LVU210
 600              		.loc 1 294 12 is_stmt 0 view .LVU211
 601 02be 39F91600 		ldrsh	r0, [r9, r6, lsl #1]
 602              	.LVL96:
 295:DSP/Source/FilteringFunctions/arm_fir_interpolate_q15.c **** 
 296:DSP/Source/FilteringFunctions/arm_fir_interpolate_q15.c ****         /* Increment the coefficient pointer by interpolation factor times. */
 297:DSP/Source/FilteringFunctions/arm_fir_interpolate_q15.c ****         ptr2 += S->L;
 603              		.loc 1 297 9 is_stmt 1 view .LVU212
 604              		.loc 1 297 14 is_stmt 0 view .LVU213
 605 02c2 09EB8605 		add	r5, r9, r6, lsl #2
 606              	.LVL97:
 298:DSP/Source/FilteringFunctions/arm_fir_interpolate_q15.c **** 
 299:DSP/Source/FilteringFunctions/arm_fir_interpolate_q15.c ****         /* Read the input sample */
 300:DSP/Source/FilteringFunctions/arm_fir_interpolate_q15.c ****         x0 = *(ptr1++);
 607              		.loc 1 300 9 is_stmt 1 view .LVU214
 608              		.loc 1 300 12 is_stmt 0 view .LVU215
 609 02c6 B1F90620 		ldrsh	r2, [r1, #6]
 610              	.LVL98:
 301:DSP/Source/FilteringFunctions/arm_fir_interpolate_q15.c **** 
 302:DSP/Source/FilteringFunctions/arm_fir_interpolate_q15.c ****         /* Perform the multiply-accumulate */
 303:DSP/Source/FilteringFunctions/arm_fir_interpolate_q15.c ****         sum0 += (q63_t) x0 *c0;
 611              		.loc 1 303 9 is_stmt 1 view .LVU216
 612              		.loc 1 303 17 is_stmt 0 view .LVU217
 613 02ca D417     		asrs	r4, r2, #31
 614              		.loc 1 303 28 view .LVU218
 615 02cc 4FEAE079 		asr	r9, r0, #31
 616 02d0 00FB04F4 		mul	r4, r0, r4
 617 02d4 02FB0949 		mla	r9, r2, r9, r4
 618 02d8 A0FB0224 		umull	r2, r4, r0, r2
 619              	.LVL99:
 620              		.loc 1 303 28 view .LVU219
 621 02dc 4C44     		add	r4, r4, r9
 622              		.loc 1 303 14 view .LVU220
 623 02de 12EB0800 		adds	r0, r2, r8
 624              	.LVL100:
 625              		.loc 1 303 14 view .LVU221
 626 02e2 44EB0E04 		adc	r4, r4, lr
 627              	.LVL101:
 304:DSP/Source/FilteringFunctions/arm_fir_interpolate_q15.c **** 
 305:DSP/Source/FilteringFunctions/arm_fir_interpolate_q15.c ****         /* Decrement the loop counter */
ARM GAS  /var/folders/ck/g3dcd5x55xs4107jgdl0snvr0000gn/T//ccEUws1d.s 			page 18


 306:DSP/Source/FilteringFunctions/arm_fir_interpolate_q15.c ****         tapCnt--;
 628              		.loc 1 306 9 is_stmt 1 view .LVU222
 629              		.loc 1 306 15 is_stmt 0 view .LVU223
 630 02e6 013B     		subs	r3, r3, #1
 631              	.LVL102:
 300:DSP/Source/FilteringFunctions/arm_fir_interpolate_q15.c **** 
 632              		.loc 1 300 20 view .LVU224
 633 02e8 0831     		adds	r1, r1, #8
 634              	.LVL103:
 635              	.L12:
 252:DSP/Source/FilteringFunctions/arm_fir_interpolate_q15.c ****       {
 636              		.loc 1 252 21 is_stmt 1 view .LVU225
 637 02ea 002B     		cmp	r3, #0
 638 02ec AED1     		bne	.L13
 307:DSP/Source/FilteringFunctions/arm_fir_interpolate_q15.c ****       }
 308:DSP/Source/FilteringFunctions/arm_fir_interpolate_q15.c **** 
 309:DSP/Source/FilteringFunctions/arm_fir_interpolate_q15.c ****       /* If the polyPhase length is not a multiple of 4, compute the remaining filter taps */
 310:DSP/Source/FilteringFunctions/arm_fir_interpolate_q15.c ****       tapCnt = phaseLen & 0x3U;
 639              		.loc 1 310 14 is_stmt 0 view .LVU226
 640 02ee DDF81490 		ldr	r9, [sp, #20]
 641              		.loc 1 310 7 is_stmt 1 view .LVU227
 642              		.loc 1 310 14 is_stmt 0 view .LVU228
 643 02f2 09F00303 		and	r3, r9, #3
 644              	.LVL104:
 311:DSP/Source/FilteringFunctions/arm_fir_interpolate_q15.c **** 
 312:DSP/Source/FilteringFunctions/arm_fir_interpolate_q15.c ****       while (tapCnt > 0U)
 645              		.loc 1 312 7 is_stmt 1 view .LVU229
 646              		.loc 1 312 13 is_stmt 0 view .LVU230
 647 02f6 15E0     		b	.L14
 648              	.L15:
 313:DSP/Source/FilteringFunctions/arm_fir_interpolate_q15.c ****       {
 314:DSP/Source/FilteringFunctions/arm_fir_interpolate_q15.c ****         /* Read the coefficient */
 315:DSP/Source/FilteringFunctions/arm_fir_interpolate_q15.c ****         c0 = *(ptr2);
 649              		.loc 1 315 9 is_stmt 1 view .LVU231
 650              		.loc 1 315 12 is_stmt 0 view .LVU232
 651 02f8 B5F90020 		ldrsh	r2, [r5]
 652              	.LVL105:
 316:DSP/Source/FilteringFunctions/arm_fir_interpolate_q15.c **** 
 317:DSP/Source/FilteringFunctions/arm_fir_interpolate_q15.c ****         /* Increment the coefficient pointer by interpolation factor times. */
 318:DSP/Source/FilteringFunctions/arm_fir_interpolate_q15.c ****         ptr2 += S->L;
 653              		.loc 1 318 9 is_stmt 1 view .LVU233
 654              		.loc 1 318 14 is_stmt 0 view .LVU234
 655 02fc 05EB4605 		add	r5, r5, r6, lsl #1
 656              	.LVL106:
 319:DSP/Source/FilteringFunctions/arm_fir_interpolate_q15.c **** 
 320:DSP/Source/FilteringFunctions/arm_fir_interpolate_q15.c ****         /* Read the input sample */
 321:DSP/Source/FilteringFunctions/arm_fir_interpolate_q15.c ****         x0 = *(ptr1++);
 657              		.loc 1 321 9 is_stmt 1 view .LVU235
 658              		.loc 1 321 12 is_stmt 0 view .LVU236
 659 0300 31F9028B 		ldrsh	r8, [r1], #2
 660              	.LVL107:
 322:DSP/Source/FilteringFunctions/arm_fir_interpolate_q15.c **** 
 323:DSP/Source/FilteringFunctions/arm_fir_interpolate_q15.c ****         /* Perform the multiply-accumulate */
 324:DSP/Source/FilteringFunctions/arm_fir_interpolate_q15.c ****         sum0 += (q63_t) x0 *c0;
 661              		.loc 1 324 9 is_stmt 1 view .LVU237
 662              		.loc 1 324 17 is_stmt 0 view .LVU238
 663 0304 4FEAE87E 		asr	lr, r8, #31
ARM GAS  /var/folders/ck/g3dcd5x55xs4107jgdl0snvr0000gn/T//ccEUws1d.s 			page 19


 664              		.loc 1 324 28 view .LVU239
 665 0308 4FEAE27A 		asr	r10, r2, #31
 666 030c 02FB0EFE 		mul	lr, r2, lr
 667 0310 08FB0AEE 		mla	lr, r8, r10, lr
 668 0314 A2FB0828 		umull	r2, r8, r2, r8
 669              	.LVL108:
 670              		.loc 1 324 28 view .LVU240
 671 0318 C644     		add	lr, lr, r8
 672              		.loc 1 324 14 view .LVU241
 673 031a 1218     		adds	r2, r2, r0
 674 031c 1046     		mov	r0, r2
 675              	.LVL109:
 676              		.loc 1 324 14 view .LVU242
 677 031e 4EEB0404 		adc	r4, lr, r4
 678              	.LVL110:
 325:DSP/Source/FilteringFunctions/arm_fir_interpolate_q15.c **** 
 326:DSP/Source/FilteringFunctions/arm_fir_interpolate_q15.c ****         /* Decrement the loop counter */
 327:DSP/Source/FilteringFunctions/arm_fir_interpolate_q15.c ****         tapCnt--;
 679              		.loc 1 327 9 is_stmt 1 view .LVU243
 680              		.loc 1 327 15 is_stmt 0 view .LVU244
 681 0322 013B     		subs	r3, r3, #1
 682              	.LVL111:
 683              	.L14:
 312:DSP/Source/FilteringFunctions/arm_fir_interpolate_q15.c ****       {
 684              		.loc 1 312 21 is_stmt 1 view .LVU245
 685 0324 002B     		cmp	r3, #0
 686 0326 E7D1     		bne	.L15
 328:DSP/Source/FilteringFunctions/arm_fir_interpolate_q15.c ****       }
 329:DSP/Source/FilteringFunctions/arm_fir_interpolate_q15.c **** 
 330:DSP/Source/FilteringFunctions/arm_fir_interpolate_q15.c ****       /* The result is in the accumulator, store in the destination buffer. */
 331:DSP/Source/FilteringFunctions/arm_fir_interpolate_q15.c ****       *pDst++ = (q15_t) (__SSAT((sum0 >> 15), 16));
 687              		.loc 1 331 7 view .LVU246
 688              	.LBB5:
 689              		.loc 1 331 26 view .LVU247
 690 0328 C00B     		lsrs	r0, r0, #15
 691              	.LVL112:
 692              		.loc 1 331 26 is_stmt 0 view .LVU248
 693 032a 40EA4440 		orr	r0, r0, r4, lsl #17
 694              	.LVL113:
 695              		.loc 1 331 26 is_stmt 1 view .LVU249
 696              		.syntax unified
 697              	@ 331 "DSP/Source/FilteringFunctions/arm_fir_interpolate_q15.c" 1
 698 032e 00F30F00 		ssat r0, #16, r0
 699              	@ 0 "" 2
 700              	.LVL114:
 701              		.loc 1 331 26 view .LVU250
 702              		.thumb
 703              		.syntax unified
 704              	.LBE5:
 705              		.loc 1 331 12 is_stmt 0 view .LVU251
 706 0332 3A46     		mov	r2, r7
 707              	.LVL115:
 708              		.loc 1 331 15 view .LVU252
 709 0334 22F8020B 		strh	r0, [r2], #2	@ movhi
 710              	.LVL116:
 332:DSP/Source/FilteringFunctions/arm_fir_interpolate_q15.c **** 
 333:DSP/Source/FilteringFunctions/arm_fir_interpolate_q15.c ****       j++;
ARM GAS  /var/folders/ck/g3dcd5x55xs4107jgdl0snvr0000gn/T//ccEUws1d.s 			page 20


 711              		.loc 1 333 7 is_stmt 1 view .LVU253
 712              		.loc 1 333 8 is_stmt 0 view .LVU254
 713 0338 029B     		ldr	r3, [sp, #8]
 714              	.LVL117:
 715              		.loc 1 333 8 view .LVU255
 716 033a 0133     		adds	r3, r3, #1
 717 033c 0293     		str	r3, [sp, #8]
 718              	.LVL118:
 334:DSP/Source/FilteringFunctions/arm_fir_interpolate_q15.c **** 
 335:DSP/Source/FilteringFunctions/arm_fir_interpolate_q15.c ****       /* Decrement the loop counter */
 336:DSP/Source/FilteringFunctions/arm_fir_interpolate_q15.c ****       i--;
 719              		.loc 1 336 7 is_stmt 1 view .LVU256
 720              		.loc 1 336 8 is_stmt 0 view .LVU257
 721 033e 019B     		ldr	r3, [sp, #4]
 722              	.LVL119:
 723              		.loc 1 336 8 view .LVU258
 724 0340 013B     		subs	r3, r3, #1
 725 0342 0193     		str	r3, [sp, #4]
 726              	.LVL120:
 331:DSP/Source/FilteringFunctions/arm_fir_interpolate_q15.c **** 
 727              		.loc 1 331 12 view .LVU259
 728 0344 1746     		mov	r7, r2
 729              	.LVL121:
 730              	.L11:
 238:DSP/Source/FilteringFunctions/arm_fir_interpolate_q15.c ****     {
 731              		.loc 1 238 14 is_stmt 1 view .LVU260
 732 0346 019B     		ldr	r3, [sp, #4]
 733 0348 73B1     		cbz	r3, .L25
 241:DSP/Source/FilteringFunctions/arm_fir_interpolate_q15.c **** 
 734              		.loc 1 241 7 view .LVU261
 735              	.LVL122:
 244:DSP/Source/FilteringFunctions/arm_fir_interpolate_q15.c **** 
 736              		.loc 1 244 7 view .LVU262
 247:DSP/Source/FilteringFunctions/arm_fir_interpolate_q15.c **** 
 737              		.loc 1 247 7 view .LVU263
 247:DSP/Source/FilteringFunctions/arm_fir_interpolate_q15.c **** 
 738              		.loc 1 247 26 is_stmt 0 view .LVU264
 739 034a 9BF80060 		ldrb	r6, [fp]	@ zero_extendqisi2
 247:DSP/Source/FilteringFunctions/arm_fir_interpolate_q15.c **** 
 740              		.loc 1 247 30 view .LVU265
 741 034e 029B     		ldr	r3, [sp, #8]
 742 0350 F51A     		subs	r5, r6, r3
 247:DSP/Source/FilteringFunctions/arm_fir_interpolate_q15.c **** 
 743              		.loc 1 247 12 view .LVU266
 744 0352 069B     		ldr	r3, [sp, #24]
 745 0354 03EB4505 		add	r5, r3, r5, lsl #1
 746              	.LVL123:
 251:DSP/Source/FilteringFunctions/arm_fir_interpolate_q15.c ****       while (tapCnt > 0U)
 747              		.loc 1 251 7 is_stmt 1 view .LVU267
 251:DSP/Source/FilteringFunctions/arm_fir_interpolate_q15.c ****       while (tapCnt > 0U)
 748              		.loc 1 251 25 is_stmt 0 view .LVU268
 749 0358 4FEA9903 		lsr	r3, r9, #2
 750              	.LVL124:
 252:DSP/Source/FilteringFunctions/arm_fir_interpolate_q15.c ****       {
 751              		.loc 1 252 7 is_stmt 1 view .LVU269
 244:DSP/Source/FilteringFunctions/arm_fir_interpolate_q15.c **** 
 752              		.loc 1 244 12 is_stmt 0 view .LVU270
ARM GAS  /var/folders/ck/g3dcd5x55xs4107jgdl0snvr0000gn/T//ccEUws1d.s 			page 21


 753 035c 0399     		ldr	r1, [sp, #12]
 241:DSP/Source/FilteringFunctions/arm_fir_interpolate_q15.c **** 
 754              		.loc 1 241 12 view .LVU271
 755 035e 0020     		movs	r0, #0
 756 0360 0446     		mov	r4, r0
 757 0362 CDF81490 		str	r9, [sp, #20]
 252:DSP/Source/FilteringFunctions/arm_fir_interpolate_q15.c ****       {
 758              		.loc 1 252 13 view .LVU272
 759 0366 C0E7     		b	.L12
 760              	.LVL125:
 761              	.L25:
 337:DSP/Source/FilteringFunctions/arm_fir_interpolate_q15.c ****     }
 338:DSP/Source/FilteringFunctions/arm_fir_interpolate_q15.c **** 
 339:DSP/Source/FilteringFunctions/arm_fir_interpolate_q15.c ****     /* Advance the state pointer by 1
 340:DSP/Source/FilteringFunctions/arm_fir_interpolate_q15.c ****      * to process the next group of interpolation factor number samples */
 341:DSP/Source/FilteringFunctions/arm_fir_interpolate_q15.c ****     pState = pState + 1;
 762              		.loc 1 341 21 view .LVU273
 763 0368 079A     		ldr	r2, [sp, #28]
 764 036a 0899     		ldr	r1, [sp, #32]
 765 036c 6446     		mov	r4, ip
 766 036e 3B46     		mov	r3, r7
 767              	.LVL126:
 768              		.loc 1 341 5 is_stmt 1 view .LVU274
 769              		.loc 1 341 21 is_stmt 0 view .LVU275
 770 0370 0398     		ldr	r0, [sp, #12]
 771 0372 0230     		adds	r0, r0, #2
 772 0374 0390     		str	r0, [sp, #12]
 773              	.LVL127:
 342:DSP/Source/FilteringFunctions/arm_fir_interpolate_q15.c **** 
 343:DSP/Source/FilteringFunctions/arm_fir_interpolate_q15.c ****     /* Decrement the loop counter */
 344:DSP/Source/FilteringFunctions/arm_fir_interpolate_q15.c ****     blkCnt--;
 774              		.loc 1 344 5 is_stmt 1 view .LVU276
 775              		.loc 1 344 11 is_stmt 0 view .LVU277
 776 0376 0139     		subs	r1, r1, #1
 777              	.LVL128:
 778              	.L10:
 228:DSP/Source/FilteringFunctions/arm_fir_interpolate_q15.c ****   {
 779              		.loc 1 228 17 is_stmt 1 view .LVU278
 780 0378 81B1     		cbz	r1, .L26
 231:DSP/Source/FilteringFunctions/arm_fir_interpolate_q15.c **** 
 781              		.loc 1 231 5 view .LVU279
 782              	.LVL129:
 231:DSP/Source/FilteringFunctions/arm_fir_interpolate_q15.c **** 
 783              		.loc 1 231 22 is_stmt 0 view .LVU280
 784 037a 34F9020B 		ldrsh	r0, [r4], #2
 785              	.LVL130:
 231:DSP/Source/FilteringFunctions/arm_fir_interpolate_q15.c **** 
 786              		.loc 1 231 20 view .LVU281
 787 037e 22F8020B 		strh	r0, [r2], #2	@ movhi
 788              	.LVL131:
 234:DSP/Source/FilteringFunctions/arm_fir_interpolate_q15.c **** 
 789              		.loc 1 234 5 is_stmt 1 view .LVU282
 237:DSP/Source/FilteringFunctions/arm_fir_interpolate_q15.c ****     while (i > 0U)
 790              		.loc 1 237 5 view .LVU283
 237:DSP/Source/FilteringFunctions/arm_fir_interpolate_q15.c ****     while (i > 0U)
 791              		.loc 1 237 10 is_stmt 0 view .LVU284
 792 0382 9BF80080 		ldrb	r8, [fp]	@ zero_extendqisi2
ARM GAS  /var/folders/ck/g3dcd5x55xs4107jgdl0snvr0000gn/T//ccEUws1d.s 			page 22


 793              	.LVL132:
 238:DSP/Source/FilteringFunctions/arm_fir_interpolate_q15.c ****     {
 794              		.loc 1 238 5 is_stmt 1 view .LVU285
 234:DSP/Source/FilteringFunctions/arm_fir_interpolate_q15.c **** 
 795              		.loc 1 234 7 is_stmt 0 view .LVU286
 796 0386 4FF0010A 		mov	r10, #1
 797 038a 0792     		str	r2, [sp, #28]
 798 038c CDF80480 		str	r8, [sp, #4]
 799 0390 0891     		str	r1, [sp, #32]
 800 0392 CDF808A0 		str	r10, [sp, #8]
 801 0396 A446     		mov	ip, r4
 802 0398 1F46     		mov	r7, r3
 238:DSP/Source/FilteringFunctions/arm_fir_interpolate_q15.c ****     {
 803              		.loc 1 238 11 view .LVU287
 804 039a D4E7     		b	.L11
 805              	.LVL133:
 806              	.L26:
 345:DSP/Source/FilteringFunctions/arm_fir_interpolate_q15.c ****   }
 346:DSP/Source/FilteringFunctions/arm_fir_interpolate_q15.c **** 
 347:DSP/Source/FilteringFunctions/arm_fir_interpolate_q15.c **** 
 348:DSP/Source/FilteringFunctions/arm_fir_interpolate_q15.c ****   /* Processing is complete.
 349:DSP/Source/FilteringFunctions/arm_fir_interpolate_q15.c ****    ** Now copy the last phaseLen - 1 samples to the satrt of the state buffer.
 350:DSP/Source/FilteringFunctions/arm_fir_interpolate_q15.c ****    ** This prepares the state buffer for the next function call. */
 351:DSP/Source/FilteringFunctions/arm_fir_interpolate_q15.c **** 
 352:DSP/Source/FilteringFunctions/arm_fir_interpolate_q15.c ****   /* Points to the start of the state buffer */
 353:DSP/Source/FilteringFunctions/arm_fir_interpolate_q15.c ****   pStateCurnt = S->pState;
 807              		.loc 1 353 3 is_stmt 1 view .LVU288
 808              		.loc 1 353 18 is_stmt 0 view .LVU289
 809 039c 049B     		ldr	r3, [sp, #16]
 810              	.LVL134:
 811              		.loc 1 353 18 view .LVU290
 812 039e 9A68     		ldr	r2, [r3, #8]
 813              	.LVL135:
 354:DSP/Source/FilteringFunctions/arm_fir_interpolate_q15.c **** 
 355:DSP/Source/FilteringFunctions/arm_fir_interpolate_q15.c ****   i = ((uint32_t) phaseLen - 1U) >> 2U;
 814              		.loc 1 355 3 is_stmt 1 view .LVU291
 815              		.loc 1 355 28 is_stmt 0 view .LVU292
 816 03a0 09F1FF33 		add	r3, r9, #-1
 817              		.loc 1 355 5 view .LVU293
 818 03a4 9C08     		lsrs	r4, r3, #2
 819              	.LVL136:
 356:DSP/Source/FilteringFunctions/arm_fir_interpolate_q15.c **** 
 357:DSP/Source/FilteringFunctions/arm_fir_interpolate_q15.c ****   /* copy data */
 358:DSP/Source/FilteringFunctions/arm_fir_interpolate_q15.c ****   while (i > 0U)
 820              		.loc 1 358 3 is_stmt 1 view .LVU294
 821 03a6 039D     		ldr	r5, [sp, #12]
 822              		.loc 1 358 9 is_stmt 0 view .LVU295
 823 03a8 0AE0     		b	.L18
 824              	.LVL137:
 825              	.L19:
 359:DSP/Source/FilteringFunctions/arm_fir_interpolate_q15.c ****   {
 360:DSP/Source/FilteringFunctions/arm_fir_interpolate_q15.c **** #ifndef UNALIGNED_SUPPORT_DISABLE
 361:DSP/Source/FilteringFunctions/arm_fir_interpolate_q15.c **** 
 362:DSP/Source/FilteringFunctions/arm_fir_interpolate_q15.c ****     *__SIMD32(pStateCurnt)++ = *__SIMD32(pState)++;
 826              		.loc 1 362 5 is_stmt 1 view .LVU296
 827              		.loc 1 362 32 is_stmt 0 view .LVU297
 828 03aa 2946     		mov	r1, r5
ARM GAS  /var/folders/ck/g3dcd5x55xs4107jgdl0snvr0000gn/T//ccEUws1d.s 			page 23


 829 03ac 51F8086B 		ldr	r6, [r1], #8
 830              		.loc 1 362 30 view .LVU298
 831 03b0 1046     		mov	r0, r2
 832 03b2 40F8086B 		str	r6, [r0], #8
 363:DSP/Source/FilteringFunctions/arm_fir_interpolate_q15.c ****     *__SIMD32(pStateCurnt)++ = *__SIMD32(pState)++;
 833              		.loc 1 363 5 is_stmt 1 view .LVU299
 834              	.LVL138:
 835              		.loc 1 363 32 is_stmt 0 view .LVU300
 836 03b6 6D68     		ldr	r5, [r5, #4]
 837              		.loc 1 363 30 view .LVU301
 838 03b8 5560     		str	r5, [r2, #4]
 364:DSP/Source/FilteringFunctions/arm_fir_interpolate_q15.c **** 
 365:DSP/Source/FilteringFunctions/arm_fir_interpolate_q15.c **** #else
 366:DSP/Source/FilteringFunctions/arm_fir_interpolate_q15.c **** 
 367:DSP/Source/FilteringFunctions/arm_fir_interpolate_q15.c ****     *pStateCurnt++ = *pState++;
 368:DSP/Source/FilteringFunctions/arm_fir_interpolate_q15.c **** 	*pStateCurnt++ = *pState++;
 369:DSP/Source/FilteringFunctions/arm_fir_interpolate_q15.c **** 	*pStateCurnt++ = *pState++;
 370:DSP/Source/FilteringFunctions/arm_fir_interpolate_q15.c **** 	*pStateCurnt++ = *pState++;
 371:DSP/Source/FilteringFunctions/arm_fir_interpolate_q15.c **** 
 372:DSP/Source/FilteringFunctions/arm_fir_interpolate_q15.c **** #endif	/*	#ifndef UNALIGNED_SUPPORT_DISABLE	*/
 373:DSP/Source/FilteringFunctions/arm_fir_interpolate_q15.c **** 
 374:DSP/Source/FilteringFunctions/arm_fir_interpolate_q15.c **** 	/* Decrement the loop counter */
 375:DSP/Source/FilteringFunctions/arm_fir_interpolate_q15.c ****     i--;
 839              		.loc 1 375 5 is_stmt 1 view .LVU302
 840              		.loc 1 375 6 is_stmt 0 view .LVU303
 841 03ba 013C     		subs	r4, r4, #1
 842              	.LVL139:
 363:DSP/Source/FilteringFunctions/arm_fir_interpolate_q15.c ****     *__SIMD32(pStateCurnt)++ = *__SIMD32(pState)++;
 843              		.loc 1 363 27 view .LVU304
 844 03bc 0246     		mov	r2, r0
 363:DSP/Source/FilteringFunctions/arm_fir_interpolate_q15.c ****     *__SIMD32(pStateCurnt)++ = *__SIMD32(pState)++;
 845              		.loc 1 363 49 view .LVU305
 846 03be 0D46     		mov	r5, r1
 847              	.LVL140:
 848              	.L18:
 358:DSP/Source/FilteringFunctions/arm_fir_interpolate_q15.c ****   {
 849              		.loc 1 358 12 is_stmt 1 view .LVU306
 850 03c0 002C     		cmp	r4, #0
 851 03c2 F2D1     		bne	.L19
 376:DSP/Source/FilteringFunctions/arm_fir_interpolate_q15.c ****   }
 377:DSP/Source/FilteringFunctions/arm_fir_interpolate_q15.c **** 
 378:DSP/Source/FilteringFunctions/arm_fir_interpolate_q15.c ****   i = ((uint32_t) phaseLen - 1U) % 0x04U;
 852              		.loc 1 378 5 is_stmt 0 view .LVU307
 853 03c4 2946     		mov	r1, r5
 854              		.loc 1 378 3 is_stmt 1 view .LVU308
 855              		.loc 1 378 5 is_stmt 0 view .LVU309
 856 03c6 03F00303 		and	r3, r3, #3
 857              	.LVL141:
 379:DSP/Source/FilteringFunctions/arm_fir_interpolate_q15.c **** 
 380:DSP/Source/FilteringFunctions/arm_fir_interpolate_q15.c ****   while (i > 0U)
 858              		.loc 1 380 3 is_stmt 1 view .LVU310
 859              		.loc 1 380 9 is_stmt 0 view .LVU311
 860 03ca 04E0     		b	.L20
 861              	.LVL142:
 862              	.L21:
 381:DSP/Source/FilteringFunctions/arm_fir_interpolate_q15.c ****   {
 382:DSP/Source/FilteringFunctions/arm_fir_interpolate_q15.c ****     *pStateCurnt++ = *pState++;
ARM GAS  /var/folders/ck/g3dcd5x55xs4107jgdl0snvr0000gn/T//ccEUws1d.s 			page 24


 863              		.loc 1 382 5 is_stmt 1 view .LVU312
 864              		.loc 1 382 22 is_stmt 0 view .LVU313
 865 03cc 31F9020B 		ldrsh	r0, [r1], #2
 866              	.LVL143:
 867              		.loc 1 382 20 view .LVU314
 868 03d0 22F8020B 		strh	r0, [r2], #2	@ movhi
 869              	.LVL144:
 383:DSP/Source/FilteringFunctions/arm_fir_interpolate_q15.c **** 
 384:DSP/Source/FilteringFunctions/arm_fir_interpolate_q15.c ****     /* Decrement the loop counter */
 385:DSP/Source/FilteringFunctions/arm_fir_interpolate_q15.c ****     i--;
 870              		.loc 1 385 5 is_stmt 1 view .LVU315
 871              		.loc 1 385 6 is_stmt 0 view .LVU316
 872 03d4 013B     		subs	r3, r3, #1
 873              	.LVL145:
 874              	.L20:
 380:DSP/Source/FilteringFunctions/arm_fir_interpolate_q15.c ****   {
 875              		.loc 1 380 12 is_stmt 1 view .LVU317
 876 03d6 002B     		cmp	r3, #0
 877 03d8 F8D1     		bne	.L21
 386:DSP/Source/FilteringFunctions/arm_fir_interpolate_q15.c ****   }
 387:DSP/Source/FilteringFunctions/arm_fir_interpolate_q15.c **** }
 878              		.loc 1 387 1 is_stmt 0 view .LVU318
 879 03da 0DB0     		add	sp, sp, #52
 880              	.LCFI2:
 881              		.cfi_def_cfa_offset 36
 882              		@ sp needed
 883 03dc BDE8F08F 		pop	{r4, r5, r6, r7, r8, r9, r10, fp, pc}
 884              		.loc 1 387 1 view .LVU319
 885              		.cfi_endproc
 886              	.LFE139:
 888              		.text
 889              	.Letext0:
 890              		.file 2 "/Users/luban/.local/xPacks/arm-none-eabi-gcc/xpack-arm-none-eabi-gcc-13.2.1-1.1/arm-none-
 891              		.file 3 "/Users/luban/.local/xPacks/arm-none-eabi-gcc/xpack-arm-none-eabi-gcc-13.2.1-1.1/arm-none-
 892              		.file 4 "DSP/Inc/arm_math.h"
ARM GAS  /var/folders/ck/g3dcd5x55xs4107jgdl0snvr0000gn/T//ccEUws1d.s 			page 25

