ARM GAS  /var/folders/ck/g3dcd5x55xs4107jgdl0snvr0000gn/T//ccPOIzFx.s 			page 1


   1              		.cpu cortex-m4
   2              		.arch armv7e-m
   3              		.fpu fpv4-sp-d16
   4              		.eabi_attribute 27, 1
   5              		.eabi_attribute 28, 1
   6              		.eabi_attribute 20, 1
   7              		.eabi_attribute 21, 1
   8              		.eabi_attribute 23, 3
   9              		.eabi_attribute 24, 1
  10              		.eabi_attribute 25, 1
  11              		.eabi_attribute 26, 1
  12              		.eabi_attribute 30, 1
  13              		.eabi_attribute 34, 1
  14              		.eabi_attribute 18, 4
  15              		.file	"arm_max_f32.c"
  16              		.text
  17              	.Ltext0:
  18              		.cfi_sections	.debug_frame
  19              		.file 1 "DSP/Source/StatisticsFunctions/arm_max_f32.c"
  20              		.section	.text.arm_max_f32,"ax",%progbits
  21              		.align	1
  22              		.global	arm_max_f32
  23              		.syntax unified
  24              		.thumb
  25              		.thumb_func
  27              	arm_max_f32:
  28              	.LVL0:
  29              	.LFB139:
   1:DSP/Source/StatisticsFunctions/arm_max_f32.c **** /* ----------------------------------------------------------------------
   2:DSP/Source/StatisticsFunctions/arm_max_f32.c ****  * Project:      CMSIS DSP Library
   3:DSP/Source/StatisticsFunctions/arm_max_f32.c ****  * Title:        arm_max_f32.c
   4:DSP/Source/StatisticsFunctions/arm_max_f32.c ****  * Description:  Maximum value of a floating-point vector
   5:DSP/Source/StatisticsFunctions/arm_max_f32.c ****  *
   6:DSP/Source/StatisticsFunctions/arm_max_f32.c ****  * $Date:        27. January 2017
   7:DSP/Source/StatisticsFunctions/arm_max_f32.c ****  * $Revision:    V.1.5.1
   8:DSP/Source/StatisticsFunctions/arm_max_f32.c ****  *
   9:DSP/Source/StatisticsFunctions/arm_max_f32.c ****  * Target Processor: Cortex-M cores
  10:DSP/Source/StatisticsFunctions/arm_max_f32.c ****  * -------------------------------------------------------------------- */
  11:DSP/Source/StatisticsFunctions/arm_max_f32.c **** /*
  12:DSP/Source/StatisticsFunctions/arm_max_f32.c ****  * Copyright (C) 2010-2017 ARM Limited or its affiliates. All rights reserved.
  13:DSP/Source/StatisticsFunctions/arm_max_f32.c ****  *
  14:DSP/Source/StatisticsFunctions/arm_max_f32.c ****  * SPDX-License-Identifier: Apache-2.0
  15:DSP/Source/StatisticsFunctions/arm_max_f32.c ****  *
  16:DSP/Source/StatisticsFunctions/arm_max_f32.c ****  * Licensed under the Apache License, Version 2.0 (the License); you may
  17:DSP/Source/StatisticsFunctions/arm_max_f32.c ****  * not use this file except in compliance with the License.
  18:DSP/Source/StatisticsFunctions/arm_max_f32.c ****  * You may obtain a copy of the License at
  19:DSP/Source/StatisticsFunctions/arm_max_f32.c ****  *
  20:DSP/Source/StatisticsFunctions/arm_max_f32.c ****  * www.apache.org/licenses/LICENSE-2.0
  21:DSP/Source/StatisticsFunctions/arm_max_f32.c ****  *
  22:DSP/Source/StatisticsFunctions/arm_max_f32.c ****  * Unless required by applicable law or agreed to in writing, software
  23:DSP/Source/StatisticsFunctions/arm_max_f32.c ****  * distributed under the License is distributed on an AS IS BASIS, WITHOUT
  24:DSP/Source/StatisticsFunctions/arm_max_f32.c ****  * WARRANTIES OR CONDITIONS OF ANY KIND, either express or implied.
  25:DSP/Source/StatisticsFunctions/arm_max_f32.c ****  * See the License for the specific language governing permissions and
  26:DSP/Source/StatisticsFunctions/arm_max_f32.c ****  * limitations under the License.
  27:DSP/Source/StatisticsFunctions/arm_max_f32.c ****  */
  28:DSP/Source/StatisticsFunctions/arm_max_f32.c **** 
  29:DSP/Source/StatisticsFunctions/arm_max_f32.c **** #include "arm_math.h"
ARM GAS  /var/folders/ck/g3dcd5x55xs4107jgdl0snvr0000gn/T//ccPOIzFx.s 			page 2


  30:DSP/Source/StatisticsFunctions/arm_max_f32.c **** 
  31:DSP/Source/StatisticsFunctions/arm_max_f32.c **** /**
  32:DSP/Source/StatisticsFunctions/arm_max_f32.c ****  * @ingroup groupStats
  33:DSP/Source/StatisticsFunctions/arm_max_f32.c ****  */
  34:DSP/Source/StatisticsFunctions/arm_max_f32.c **** 
  35:DSP/Source/StatisticsFunctions/arm_max_f32.c **** /**
  36:DSP/Source/StatisticsFunctions/arm_max_f32.c ****  * @defgroup Max Maximum
  37:DSP/Source/StatisticsFunctions/arm_max_f32.c ****  *
  38:DSP/Source/StatisticsFunctions/arm_max_f32.c ****  * Computes the maximum value of an array of data.
  39:DSP/Source/StatisticsFunctions/arm_max_f32.c ****  * The function returns both the maximum value and its position within the array.
  40:DSP/Source/StatisticsFunctions/arm_max_f32.c ****  * There are separate functions for floating-point, Q31, Q15, and Q7 data types.
  41:DSP/Source/StatisticsFunctions/arm_max_f32.c ****  */
  42:DSP/Source/StatisticsFunctions/arm_max_f32.c **** 
  43:DSP/Source/StatisticsFunctions/arm_max_f32.c **** /**
  44:DSP/Source/StatisticsFunctions/arm_max_f32.c ****  * @addtogroup Max
  45:DSP/Source/StatisticsFunctions/arm_max_f32.c ****  * @{
  46:DSP/Source/StatisticsFunctions/arm_max_f32.c ****  */
  47:DSP/Source/StatisticsFunctions/arm_max_f32.c **** 
  48:DSP/Source/StatisticsFunctions/arm_max_f32.c **** 
  49:DSP/Source/StatisticsFunctions/arm_max_f32.c **** /**
  50:DSP/Source/StatisticsFunctions/arm_max_f32.c ****  * @brief Maximum value of a floating-point vector.
  51:DSP/Source/StatisticsFunctions/arm_max_f32.c ****  * @param[in]       *pSrc points to the input vector
  52:DSP/Source/StatisticsFunctions/arm_max_f32.c ****  * @param[in]       blockSize length of the input vector
  53:DSP/Source/StatisticsFunctions/arm_max_f32.c ****  * @param[out]      *pResult maximum value returned here
  54:DSP/Source/StatisticsFunctions/arm_max_f32.c ****  * @param[out]      *pIndex index of maximum value returned here
  55:DSP/Source/StatisticsFunctions/arm_max_f32.c ****  * @return none.
  56:DSP/Source/StatisticsFunctions/arm_max_f32.c ****  */
  57:DSP/Source/StatisticsFunctions/arm_max_f32.c **** 
  58:DSP/Source/StatisticsFunctions/arm_max_f32.c **** void arm_max_f32(
  59:DSP/Source/StatisticsFunctions/arm_max_f32.c ****   float32_t * pSrc,
  60:DSP/Source/StatisticsFunctions/arm_max_f32.c ****   uint32_t blockSize,
  61:DSP/Source/StatisticsFunctions/arm_max_f32.c ****   float32_t * pResult,
  62:DSP/Source/StatisticsFunctions/arm_max_f32.c ****   uint32_t * pIndex)
  63:DSP/Source/StatisticsFunctions/arm_max_f32.c **** {
  30              		.loc 1 63 1 view -0
  31              		.cfi_startproc
  32              		@ args = 0, pretend = 0, frame = 0
  33              		@ frame_needed = 0, uses_anonymous_args = 0
  34              		.loc 1 63 1 is_stmt 0 view .LVU1
  35 0000 70B5     		push	{r4, r5, r6, lr}
  36              	.LCFI0:
  37              		.cfi_def_cfa_offset 16
  38              		.cfi_offset 4, -16
  39              		.cfi_offset 5, -12
  40              		.cfi_offset 6, -8
  41              		.cfi_offset 14, -4
  64:DSP/Source/StatisticsFunctions/arm_max_f32.c **** #if defined (ARM_MATH_DSP)
  65:DSP/Source/StatisticsFunctions/arm_max_f32.c ****   /* Run the below code for Cortex-M4 and Cortex-M3 */
  66:DSP/Source/StatisticsFunctions/arm_max_f32.c **** 
  67:DSP/Source/StatisticsFunctions/arm_max_f32.c ****   float32_t maxVal1, maxVal2, out;               /* Temporary variables to store the output value. 
  42              		.loc 1 67 3 is_stmt 1 view .LVU2
  68:DSP/Source/StatisticsFunctions/arm_max_f32.c ****   uint32_t blkCnt, outIndex, count;              /* loop counter */
  43              		.loc 1 68 3 view .LVU3
  69:DSP/Source/StatisticsFunctions/arm_max_f32.c **** 
  70:DSP/Source/StatisticsFunctions/arm_max_f32.c ****   /* Initialise the count value. */
  71:DSP/Source/StatisticsFunctions/arm_max_f32.c ****   count = 0U;
  44              		.loc 1 71 3 view .LVU4
ARM GAS  /var/folders/ck/g3dcd5x55xs4107jgdl0snvr0000gn/T//ccPOIzFx.s 			page 3


  45              	.LVL1:
  72:DSP/Source/StatisticsFunctions/arm_max_f32.c ****   /* Initialise the index value to zero. */
  73:DSP/Source/StatisticsFunctions/arm_max_f32.c ****   outIndex = 0U;
  46              		.loc 1 73 3 view .LVU5
  74:DSP/Source/StatisticsFunctions/arm_max_f32.c ****   /* Load first input value that act as reference value for comparision */
  75:DSP/Source/StatisticsFunctions/arm_max_f32.c ****   out = *pSrc++;
  47              		.loc 1 75 3 view .LVU6
  48              		.loc 1 75 7 is_stmt 0 view .LVU7
  49 0002 F0EC017A 		vldmia.32	r0!, {s15}
  50              	.LVL2:
  76:DSP/Source/StatisticsFunctions/arm_max_f32.c **** 
  77:DSP/Source/StatisticsFunctions/arm_max_f32.c ****   /* Loop unrolling */
  78:DSP/Source/StatisticsFunctions/arm_max_f32.c ****   blkCnt = (blockSize - 1U) >> 2U;
  51              		.loc 1 78 3 is_stmt 1 view .LVU8
  52              		.loc 1 78 23 is_stmt 0 view .LVU9
  53 0006 4C1E     		subs	r4, r1, #1
  54              		.loc 1 78 10 view .LVU10
  55 0008 A508     		lsrs	r5, r4, #2
  56              	.LVL3:
  79:DSP/Source/StatisticsFunctions/arm_max_f32.c **** 
  80:DSP/Source/StatisticsFunctions/arm_max_f32.c ****   while (blkCnt > 0U)
  57              		.loc 1 80 3 is_stmt 1 view .LVU11
  71:DSP/Source/StatisticsFunctions/arm_max_f32.c ****   /* Initialise the index value to zero. */
  58              		.loc 1 71 9 is_stmt 0 view .LVU12
  59 000a 4FF0000C 		mov	ip, #0
  73:DSP/Source/StatisticsFunctions/arm_max_f32.c ****   /* Load first input value that act as reference value for comparision */
  60              		.loc 1 73 12 view .LVU13
  61 000e 6646     		mov	r6, ip
  62              		.loc 1 80 9 view .LVU14
  63 0010 03E0     		b	.L2
  64              	.LVL4:
  65              	.L9:
  81:DSP/Source/StatisticsFunctions/arm_max_f32.c ****   {
  82:DSP/Source/StatisticsFunctions/arm_max_f32.c ****     /* Initialize maxVal to the next consecutive values one by one */
  83:DSP/Source/StatisticsFunctions/arm_max_f32.c ****     maxVal1 = *pSrc++;
  84:DSP/Source/StatisticsFunctions/arm_max_f32.c ****     maxVal2 = *pSrc++;
  85:DSP/Source/StatisticsFunctions/arm_max_f32.c **** 
  86:DSP/Source/StatisticsFunctions/arm_max_f32.c ****     /* compare for the maximum value */
  87:DSP/Source/StatisticsFunctions/arm_max_f32.c ****     if (out < maxVal1)
  88:DSP/Source/StatisticsFunctions/arm_max_f32.c ****     {
  89:DSP/Source/StatisticsFunctions/arm_max_f32.c ****       /* Update the maximum value and its index */
  90:DSP/Source/StatisticsFunctions/arm_max_f32.c ****       out = maxVal1;
  91:DSP/Source/StatisticsFunctions/arm_max_f32.c ****       outIndex = count + 1U;
  92:DSP/Source/StatisticsFunctions/arm_max_f32.c ****     }
  93:DSP/Source/StatisticsFunctions/arm_max_f32.c **** 
  94:DSP/Source/StatisticsFunctions/arm_max_f32.c ****     /* compare for the maximum value */
  95:DSP/Source/StatisticsFunctions/arm_max_f32.c ****     if (out < maxVal2)
  96:DSP/Source/StatisticsFunctions/arm_max_f32.c ****     {
  97:DSP/Source/StatisticsFunctions/arm_max_f32.c ****       /* Update the maximum value and its index */
  98:DSP/Source/StatisticsFunctions/arm_max_f32.c ****       out = maxVal2;
  99:DSP/Source/StatisticsFunctions/arm_max_f32.c ****       outIndex = count + 2U;
 100:DSP/Source/StatisticsFunctions/arm_max_f32.c ****     }
 101:DSP/Source/StatisticsFunctions/arm_max_f32.c **** 
 102:DSP/Source/StatisticsFunctions/arm_max_f32.c ****     /* Initialize maxVal to the next consecutive values one by one */
 103:DSP/Source/StatisticsFunctions/arm_max_f32.c ****     maxVal1 = *pSrc++;
 104:DSP/Source/StatisticsFunctions/arm_max_f32.c ****     maxVal2 = *pSrc++;
 105:DSP/Source/StatisticsFunctions/arm_max_f32.c **** 
ARM GAS  /var/folders/ck/g3dcd5x55xs4107jgdl0snvr0000gn/T//ccPOIzFx.s 			page 4


 106:DSP/Source/StatisticsFunctions/arm_max_f32.c ****     /* compare for the maximum value */
 107:DSP/Source/StatisticsFunctions/arm_max_f32.c ****     if (out < maxVal1)
 108:DSP/Source/StatisticsFunctions/arm_max_f32.c ****     {
 109:DSP/Source/StatisticsFunctions/arm_max_f32.c ****       /* Update the maximum value and its index */
 110:DSP/Source/StatisticsFunctions/arm_max_f32.c ****       out = maxVal1;
 111:DSP/Source/StatisticsFunctions/arm_max_f32.c ****       outIndex = count + 3U;
 112:DSP/Source/StatisticsFunctions/arm_max_f32.c ****     }
 113:DSP/Source/StatisticsFunctions/arm_max_f32.c **** 
 114:DSP/Source/StatisticsFunctions/arm_max_f32.c ****     /* compare for the maximum value */
 115:DSP/Source/StatisticsFunctions/arm_max_f32.c ****     if (out < maxVal2)
 116:DSP/Source/StatisticsFunctions/arm_max_f32.c ****     {
 117:DSP/Source/StatisticsFunctions/arm_max_f32.c ****       /* Update the maximum value and its index */
 118:DSP/Source/StatisticsFunctions/arm_max_f32.c ****       out = maxVal2;
 119:DSP/Source/StatisticsFunctions/arm_max_f32.c ****       outIndex = count + 4U;
 120:DSP/Source/StatisticsFunctions/arm_max_f32.c ****     }
 121:DSP/Source/StatisticsFunctions/arm_max_f32.c **** 
 122:DSP/Source/StatisticsFunctions/arm_max_f32.c ****     count += 4U;
  66              		.loc 1 122 5 is_stmt 1 view .LVU15
  67              		.loc 1 122 11 is_stmt 0 view .LVU16
  68 0012 0CF1040C 		add	ip, ip, #4
  69              	.LVL5:
 123:DSP/Source/StatisticsFunctions/arm_max_f32.c **** 
 124:DSP/Source/StatisticsFunctions/arm_max_f32.c ****     /* Decrement the loop counter */
 125:DSP/Source/StatisticsFunctions/arm_max_f32.c ****     blkCnt--;
  70              		.loc 1 125 5 is_stmt 1 view .LVU17
  71              		.loc 1 125 11 is_stmt 0 view .LVU18
  72 0016 013D     		subs	r5, r5, #1
  73              	.LVL6:
 104:DSP/Source/StatisticsFunctions/arm_max_f32.c **** 
  74              		.loc 1 104 20 view .LVU19
  75 0018 7046     		mov	r0, lr
  76              	.LVL7:
  77              	.L2:
  80:DSP/Source/StatisticsFunctions/arm_max_f32.c ****   {
  78              		.loc 1 80 17 is_stmt 1 view .LVU20
  79 001a 75B3     		cbz	r5, .L22
  83:DSP/Source/StatisticsFunctions/arm_max_f32.c ****     maxVal2 = *pSrc++;
  80              		.loc 1 83 5 view .LVU21
  81              	.LVL8:
  83:DSP/Source/StatisticsFunctions/arm_max_f32.c ****     maxVal2 = *pSrc++;
  82              		.loc 1 83 13 is_stmt 0 view .LVU22
  83 001c D0ED006A 		vldr.32	s13, [r0]
  84              	.LVL9:
  84:DSP/Source/StatisticsFunctions/arm_max_f32.c **** 
  85              		.loc 1 84 5 is_stmt 1 view .LVU23
  84:DSP/Source/StatisticsFunctions/arm_max_f32.c **** 
  86              		.loc 1 84 13 is_stmt 0 view .LVU24
  87 0020 90ED017A 		vldr.32	s14, [r0, #4]
  88              	.LVL10:
  87:DSP/Source/StatisticsFunctions/arm_max_f32.c ****     {
  89              		.loc 1 87 5 is_stmt 1 view .LVU25
  87:DSP/Source/StatisticsFunctions/arm_max_f32.c ****     {
  90              		.loc 1 87 8 is_stmt 0 view .LVU26
  91 0024 F4EEE67A 		vcmpe.f32	s15, s13
  92 0028 F1EE10FA 		vmrs	APSR_nzcv, FPSCR
  93 002c 03D5     		bpl	.L3
  90:DSP/Source/StatisticsFunctions/arm_max_f32.c ****       outIndex = count + 1U;
ARM GAS  /var/folders/ck/g3dcd5x55xs4107jgdl0snvr0000gn/T//ccPOIzFx.s 			page 5


  94              		.loc 1 90 7 is_stmt 1 view .LVU27
  95              	.LVL11:
  91:DSP/Source/StatisticsFunctions/arm_max_f32.c ****     }
  96              		.loc 1 91 7 view .LVU28
  91:DSP/Source/StatisticsFunctions/arm_max_f32.c ****     }
  97              		.loc 1 91 16 is_stmt 0 view .LVU29
  98 002e 0CF10106 		add	r6, ip, #1
  99              	.LVL12:
  90:DSP/Source/StatisticsFunctions/arm_max_f32.c ****       outIndex = count + 1U;
 100              		.loc 1 90 11 view .LVU30
 101 0032 F0EE667A 		vmov.f32	s15, s13
 102              	.LVL13:
 103              	.L3:
  95:DSP/Source/StatisticsFunctions/arm_max_f32.c ****     {
 104              		.loc 1 95 5 is_stmt 1 view .LVU31
  95:DSP/Source/StatisticsFunctions/arm_max_f32.c ****     {
 105              		.loc 1 95 8 is_stmt 0 view .LVU32
 106 0036 F4EEC77A 		vcmpe.f32	s15, s14
 107 003a F1EE10FA 		vmrs	APSR_nzcv, FPSCR
 108 003e 03D5     		bpl	.L5
  98:DSP/Source/StatisticsFunctions/arm_max_f32.c ****       outIndex = count + 2U;
 109              		.loc 1 98 7 is_stmt 1 view .LVU33
 110              	.LVL14:
  99:DSP/Source/StatisticsFunctions/arm_max_f32.c ****     }
 111              		.loc 1 99 7 view .LVU34
  99:DSP/Source/StatisticsFunctions/arm_max_f32.c ****     }
 112              		.loc 1 99 16 is_stmt 0 view .LVU35
 113 0040 0CF10206 		add	r6, ip, #2
 114              	.LVL15:
  98:DSP/Source/StatisticsFunctions/arm_max_f32.c ****       outIndex = count + 2U;
 115              		.loc 1 98 11 view .LVU36
 116 0044 F0EE477A 		vmov.f32	s15, s14
 117              	.LVL16:
 118              	.L5:
 103:DSP/Source/StatisticsFunctions/arm_max_f32.c ****     maxVal2 = *pSrc++;
 119              		.loc 1 103 5 is_stmt 1 view .LVU37
 103:DSP/Source/StatisticsFunctions/arm_max_f32.c ****     maxVal2 = *pSrc++;
 120              		.loc 1 103 13 is_stmt 0 view .LVU38
 121 0048 D0ED026A 		vldr.32	s13, [r0, #8]
 122              	.LVL17:
 104:DSP/Source/StatisticsFunctions/arm_max_f32.c **** 
 123              		.loc 1 104 5 is_stmt 1 view .LVU39
 104:DSP/Source/StatisticsFunctions/arm_max_f32.c **** 
 124              		.loc 1 104 20 is_stmt 0 view .LVU40
 125 004c 00F1100E 		add	lr, r0, #16
 126              	.LVL18:
 104:DSP/Source/StatisticsFunctions/arm_max_f32.c **** 
 127              		.loc 1 104 13 view .LVU41
 128 0050 90ED037A 		vldr.32	s14, [r0, #12]
 129              	.LVL19:
 107:DSP/Source/StatisticsFunctions/arm_max_f32.c ****     {
 130              		.loc 1 107 5 is_stmt 1 view .LVU42
 107:DSP/Source/StatisticsFunctions/arm_max_f32.c ****     {
 131              		.loc 1 107 8 is_stmt 0 view .LVU43
 132 0054 F4EEE67A 		vcmpe.f32	s15, s13
 133 0058 F1EE10FA 		vmrs	APSR_nzcv, FPSCR
 134 005c 03D5     		bpl	.L7
ARM GAS  /var/folders/ck/g3dcd5x55xs4107jgdl0snvr0000gn/T//ccPOIzFx.s 			page 6


 110:DSP/Source/StatisticsFunctions/arm_max_f32.c ****       outIndex = count + 3U;
 135              		.loc 1 110 7 is_stmt 1 view .LVU44
 136              	.LVL20:
 111:DSP/Source/StatisticsFunctions/arm_max_f32.c ****     }
 137              		.loc 1 111 7 view .LVU45
 111:DSP/Source/StatisticsFunctions/arm_max_f32.c ****     }
 138              		.loc 1 111 16 is_stmt 0 view .LVU46
 139 005e 0CF10306 		add	r6, ip, #3
 140              	.LVL21:
 110:DSP/Source/StatisticsFunctions/arm_max_f32.c ****       outIndex = count + 3U;
 141              		.loc 1 110 11 view .LVU47
 142 0062 F0EE667A 		vmov.f32	s15, s13
 143              	.LVL22:
 144              	.L7:
 115:DSP/Source/StatisticsFunctions/arm_max_f32.c ****     {
 145              		.loc 1 115 5 is_stmt 1 view .LVU48
 115:DSP/Source/StatisticsFunctions/arm_max_f32.c ****     {
 146              		.loc 1 115 8 is_stmt 0 view .LVU49
 147 0066 F4EEC77A 		vcmpe.f32	s15, s14
 148 006a F1EE10FA 		vmrs	APSR_nzcv, FPSCR
 149 006e D0D5     		bpl	.L9
 118:DSP/Source/StatisticsFunctions/arm_max_f32.c ****       outIndex = count + 4U;
 150              		.loc 1 118 7 is_stmt 1 view .LVU50
 151              	.LVL23:
 119:DSP/Source/StatisticsFunctions/arm_max_f32.c ****     }
 152              		.loc 1 119 7 view .LVU51
 119:DSP/Source/StatisticsFunctions/arm_max_f32.c ****     }
 153              		.loc 1 119 16 is_stmt 0 view .LVU52
 154 0070 0CF10406 		add	r6, ip, #4
 155              	.LVL24:
 118:DSP/Source/StatisticsFunctions/arm_max_f32.c ****       outIndex = count + 4U;
 156              		.loc 1 118 11 view .LVU53
 157 0074 F0EE477A 		vmov.f32	s15, s14
 158 0078 CBE7     		b	.L9
 159              	.LVL25:
 160              	.L22:
 126:DSP/Source/StatisticsFunctions/arm_max_f32.c ****   }
 127:DSP/Source/StatisticsFunctions/arm_max_f32.c **** 
 128:DSP/Source/StatisticsFunctions/arm_max_f32.c ****   /* if (blockSize - 1U) is not multiple of 4 */
 129:DSP/Source/StatisticsFunctions/arm_max_f32.c ****   blkCnt = (blockSize - 1U) % 4U;
 161              		.loc 1 129 3 is_stmt 1 view .LVU54
 162              		.loc 1 129 10 is_stmt 0 view .LVU55
 163 007a 04F00304 		and	r4, r4, #3
 164              	.LVL26:
 130:DSP/Source/StatisticsFunctions/arm_max_f32.c **** 
 131:DSP/Source/StatisticsFunctions/arm_max_f32.c **** #else
 132:DSP/Source/StatisticsFunctions/arm_max_f32.c ****   /* Run the below code for Cortex-M0 */
 133:DSP/Source/StatisticsFunctions/arm_max_f32.c **** 
 134:DSP/Source/StatisticsFunctions/arm_max_f32.c ****   float32_t maxVal1, out;                        /* Temporary variables to store the output value. 
 135:DSP/Source/StatisticsFunctions/arm_max_f32.c ****   uint32_t blkCnt, outIndex;                     /* loop counter */
 136:DSP/Source/StatisticsFunctions/arm_max_f32.c **** 
 137:DSP/Source/StatisticsFunctions/arm_max_f32.c ****   /* Initialise the index value to zero. */
 138:DSP/Source/StatisticsFunctions/arm_max_f32.c ****   outIndex = 0U;
 139:DSP/Source/StatisticsFunctions/arm_max_f32.c ****   /* Load first input value that act as reference value for comparision */
 140:DSP/Source/StatisticsFunctions/arm_max_f32.c ****   out = *pSrc++;
 141:DSP/Source/StatisticsFunctions/arm_max_f32.c **** 
 142:DSP/Source/StatisticsFunctions/arm_max_f32.c ****   blkCnt = (blockSize - 1U);
ARM GAS  /var/folders/ck/g3dcd5x55xs4107jgdl0snvr0000gn/T//ccPOIzFx.s 			page 7


 143:DSP/Source/StatisticsFunctions/arm_max_f32.c **** 
 144:DSP/Source/StatisticsFunctions/arm_max_f32.c **** #endif /* #if defined (ARM_MATH_DSP) */
 145:DSP/Source/StatisticsFunctions/arm_max_f32.c **** 
 146:DSP/Source/StatisticsFunctions/arm_max_f32.c ****   while (blkCnt > 0U)
 165              		.loc 1 146 3 is_stmt 1 view .LVU56
 166              		.loc 1 146 9 is_stmt 0 view .LVU57
 167 007e 00E0     		b	.L12
 168              	.LVL27:
 169              	.L13:
 147:DSP/Source/StatisticsFunctions/arm_max_f32.c ****   {
 148:DSP/Source/StatisticsFunctions/arm_max_f32.c ****     /* Initialize maxVal to the next consecutive values one by one */
 149:DSP/Source/StatisticsFunctions/arm_max_f32.c ****     maxVal1 = *pSrc++;
 150:DSP/Source/StatisticsFunctions/arm_max_f32.c **** 
 151:DSP/Source/StatisticsFunctions/arm_max_f32.c ****     /* compare for the maximum value */
 152:DSP/Source/StatisticsFunctions/arm_max_f32.c ****     if (out < maxVal1)
 153:DSP/Source/StatisticsFunctions/arm_max_f32.c ****     {
 154:DSP/Source/StatisticsFunctions/arm_max_f32.c ****       /* Update the maximum value and it's index */
 155:DSP/Source/StatisticsFunctions/arm_max_f32.c ****       out = maxVal1;
 156:DSP/Source/StatisticsFunctions/arm_max_f32.c ****       outIndex = blockSize - blkCnt;
 157:DSP/Source/StatisticsFunctions/arm_max_f32.c ****     }
 158:DSP/Source/StatisticsFunctions/arm_max_f32.c **** 
 159:DSP/Source/StatisticsFunctions/arm_max_f32.c ****     /* Decrement the loop counter */
 160:DSP/Source/StatisticsFunctions/arm_max_f32.c ****     blkCnt--;
 170              		.loc 1 160 5 is_stmt 1 view .LVU58
 171              		.loc 1 160 11 is_stmt 0 view .LVU59
 172 0080 013C     		subs	r4, r4, #1
 173              	.LVL28:
 174              	.L12:
 146:DSP/Source/StatisticsFunctions/arm_max_f32.c ****   {
 175              		.loc 1 146 17 is_stmt 1 view .LVU60
 176 0082 54B1     		cbz	r4, .L23
 149:DSP/Source/StatisticsFunctions/arm_max_f32.c **** 
 177              		.loc 1 149 5 view .LVU61
 178              	.LVL29:
 149:DSP/Source/StatisticsFunctions/arm_max_f32.c **** 
 179              		.loc 1 149 13 is_stmt 0 view .LVU62
 180 0084 B0EC017A 		vldmia.32	r0!, {s14}
 181              	.LVL30:
 152:DSP/Source/StatisticsFunctions/arm_max_f32.c ****     {
 182              		.loc 1 152 5 is_stmt 1 view .LVU63
 152:DSP/Source/StatisticsFunctions/arm_max_f32.c ****     {
 183              		.loc 1 152 8 is_stmt 0 view .LVU64
 184 0088 F4EEC77A 		vcmpe.f32	s15, s14
 185 008c F1EE10FA 		vmrs	APSR_nzcv, FPSCR
 186 0090 F6D5     		bpl	.L13
 155:DSP/Source/StatisticsFunctions/arm_max_f32.c ****       outIndex = blockSize - blkCnt;
 187              		.loc 1 155 7 is_stmt 1 view .LVU65
 188              	.LVL31:
 156:DSP/Source/StatisticsFunctions/arm_max_f32.c ****     }
 189              		.loc 1 156 7 view .LVU66
 156:DSP/Source/StatisticsFunctions/arm_max_f32.c ****     }
 190              		.loc 1 156 16 is_stmt 0 view .LVU67
 191 0092 0E1B     		subs	r6, r1, r4
 192              	.LVL32:
 155:DSP/Source/StatisticsFunctions/arm_max_f32.c ****       outIndex = blockSize - blkCnt;
 193              		.loc 1 155 11 view .LVU68
 194 0094 F0EE477A 		vmov.f32	s15, s14
ARM GAS  /var/folders/ck/g3dcd5x55xs4107jgdl0snvr0000gn/T//ccPOIzFx.s 			page 8


 195 0098 F2E7     		b	.L13
 196              	.LVL33:
 197              	.L23:
 161:DSP/Source/StatisticsFunctions/arm_max_f32.c ****   }
 162:DSP/Source/StatisticsFunctions/arm_max_f32.c **** 
 163:DSP/Source/StatisticsFunctions/arm_max_f32.c ****   /* Store the maximum value and it's index into destination pointers */
 164:DSP/Source/StatisticsFunctions/arm_max_f32.c ****   *pResult = out;
 198              		.loc 1 164 3 is_stmt 1 view .LVU69
 199              		.loc 1 164 12 is_stmt 0 view .LVU70
 200 009a C2ED007A 		vstr.32	s15, [r2]
 165:DSP/Source/StatisticsFunctions/arm_max_f32.c ****   *pIndex = outIndex;
 201              		.loc 1 165 3 is_stmt 1 view .LVU71
 202              		.loc 1 165 11 is_stmt 0 view .LVU72
 203 009e 1E60     		str	r6, [r3]
 166:DSP/Source/StatisticsFunctions/arm_max_f32.c **** }
 204              		.loc 1 166 1 view .LVU73
 205 00a0 70BD     		pop	{r4, r5, r6, pc}
 206              		.loc 1 166 1 view .LVU74
 207              		.cfi_endproc
 208              	.LFE139:
 210              		.text
 211              	.Letext0:
 212              		.file 2 "/Users/luban/.local/xPacks/arm-none-eabi-gcc/xpack-arm-none-eabi-gcc-13.2.1-1.1/arm-none-
 213              		.file 3 "/Users/luban/.local/xPacks/arm-none-eabi-gcc/xpack-arm-none-eabi-gcc-13.2.1-1.1/arm-none-
 214              		.file 4 "DSP/Inc/arm_math.h"
ARM GAS  /var/folders/ck/g3dcd5x55xs4107jgdl0snvr0000gn/T//ccPOIzFx.s 			page 9

