ARM GAS  /var/folders/ck/g3dcd5x55xs4107jgdl0snvr0000gn/T//cc4d5yUa.s 			page 1


   1              		.cpu cortex-m4
   2              		.arch armv7e-m
   3              		.fpu fpv4-sp-d16
   4              		.eabi_attribute 27, 1
   5              		.eabi_attribute 28, 1
   6              		.eabi_attribute 20, 1
   7              		.eabi_attribute 21, 1
   8              		.eabi_attribute 23, 3
   9              		.eabi_attribute 24, 1
  10              		.eabi_attribute 25, 1
  11              		.eabi_attribute 26, 1
  12              		.eabi_attribute 30, 1
  13              		.eabi_attribute 34, 1
  14              		.eabi_attribute 18, 4
  15              		.file	"arm_biquad_cascade_stereo_df2T_f32.c"
  16              		.text
  17              	.Ltext0:
  18              		.cfi_sections	.debug_frame
  19              		.file 1 "DSP/Source/FilteringFunctions/arm_biquad_cascade_stereo_df2T_f32.c"
  20              		.section	.text.arm_biquad_cascade_stereo_df2T_f32,"ax",%progbits
  21              		.align	1
  22              		.global	arm_biquad_cascade_stereo_df2T_f32
  23              		.syntax unified
  24              		.thumb
  25              		.thumb_func
  27              	arm_biquad_cascade_stereo_df2T_f32:
  28              	.LVL0:
  29              	.LFB139:
   1:DSP/Source/FilteringFunctions/arm_biquad_cascade_stereo_df2T_f32.c **** /* ----------------------------------------------------------------------
   2:DSP/Source/FilteringFunctions/arm_biquad_cascade_stereo_df2T_f32.c ****  * Project:      CMSIS DSP Library
   3:DSP/Source/FilteringFunctions/arm_biquad_cascade_stereo_df2T_f32.c ****  * Title:        arm_biquad_cascade_stereo_df2T_f32.c
   4:DSP/Source/FilteringFunctions/arm_biquad_cascade_stereo_df2T_f32.c ****  * Description:  Processing function for floating-point transposed direct form II Biquad cascade fi
   5:DSP/Source/FilteringFunctions/arm_biquad_cascade_stereo_df2T_f32.c ****  *
   6:DSP/Source/FilteringFunctions/arm_biquad_cascade_stereo_df2T_f32.c ****  * $Date:        27. January 2017
   7:DSP/Source/FilteringFunctions/arm_biquad_cascade_stereo_df2T_f32.c ****  * $Revision:    V.1.5.1
   8:DSP/Source/FilteringFunctions/arm_biquad_cascade_stereo_df2T_f32.c ****  *
   9:DSP/Source/FilteringFunctions/arm_biquad_cascade_stereo_df2T_f32.c ****  * Target Processor: Cortex-M cores
  10:DSP/Source/FilteringFunctions/arm_biquad_cascade_stereo_df2T_f32.c ****  * -------------------------------------------------------------------- */
  11:DSP/Source/FilteringFunctions/arm_biquad_cascade_stereo_df2T_f32.c **** /*
  12:DSP/Source/FilteringFunctions/arm_biquad_cascade_stereo_df2T_f32.c ****  * Copyright (C) 2010-2017 ARM Limited or its affiliates. All rights reserved.
  13:DSP/Source/FilteringFunctions/arm_biquad_cascade_stereo_df2T_f32.c ****  *
  14:DSP/Source/FilteringFunctions/arm_biquad_cascade_stereo_df2T_f32.c ****  * SPDX-License-Identifier: Apache-2.0
  15:DSP/Source/FilteringFunctions/arm_biquad_cascade_stereo_df2T_f32.c ****  *
  16:DSP/Source/FilteringFunctions/arm_biquad_cascade_stereo_df2T_f32.c ****  * Licensed under the Apache License, Version 2.0 (the License); you may
  17:DSP/Source/FilteringFunctions/arm_biquad_cascade_stereo_df2T_f32.c ****  * not use this file except in compliance with the License.
  18:DSP/Source/FilteringFunctions/arm_biquad_cascade_stereo_df2T_f32.c ****  * You may obtain a copy of the License at
  19:DSP/Source/FilteringFunctions/arm_biquad_cascade_stereo_df2T_f32.c ****  *
  20:DSP/Source/FilteringFunctions/arm_biquad_cascade_stereo_df2T_f32.c ****  * www.apache.org/licenses/LICENSE-2.0
  21:DSP/Source/FilteringFunctions/arm_biquad_cascade_stereo_df2T_f32.c ****  *
  22:DSP/Source/FilteringFunctions/arm_biquad_cascade_stereo_df2T_f32.c ****  * Unless required by applicable law or agreed to in writing, software
  23:DSP/Source/FilteringFunctions/arm_biquad_cascade_stereo_df2T_f32.c ****  * distributed under the License is distributed on an AS IS BASIS, WITHOUT
  24:DSP/Source/FilteringFunctions/arm_biquad_cascade_stereo_df2T_f32.c ****  * WARRANTIES OR CONDITIONS OF ANY KIND, either express or implied.
  25:DSP/Source/FilteringFunctions/arm_biquad_cascade_stereo_df2T_f32.c ****  * See the License for the specific language governing permissions and
  26:DSP/Source/FilteringFunctions/arm_biquad_cascade_stereo_df2T_f32.c ****  * limitations under the License.
  27:DSP/Source/FilteringFunctions/arm_biquad_cascade_stereo_df2T_f32.c ****  */
  28:DSP/Source/FilteringFunctions/arm_biquad_cascade_stereo_df2T_f32.c **** 
  29:DSP/Source/FilteringFunctions/arm_biquad_cascade_stereo_df2T_f32.c **** #include "arm_math.h"
ARM GAS  /var/folders/ck/g3dcd5x55xs4107jgdl0snvr0000gn/T//cc4d5yUa.s 			page 2


  30:DSP/Source/FilteringFunctions/arm_biquad_cascade_stereo_df2T_f32.c **** 
  31:DSP/Source/FilteringFunctions/arm_biquad_cascade_stereo_df2T_f32.c **** /**
  32:DSP/Source/FilteringFunctions/arm_biquad_cascade_stereo_df2T_f32.c **** * @ingroup groupFilters
  33:DSP/Source/FilteringFunctions/arm_biquad_cascade_stereo_df2T_f32.c **** */
  34:DSP/Source/FilteringFunctions/arm_biquad_cascade_stereo_df2T_f32.c **** 
  35:DSP/Source/FilteringFunctions/arm_biquad_cascade_stereo_df2T_f32.c **** /**
  36:DSP/Source/FilteringFunctions/arm_biquad_cascade_stereo_df2T_f32.c **** * @defgroup BiquadCascadeDF2T Biquad Cascade IIR Filters Using a Direct Form II Transposed Structur
  37:DSP/Source/FilteringFunctions/arm_biquad_cascade_stereo_df2T_f32.c **** *
  38:DSP/Source/FilteringFunctions/arm_biquad_cascade_stereo_df2T_f32.c **** * This set of functions implements arbitrary order recursive (IIR) filters using a transposed direc
  39:DSP/Source/FilteringFunctions/arm_biquad_cascade_stereo_df2T_f32.c **** * The filters are implemented as a cascade of second order Biquad sections.
  40:DSP/Source/FilteringFunctions/arm_biquad_cascade_stereo_df2T_f32.c **** * These functions provide a slight memory savings as compared to the direct form I Biquad filter fu
  41:DSP/Source/FilteringFunctions/arm_biquad_cascade_stereo_df2T_f32.c **** * Only floating-point data is supported.
  42:DSP/Source/FilteringFunctions/arm_biquad_cascade_stereo_df2T_f32.c **** *
  43:DSP/Source/FilteringFunctions/arm_biquad_cascade_stereo_df2T_f32.c **** * This function operate on blocks of input and output data and each call to the function
  44:DSP/Source/FilteringFunctions/arm_biquad_cascade_stereo_df2T_f32.c **** * processes <code>blockSize</code> samples through the filter.
  45:DSP/Source/FilteringFunctions/arm_biquad_cascade_stereo_df2T_f32.c **** * <code>pSrc</code> points to the array of input data and
  46:DSP/Source/FilteringFunctions/arm_biquad_cascade_stereo_df2T_f32.c **** * <code>pDst</code> points to the array of output data.
  47:DSP/Source/FilteringFunctions/arm_biquad_cascade_stereo_df2T_f32.c **** * Both arrays contain <code>blockSize</code> values.
  48:DSP/Source/FilteringFunctions/arm_biquad_cascade_stereo_df2T_f32.c **** *
  49:DSP/Source/FilteringFunctions/arm_biquad_cascade_stereo_df2T_f32.c **** * \par Algorithm
  50:DSP/Source/FilteringFunctions/arm_biquad_cascade_stereo_df2T_f32.c **** * Each Biquad stage implements a second order filter using the difference equation:
  51:DSP/Source/FilteringFunctions/arm_biquad_cascade_stereo_df2T_f32.c **** * <pre>
  52:DSP/Source/FilteringFunctions/arm_biquad_cascade_stereo_df2T_f32.c **** *    y[n] = b0 * x[n] + d1
  53:DSP/Source/FilteringFunctions/arm_biquad_cascade_stereo_df2T_f32.c **** *    d1 = b1 * x[n] + a1 * y[n] + d2
  54:DSP/Source/FilteringFunctions/arm_biquad_cascade_stereo_df2T_f32.c **** *    d2 = b2 * x[n] + a2 * y[n]
  55:DSP/Source/FilteringFunctions/arm_biquad_cascade_stereo_df2T_f32.c **** * </pre>
  56:DSP/Source/FilteringFunctions/arm_biquad_cascade_stereo_df2T_f32.c **** * where d1 and d2 represent the two state values.
  57:DSP/Source/FilteringFunctions/arm_biquad_cascade_stereo_df2T_f32.c **** *
  58:DSP/Source/FilteringFunctions/arm_biquad_cascade_stereo_df2T_f32.c **** * \par
  59:DSP/Source/FilteringFunctions/arm_biquad_cascade_stereo_df2T_f32.c **** * A Biquad filter using a transposed Direct Form II structure is shown below.
  60:DSP/Source/FilteringFunctions/arm_biquad_cascade_stereo_df2T_f32.c **** * \image html BiquadDF2Transposed.gif "Single transposed Direct Form II Biquad"
  61:DSP/Source/FilteringFunctions/arm_biquad_cascade_stereo_df2T_f32.c **** * Coefficients <code>b0, b1, and b2 </code> multiply the input signal <code>x[n]</code> and are ref
  62:DSP/Source/FilteringFunctions/arm_biquad_cascade_stereo_df2T_f32.c **** * Coefficients <code>a1</code> and <code>a2</code> multiply the output signal <code>y[n]</code> and
  63:DSP/Source/FilteringFunctions/arm_biquad_cascade_stereo_df2T_f32.c **** * Pay careful attention to the sign of the feedback coefficients.
  64:DSP/Source/FilteringFunctions/arm_biquad_cascade_stereo_df2T_f32.c **** * Some design tools flip the sign of the feedback coefficients:
  65:DSP/Source/FilteringFunctions/arm_biquad_cascade_stereo_df2T_f32.c **** * <pre>
  66:DSP/Source/FilteringFunctions/arm_biquad_cascade_stereo_df2T_f32.c **** *    y[n] = b0 * x[n] + d1;
  67:DSP/Source/FilteringFunctions/arm_biquad_cascade_stereo_df2T_f32.c **** *    d1 = b1 * x[n] - a1 * y[n] + d2;
  68:DSP/Source/FilteringFunctions/arm_biquad_cascade_stereo_df2T_f32.c **** *    d2 = b2 * x[n] - a2 * y[n];
  69:DSP/Source/FilteringFunctions/arm_biquad_cascade_stereo_df2T_f32.c **** * </pre>
  70:DSP/Source/FilteringFunctions/arm_biquad_cascade_stereo_df2T_f32.c **** * In this case the feedback coefficients <code>a1</code> and <code>a2</code> must be negated when u
  71:DSP/Source/FilteringFunctions/arm_biquad_cascade_stereo_df2T_f32.c **** *
  72:DSP/Source/FilteringFunctions/arm_biquad_cascade_stereo_df2T_f32.c **** * \par
  73:DSP/Source/FilteringFunctions/arm_biquad_cascade_stereo_df2T_f32.c **** * Higher order filters are realized as a cascade of second order sections.
  74:DSP/Source/FilteringFunctions/arm_biquad_cascade_stereo_df2T_f32.c **** * <code>numStages</code> refers to the number of second order stages used.
  75:DSP/Source/FilteringFunctions/arm_biquad_cascade_stereo_df2T_f32.c **** * For example, an 8th order filter would be realized with <code>numStages=4</code> second order sta
  76:DSP/Source/FilteringFunctions/arm_biquad_cascade_stereo_df2T_f32.c **** * A 9th order filter would be realized with <code>numStages=5</code> second order stages with the
  77:DSP/Source/FilteringFunctions/arm_biquad_cascade_stereo_df2T_f32.c **** * coefficients for one of the stages configured as a first order filter (<code>b2=0</code> and <cod
  78:DSP/Source/FilteringFunctions/arm_biquad_cascade_stereo_df2T_f32.c **** *
  79:DSP/Source/FilteringFunctions/arm_biquad_cascade_stereo_df2T_f32.c **** * \par
  80:DSP/Source/FilteringFunctions/arm_biquad_cascade_stereo_df2T_f32.c **** * <code>pState</code> points to the state variable array.
  81:DSP/Source/FilteringFunctions/arm_biquad_cascade_stereo_df2T_f32.c **** * Each Biquad stage has 2 state variables <code>d1</code> and <code>d2</code>.
  82:DSP/Source/FilteringFunctions/arm_biquad_cascade_stereo_df2T_f32.c **** * The state variables are arranged in the <code>pState</code> array as:
  83:DSP/Source/FilteringFunctions/arm_biquad_cascade_stereo_df2T_f32.c **** * <pre>
  84:DSP/Source/FilteringFunctions/arm_biquad_cascade_stereo_df2T_f32.c **** *     {d11, d12, d21, d22, ...}
  85:DSP/Source/FilteringFunctions/arm_biquad_cascade_stereo_df2T_f32.c **** * </pre>
  86:DSP/Source/FilteringFunctions/arm_biquad_cascade_stereo_df2T_f32.c **** * where <code>d1x</code> refers to the state variables for the first Biquad and
ARM GAS  /var/folders/ck/g3dcd5x55xs4107jgdl0snvr0000gn/T//cc4d5yUa.s 			page 3


  87:DSP/Source/FilteringFunctions/arm_biquad_cascade_stereo_df2T_f32.c **** * <code>d2x</code> refers to the state variables for the second Biquad.
  88:DSP/Source/FilteringFunctions/arm_biquad_cascade_stereo_df2T_f32.c **** * The state array has a total length of <code>2*numStages</code> values.
  89:DSP/Source/FilteringFunctions/arm_biquad_cascade_stereo_df2T_f32.c **** * The state variables are updated after each block of data is processed; the coefficients are untou
  90:DSP/Source/FilteringFunctions/arm_biquad_cascade_stereo_df2T_f32.c **** *
  91:DSP/Source/FilteringFunctions/arm_biquad_cascade_stereo_df2T_f32.c **** * \par
  92:DSP/Source/FilteringFunctions/arm_biquad_cascade_stereo_df2T_f32.c **** * The CMSIS library contains Biquad filters in both Direct Form I and transposed Direct Form II.
  93:DSP/Source/FilteringFunctions/arm_biquad_cascade_stereo_df2T_f32.c **** * The advantage of the Direct Form I structure is that it is numerically more robust for fixed-poin
  94:DSP/Source/FilteringFunctions/arm_biquad_cascade_stereo_df2T_f32.c **** * That is why the Direct Form I structure supports Q15 and Q31 data types.
  95:DSP/Source/FilteringFunctions/arm_biquad_cascade_stereo_df2T_f32.c **** * The transposed Direct Form II structure, on the other hand, requires a wide dynamic range for the
  96:DSP/Source/FilteringFunctions/arm_biquad_cascade_stereo_df2T_f32.c **** * Because of this, the CMSIS library only has a floating-point version of the Direct Form II Biquad
  97:DSP/Source/FilteringFunctions/arm_biquad_cascade_stereo_df2T_f32.c **** * The advantage of the Direct Form II Biquad is that it requires half the number of state variables
  98:DSP/Source/FilteringFunctions/arm_biquad_cascade_stereo_df2T_f32.c **** *
  99:DSP/Source/FilteringFunctions/arm_biquad_cascade_stereo_df2T_f32.c **** * \par Instance Structure
 100:DSP/Source/FilteringFunctions/arm_biquad_cascade_stereo_df2T_f32.c **** * The coefficients and state variables for a filter are stored together in an instance data structu
 101:DSP/Source/FilteringFunctions/arm_biquad_cascade_stereo_df2T_f32.c **** * A separate instance structure must be defined for each filter.
 102:DSP/Source/FilteringFunctions/arm_biquad_cascade_stereo_df2T_f32.c **** * Coefficient arrays may be shared among several instances while state variable arrays cannot be sh
 103:DSP/Source/FilteringFunctions/arm_biquad_cascade_stereo_df2T_f32.c **** *
 104:DSP/Source/FilteringFunctions/arm_biquad_cascade_stereo_df2T_f32.c **** * \par Init Functions
 105:DSP/Source/FilteringFunctions/arm_biquad_cascade_stereo_df2T_f32.c **** * There is also an associated initialization function.
 106:DSP/Source/FilteringFunctions/arm_biquad_cascade_stereo_df2T_f32.c **** * The initialization function performs following operations:
 107:DSP/Source/FilteringFunctions/arm_biquad_cascade_stereo_df2T_f32.c **** * - Sets the values of the internal structure fields.
 108:DSP/Source/FilteringFunctions/arm_biquad_cascade_stereo_df2T_f32.c **** * - Zeros out the values in the state buffer.
 109:DSP/Source/FilteringFunctions/arm_biquad_cascade_stereo_df2T_f32.c **** * To do this manually without calling the init function, assign the follow subfields of the instanc
 110:DSP/Source/FilteringFunctions/arm_biquad_cascade_stereo_df2T_f32.c **** * numStages, pCoeffs, pState. Also set all of the values in pState to zero.
 111:DSP/Source/FilteringFunctions/arm_biquad_cascade_stereo_df2T_f32.c **** *
 112:DSP/Source/FilteringFunctions/arm_biquad_cascade_stereo_df2T_f32.c **** * \par
 113:DSP/Source/FilteringFunctions/arm_biquad_cascade_stereo_df2T_f32.c **** * Use of the initialization function is optional.
 114:DSP/Source/FilteringFunctions/arm_biquad_cascade_stereo_df2T_f32.c **** * However, if the initialization function is used, then the instance structure cannot be placed int
 115:DSP/Source/FilteringFunctions/arm_biquad_cascade_stereo_df2T_f32.c **** * To place an instance structure into a const data section, the instance structure must be manually
 116:DSP/Source/FilteringFunctions/arm_biquad_cascade_stereo_df2T_f32.c **** * Set the values in the state buffer to zeros before static initialization.
 117:DSP/Source/FilteringFunctions/arm_biquad_cascade_stereo_df2T_f32.c **** * For example, to statically initialize the instance structure use
 118:DSP/Source/FilteringFunctions/arm_biquad_cascade_stereo_df2T_f32.c **** * <pre>
 119:DSP/Source/FilteringFunctions/arm_biquad_cascade_stereo_df2T_f32.c **** *     arm_biquad_cascade_df2T_instance_f32 S1 = {numStages, pState, pCoeffs};
 120:DSP/Source/FilteringFunctions/arm_biquad_cascade_stereo_df2T_f32.c **** * </pre>
 121:DSP/Source/FilteringFunctions/arm_biquad_cascade_stereo_df2T_f32.c **** * where <code>numStages</code> is the number of Biquad stages in the filter; <code>pState</code> is
 122:DSP/Source/FilteringFunctions/arm_biquad_cascade_stereo_df2T_f32.c **** * <code>pCoeffs</code> is the address of the coefficient buffer;
 123:DSP/Source/FilteringFunctions/arm_biquad_cascade_stereo_df2T_f32.c **** *
 124:DSP/Source/FilteringFunctions/arm_biquad_cascade_stereo_df2T_f32.c **** */
 125:DSP/Source/FilteringFunctions/arm_biquad_cascade_stereo_df2T_f32.c **** 
 126:DSP/Source/FilteringFunctions/arm_biquad_cascade_stereo_df2T_f32.c **** /**
 127:DSP/Source/FilteringFunctions/arm_biquad_cascade_stereo_df2T_f32.c **** * @addtogroup BiquadCascadeDF2T
 128:DSP/Source/FilteringFunctions/arm_biquad_cascade_stereo_df2T_f32.c **** * @{
 129:DSP/Source/FilteringFunctions/arm_biquad_cascade_stereo_df2T_f32.c **** */
 130:DSP/Source/FilteringFunctions/arm_biquad_cascade_stereo_df2T_f32.c **** 
 131:DSP/Source/FilteringFunctions/arm_biquad_cascade_stereo_df2T_f32.c **** /**
 132:DSP/Source/FilteringFunctions/arm_biquad_cascade_stereo_df2T_f32.c **** * @brief Processing function for the floating-point transposed direct form II Biquad cascade filter
 133:DSP/Source/FilteringFunctions/arm_biquad_cascade_stereo_df2T_f32.c **** * @param[in]  *S        points to an instance of the filter data structure.
 134:DSP/Source/FilteringFunctions/arm_biquad_cascade_stereo_df2T_f32.c **** * @param[in]  *pSrc     points to the block of input data.
 135:DSP/Source/FilteringFunctions/arm_biquad_cascade_stereo_df2T_f32.c **** * @param[out] *pDst     points to the block of output data
 136:DSP/Source/FilteringFunctions/arm_biquad_cascade_stereo_df2T_f32.c **** * @param[in]  blockSize number of samples to process.
 137:DSP/Source/FilteringFunctions/arm_biquad_cascade_stereo_df2T_f32.c **** * @return none.
 138:DSP/Source/FilteringFunctions/arm_biquad_cascade_stereo_df2T_f32.c **** */
 139:DSP/Source/FilteringFunctions/arm_biquad_cascade_stereo_df2T_f32.c **** 
 140:DSP/Source/FilteringFunctions/arm_biquad_cascade_stereo_df2T_f32.c **** 
 141:DSP/Source/FilteringFunctions/arm_biquad_cascade_stereo_df2T_f32.c **** LOW_OPTIMIZATION_ENTER
 142:DSP/Source/FilteringFunctions/arm_biquad_cascade_stereo_df2T_f32.c **** void arm_biquad_cascade_stereo_df2T_f32(
 143:DSP/Source/FilteringFunctions/arm_biquad_cascade_stereo_df2T_f32.c **** const arm_biquad_cascade_stereo_df2T_instance_f32 * S,
ARM GAS  /var/folders/ck/g3dcd5x55xs4107jgdl0snvr0000gn/T//cc4d5yUa.s 			page 4


 144:DSP/Source/FilteringFunctions/arm_biquad_cascade_stereo_df2T_f32.c **** float32_t * pSrc,
 145:DSP/Source/FilteringFunctions/arm_biquad_cascade_stereo_df2T_f32.c **** float32_t * pDst,
 146:DSP/Source/FilteringFunctions/arm_biquad_cascade_stereo_df2T_f32.c **** uint32_t blockSize)
 147:DSP/Source/FilteringFunctions/arm_biquad_cascade_stereo_df2T_f32.c **** {
  30              		.loc 1 147 1 view -0
  31              		.cfi_startproc
  32              		@ args = 0, pretend = 0, frame = 0
  33              		@ frame_needed = 0, uses_anonymous_args = 0
  34              		.loc 1 147 1 is_stmt 0 view .LVU1
  35 0000 2DE9F04F 		push	{r4, r5, r6, r7, r8, r9, r10, fp, lr}
  36              	.LCFI0:
  37              		.cfi_def_cfa_offset 36
  38              		.cfi_offset 4, -36
  39              		.cfi_offset 5, -32
  40              		.cfi_offset 6, -28
  41              		.cfi_offset 7, -24
  42              		.cfi_offset 8, -20
  43              		.cfi_offset 9, -16
  44              		.cfi_offset 10, -12
  45              		.cfi_offset 11, -8
  46              		.cfi_offset 14, -4
  47 0004 2DED068B 		vpush.64	{d8, d9, d10}
  48              	.LCFI1:
  49              		.cfi_def_cfa_offset 60
  50              		.cfi_offset 80, -60
  51              		.cfi_offset 81, -56
  52              		.cfi_offset 82, -52
  53              		.cfi_offset 83, -48
  54              		.cfi_offset 84, -44
  55              		.cfi_offset 85, -40
  56 0008 1546     		mov	r5, r2
 148:DSP/Source/FilteringFunctions/arm_biquad_cascade_stereo_df2T_f32.c **** 
 149:DSP/Source/FilteringFunctions/arm_biquad_cascade_stereo_df2T_f32.c ****     float32_t *pIn = pSrc;                         /*  source pointer            */
  57              		.loc 1 149 5 is_stmt 1 view .LVU2
  58              	.LVL1:
 150:DSP/Source/FilteringFunctions/arm_biquad_cascade_stereo_df2T_f32.c ****     float32_t *pOut = pDst;                        /*  destination pointer       */
  59              		.loc 1 150 5 view .LVU3
 151:DSP/Source/FilteringFunctions/arm_biquad_cascade_stereo_df2T_f32.c ****     float32_t *pState = S->pState;                 /*  State pointer             */
  60              		.loc 1 151 5 view .LVU4
 152:DSP/Source/FilteringFunctions/arm_biquad_cascade_stereo_df2T_f32.c ****     float32_t *pCoeffs = S->pCoeffs;               /*  coefficient pointer       */
  61              		.loc 1 152 5 view .LVU5
 153:DSP/Source/FilteringFunctions/arm_biquad_cascade_stereo_df2T_f32.c ****     float32_t acc1a, acc1b;                        /*  accumulator               */
  62              		.loc 1 153 5 view .LVU6
 154:DSP/Source/FilteringFunctions/arm_biquad_cascade_stereo_df2T_f32.c ****     float32_t b0, b1, b2, a1, a2;                  /*  Filter coefficients       */
  63              		.loc 1 154 5 view .LVU7
 155:DSP/Source/FilteringFunctions/arm_biquad_cascade_stereo_df2T_f32.c ****     float32_t Xn1a, Xn1b;                          /*  temporary input           */
  64              		.loc 1 155 5 view .LVU8
 156:DSP/Source/FilteringFunctions/arm_biquad_cascade_stereo_df2T_f32.c ****     float32_t d1a, d2a, d1b, d2b;                  /*  state variables           */
  65              		.loc 1 156 5 view .LVU9
 157:DSP/Source/FilteringFunctions/arm_biquad_cascade_stereo_df2T_f32.c ****     uint32_t sample, stage = S->numStages;         /*  loop counters             */
  66              		.loc 1 157 5 view .LVU10
  67              		.loc 1 157 22 is_stmt 0 view .LVU11
  68 000a 0478     		ldrb	r4, [r0]	@ zero_extendqisi2
  69              	.LVL2:
 158:DSP/Source/FilteringFunctions/arm_biquad_cascade_stereo_df2T_f32.c **** 
 159:DSP/Source/FilteringFunctions/arm_biquad_cascade_stereo_df2T_f32.c **** #if defined(ARM_MATH_CM7)
 160:DSP/Source/FilteringFunctions/arm_biquad_cascade_stereo_df2T_f32.c **** 
ARM GAS  /var/folders/ck/g3dcd5x55xs4107jgdl0snvr0000gn/T//cc4d5yUa.s 			page 5


 161:DSP/Source/FilteringFunctions/arm_biquad_cascade_stereo_df2T_f32.c ****     float32_t Xn2a, Xn3a, Xn4a, Xn5a, Xn6a, Xn7a, Xn8a;         /*  Input State variables     */
 162:DSP/Source/FilteringFunctions/arm_biquad_cascade_stereo_df2T_f32.c ****     float32_t Xn2b, Xn3b, Xn4b, Xn5b, Xn6b, Xn7b, Xn8b;         /*  Input State variables     */
 163:DSP/Source/FilteringFunctions/arm_biquad_cascade_stereo_df2T_f32.c ****     float32_t acc2a, acc3a, acc4a, acc5a, acc6a, acc7a, acc8a;  /*  Simulates the accumulator */
 164:DSP/Source/FilteringFunctions/arm_biquad_cascade_stereo_df2T_f32.c ****     float32_t acc2b, acc3b, acc4b, acc5b, acc6b, acc7b, acc8b;  /*  Simulates the accumulator */
 165:DSP/Source/FilteringFunctions/arm_biquad_cascade_stereo_df2T_f32.c **** 
 166:DSP/Source/FilteringFunctions/arm_biquad_cascade_stereo_df2T_f32.c ****     do
 167:DSP/Source/FilteringFunctions/arm_biquad_cascade_stereo_df2T_f32.c ****     {
 168:DSP/Source/FilteringFunctions/arm_biquad_cascade_stereo_df2T_f32.c ****         /* Reading the coefficients */
 169:DSP/Source/FilteringFunctions/arm_biquad_cascade_stereo_df2T_f32.c ****         b0 = pCoeffs[0];
 170:DSP/Source/FilteringFunctions/arm_biquad_cascade_stereo_df2T_f32.c ****         b1 = pCoeffs[1];
 171:DSP/Source/FilteringFunctions/arm_biquad_cascade_stereo_df2T_f32.c ****         b2 = pCoeffs[2];
 172:DSP/Source/FilteringFunctions/arm_biquad_cascade_stereo_df2T_f32.c ****         a1 = pCoeffs[3];
 173:DSP/Source/FilteringFunctions/arm_biquad_cascade_stereo_df2T_f32.c ****         /* Apply loop unrolling and compute 8 output values simultaneously. */
 174:DSP/Source/FilteringFunctions/arm_biquad_cascade_stereo_df2T_f32.c ****         sample = blockSize >> 3U;
 175:DSP/Source/FilteringFunctions/arm_biquad_cascade_stereo_df2T_f32.c ****         a2 = pCoeffs[4];
 176:DSP/Source/FilteringFunctions/arm_biquad_cascade_stereo_df2T_f32.c **** 
 177:DSP/Source/FilteringFunctions/arm_biquad_cascade_stereo_df2T_f32.c ****         /*Reading the state values */
 178:DSP/Source/FilteringFunctions/arm_biquad_cascade_stereo_df2T_f32.c ****         d1a = pState[0];
 179:DSP/Source/FilteringFunctions/arm_biquad_cascade_stereo_df2T_f32.c ****         d2a = pState[1];
 180:DSP/Source/FilteringFunctions/arm_biquad_cascade_stereo_df2T_f32.c ****         d1b = pState[2];
 181:DSP/Source/FilteringFunctions/arm_biquad_cascade_stereo_df2T_f32.c ****         d2b = pState[3];
 182:DSP/Source/FilteringFunctions/arm_biquad_cascade_stereo_df2T_f32.c **** 
 183:DSP/Source/FilteringFunctions/arm_biquad_cascade_stereo_df2T_f32.c ****         pCoeffs += 5U;
 184:DSP/Source/FilteringFunctions/arm_biquad_cascade_stereo_df2T_f32.c **** 
 185:DSP/Source/FilteringFunctions/arm_biquad_cascade_stereo_df2T_f32.c ****         /* First part of the processing with loop unrolling.  Compute 8 outputs at a time.
 186:DSP/Source/FilteringFunctions/arm_biquad_cascade_stereo_df2T_f32.c ****         ** a second loop below computes the remaining 1 to 7 samples. */
 187:DSP/Source/FilteringFunctions/arm_biquad_cascade_stereo_df2T_f32.c ****         while (sample > 0U) {
 188:DSP/Source/FilteringFunctions/arm_biquad_cascade_stereo_df2T_f32.c **** 
 189:DSP/Source/FilteringFunctions/arm_biquad_cascade_stereo_df2T_f32.c ****             /* y[n] = b0 * x[n] + d1 */
 190:DSP/Source/FilteringFunctions/arm_biquad_cascade_stereo_df2T_f32.c ****             /* d1 = b1 * x[n] + a1 * y[n] + d2 */
 191:DSP/Source/FilteringFunctions/arm_biquad_cascade_stereo_df2T_f32.c ****             /* d2 = b2 * x[n] + a2 * y[n] */
 192:DSP/Source/FilteringFunctions/arm_biquad_cascade_stereo_df2T_f32.c **** 
 193:DSP/Source/FilteringFunctions/arm_biquad_cascade_stereo_df2T_f32.c ****             /* Read the first 2 inputs. 2 cycles */
 194:DSP/Source/FilteringFunctions/arm_biquad_cascade_stereo_df2T_f32.c ****             Xn1a  = pIn[0 ];
 195:DSP/Source/FilteringFunctions/arm_biquad_cascade_stereo_df2T_f32.c ****             Xn1b  = pIn[1 ];
 196:DSP/Source/FilteringFunctions/arm_biquad_cascade_stereo_df2T_f32.c **** 
 197:DSP/Source/FilteringFunctions/arm_biquad_cascade_stereo_df2T_f32.c ****             /* Sample 1. 5 cycles */
 198:DSP/Source/FilteringFunctions/arm_biquad_cascade_stereo_df2T_f32.c ****             Xn2a  = pIn[2 ];
 199:DSP/Source/FilteringFunctions/arm_biquad_cascade_stereo_df2T_f32.c ****             acc1a = b0 * Xn1a + d1a;
 200:DSP/Source/FilteringFunctions/arm_biquad_cascade_stereo_df2T_f32.c **** 
 201:DSP/Source/FilteringFunctions/arm_biquad_cascade_stereo_df2T_f32.c ****             Xn2b  = pIn[3 ];
 202:DSP/Source/FilteringFunctions/arm_biquad_cascade_stereo_df2T_f32.c ****             d1a = b1 * Xn1a + d2a;
 203:DSP/Source/FilteringFunctions/arm_biquad_cascade_stereo_df2T_f32.c **** 
 204:DSP/Source/FilteringFunctions/arm_biquad_cascade_stereo_df2T_f32.c ****             Xn3a  = pIn[4 ];
 205:DSP/Source/FilteringFunctions/arm_biquad_cascade_stereo_df2T_f32.c ****             d2a = b2 * Xn1a;
 206:DSP/Source/FilteringFunctions/arm_biquad_cascade_stereo_df2T_f32.c **** 
 207:DSP/Source/FilteringFunctions/arm_biquad_cascade_stereo_df2T_f32.c ****             Xn3b  = pIn[5 ];
 208:DSP/Source/FilteringFunctions/arm_biquad_cascade_stereo_df2T_f32.c ****             d1a += a1 * acc1a;
 209:DSP/Source/FilteringFunctions/arm_biquad_cascade_stereo_df2T_f32.c **** 
 210:DSP/Source/FilteringFunctions/arm_biquad_cascade_stereo_df2T_f32.c ****             Xn4a  = pIn[6 ];
 211:DSP/Source/FilteringFunctions/arm_biquad_cascade_stereo_df2T_f32.c ****             d2a += a2 * acc1a;
 212:DSP/Source/FilteringFunctions/arm_biquad_cascade_stereo_df2T_f32.c **** 
 213:DSP/Source/FilteringFunctions/arm_biquad_cascade_stereo_df2T_f32.c ****             /* Sample 2. 5 cycles */
 214:DSP/Source/FilteringFunctions/arm_biquad_cascade_stereo_df2T_f32.c ****             Xn4b  = pIn[7 ];
 215:DSP/Source/FilteringFunctions/arm_biquad_cascade_stereo_df2T_f32.c ****             acc1b = b0 * Xn1b + d1b;
 216:DSP/Source/FilteringFunctions/arm_biquad_cascade_stereo_df2T_f32.c **** 
 217:DSP/Source/FilteringFunctions/arm_biquad_cascade_stereo_df2T_f32.c ****             Xn5a  = pIn[8 ];
ARM GAS  /var/folders/ck/g3dcd5x55xs4107jgdl0snvr0000gn/T//cc4d5yUa.s 			page 6


 218:DSP/Source/FilteringFunctions/arm_biquad_cascade_stereo_df2T_f32.c ****             d1b = b1 * Xn1b + d2b;
 219:DSP/Source/FilteringFunctions/arm_biquad_cascade_stereo_df2T_f32.c **** 
 220:DSP/Source/FilteringFunctions/arm_biquad_cascade_stereo_df2T_f32.c ****             Xn5b = pIn[9 ];
 221:DSP/Source/FilteringFunctions/arm_biquad_cascade_stereo_df2T_f32.c ****             d2b = b2 * Xn1b;
 222:DSP/Source/FilteringFunctions/arm_biquad_cascade_stereo_df2T_f32.c **** 
 223:DSP/Source/FilteringFunctions/arm_biquad_cascade_stereo_df2T_f32.c ****             Xn6a = pIn[10];
 224:DSP/Source/FilteringFunctions/arm_biquad_cascade_stereo_df2T_f32.c ****             d1b += a1 * acc1b;
 225:DSP/Source/FilteringFunctions/arm_biquad_cascade_stereo_df2T_f32.c **** 
 226:DSP/Source/FilteringFunctions/arm_biquad_cascade_stereo_df2T_f32.c ****             Xn6b = pIn[11];
 227:DSP/Source/FilteringFunctions/arm_biquad_cascade_stereo_df2T_f32.c ****             d2b += a2 * acc1b;
 228:DSP/Source/FilteringFunctions/arm_biquad_cascade_stereo_df2T_f32.c **** 
 229:DSP/Source/FilteringFunctions/arm_biquad_cascade_stereo_df2T_f32.c ****             /* Sample 3. 5 cycles */
 230:DSP/Source/FilteringFunctions/arm_biquad_cascade_stereo_df2T_f32.c ****             Xn7a = pIn[12];
 231:DSP/Source/FilteringFunctions/arm_biquad_cascade_stereo_df2T_f32.c ****             acc2a = b0 * Xn2a + d1a;
 232:DSP/Source/FilteringFunctions/arm_biquad_cascade_stereo_df2T_f32.c **** 
 233:DSP/Source/FilteringFunctions/arm_biquad_cascade_stereo_df2T_f32.c ****             Xn7b = pIn[13];
 234:DSP/Source/FilteringFunctions/arm_biquad_cascade_stereo_df2T_f32.c ****             d1a = b1 * Xn2a + d2a;
 235:DSP/Source/FilteringFunctions/arm_biquad_cascade_stereo_df2T_f32.c **** 
 236:DSP/Source/FilteringFunctions/arm_biquad_cascade_stereo_df2T_f32.c ****             Xn8a = pIn[14];
 237:DSP/Source/FilteringFunctions/arm_biquad_cascade_stereo_df2T_f32.c ****             d2a = b2 * Xn2a;
 238:DSP/Source/FilteringFunctions/arm_biquad_cascade_stereo_df2T_f32.c **** 
 239:DSP/Source/FilteringFunctions/arm_biquad_cascade_stereo_df2T_f32.c ****             Xn8b = pIn[15];
 240:DSP/Source/FilteringFunctions/arm_biquad_cascade_stereo_df2T_f32.c ****             d1a += a1 * acc2a;
 241:DSP/Source/FilteringFunctions/arm_biquad_cascade_stereo_df2T_f32.c **** 
 242:DSP/Source/FilteringFunctions/arm_biquad_cascade_stereo_df2T_f32.c ****             pIn += 16;
 243:DSP/Source/FilteringFunctions/arm_biquad_cascade_stereo_df2T_f32.c ****             d2a += a2 * acc2a;
 244:DSP/Source/FilteringFunctions/arm_biquad_cascade_stereo_df2T_f32.c **** 
 245:DSP/Source/FilteringFunctions/arm_biquad_cascade_stereo_df2T_f32.c ****             /* Sample 4. 5 cycles */
 246:DSP/Source/FilteringFunctions/arm_biquad_cascade_stereo_df2T_f32.c ****             acc2b = b0 * Xn2b + d1b;
 247:DSP/Source/FilteringFunctions/arm_biquad_cascade_stereo_df2T_f32.c ****             d1b = b1 * Xn2b + d2b;
 248:DSP/Source/FilteringFunctions/arm_biquad_cascade_stereo_df2T_f32.c ****             d2b = b2 * Xn2b;
 249:DSP/Source/FilteringFunctions/arm_biquad_cascade_stereo_df2T_f32.c ****             d1b += a1 * acc2b;
 250:DSP/Source/FilteringFunctions/arm_biquad_cascade_stereo_df2T_f32.c ****             d2b += a2 * acc2b;
 251:DSP/Source/FilteringFunctions/arm_biquad_cascade_stereo_df2T_f32.c **** 
 252:DSP/Source/FilteringFunctions/arm_biquad_cascade_stereo_df2T_f32.c ****             /* Sample 5. 5 cycles */
 253:DSP/Source/FilteringFunctions/arm_biquad_cascade_stereo_df2T_f32.c ****             acc3a = b0 * Xn3a + d1a;
 254:DSP/Source/FilteringFunctions/arm_biquad_cascade_stereo_df2T_f32.c ****             d1a = b1 * Xn3a + d2a;
 255:DSP/Source/FilteringFunctions/arm_biquad_cascade_stereo_df2T_f32.c ****             d2a = b2 * Xn3a;
 256:DSP/Source/FilteringFunctions/arm_biquad_cascade_stereo_df2T_f32.c ****             d1a += a1 * acc3a;
 257:DSP/Source/FilteringFunctions/arm_biquad_cascade_stereo_df2T_f32.c ****             d2a += a2 * acc3a;
 258:DSP/Source/FilteringFunctions/arm_biquad_cascade_stereo_df2T_f32.c **** 
 259:DSP/Source/FilteringFunctions/arm_biquad_cascade_stereo_df2T_f32.c ****             /* Sample 6. 5 cycles */
 260:DSP/Source/FilteringFunctions/arm_biquad_cascade_stereo_df2T_f32.c ****             acc3b = b0 * Xn3b + d1b;
 261:DSP/Source/FilteringFunctions/arm_biquad_cascade_stereo_df2T_f32.c ****             d1b = b1 * Xn3b + d2b;
 262:DSP/Source/FilteringFunctions/arm_biquad_cascade_stereo_df2T_f32.c ****             d2b = b2 * Xn3b;
 263:DSP/Source/FilteringFunctions/arm_biquad_cascade_stereo_df2T_f32.c ****             d1b += a1 * acc3b;
 264:DSP/Source/FilteringFunctions/arm_biquad_cascade_stereo_df2T_f32.c ****             d2b += a2 * acc3b;
 265:DSP/Source/FilteringFunctions/arm_biquad_cascade_stereo_df2T_f32.c **** 
 266:DSP/Source/FilteringFunctions/arm_biquad_cascade_stereo_df2T_f32.c ****             /* Sample 7. 5 cycles */
 267:DSP/Source/FilteringFunctions/arm_biquad_cascade_stereo_df2T_f32.c ****             acc4a = b0 * Xn4a + d1a;
 268:DSP/Source/FilteringFunctions/arm_biquad_cascade_stereo_df2T_f32.c ****             d1a = b1 * Xn4a + d2a;
 269:DSP/Source/FilteringFunctions/arm_biquad_cascade_stereo_df2T_f32.c ****             d2a = b2 * Xn4a;
 270:DSP/Source/FilteringFunctions/arm_biquad_cascade_stereo_df2T_f32.c ****             d1a += a1 * acc4a;
 271:DSP/Source/FilteringFunctions/arm_biquad_cascade_stereo_df2T_f32.c ****             d2a += a2 * acc4a;
 272:DSP/Source/FilteringFunctions/arm_biquad_cascade_stereo_df2T_f32.c **** 
 273:DSP/Source/FilteringFunctions/arm_biquad_cascade_stereo_df2T_f32.c ****             /* Sample 8. 5 cycles */
 274:DSP/Source/FilteringFunctions/arm_biquad_cascade_stereo_df2T_f32.c ****             acc4b = b0 * Xn4b + d1b;
ARM GAS  /var/folders/ck/g3dcd5x55xs4107jgdl0snvr0000gn/T//cc4d5yUa.s 			page 7


 275:DSP/Source/FilteringFunctions/arm_biquad_cascade_stereo_df2T_f32.c ****             d1b = b1 * Xn4b + d2b;
 276:DSP/Source/FilteringFunctions/arm_biquad_cascade_stereo_df2T_f32.c ****             d2b = b2 * Xn4b;
 277:DSP/Source/FilteringFunctions/arm_biquad_cascade_stereo_df2T_f32.c ****             d1b += a1 * acc4b;
 278:DSP/Source/FilteringFunctions/arm_biquad_cascade_stereo_df2T_f32.c ****             d2b += a2 * acc4b;
 279:DSP/Source/FilteringFunctions/arm_biquad_cascade_stereo_df2T_f32.c **** 
 280:DSP/Source/FilteringFunctions/arm_biquad_cascade_stereo_df2T_f32.c ****             /* Sample 9. 5 cycles */
 281:DSP/Source/FilteringFunctions/arm_biquad_cascade_stereo_df2T_f32.c ****             acc5a = b0 * Xn5a + d1a;
 282:DSP/Source/FilteringFunctions/arm_biquad_cascade_stereo_df2T_f32.c ****             d1a = b1 * Xn5a + d2a;
 283:DSP/Source/FilteringFunctions/arm_biquad_cascade_stereo_df2T_f32.c ****             d2a = b2 * Xn5a;
 284:DSP/Source/FilteringFunctions/arm_biquad_cascade_stereo_df2T_f32.c ****             d1a += a1 * acc5a;
 285:DSP/Source/FilteringFunctions/arm_biquad_cascade_stereo_df2T_f32.c ****             d2a += a2 * acc5a;
 286:DSP/Source/FilteringFunctions/arm_biquad_cascade_stereo_df2T_f32.c **** 
 287:DSP/Source/FilteringFunctions/arm_biquad_cascade_stereo_df2T_f32.c ****             /* Sample 10. 5 cycles */
 288:DSP/Source/FilteringFunctions/arm_biquad_cascade_stereo_df2T_f32.c ****             acc5b = b0 * Xn5b + d1b;
 289:DSP/Source/FilteringFunctions/arm_biquad_cascade_stereo_df2T_f32.c ****             d1b = b1 * Xn5b + d2b;
 290:DSP/Source/FilteringFunctions/arm_biquad_cascade_stereo_df2T_f32.c ****             d2b = b2 * Xn5b;
 291:DSP/Source/FilteringFunctions/arm_biquad_cascade_stereo_df2T_f32.c ****             d1b += a1 * acc5b;
 292:DSP/Source/FilteringFunctions/arm_biquad_cascade_stereo_df2T_f32.c ****             d2b += a2 * acc5b;
 293:DSP/Source/FilteringFunctions/arm_biquad_cascade_stereo_df2T_f32.c **** 
 294:DSP/Source/FilteringFunctions/arm_biquad_cascade_stereo_df2T_f32.c ****             /* Sample 11. 5 cycles */
 295:DSP/Source/FilteringFunctions/arm_biquad_cascade_stereo_df2T_f32.c ****             acc6a = b0 * Xn6a + d1a;
 296:DSP/Source/FilteringFunctions/arm_biquad_cascade_stereo_df2T_f32.c ****             d1a = b1 * Xn6a + d2a;
 297:DSP/Source/FilteringFunctions/arm_biquad_cascade_stereo_df2T_f32.c ****             d2a = b2 * Xn6a;
 298:DSP/Source/FilteringFunctions/arm_biquad_cascade_stereo_df2T_f32.c ****             d1a += a1 * acc6a;
 299:DSP/Source/FilteringFunctions/arm_biquad_cascade_stereo_df2T_f32.c ****             d2a += a2 * acc6a;
 300:DSP/Source/FilteringFunctions/arm_biquad_cascade_stereo_df2T_f32.c **** 
 301:DSP/Source/FilteringFunctions/arm_biquad_cascade_stereo_df2T_f32.c ****             /* Sample 12. 5 cycles */
 302:DSP/Source/FilteringFunctions/arm_biquad_cascade_stereo_df2T_f32.c ****             acc6b = b0 * Xn6b + d1b;
 303:DSP/Source/FilteringFunctions/arm_biquad_cascade_stereo_df2T_f32.c ****             d1b = b1 * Xn6b + d2b;
 304:DSP/Source/FilteringFunctions/arm_biquad_cascade_stereo_df2T_f32.c ****             d2b = b2 * Xn6b;
 305:DSP/Source/FilteringFunctions/arm_biquad_cascade_stereo_df2T_f32.c ****             d1b += a1 * acc6b;
 306:DSP/Source/FilteringFunctions/arm_biquad_cascade_stereo_df2T_f32.c ****             d2b += a2 * acc6b;
 307:DSP/Source/FilteringFunctions/arm_biquad_cascade_stereo_df2T_f32.c **** 
 308:DSP/Source/FilteringFunctions/arm_biquad_cascade_stereo_df2T_f32.c ****             /* Sample 13. 5 cycles */
 309:DSP/Source/FilteringFunctions/arm_biquad_cascade_stereo_df2T_f32.c ****             acc7a = b0 * Xn7a + d1a;
 310:DSP/Source/FilteringFunctions/arm_biquad_cascade_stereo_df2T_f32.c ****             d1a = b1 * Xn7a + d2a;
 311:DSP/Source/FilteringFunctions/arm_biquad_cascade_stereo_df2T_f32.c **** 
 312:DSP/Source/FilteringFunctions/arm_biquad_cascade_stereo_df2T_f32.c ****             pOut[0 ] = acc1a ;
 313:DSP/Source/FilteringFunctions/arm_biquad_cascade_stereo_df2T_f32.c ****             d2a = b2 * Xn7a;
 314:DSP/Source/FilteringFunctions/arm_biquad_cascade_stereo_df2T_f32.c **** 
 315:DSP/Source/FilteringFunctions/arm_biquad_cascade_stereo_df2T_f32.c ****             pOut[1 ] = acc1b ;
 316:DSP/Source/FilteringFunctions/arm_biquad_cascade_stereo_df2T_f32.c ****             d1a += a1 * acc7a;
 317:DSP/Source/FilteringFunctions/arm_biquad_cascade_stereo_df2T_f32.c **** 
 318:DSP/Source/FilteringFunctions/arm_biquad_cascade_stereo_df2T_f32.c ****             pOut[2 ] = acc2a ;
 319:DSP/Source/FilteringFunctions/arm_biquad_cascade_stereo_df2T_f32.c ****             d2a += a2 * acc7a;
 320:DSP/Source/FilteringFunctions/arm_biquad_cascade_stereo_df2T_f32.c **** 
 321:DSP/Source/FilteringFunctions/arm_biquad_cascade_stereo_df2T_f32.c ****             /* Sample 14. 5 cycles */
 322:DSP/Source/FilteringFunctions/arm_biquad_cascade_stereo_df2T_f32.c ****             pOut[3 ] = acc2b ;
 323:DSP/Source/FilteringFunctions/arm_biquad_cascade_stereo_df2T_f32.c ****             acc7b = b0 * Xn7b + d1b;
 324:DSP/Source/FilteringFunctions/arm_biquad_cascade_stereo_df2T_f32.c **** 
 325:DSP/Source/FilteringFunctions/arm_biquad_cascade_stereo_df2T_f32.c ****             pOut[4 ] = acc3a ;
 326:DSP/Source/FilteringFunctions/arm_biquad_cascade_stereo_df2T_f32.c ****             d1b = b1 * Xn7b + d2b;
 327:DSP/Source/FilteringFunctions/arm_biquad_cascade_stereo_df2T_f32.c **** 
 328:DSP/Source/FilteringFunctions/arm_biquad_cascade_stereo_df2T_f32.c ****             pOut[5 ] = acc3b ;
 329:DSP/Source/FilteringFunctions/arm_biquad_cascade_stereo_df2T_f32.c ****             d2b = b2 * Xn7b;
 330:DSP/Source/FilteringFunctions/arm_biquad_cascade_stereo_df2T_f32.c **** 
 331:DSP/Source/FilteringFunctions/arm_biquad_cascade_stereo_df2T_f32.c ****             pOut[6 ] = acc4a ;
ARM GAS  /var/folders/ck/g3dcd5x55xs4107jgdl0snvr0000gn/T//cc4d5yUa.s 			page 8


 332:DSP/Source/FilteringFunctions/arm_biquad_cascade_stereo_df2T_f32.c ****             d1b += a1 * acc7b;
 333:DSP/Source/FilteringFunctions/arm_biquad_cascade_stereo_df2T_f32.c **** 
 334:DSP/Source/FilteringFunctions/arm_biquad_cascade_stereo_df2T_f32.c ****             pOut[7 ] = acc4b ;
 335:DSP/Source/FilteringFunctions/arm_biquad_cascade_stereo_df2T_f32.c ****             d2b += a2 * acc7b;
 336:DSP/Source/FilteringFunctions/arm_biquad_cascade_stereo_df2T_f32.c **** 
 337:DSP/Source/FilteringFunctions/arm_biquad_cascade_stereo_df2T_f32.c ****             /* Sample 15. 5 cycles */
 338:DSP/Source/FilteringFunctions/arm_biquad_cascade_stereo_df2T_f32.c ****             pOut[8 ] = acc5a ;
 339:DSP/Source/FilteringFunctions/arm_biquad_cascade_stereo_df2T_f32.c ****             acc8a = b0 * Xn8a + d1a;
 340:DSP/Source/FilteringFunctions/arm_biquad_cascade_stereo_df2T_f32.c **** 
 341:DSP/Source/FilteringFunctions/arm_biquad_cascade_stereo_df2T_f32.c ****             pOut[9 ] = acc5b;
 342:DSP/Source/FilteringFunctions/arm_biquad_cascade_stereo_df2T_f32.c ****             d1a = b1 * Xn8a + d2a;
 343:DSP/Source/FilteringFunctions/arm_biquad_cascade_stereo_df2T_f32.c **** 
 344:DSP/Source/FilteringFunctions/arm_biquad_cascade_stereo_df2T_f32.c ****             pOut[10] = acc6a;
 345:DSP/Source/FilteringFunctions/arm_biquad_cascade_stereo_df2T_f32.c ****             d2a = b2 * Xn8a;
 346:DSP/Source/FilteringFunctions/arm_biquad_cascade_stereo_df2T_f32.c **** 
 347:DSP/Source/FilteringFunctions/arm_biquad_cascade_stereo_df2T_f32.c ****             pOut[11] = acc6b;
 348:DSP/Source/FilteringFunctions/arm_biquad_cascade_stereo_df2T_f32.c ****             d1a += a1 * acc8a;
 349:DSP/Source/FilteringFunctions/arm_biquad_cascade_stereo_df2T_f32.c **** 
 350:DSP/Source/FilteringFunctions/arm_biquad_cascade_stereo_df2T_f32.c ****             pOut[12] = acc7a;
 351:DSP/Source/FilteringFunctions/arm_biquad_cascade_stereo_df2T_f32.c ****             d2a += a2 * acc8a;
 352:DSP/Source/FilteringFunctions/arm_biquad_cascade_stereo_df2T_f32.c **** 
 353:DSP/Source/FilteringFunctions/arm_biquad_cascade_stereo_df2T_f32.c ****             /* Sample 16. 5 cycles */
 354:DSP/Source/FilteringFunctions/arm_biquad_cascade_stereo_df2T_f32.c ****             pOut[13] = acc7b;
 355:DSP/Source/FilteringFunctions/arm_biquad_cascade_stereo_df2T_f32.c ****             acc8b = b0 * Xn8b + d1b;
 356:DSP/Source/FilteringFunctions/arm_biquad_cascade_stereo_df2T_f32.c **** 
 357:DSP/Source/FilteringFunctions/arm_biquad_cascade_stereo_df2T_f32.c ****             pOut[14] = acc8a;
 358:DSP/Source/FilteringFunctions/arm_biquad_cascade_stereo_df2T_f32.c ****             d1b = b1 * Xn8b + d2b;
 359:DSP/Source/FilteringFunctions/arm_biquad_cascade_stereo_df2T_f32.c **** 
 360:DSP/Source/FilteringFunctions/arm_biquad_cascade_stereo_df2T_f32.c ****             pOut[15] = acc8b;
 361:DSP/Source/FilteringFunctions/arm_biquad_cascade_stereo_df2T_f32.c ****             d2b = b2 * Xn8b;
 362:DSP/Source/FilteringFunctions/arm_biquad_cascade_stereo_df2T_f32.c **** 
 363:DSP/Source/FilteringFunctions/arm_biquad_cascade_stereo_df2T_f32.c ****             sample--;
 364:DSP/Source/FilteringFunctions/arm_biquad_cascade_stereo_df2T_f32.c ****             d1b += a1 * acc8b;
 365:DSP/Source/FilteringFunctions/arm_biquad_cascade_stereo_df2T_f32.c **** 
 366:DSP/Source/FilteringFunctions/arm_biquad_cascade_stereo_df2T_f32.c ****             pOut += 16;
 367:DSP/Source/FilteringFunctions/arm_biquad_cascade_stereo_df2T_f32.c ****             d2b += a2 * acc8b;
 368:DSP/Source/FilteringFunctions/arm_biquad_cascade_stereo_df2T_f32.c ****         }
 369:DSP/Source/FilteringFunctions/arm_biquad_cascade_stereo_df2T_f32.c **** 
 370:DSP/Source/FilteringFunctions/arm_biquad_cascade_stereo_df2T_f32.c ****         sample = blockSize & 0x7U;
 371:DSP/Source/FilteringFunctions/arm_biquad_cascade_stereo_df2T_f32.c ****         while (sample > 0U) {
 372:DSP/Source/FilteringFunctions/arm_biquad_cascade_stereo_df2T_f32.c ****             /* Read the input */
 373:DSP/Source/FilteringFunctions/arm_biquad_cascade_stereo_df2T_f32.c ****             Xn1a = *pIn++; //Channel a
 374:DSP/Source/FilteringFunctions/arm_biquad_cascade_stereo_df2T_f32.c ****             Xn1b = *pIn++; //Channel b
 375:DSP/Source/FilteringFunctions/arm_biquad_cascade_stereo_df2T_f32.c **** 
 376:DSP/Source/FilteringFunctions/arm_biquad_cascade_stereo_df2T_f32.c ****             /* y[n] = b0 * x[n] + d1 */
 377:DSP/Source/FilteringFunctions/arm_biquad_cascade_stereo_df2T_f32.c ****             acc1a = (b0 * Xn1a) + d1a;
 378:DSP/Source/FilteringFunctions/arm_biquad_cascade_stereo_df2T_f32.c ****             acc1b = (b0 * Xn1b) + d1b;
 379:DSP/Source/FilteringFunctions/arm_biquad_cascade_stereo_df2T_f32.c **** 
 380:DSP/Source/FilteringFunctions/arm_biquad_cascade_stereo_df2T_f32.c ****             /* Store the result in the accumulator in the destination buffer. */
 381:DSP/Source/FilteringFunctions/arm_biquad_cascade_stereo_df2T_f32.c ****             *pOut++ = acc1a;
 382:DSP/Source/FilteringFunctions/arm_biquad_cascade_stereo_df2T_f32.c ****             *pOut++ = acc1b;
 383:DSP/Source/FilteringFunctions/arm_biquad_cascade_stereo_df2T_f32.c **** 
 384:DSP/Source/FilteringFunctions/arm_biquad_cascade_stereo_df2T_f32.c ****             /* Every time after the output is computed state should be updated. */
 385:DSP/Source/FilteringFunctions/arm_biquad_cascade_stereo_df2T_f32.c ****             /* d1 = b1 * x[n] + a1 * y[n] + d2 */
 386:DSP/Source/FilteringFunctions/arm_biquad_cascade_stereo_df2T_f32.c ****             d1a = ((b1 * Xn1a) + (a1 * acc1a)) + d2a;
 387:DSP/Source/FilteringFunctions/arm_biquad_cascade_stereo_df2T_f32.c ****             d1b = ((b1 * Xn1b) + (a1 * acc1b)) + d2b;
 388:DSP/Source/FilteringFunctions/arm_biquad_cascade_stereo_df2T_f32.c **** 
ARM GAS  /var/folders/ck/g3dcd5x55xs4107jgdl0snvr0000gn/T//cc4d5yUa.s 			page 9


 389:DSP/Source/FilteringFunctions/arm_biquad_cascade_stereo_df2T_f32.c ****             /* d2 = b2 * x[n] + a2 * y[n] */
 390:DSP/Source/FilteringFunctions/arm_biquad_cascade_stereo_df2T_f32.c ****             d2a = (b2 * Xn1a) + (a2 * acc1a);
 391:DSP/Source/FilteringFunctions/arm_biquad_cascade_stereo_df2T_f32.c ****             d2b = (b2 * Xn1b) + (a2 * acc1b);
 392:DSP/Source/FilteringFunctions/arm_biquad_cascade_stereo_df2T_f32.c **** 
 393:DSP/Source/FilteringFunctions/arm_biquad_cascade_stereo_df2T_f32.c ****             sample--;
 394:DSP/Source/FilteringFunctions/arm_biquad_cascade_stereo_df2T_f32.c ****         }
 395:DSP/Source/FilteringFunctions/arm_biquad_cascade_stereo_df2T_f32.c **** 
 396:DSP/Source/FilteringFunctions/arm_biquad_cascade_stereo_df2T_f32.c ****         /* Store the updated state variables back into the state array */
 397:DSP/Source/FilteringFunctions/arm_biquad_cascade_stereo_df2T_f32.c ****         pState[0] = d1a;
 398:DSP/Source/FilteringFunctions/arm_biquad_cascade_stereo_df2T_f32.c ****         pState[1] = d2a;
 399:DSP/Source/FilteringFunctions/arm_biquad_cascade_stereo_df2T_f32.c **** 
 400:DSP/Source/FilteringFunctions/arm_biquad_cascade_stereo_df2T_f32.c ****         pState[2] = d1b;
 401:DSP/Source/FilteringFunctions/arm_biquad_cascade_stereo_df2T_f32.c ****         pState[3] = d2b;
 402:DSP/Source/FilteringFunctions/arm_biquad_cascade_stereo_df2T_f32.c **** 
 403:DSP/Source/FilteringFunctions/arm_biquad_cascade_stereo_df2T_f32.c ****         /* The current stage input is given as the output to the next stage */
 404:DSP/Source/FilteringFunctions/arm_biquad_cascade_stereo_df2T_f32.c ****         pIn = pDst;
 405:DSP/Source/FilteringFunctions/arm_biquad_cascade_stereo_df2T_f32.c ****         /* decrement the loop counter */
 406:DSP/Source/FilteringFunctions/arm_biquad_cascade_stereo_df2T_f32.c ****         stage--;
 407:DSP/Source/FilteringFunctions/arm_biquad_cascade_stereo_df2T_f32.c **** 
 408:DSP/Source/FilteringFunctions/arm_biquad_cascade_stereo_df2T_f32.c ****         pState += 4U;
 409:DSP/Source/FilteringFunctions/arm_biquad_cascade_stereo_df2T_f32.c ****         /*Reset the output working pointer */
 410:DSP/Source/FilteringFunctions/arm_biquad_cascade_stereo_df2T_f32.c ****         pOut = pDst;
 411:DSP/Source/FilteringFunctions/arm_biquad_cascade_stereo_df2T_f32.c **** 
 412:DSP/Source/FilteringFunctions/arm_biquad_cascade_stereo_df2T_f32.c ****     } while (stage > 0U);
 413:DSP/Source/FilteringFunctions/arm_biquad_cascade_stereo_df2T_f32.c **** 
 414:DSP/Source/FilteringFunctions/arm_biquad_cascade_stereo_df2T_f32.c **** #elif defined(ARM_MATH_CM0_FAMILY)
 415:DSP/Source/FilteringFunctions/arm_biquad_cascade_stereo_df2T_f32.c **** 
 416:DSP/Source/FilteringFunctions/arm_biquad_cascade_stereo_df2T_f32.c ****     /* Run the below code for Cortex-M0 */
 417:DSP/Source/FilteringFunctions/arm_biquad_cascade_stereo_df2T_f32.c **** 
 418:DSP/Source/FilteringFunctions/arm_biquad_cascade_stereo_df2T_f32.c ****     do
 419:DSP/Source/FilteringFunctions/arm_biquad_cascade_stereo_df2T_f32.c ****     {
 420:DSP/Source/FilteringFunctions/arm_biquad_cascade_stereo_df2T_f32.c ****         /* Reading the coefficients */
 421:DSP/Source/FilteringFunctions/arm_biquad_cascade_stereo_df2T_f32.c ****         b0 = *pCoeffs++;
 422:DSP/Source/FilteringFunctions/arm_biquad_cascade_stereo_df2T_f32.c ****         b1 = *pCoeffs++;
 423:DSP/Source/FilteringFunctions/arm_biquad_cascade_stereo_df2T_f32.c ****         b2 = *pCoeffs++;
 424:DSP/Source/FilteringFunctions/arm_biquad_cascade_stereo_df2T_f32.c ****         a1 = *pCoeffs++;
 425:DSP/Source/FilteringFunctions/arm_biquad_cascade_stereo_df2T_f32.c ****         a2 = *pCoeffs++;
 426:DSP/Source/FilteringFunctions/arm_biquad_cascade_stereo_df2T_f32.c **** 
 427:DSP/Source/FilteringFunctions/arm_biquad_cascade_stereo_df2T_f32.c ****         /*Reading the state values */
 428:DSP/Source/FilteringFunctions/arm_biquad_cascade_stereo_df2T_f32.c ****         d1a = pState[0];
 429:DSP/Source/FilteringFunctions/arm_biquad_cascade_stereo_df2T_f32.c ****         d2a = pState[1];
 430:DSP/Source/FilteringFunctions/arm_biquad_cascade_stereo_df2T_f32.c ****         d1b = pState[2];
 431:DSP/Source/FilteringFunctions/arm_biquad_cascade_stereo_df2T_f32.c ****         d2b = pState[3];
 432:DSP/Source/FilteringFunctions/arm_biquad_cascade_stereo_df2T_f32.c **** 
 433:DSP/Source/FilteringFunctions/arm_biquad_cascade_stereo_df2T_f32.c **** 
 434:DSP/Source/FilteringFunctions/arm_biquad_cascade_stereo_df2T_f32.c ****         sample = blockSize;
 435:DSP/Source/FilteringFunctions/arm_biquad_cascade_stereo_df2T_f32.c **** 
 436:DSP/Source/FilteringFunctions/arm_biquad_cascade_stereo_df2T_f32.c ****         while (sample > 0U)
 437:DSP/Source/FilteringFunctions/arm_biquad_cascade_stereo_df2T_f32.c ****         {
 438:DSP/Source/FilteringFunctions/arm_biquad_cascade_stereo_df2T_f32.c ****             /* Read the input */
 439:DSP/Source/FilteringFunctions/arm_biquad_cascade_stereo_df2T_f32.c ****             Xn1a = *pIn++; //Channel a
 440:DSP/Source/FilteringFunctions/arm_biquad_cascade_stereo_df2T_f32.c ****             Xn1b = *pIn++; //Channel b
 441:DSP/Source/FilteringFunctions/arm_biquad_cascade_stereo_df2T_f32.c **** 
 442:DSP/Source/FilteringFunctions/arm_biquad_cascade_stereo_df2T_f32.c ****             /* y[n] = b0 * x[n] + d1 */
 443:DSP/Source/FilteringFunctions/arm_biquad_cascade_stereo_df2T_f32.c ****             acc1a = (b0 * Xn1a) + d1a;
 444:DSP/Source/FilteringFunctions/arm_biquad_cascade_stereo_df2T_f32.c ****             acc1b = (b0 * Xn1b) + d1b;
 445:DSP/Source/FilteringFunctions/arm_biquad_cascade_stereo_df2T_f32.c **** 
ARM GAS  /var/folders/ck/g3dcd5x55xs4107jgdl0snvr0000gn/T//cc4d5yUa.s 			page 10


 446:DSP/Source/FilteringFunctions/arm_biquad_cascade_stereo_df2T_f32.c ****             /* Store the result in the accumulator in the destination buffer. */
 447:DSP/Source/FilteringFunctions/arm_biquad_cascade_stereo_df2T_f32.c ****             *pOut++ = acc1a;
 448:DSP/Source/FilteringFunctions/arm_biquad_cascade_stereo_df2T_f32.c ****             *pOut++ = acc1b;
 449:DSP/Source/FilteringFunctions/arm_biquad_cascade_stereo_df2T_f32.c **** 
 450:DSP/Source/FilteringFunctions/arm_biquad_cascade_stereo_df2T_f32.c ****             /* Every time after the output is computed state should be updated. */
 451:DSP/Source/FilteringFunctions/arm_biquad_cascade_stereo_df2T_f32.c ****             /* d1 = b1 * x[n] + a1 * y[n] + d2 */
 452:DSP/Source/FilteringFunctions/arm_biquad_cascade_stereo_df2T_f32.c ****             d1a = ((b1 * Xn1a) + (a1 * acc1a)) + d2a;
 453:DSP/Source/FilteringFunctions/arm_biquad_cascade_stereo_df2T_f32.c ****             d1b = ((b1 * Xn1b) + (a1 * acc1b)) + d2b;
 454:DSP/Source/FilteringFunctions/arm_biquad_cascade_stereo_df2T_f32.c **** 
 455:DSP/Source/FilteringFunctions/arm_biquad_cascade_stereo_df2T_f32.c ****             /* d2 = b2 * x[n] + a2 * y[n] */
 456:DSP/Source/FilteringFunctions/arm_biquad_cascade_stereo_df2T_f32.c ****             d2a = (b2 * Xn1a) + (a2 * acc1a);
 457:DSP/Source/FilteringFunctions/arm_biquad_cascade_stereo_df2T_f32.c ****             d2b = (b2 * Xn1b) + (a2 * acc1b);
 458:DSP/Source/FilteringFunctions/arm_biquad_cascade_stereo_df2T_f32.c **** 
 459:DSP/Source/FilteringFunctions/arm_biquad_cascade_stereo_df2T_f32.c ****             /* decrement the loop counter */
 460:DSP/Source/FilteringFunctions/arm_biquad_cascade_stereo_df2T_f32.c ****             sample--;
 461:DSP/Source/FilteringFunctions/arm_biquad_cascade_stereo_df2T_f32.c ****         }
 462:DSP/Source/FilteringFunctions/arm_biquad_cascade_stereo_df2T_f32.c **** 
 463:DSP/Source/FilteringFunctions/arm_biquad_cascade_stereo_df2T_f32.c ****         /* Store the updated state variables back into the state array */
 464:DSP/Source/FilteringFunctions/arm_biquad_cascade_stereo_df2T_f32.c ****         *pState++ = d1a;
 465:DSP/Source/FilteringFunctions/arm_biquad_cascade_stereo_df2T_f32.c ****         *pState++ = d2a;
 466:DSP/Source/FilteringFunctions/arm_biquad_cascade_stereo_df2T_f32.c ****         *pState++ = d1b;
 467:DSP/Source/FilteringFunctions/arm_biquad_cascade_stereo_df2T_f32.c ****         *pState++ = d2b;
 468:DSP/Source/FilteringFunctions/arm_biquad_cascade_stereo_df2T_f32.c **** 
 469:DSP/Source/FilteringFunctions/arm_biquad_cascade_stereo_df2T_f32.c ****         /* The current stage input is given as the output to the next stage */
 470:DSP/Source/FilteringFunctions/arm_biquad_cascade_stereo_df2T_f32.c ****         pIn = pDst;
 471:DSP/Source/FilteringFunctions/arm_biquad_cascade_stereo_df2T_f32.c **** 
 472:DSP/Source/FilteringFunctions/arm_biquad_cascade_stereo_df2T_f32.c ****         /*Reset the output working pointer */
 473:DSP/Source/FilteringFunctions/arm_biquad_cascade_stereo_df2T_f32.c ****         pOut = pDst;
 474:DSP/Source/FilteringFunctions/arm_biquad_cascade_stereo_df2T_f32.c **** 
 475:DSP/Source/FilteringFunctions/arm_biquad_cascade_stereo_df2T_f32.c ****         /* decrement the loop counter */
 476:DSP/Source/FilteringFunctions/arm_biquad_cascade_stereo_df2T_f32.c ****         stage--;
 477:DSP/Source/FilteringFunctions/arm_biquad_cascade_stereo_df2T_f32.c **** 
 478:DSP/Source/FilteringFunctions/arm_biquad_cascade_stereo_df2T_f32.c ****     } while (stage > 0U);
 479:DSP/Source/FilteringFunctions/arm_biquad_cascade_stereo_df2T_f32.c **** 
 480:DSP/Source/FilteringFunctions/arm_biquad_cascade_stereo_df2T_f32.c **** #else
 481:DSP/Source/FilteringFunctions/arm_biquad_cascade_stereo_df2T_f32.c **** 
 482:DSP/Source/FilteringFunctions/arm_biquad_cascade_stereo_df2T_f32.c ****     float32_t Xn2a, Xn3a, Xn4a;                          /*  Input State variables     */
 483:DSP/Source/FilteringFunctions/arm_biquad_cascade_stereo_df2T_f32.c ****     float32_t Xn2b, Xn3b, Xn4b;                          /*  Input State variables     */
 484:DSP/Source/FilteringFunctions/arm_biquad_cascade_stereo_df2T_f32.c ****     float32_t acc2a, acc3a, acc4a;                       /*  accumulator               */
 485:DSP/Source/FilteringFunctions/arm_biquad_cascade_stereo_df2T_f32.c ****     float32_t acc2b, acc3b, acc4b;                       /*  accumulator               */
 486:DSP/Source/FilteringFunctions/arm_biquad_cascade_stereo_df2T_f32.c ****     float32_t p0a, p1a, p2a, p3a, p4a, A1a;
 487:DSP/Source/FilteringFunctions/arm_biquad_cascade_stereo_df2T_f32.c ****     float32_t p0b, p1b, p2b, p3b, p4b, A1b;
 488:DSP/Source/FilteringFunctions/arm_biquad_cascade_stereo_df2T_f32.c **** 
 489:DSP/Source/FilteringFunctions/arm_biquad_cascade_stereo_df2T_f32.c ****     /* Run the below code for Cortex-M4 and Cortex-M3 */
 490:DSP/Source/FilteringFunctions/arm_biquad_cascade_stereo_df2T_f32.c ****     do
 491:DSP/Source/FilteringFunctions/arm_biquad_cascade_stereo_df2T_f32.c ****     {
 492:DSP/Source/FilteringFunctions/arm_biquad_cascade_stereo_df2T_f32.c ****         /* Reading the coefficients */
 493:DSP/Source/FilteringFunctions/arm_biquad_cascade_stereo_df2T_f32.c ****         b0 = *pCoeffs++;
 494:DSP/Source/FilteringFunctions/arm_biquad_cascade_stereo_df2T_f32.c ****         b1 = *pCoeffs++;
 495:DSP/Source/FilteringFunctions/arm_biquad_cascade_stereo_df2T_f32.c ****         b2 = *pCoeffs++;
 496:DSP/Source/FilteringFunctions/arm_biquad_cascade_stereo_df2T_f32.c ****         a1 = *pCoeffs++;
 497:DSP/Source/FilteringFunctions/arm_biquad_cascade_stereo_df2T_f32.c ****         a2 = *pCoeffs++;
 498:DSP/Source/FilteringFunctions/arm_biquad_cascade_stereo_df2T_f32.c **** 
 499:DSP/Source/FilteringFunctions/arm_biquad_cascade_stereo_df2T_f32.c ****         /*Reading the state values */
 500:DSP/Source/FilteringFunctions/arm_biquad_cascade_stereo_df2T_f32.c ****         d1a = pState[0];
 501:DSP/Source/FilteringFunctions/arm_biquad_cascade_stereo_df2T_f32.c ****         d2a = pState[1];
 502:DSP/Source/FilteringFunctions/arm_biquad_cascade_stereo_df2T_f32.c ****         d1b = pState[2];
ARM GAS  /var/folders/ck/g3dcd5x55xs4107jgdl0snvr0000gn/T//cc4d5yUa.s 			page 11


 503:DSP/Source/FilteringFunctions/arm_biquad_cascade_stereo_df2T_f32.c ****         d2b = pState[3];
 504:DSP/Source/FilteringFunctions/arm_biquad_cascade_stereo_df2T_f32.c **** 
 505:DSP/Source/FilteringFunctions/arm_biquad_cascade_stereo_df2T_f32.c ****         /* Apply loop unrolling and compute 4 output values simultaneously. */
 506:DSP/Source/FilteringFunctions/arm_biquad_cascade_stereo_df2T_f32.c ****         sample = blockSize >> 2U;
  70              		.loc 1 506 16 view .LVU12
  71 000c 9E08     		lsrs	r6, r3, #2
  72 000e 8268     		ldr	r2, [r0, #8]
  73              	.LVL3:
  74              		.loc 1 506 16 view .LVU13
  75 0010 02F1140E 		add	lr, r2, #20
  76 0014 4268     		ldr	r2, [r0, #4]
  77 0016 02F1100C 		add	ip, r2, #16
  78 001a 4FEA461A 		lsl	r10, r6, #5
  79 001e 05EB4619 		add	r9, r5, r6, lsl #5
 507:DSP/Source/FilteringFunctions/arm_biquad_cascade_stereo_df2T_f32.c **** 
 508:DSP/Source/FilteringFunctions/arm_biquad_cascade_stereo_df2T_f32.c ****         /* First part of the processing with loop unrolling.  Compute 4 outputs at a time.
 509:DSP/Source/FilteringFunctions/arm_biquad_cascade_stereo_df2T_f32.c ****         ** a second loop below computes the remaining 1 to 3 samples. */
 510:DSP/Source/FilteringFunctions/arm_biquad_cascade_stereo_df2T_f32.c ****         while (sample > 0U) {
 511:DSP/Source/FilteringFunctions/arm_biquad_cascade_stereo_df2T_f32.c **** 
 512:DSP/Source/FilteringFunctions/arm_biquad_cascade_stereo_df2T_f32.c ****             /* y[n] = b0 * x[n] + d1 */
 513:DSP/Source/FilteringFunctions/arm_biquad_cascade_stereo_df2T_f32.c ****             /* d1 = b1 * x[n] + a1 * y[n] + d2 */
 514:DSP/Source/FilteringFunctions/arm_biquad_cascade_stereo_df2T_f32.c ****             /* d2 = b2 * x[n] + a2 * y[n] */
 515:DSP/Source/FilteringFunctions/arm_biquad_cascade_stereo_df2T_f32.c **** 
 516:DSP/Source/FilteringFunctions/arm_biquad_cascade_stereo_df2T_f32.c ****             /* Read the four inputs */
 517:DSP/Source/FilteringFunctions/arm_biquad_cascade_stereo_df2T_f32.c ****             Xn1a = pIn[0];
 518:DSP/Source/FilteringFunctions/arm_biquad_cascade_stereo_df2T_f32.c ****             Xn1b = pIn[1];
 519:DSP/Source/FilteringFunctions/arm_biquad_cascade_stereo_df2T_f32.c ****             Xn2a = pIn[2];
 520:DSP/Source/FilteringFunctions/arm_biquad_cascade_stereo_df2T_f32.c ****             Xn2b = pIn[3];
 521:DSP/Source/FilteringFunctions/arm_biquad_cascade_stereo_df2T_f32.c ****             Xn3a = pIn[4];
 522:DSP/Source/FilteringFunctions/arm_biquad_cascade_stereo_df2T_f32.c ****             Xn3b = pIn[5];
 523:DSP/Source/FilteringFunctions/arm_biquad_cascade_stereo_df2T_f32.c ****             Xn4a = pIn[6];
 524:DSP/Source/FilteringFunctions/arm_biquad_cascade_stereo_df2T_f32.c ****             Xn4b = pIn[7];
 525:DSP/Source/FilteringFunctions/arm_biquad_cascade_stereo_df2T_f32.c ****             pIn += 8;
 526:DSP/Source/FilteringFunctions/arm_biquad_cascade_stereo_df2T_f32.c **** 
 527:DSP/Source/FilteringFunctions/arm_biquad_cascade_stereo_df2T_f32.c ****             p0a = b0 * Xn1a;
 528:DSP/Source/FilteringFunctions/arm_biquad_cascade_stereo_df2T_f32.c ****             p0b = b0 * Xn1b;
 529:DSP/Source/FilteringFunctions/arm_biquad_cascade_stereo_df2T_f32.c ****             p1a = b1 * Xn1a;
 530:DSP/Source/FilteringFunctions/arm_biquad_cascade_stereo_df2T_f32.c ****             p1b = b1 * Xn1b;
 531:DSP/Source/FilteringFunctions/arm_biquad_cascade_stereo_df2T_f32.c ****             acc1a = p0a + d1a;
 532:DSP/Source/FilteringFunctions/arm_biquad_cascade_stereo_df2T_f32.c ****             acc1b = p0b + d1b;
 533:DSP/Source/FilteringFunctions/arm_biquad_cascade_stereo_df2T_f32.c ****             p0a = b0 * Xn2a;
 534:DSP/Source/FilteringFunctions/arm_biquad_cascade_stereo_df2T_f32.c ****             p0b = b0 * Xn2b;
 535:DSP/Source/FilteringFunctions/arm_biquad_cascade_stereo_df2T_f32.c ****             p3a = a1 * acc1a;
 536:DSP/Source/FilteringFunctions/arm_biquad_cascade_stereo_df2T_f32.c ****             p3b = a1 * acc1b;
 537:DSP/Source/FilteringFunctions/arm_biquad_cascade_stereo_df2T_f32.c ****             p2a = b2 * Xn1a;
 538:DSP/Source/FilteringFunctions/arm_biquad_cascade_stereo_df2T_f32.c ****             p2b = b2 * Xn1b;
 539:DSP/Source/FilteringFunctions/arm_biquad_cascade_stereo_df2T_f32.c ****             A1a = p1a + p3a;
 540:DSP/Source/FilteringFunctions/arm_biquad_cascade_stereo_df2T_f32.c ****             A1b = p1b + p3b;
 541:DSP/Source/FilteringFunctions/arm_biquad_cascade_stereo_df2T_f32.c ****             p4a = a2 * acc1a;
 542:DSP/Source/FilteringFunctions/arm_biquad_cascade_stereo_df2T_f32.c ****             p4b = a2 * acc1b;
 543:DSP/Source/FilteringFunctions/arm_biquad_cascade_stereo_df2T_f32.c ****             d1a = A1a + d2a;
 544:DSP/Source/FilteringFunctions/arm_biquad_cascade_stereo_df2T_f32.c ****             d1b = A1b + d2b;
 545:DSP/Source/FilteringFunctions/arm_biquad_cascade_stereo_df2T_f32.c ****             d2a = p2a + p4a;
 546:DSP/Source/FilteringFunctions/arm_biquad_cascade_stereo_df2T_f32.c ****             d2b = p2b + p4b;
 547:DSP/Source/FilteringFunctions/arm_biquad_cascade_stereo_df2T_f32.c **** 
 548:DSP/Source/FilteringFunctions/arm_biquad_cascade_stereo_df2T_f32.c ****             p1a = b1 * Xn2a;
 549:DSP/Source/FilteringFunctions/arm_biquad_cascade_stereo_df2T_f32.c ****             p1b = b1 * Xn2b;
ARM GAS  /var/folders/ck/g3dcd5x55xs4107jgdl0snvr0000gn/T//cc4d5yUa.s 			page 12


 550:DSP/Source/FilteringFunctions/arm_biquad_cascade_stereo_df2T_f32.c ****             acc2a = p0a + d1a;
 551:DSP/Source/FilteringFunctions/arm_biquad_cascade_stereo_df2T_f32.c ****             acc2b = p0b + d1b;
 552:DSP/Source/FilteringFunctions/arm_biquad_cascade_stereo_df2T_f32.c ****             p0a = b0 * Xn3a;
 553:DSP/Source/FilteringFunctions/arm_biquad_cascade_stereo_df2T_f32.c ****             p0b = b0 * Xn3b;
 554:DSP/Source/FilteringFunctions/arm_biquad_cascade_stereo_df2T_f32.c ****             p3a = a1 * acc2a;
 555:DSP/Source/FilteringFunctions/arm_biquad_cascade_stereo_df2T_f32.c ****             p3b = a1 * acc2b;
 556:DSP/Source/FilteringFunctions/arm_biquad_cascade_stereo_df2T_f32.c ****             p2a = b2 * Xn2a;
 557:DSP/Source/FilteringFunctions/arm_biquad_cascade_stereo_df2T_f32.c ****             p2b = b2 * Xn2b;
 558:DSP/Source/FilteringFunctions/arm_biquad_cascade_stereo_df2T_f32.c ****             A1a = p1a + p3a;
 559:DSP/Source/FilteringFunctions/arm_biquad_cascade_stereo_df2T_f32.c ****             A1b = p1b + p3b;
 560:DSP/Source/FilteringFunctions/arm_biquad_cascade_stereo_df2T_f32.c ****             p4a = a2 * acc2a;
 561:DSP/Source/FilteringFunctions/arm_biquad_cascade_stereo_df2T_f32.c ****             p4b = a2 * acc2b;
 562:DSP/Source/FilteringFunctions/arm_biquad_cascade_stereo_df2T_f32.c ****             d1a = A1a + d2a;
 563:DSP/Source/FilteringFunctions/arm_biquad_cascade_stereo_df2T_f32.c ****             d1b = A1b + d2b;
 564:DSP/Source/FilteringFunctions/arm_biquad_cascade_stereo_df2T_f32.c ****             d2a = p2a + p4a;
 565:DSP/Source/FilteringFunctions/arm_biquad_cascade_stereo_df2T_f32.c ****             d2b = p2b + p4b;
 566:DSP/Source/FilteringFunctions/arm_biquad_cascade_stereo_df2T_f32.c **** 
 567:DSP/Source/FilteringFunctions/arm_biquad_cascade_stereo_df2T_f32.c ****             p1a = b1 * Xn3a;
 568:DSP/Source/FilteringFunctions/arm_biquad_cascade_stereo_df2T_f32.c ****             p1b = b1 * Xn3b;
 569:DSP/Source/FilteringFunctions/arm_biquad_cascade_stereo_df2T_f32.c ****             acc3a = p0a + d1a;
 570:DSP/Source/FilteringFunctions/arm_biquad_cascade_stereo_df2T_f32.c ****             acc3b = p0b + d1b;
 571:DSP/Source/FilteringFunctions/arm_biquad_cascade_stereo_df2T_f32.c ****             p0a = b0 * Xn4a;
 572:DSP/Source/FilteringFunctions/arm_biquad_cascade_stereo_df2T_f32.c ****             p0b = b0 * Xn4b;
 573:DSP/Source/FilteringFunctions/arm_biquad_cascade_stereo_df2T_f32.c ****             p3a = a1 * acc3a;
 574:DSP/Source/FilteringFunctions/arm_biquad_cascade_stereo_df2T_f32.c ****             p3b = a1 * acc3b;
 575:DSP/Source/FilteringFunctions/arm_biquad_cascade_stereo_df2T_f32.c ****             p2a = b2 * Xn3a;
 576:DSP/Source/FilteringFunctions/arm_biquad_cascade_stereo_df2T_f32.c ****             p2b = b2 * Xn3b;
 577:DSP/Source/FilteringFunctions/arm_biquad_cascade_stereo_df2T_f32.c ****             A1a = p1a + p3a;
 578:DSP/Source/FilteringFunctions/arm_biquad_cascade_stereo_df2T_f32.c ****             A1b = p1b + p3b;
 579:DSP/Source/FilteringFunctions/arm_biquad_cascade_stereo_df2T_f32.c ****             p4a = a2 * acc3a;
 580:DSP/Source/FilteringFunctions/arm_biquad_cascade_stereo_df2T_f32.c ****             p4b = a2 * acc3b;
 581:DSP/Source/FilteringFunctions/arm_biquad_cascade_stereo_df2T_f32.c ****             d1a = A1a + d2a;
 582:DSP/Source/FilteringFunctions/arm_biquad_cascade_stereo_df2T_f32.c ****             d1b = A1b + d2b;
 583:DSP/Source/FilteringFunctions/arm_biquad_cascade_stereo_df2T_f32.c ****             d2a = p2a + p4a;
 584:DSP/Source/FilteringFunctions/arm_biquad_cascade_stereo_df2T_f32.c ****             d2b = p2b + p4b;
 585:DSP/Source/FilteringFunctions/arm_biquad_cascade_stereo_df2T_f32.c **** 
 586:DSP/Source/FilteringFunctions/arm_biquad_cascade_stereo_df2T_f32.c ****             acc4a = p0a + d1a;
 587:DSP/Source/FilteringFunctions/arm_biquad_cascade_stereo_df2T_f32.c ****             acc4b = p0b + d1b;
 588:DSP/Source/FilteringFunctions/arm_biquad_cascade_stereo_df2T_f32.c ****             p1a = b1 * Xn4a;
 589:DSP/Source/FilteringFunctions/arm_biquad_cascade_stereo_df2T_f32.c ****             p1b = b1 * Xn4b;
 590:DSP/Source/FilteringFunctions/arm_biquad_cascade_stereo_df2T_f32.c ****             p3a = a1 * acc4a;
 591:DSP/Source/FilteringFunctions/arm_biquad_cascade_stereo_df2T_f32.c ****             p3b = a1 * acc4b;
 592:DSP/Source/FilteringFunctions/arm_biquad_cascade_stereo_df2T_f32.c ****             p2a = b2 * Xn4a;
 593:DSP/Source/FilteringFunctions/arm_biquad_cascade_stereo_df2T_f32.c ****             p2b = b2 * Xn4b;
 594:DSP/Source/FilteringFunctions/arm_biquad_cascade_stereo_df2T_f32.c ****             A1a = p1a + p3a;
 595:DSP/Source/FilteringFunctions/arm_biquad_cascade_stereo_df2T_f32.c ****             A1b = p1b + p3b;
 596:DSP/Source/FilteringFunctions/arm_biquad_cascade_stereo_df2T_f32.c ****             p4a = a2 * acc4a;
 597:DSP/Source/FilteringFunctions/arm_biquad_cascade_stereo_df2T_f32.c ****             p4b = a2 * acc4b;
 598:DSP/Source/FilteringFunctions/arm_biquad_cascade_stereo_df2T_f32.c ****             d1a = A1a + d2a;
 599:DSP/Source/FilteringFunctions/arm_biquad_cascade_stereo_df2T_f32.c ****             d1b = A1b + d2b;
 600:DSP/Source/FilteringFunctions/arm_biquad_cascade_stereo_df2T_f32.c ****             d2a = p2a + p4a;
 601:DSP/Source/FilteringFunctions/arm_biquad_cascade_stereo_df2T_f32.c ****             d2b = p2b + p4b;
 602:DSP/Source/FilteringFunctions/arm_biquad_cascade_stereo_df2T_f32.c **** 
 603:DSP/Source/FilteringFunctions/arm_biquad_cascade_stereo_df2T_f32.c ****             pOut[0] = acc1a;
 604:DSP/Source/FilteringFunctions/arm_biquad_cascade_stereo_df2T_f32.c ****             pOut[1] = acc1b;
 605:DSP/Source/FilteringFunctions/arm_biquad_cascade_stereo_df2T_f32.c ****             pOut[2] = acc2a;
 606:DSP/Source/FilteringFunctions/arm_biquad_cascade_stereo_df2T_f32.c ****             pOut[3] = acc2b;
ARM GAS  /var/folders/ck/g3dcd5x55xs4107jgdl0snvr0000gn/T//cc4d5yUa.s 			page 13


 607:DSP/Source/FilteringFunctions/arm_biquad_cascade_stereo_df2T_f32.c ****             pOut[4] = acc3a;
 608:DSP/Source/FilteringFunctions/arm_biquad_cascade_stereo_df2T_f32.c ****             pOut[5] = acc3b;
 609:DSP/Source/FilteringFunctions/arm_biquad_cascade_stereo_df2T_f32.c ****             pOut[6] = acc4a;
 610:DSP/Source/FilteringFunctions/arm_biquad_cascade_stereo_df2T_f32.c ****             pOut[7] = acc4b;
 611:DSP/Source/FilteringFunctions/arm_biquad_cascade_stereo_df2T_f32.c ****             pOut += 8;
 612:DSP/Source/FilteringFunctions/arm_biquad_cascade_stereo_df2T_f32.c **** 
 613:DSP/Source/FilteringFunctions/arm_biquad_cascade_stereo_df2T_f32.c ****             sample--;
 614:DSP/Source/FilteringFunctions/arm_biquad_cascade_stereo_df2T_f32.c ****         }
 615:DSP/Source/FilteringFunctions/arm_biquad_cascade_stereo_df2T_f32.c **** 
 616:DSP/Source/FilteringFunctions/arm_biquad_cascade_stereo_df2T_f32.c ****         sample = blockSize & 0x3U;
  80              		.loc 1 616 16 view .LVU14
  81 0022 03F00307 		and	r7, r3, #3
  82 0026 07F10108 		add	r8, r7, #1
  83 002a 4FEAC808 		lsl	r8, r8, #3
  84 002e 00E0     		b	.L6
  85              	.LVL4:
  86              	.L8:
 617:DSP/Source/FilteringFunctions/arm_biquad_cascade_stereo_df2T_f32.c ****         while (sample > 0U) {
 618:DSP/Source/FilteringFunctions/arm_biquad_cascade_stereo_df2T_f32.c ****             Xn1a = *pIn++;
 619:DSP/Source/FilteringFunctions/arm_biquad_cascade_stereo_df2T_f32.c ****             Xn1b = *pIn++;
 620:DSP/Source/FilteringFunctions/arm_biquad_cascade_stereo_df2T_f32.c **** 
 621:DSP/Source/FilteringFunctions/arm_biquad_cascade_stereo_df2T_f32.c ****             p0a = b0 * Xn1a;
 622:DSP/Source/FilteringFunctions/arm_biquad_cascade_stereo_df2T_f32.c ****             p0b = b0 * Xn1b;
 623:DSP/Source/FilteringFunctions/arm_biquad_cascade_stereo_df2T_f32.c ****             p1a = b1 * Xn1a;
 624:DSP/Source/FilteringFunctions/arm_biquad_cascade_stereo_df2T_f32.c ****             p1b = b1 * Xn1b;
 625:DSP/Source/FilteringFunctions/arm_biquad_cascade_stereo_df2T_f32.c ****             acc1a = p0a + d1a;
 626:DSP/Source/FilteringFunctions/arm_biquad_cascade_stereo_df2T_f32.c ****             acc1b = p0b + d1b;
 627:DSP/Source/FilteringFunctions/arm_biquad_cascade_stereo_df2T_f32.c ****             p3a = a1 * acc1a;
 628:DSP/Source/FilteringFunctions/arm_biquad_cascade_stereo_df2T_f32.c ****             p3b = a1 * acc1b;
 629:DSP/Source/FilteringFunctions/arm_biquad_cascade_stereo_df2T_f32.c ****             p2a = b2 * Xn1a;
 630:DSP/Source/FilteringFunctions/arm_biquad_cascade_stereo_df2T_f32.c ****             p2b = b2 * Xn1b;
 631:DSP/Source/FilteringFunctions/arm_biquad_cascade_stereo_df2T_f32.c ****             A1a = p1a + p3a;
 632:DSP/Source/FilteringFunctions/arm_biquad_cascade_stereo_df2T_f32.c ****             A1b = p1b + p3b;
 633:DSP/Source/FilteringFunctions/arm_biquad_cascade_stereo_df2T_f32.c ****             p4a = a2 * acc1a;
 634:DSP/Source/FilteringFunctions/arm_biquad_cascade_stereo_df2T_f32.c ****             p4b = a2 * acc1b;
 635:DSP/Source/FilteringFunctions/arm_biquad_cascade_stereo_df2T_f32.c ****             d1a = A1a + d2a;
 636:DSP/Source/FilteringFunctions/arm_biquad_cascade_stereo_df2T_f32.c ****             d1b = A1b + d2b;
 637:DSP/Source/FilteringFunctions/arm_biquad_cascade_stereo_df2T_f32.c ****             d2a = p2a + p4a;
 638:DSP/Source/FilteringFunctions/arm_biquad_cascade_stereo_df2T_f32.c ****             d2b = p2b + p4b;
 639:DSP/Source/FilteringFunctions/arm_biquad_cascade_stereo_df2T_f32.c **** 
 640:DSP/Source/FilteringFunctions/arm_biquad_cascade_stereo_df2T_f32.c ****             *pOut++ = acc1a;
 641:DSP/Source/FilteringFunctions/arm_biquad_cascade_stereo_df2T_f32.c ****             *pOut++ = acc1b;
 642:DSP/Source/FilteringFunctions/arm_biquad_cascade_stereo_df2T_f32.c **** 
 643:DSP/Source/FilteringFunctions/arm_biquad_cascade_stereo_df2T_f32.c ****             sample--;
 644:DSP/Source/FilteringFunctions/arm_biquad_cascade_stereo_df2T_f32.c ****         }
 645:DSP/Source/FilteringFunctions/arm_biquad_cascade_stereo_df2T_f32.c **** 
 646:DSP/Source/FilteringFunctions/arm_biquad_cascade_stereo_df2T_f32.c ****         /* Store the updated state variables back into the state array */
 647:DSP/Source/FilteringFunctions/arm_biquad_cascade_stereo_df2T_f32.c ****         *pState++ = d1a;
 648:DSP/Source/FilteringFunctions/arm_biquad_cascade_stereo_df2T_f32.c ****         *pState++ = d2a;
 649:DSP/Source/FilteringFunctions/arm_biquad_cascade_stereo_df2T_f32.c ****         *pState++ = d1b;
 650:DSP/Source/FilteringFunctions/arm_biquad_cascade_stereo_df2T_f32.c ****         *pState++ = d2b;
 651:DSP/Source/FilteringFunctions/arm_biquad_cascade_stereo_df2T_f32.c **** 
 652:DSP/Source/FilteringFunctions/arm_biquad_cascade_stereo_df2T_f32.c ****         /* The current stage input is given as the output to the next stage */
 653:DSP/Source/FilteringFunctions/arm_biquad_cascade_stereo_df2T_f32.c ****         pIn = pDst;
  87              		.loc 1 653 13 view .LVU15
  88 0030 2946     		mov	r1, r5
  89              	.LVL5:
ARM GAS  /var/folders/ck/g3dcd5x55xs4107jgdl0snvr0000gn/T//cc4d5yUa.s 			page 14


  90              	.L6:
 482:DSP/Source/FilteringFunctions/arm_biquad_cascade_stereo_df2T_f32.c ****     float32_t Xn2b, Xn3b, Xn4b;                          /*  Input State variables     */
  91              		.loc 1 482 5 is_stmt 1 view .LVU16
 483:DSP/Source/FilteringFunctions/arm_biquad_cascade_stereo_df2T_f32.c ****     float32_t acc2a, acc3a, acc4a;                       /*  accumulator               */
  92              		.loc 1 483 5 view .LVU17
 484:DSP/Source/FilteringFunctions/arm_biquad_cascade_stereo_df2T_f32.c ****     float32_t acc2b, acc3b, acc4b;                       /*  accumulator               */
  93              		.loc 1 484 5 view .LVU18
 485:DSP/Source/FilteringFunctions/arm_biquad_cascade_stereo_df2T_f32.c ****     float32_t p0a, p1a, p2a, p3a, p4a, A1a;
  94              		.loc 1 485 5 view .LVU19
 486:DSP/Source/FilteringFunctions/arm_biquad_cascade_stereo_df2T_f32.c ****     float32_t p0b, p1b, p2b, p3b, p4b, A1b;
  95              		.loc 1 486 5 view .LVU20
 487:DSP/Source/FilteringFunctions/arm_biquad_cascade_stereo_df2T_f32.c **** 
  96              		.loc 1 487 5 view .LVU21
 490:DSP/Source/FilteringFunctions/arm_biquad_cascade_stereo_df2T_f32.c ****     {
  97              		.loc 1 490 5 view .LVU22
 493:DSP/Source/FilteringFunctions/arm_biquad_cascade_stereo_df2T_f32.c ****         b1 = *pCoeffs++;
  98              		.loc 1 493 9 view .LVU23
 493:DSP/Source/FilteringFunctions/arm_biquad_cascade_stereo_df2T_f32.c ****         b1 = *pCoeffs++;
  99              		.loc 1 493 12 is_stmt 0 view .LVU24
 100 0032 5EED054A 		vldr.32	s9, [lr, #-20]
 101              	.LVL6:
 494:DSP/Source/FilteringFunctions/arm_biquad_cascade_stereo_df2T_f32.c ****         b2 = *pCoeffs++;
 102              		.loc 1 494 9 is_stmt 1 view .LVU25
 494:DSP/Source/FilteringFunctions/arm_biquad_cascade_stereo_df2T_f32.c ****         b2 = *pCoeffs++;
 103              		.loc 1 494 12 is_stmt 0 view .LVU26
 104 0036 1EED044A 		vldr.32	s8, [lr, #-16]
 105              	.LVL7:
 495:DSP/Source/FilteringFunctions/arm_biquad_cascade_stereo_df2T_f32.c ****         a1 = *pCoeffs++;
 106              		.loc 1 495 9 is_stmt 1 view .LVU27
 495:DSP/Source/FilteringFunctions/arm_biquad_cascade_stereo_df2T_f32.c ****         a1 = *pCoeffs++;
 107              		.loc 1 495 12 is_stmt 0 view .LVU28
 108 003a 5EED033A 		vldr.32	s7, [lr, #-12]
 109              	.LVL8:
 496:DSP/Source/FilteringFunctions/arm_biquad_cascade_stereo_df2T_f32.c ****         a2 = *pCoeffs++;
 110              		.loc 1 496 9 is_stmt 1 view .LVU29
 496:DSP/Source/FilteringFunctions/arm_biquad_cascade_stereo_df2T_f32.c ****         a2 = *pCoeffs++;
 111              		.loc 1 496 12 is_stmt 0 view .LVU30
 112 003e 1EED023A 		vldr.32	s6, [lr, #-8]
 113              	.LVL9:
 497:DSP/Source/FilteringFunctions/arm_biquad_cascade_stereo_df2T_f32.c **** 
 114              		.loc 1 497 9 is_stmt 1 view .LVU31
 497:DSP/Source/FilteringFunctions/arm_biquad_cascade_stereo_df2T_f32.c **** 
 115              		.loc 1 497 12 is_stmt 0 view .LVU32
 116 0042 5EED012A 		vldr.32	s5, [lr, #-4]
 117              	.LVL10:
 500:DSP/Source/FilteringFunctions/arm_biquad_cascade_stereo_df2T_f32.c ****         d2a = pState[1];
 118              		.loc 1 500 9 is_stmt 1 view .LVU33
 119 0046 6246     		mov	r2, ip
 500:DSP/Source/FilteringFunctions/arm_biquad_cascade_stereo_df2T_f32.c ****         d2a = pState[1];
 120              		.loc 1 500 13 is_stmt 0 view .LVU34
 121 0048 5CED045A 		vldr.32	s11, [ip, #-16]
 122              	.LVL11:
 501:DSP/Source/FilteringFunctions/arm_biquad_cascade_stereo_df2T_f32.c ****         d1b = pState[2];
 123              		.loc 1 501 9 is_stmt 1 view .LVU35
 501:DSP/Source/FilteringFunctions/arm_biquad_cascade_stereo_df2T_f32.c ****         d1b = pState[2];
 124              		.loc 1 501 13 is_stmt 0 view .LVU36
 125 004c 1CED03AA 		vldr.32	s20, [ip, #-12]
ARM GAS  /var/folders/ck/g3dcd5x55xs4107jgdl0snvr0000gn/T//cc4d5yUa.s 			page 15


 126              	.LVL12:
 502:DSP/Source/FilteringFunctions/arm_biquad_cascade_stereo_df2T_f32.c ****         d2b = pState[3];
 127              		.loc 1 502 9 is_stmt 1 view .LVU37
 502:DSP/Source/FilteringFunctions/arm_biquad_cascade_stereo_df2T_f32.c ****         d2b = pState[3];
 128              		.loc 1 502 13 is_stmt 0 view .LVU38
 129 0050 1CED026A 		vldr.32	s12, [ip, #-8]
 130              	.LVL13:
 503:DSP/Source/FilteringFunctions/arm_biquad_cascade_stereo_df2T_f32.c **** 
 131              		.loc 1 503 9 is_stmt 1 view .LVU39
 503:DSP/Source/FilteringFunctions/arm_biquad_cascade_stereo_df2T_f32.c **** 
 132              		.loc 1 503 13 is_stmt 0 view .LVU40
 133 0054 5CED019A 		vldr.32	s19, [ip, #-4]
 134              	.LVL14:
 506:DSP/Source/FilteringFunctions/arm_biquad_cascade_stereo_df2T_f32.c **** 
 135              		.loc 1 506 9 is_stmt 1 view .LVU41
 510:DSP/Source/FilteringFunctions/arm_biquad_cascade_stereo_df2T_f32.c **** 
 136              		.loc 1 510 9 view .LVU42
 510:DSP/Source/FilteringFunctions/arm_biquad_cascade_stereo_df2T_f32.c **** 
 137              		.loc 1 510 23 view .LVU43
 138 0058 002E     		cmp	r6, #0
 139 005a 00F00581 		beq	.L7
 510:DSP/Source/FilteringFunctions/arm_biquad_cascade_stereo_df2T_f32.c **** 
 140              		.loc 1 510 23 is_stmt 0 view .LVU44
 141 005e 01F12000 		add	r0, r1, #32
 142 0062 05F12003 		add	r3, r5, #32
 506:DSP/Source/FilteringFunctions/arm_biquad_cascade_stereo_df2T_f32.c **** 
 143              		.loc 1 506 16 view .LVU45
 144 0066 B346     		mov	fp, r6
 145              	.LVL15:
 146              	.L3:
 517:DSP/Source/FilteringFunctions/arm_biquad_cascade_stereo_df2T_f32.c ****             Xn1b = pIn[1];
 147              		.loc 1 517 13 is_stmt 1 view .LVU46
 517:DSP/Source/FilteringFunctions/arm_biquad_cascade_stereo_df2T_f32.c ****             Xn1b = pIn[1];
 148              		.loc 1 517 18 is_stmt 0 view .LVU47
 149 0068 10ED085A 		vldr.32	s10, [r0, #-32]
 150              	.LVL16:
 518:DSP/Source/FilteringFunctions/arm_biquad_cascade_stereo_df2T_f32.c ****             Xn2a = pIn[2];
 151              		.loc 1 518 13 is_stmt 1 view .LVU48
 518:DSP/Source/FilteringFunctions/arm_biquad_cascade_stereo_df2T_f32.c ****             Xn2a = pIn[2];
 152              		.loc 1 518 18 is_stmt 0 view .LVU49
 153 006c 50ED076A 		vldr.32	s13, [r0, #-28]
 154              	.LVL17:
 519:DSP/Source/FilteringFunctions/arm_biquad_cascade_stereo_df2T_f32.c ****             Xn2b = pIn[3];
 155              		.loc 1 519 13 is_stmt 1 view .LVU50
 519:DSP/Source/FilteringFunctions/arm_biquad_cascade_stereo_df2T_f32.c ****             Xn2b = pIn[3];
 156              		.loc 1 519 18 is_stmt 0 view .LVU51
 157 0070 10ED067A 		vldr.32	s14, [r0, #-24]
 158              	.LVL18:
 520:DSP/Source/FilteringFunctions/arm_biquad_cascade_stereo_df2T_f32.c ****             Xn3a = pIn[4];
 159              		.loc 1 520 13 is_stmt 1 view .LVU52
 520:DSP/Source/FilteringFunctions/arm_biquad_cascade_stereo_df2T_f32.c ****             Xn3a = pIn[4];
 160              		.loc 1 520 18 is_stmt 0 view .LVU53
 161 0074 50ED057A 		vldr.32	s15, [r0, #-20]
 162              	.LVL19:
 521:DSP/Source/FilteringFunctions/arm_biquad_cascade_stereo_df2T_f32.c ****             Xn3b = pIn[5];
 163              		.loc 1 521 13 is_stmt 1 view .LVU54
 521:DSP/Source/FilteringFunctions/arm_biquad_cascade_stereo_df2T_f32.c ****             Xn3b = pIn[5];
ARM GAS  /var/folders/ck/g3dcd5x55xs4107jgdl0snvr0000gn/T//cc4d5yUa.s 			page 16


 164              		.loc 1 521 18 is_stmt 0 view .LVU55
 165 0078 50ED040A 		vldr.32	s1, [r0, #-16]
 166              	.LVL20:
 522:DSP/Source/FilteringFunctions/arm_biquad_cascade_stereo_df2T_f32.c ****             Xn4a = pIn[6];
 167              		.loc 1 522 13 is_stmt 1 view .LVU56
 522:DSP/Source/FilteringFunctions/arm_biquad_cascade_stereo_df2T_f32.c ****             Xn4a = pIn[6];
 168              		.loc 1 522 18 is_stmt 0 view .LVU57
 169 007c 10ED031A 		vldr.32	s2, [r0, #-12]
 170              	.LVL21:
 523:DSP/Source/FilteringFunctions/arm_biquad_cascade_stereo_df2T_f32.c ****             Xn4b = pIn[7];
 171              		.loc 1 523 13 is_stmt 1 view .LVU58
 523:DSP/Source/FilteringFunctions/arm_biquad_cascade_stereo_df2T_f32.c ****             Xn4b = pIn[7];
 172              		.loc 1 523 18 is_stmt 0 view .LVU59
 173 0080 10ED029A 		vldr.32	s18, [r0, #-8]
 174              	.LVL22:
 524:DSP/Source/FilteringFunctions/arm_biquad_cascade_stereo_df2T_f32.c ****             pIn += 8;
 175              		.loc 1 524 13 is_stmt 1 view .LVU60
 524:DSP/Source/FilteringFunctions/arm_biquad_cascade_stereo_df2T_f32.c ****             pIn += 8;
 176              		.loc 1 524 18 is_stmt 0 view .LVU61
 177 0084 50ED018A 		vldr.32	s17, [r0, #-4]
 178              	.LVL23:
 525:DSP/Source/FilteringFunctions/arm_biquad_cascade_stereo_df2T_f32.c **** 
 179              		.loc 1 525 13 is_stmt 1 view .LVU62
 527:DSP/Source/FilteringFunctions/arm_biquad_cascade_stereo_df2T_f32.c ****             p0b = b0 * Xn1b;
 180              		.loc 1 527 13 view .LVU63
 528:DSP/Source/FilteringFunctions/arm_biquad_cascade_stereo_df2T_f32.c ****             p1a = b1 * Xn1a;
 181              		.loc 1 528 13 view .LVU64
 529:DSP/Source/FilteringFunctions/arm_biquad_cascade_stereo_df2T_f32.c ****             p1b = b1 * Xn1b;
 182              		.loc 1 529 13 view .LVU65
 530:DSP/Source/FilteringFunctions/arm_biquad_cascade_stereo_df2T_f32.c ****             acc1a = p0a + d1a;
 183              		.loc 1 530 13 view .LVU66
 531:DSP/Source/FilteringFunctions/arm_biquad_cascade_stereo_df2T_f32.c ****             acc1b = p0b + d1b;
 184              		.loc 1 531 13 view .LVU67
 527:DSP/Source/FilteringFunctions/arm_biquad_cascade_stereo_df2T_f32.c ****             p0b = b0 * Xn1b;
 185              		.loc 1 527 17 is_stmt 0 view .LVU68
 186 0088 24EE858A 		vmul.f32	s16, s9, s10
 187              	.LVL24:
 531:DSP/Source/FilteringFunctions/arm_biquad_cascade_stereo_df2T_f32.c ****             acc1b = p0b + d1b;
 188              		.loc 1 531 19 view .LVU69
 189 008c 38EE258A 		vadd.f32	s16, s16, s11
 190              	.LVL25:
 532:DSP/Source/FilteringFunctions/arm_biquad_cascade_stereo_df2T_f32.c ****             p0a = b0 * Xn2a;
 191              		.loc 1 532 13 is_stmt 1 view .LVU70
 528:DSP/Source/FilteringFunctions/arm_biquad_cascade_stereo_df2T_f32.c ****             p1a = b1 * Xn1a;
 192              		.loc 1 528 17 is_stmt 0 view .LVU71
 193 0090 24EEA60A 		vmul.f32	s0, s9, s13
 194              	.LVL26:
 532:DSP/Source/FilteringFunctions/arm_biquad_cascade_stereo_df2T_f32.c ****             p0a = b0 * Xn2a;
 195              		.loc 1 532 19 view .LVU72
 196 0094 30EE060A 		vadd.f32	s0, s0, s12
 197              	.LVL27:
 533:DSP/Source/FilteringFunctions/arm_biquad_cascade_stereo_df2T_f32.c ****             p0b = b0 * Xn2b;
 198              		.loc 1 533 13 is_stmt 1 view .LVU73
 534:DSP/Source/FilteringFunctions/arm_biquad_cascade_stereo_df2T_f32.c ****             p3a = a1 * acc1a;
 199              		.loc 1 534 13 view .LVU74
 535:DSP/Source/FilteringFunctions/arm_biquad_cascade_stereo_df2T_f32.c ****             p3b = a1 * acc1b;
 200              		.loc 1 535 13 view .LVU75
ARM GAS  /var/folders/ck/g3dcd5x55xs4107jgdl0snvr0000gn/T//cc4d5yUa.s 			page 17


 536:DSP/Source/FilteringFunctions/arm_biquad_cascade_stereo_df2T_f32.c ****             p2a = b2 * Xn1a;
 201              		.loc 1 536 13 view .LVU76
 537:DSP/Source/FilteringFunctions/arm_biquad_cascade_stereo_df2T_f32.c ****             p2b = b2 * Xn1b;
 202              		.loc 1 537 13 view .LVU77
 538:DSP/Source/FilteringFunctions/arm_biquad_cascade_stereo_df2T_f32.c ****             A1a = p1a + p3a;
 203              		.loc 1 538 13 view .LVU78
 539:DSP/Source/FilteringFunctions/arm_biquad_cascade_stereo_df2T_f32.c ****             A1b = p1b + p3b;
 204              		.loc 1 539 13 view .LVU79
 540:DSP/Source/FilteringFunctions/arm_biquad_cascade_stereo_df2T_f32.c ****             p4a = a2 * acc1a;
 205              		.loc 1 540 13 view .LVU80
 541:DSP/Source/FilteringFunctions/arm_biquad_cascade_stereo_df2T_f32.c ****             p4b = a2 * acc1b;
 206              		.loc 1 541 13 view .LVU81
 542:DSP/Source/FilteringFunctions/arm_biquad_cascade_stereo_df2T_f32.c ****             d1a = A1a + d2a;
 207              		.loc 1 542 13 view .LVU82
 543:DSP/Source/FilteringFunctions/arm_biquad_cascade_stereo_df2T_f32.c ****             d1b = A1b + d2b;
 208              		.loc 1 543 13 view .LVU83
 544:DSP/Source/FilteringFunctions/arm_biquad_cascade_stereo_df2T_f32.c ****             d2a = p2a + p4a;
 209              		.loc 1 544 13 view .LVU84
 545:DSP/Source/FilteringFunctions/arm_biquad_cascade_stereo_df2T_f32.c ****             d2b = p2b + p4b;
 210              		.loc 1 545 13 view .LVU85
 546:DSP/Source/FilteringFunctions/arm_biquad_cascade_stereo_df2T_f32.c **** 
 211              		.loc 1 546 13 view .LVU86
 548:DSP/Source/FilteringFunctions/arm_biquad_cascade_stereo_df2T_f32.c ****             p1b = b1 * Xn2b;
 212              		.loc 1 548 13 view .LVU87
 549:DSP/Source/FilteringFunctions/arm_biquad_cascade_stereo_df2T_f32.c ****             acc2a = p0a + d1a;
 213              		.loc 1 549 13 view .LVU88
 550:DSP/Source/FilteringFunctions/arm_biquad_cascade_stereo_df2T_f32.c ****             acc2b = p0b + d1b;
 214              		.loc 1 550 13 view .LVU89
 529:DSP/Source/FilteringFunctions/arm_biquad_cascade_stereo_df2T_f32.c ****             p1b = b1 * Xn1b;
 215              		.loc 1 529 17 is_stmt 0 view .LVU90
 216 0098 64EE051A 		vmul.f32	s3, s8, s10
 535:DSP/Source/FilteringFunctions/arm_biquad_cascade_stereo_df2T_f32.c ****             p3b = a1 * acc1b;
 217              		.loc 1 535 17 view .LVU91
 218 009c 23EE086A 		vmul.f32	s12, s6, s16
 219              	.LVL28:
 539:DSP/Source/FilteringFunctions/arm_biquad_cascade_stereo_df2T_f32.c ****             A1b = p1b + p3b;
 220              		.loc 1 539 17 view .LVU92
 221 00a0 71EE861A 		vadd.f32	s3, s3, s12
 222              	.LVL29:
 543:DSP/Source/FilteringFunctions/arm_biquad_cascade_stereo_df2T_f32.c ****             d1b = A1b + d2b;
 223              		.loc 1 543 17 view .LVU93
 224 00a4 71EE8A1A 		vadd.f32	s3, s3, s20
 225              	.LVL30:
 533:DSP/Source/FilteringFunctions/arm_biquad_cascade_stereo_df2T_f32.c ****             p0b = b0 * Xn2b;
 226              		.loc 1 533 17 view .LVU94
 227 00a8 24EE876A 		vmul.f32	s12, s9, s14
 228              	.LVL31:
 550:DSP/Source/FilteringFunctions/arm_biquad_cascade_stereo_df2T_f32.c ****             acc2b = p0b + d1b;
 229              		.loc 1 550 19 view .LVU95
 230 00ac 71EE861A 		vadd.f32	s3, s3, s12
 231              	.LVL32:
 551:DSP/Source/FilteringFunctions/arm_biquad_cascade_stereo_df2T_f32.c ****             p0a = b0 * Xn3a;
 232              		.loc 1 551 13 is_stmt 1 view .LVU96
 530:DSP/Source/FilteringFunctions/arm_biquad_cascade_stereo_df2T_f32.c ****             acc1a = p0a + d1a;
 233              		.loc 1 530 17 is_stmt 0 view .LVU97
 234 00b0 24EE262A 		vmul.f32	s4, s8, s13
 536:DSP/Source/FilteringFunctions/arm_biquad_cascade_stereo_df2T_f32.c ****             p2a = b2 * Xn1a;
ARM GAS  /var/folders/ck/g3dcd5x55xs4107jgdl0snvr0000gn/T//cc4d5yUa.s 			page 18


 235              		.loc 1 536 17 view .LVU98
 236 00b4 23EE006A 		vmul.f32	s12, s6, s0
 237              	.LVL33:
 540:DSP/Source/FilteringFunctions/arm_biquad_cascade_stereo_df2T_f32.c ****             p4a = a2 * acc1a;
 238              		.loc 1 540 17 view .LVU99
 239 00b8 32EE062A 		vadd.f32	s4, s4, s12
 240              	.LVL34:
 544:DSP/Source/FilteringFunctions/arm_biquad_cascade_stereo_df2T_f32.c ****             d2a = p2a + p4a;
 241              		.loc 1 544 17 view .LVU100
 242 00bc 32EE292A 		vadd.f32	s4, s4, s19
 243              	.LVL35:
 534:DSP/Source/FilteringFunctions/arm_biquad_cascade_stereo_df2T_f32.c ****             p3a = a1 * acc1a;
 244              		.loc 1 534 17 view .LVU101
 245 00c0 24EEA76A 		vmul.f32	s12, s9, s15
 246              	.LVL36:
 551:DSP/Source/FilteringFunctions/arm_biquad_cascade_stereo_df2T_f32.c ****             p0a = b0 * Xn3a;
 247              		.loc 1 551 19 view .LVU102
 248 00c4 32EE062A 		vadd.f32	s4, s4, s12
 249              	.LVL37:
 552:DSP/Source/FilteringFunctions/arm_biquad_cascade_stereo_df2T_f32.c ****             p0b = b0 * Xn3b;
 250              		.loc 1 552 13 is_stmt 1 view .LVU103
 553:DSP/Source/FilteringFunctions/arm_biquad_cascade_stereo_df2T_f32.c ****             p3a = a1 * acc2a;
 251              		.loc 1 553 13 view .LVU104
 554:DSP/Source/FilteringFunctions/arm_biquad_cascade_stereo_df2T_f32.c ****             p3b = a1 * acc2b;
 252              		.loc 1 554 13 view .LVU105
 555:DSP/Source/FilteringFunctions/arm_biquad_cascade_stereo_df2T_f32.c ****             p2a = b2 * Xn2a;
 253              		.loc 1 555 13 view .LVU106
 556:DSP/Source/FilteringFunctions/arm_biquad_cascade_stereo_df2T_f32.c ****             p2b = b2 * Xn2b;
 254              		.loc 1 556 13 view .LVU107
 557:DSP/Source/FilteringFunctions/arm_biquad_cascade_stereo_df2T_f32.c ****             A1a = p1a + p3a;
 255              		.loc 1 557 13 view .LVU108
 558:DSP/Source/FilteringFunctions/arm_biquad_cascade_stereo_df2T_f32.c ****             A1b = p1b + p3b;
 256              		.loc 1 558 13 view .LVU109
 559:DSP/Source/FilteringFunctions/arm_biquad_cascade_stereo_df2T_f32.c ****             p4a = a2 * acc2a;
 257              		.loc 1 559 13 view .LVU110
 560:DSP/Source/FilteringFunctions/arm_biquad_cascade_stereo_df2T_f32.c ****             p4b = a2 * acc2b;
 258              		.loc 1 560 13 view .LVU111
 561:DSP/Source/FilteringFunctions/arm_biquad_cascade_stereo_df2T_f32.c ****             d1a = A1a + d2a;
 259              		.loc 1 561 13 view .LVU112
 562:DSP/Source/FilteringFunctions/arm_biquad_cascade_stereo_df2T_f32.c ****             d1b = A1b + d2b;
 260              		.loc 1 562 13 view .LVU113
 563:DSP/Source/FilteringFunctions/arm_biquad_cascade_stereo_df2T_f32.c ****             d2a = p2a + p4a;
 261              		.loc 1 563 13 view .LVU114
 564:DSP/Source/FilteringFunctions/arm_biquad_cascade_stereo_df2T_f32.c ****             d2b = p2b + p4b;
 262              		.loc 1 564 13 view .LVU115
 565:DSP/Source/FilteringFunctions/arm_biquad_cascade_stereo_df2T_f32.c **** 
 263              		.loc 1 565 13 view .LVU116
 567:DSP/Source/FilteringFunctions/arm_biquad_cascade_stereo_df2T_f32.c ****             p1b = b1 * Xn3b;
 264              		.loc 1 567 13 view .LVU117
 568:DSP/Source/FilteringFunctions/arm_biquad_cascade_stereo_df2T_f32.c ****             acc3a = p0a + d1a;
 265              		.loc 1 568 13 view .LVU118
 569:DSP/Source/FilteringFunctions/arm_biquad_cascade_stereo_df2T_f32.c ****             acc3b = p0b + d1b;
 266              		.loc 1 569 13 view .LVU119
 537:DSP/Source/FilteringFunctions/arm_biquad_cascade_stereo_df2T_f32.c ****             p2b = b2 * Xn1b;
 267              		.loc 1 537 17 is_stmt 0 view .LVU120
 268 00c8 23EE855A 		vmul.f32	s10, s7, s10
 269              	.LVL38:
ARM GAS  /var/folders/ck/g3dcd5x55xs4107jgdl0snvr0000gn/T//cc4d5yUa.s 			page 19


 541:DSP/Source/FilteringFunctions/arm_biquad_cascade_stereo_df2T_f32.c ****             p4b = a2 * acc1b;
 270              		.loc 1 541 17 view .LVU121
 271 00cc 22EE886A 		vmul.f32	s12, s5, s16
 545:DSP/Source/FilteringFunctions/arm_biquad_cascade_stereo_df2T_f32.c ****             d2b = p2b + p4b;
 272              		.loc 1 545 17 view .LVU122
 273 00d0 35EE065A 		vadd.f32	s10, s10, s12
 548:DSP/Source/FilteringFunctions/arm_biquad_cascade_stereo_df2T_f32.c ****             p1b = b1 * Xn2b;
 274              		.loc 1 548 17 view .LVU123
 275 00d4 24EE076A 		vmul.f32	s12, s8, s14
 554:DSP/Source/FilteringFunctions/arm_biquad_cascade_stereo_df2T_f32.c ****             p3b = a1 * acc2b;
 276              		.loc 1 554 17 view .LVU124
 277 00d8 63EE215A 		vmul.f32	s11, s6, s3
 278              	.LVL39:
 558:DSP/Source/FilteringFunctions/arm_biquad_cascade_stereo_df2T_f32.c ****             A1b = p1b + p3b;
 279              		.loc 1 558 17 view .LVU125
 280 00dc 36EE256A 		vadd.f32	s12, s12, s11
 281              	.LVL40:
 562:DSP/Source/FilteringFunctions/arm_biquad_cascade_stereo_df2T_f32.c ****             d1b = A1b + d2b;
 282              		.loc 1 562 17 view .LVU126
 283 00e0 35EE065A 		vadd.f32	s10, s10, s12
 284              	.LVL41:
 552:DSP/Source/FilteringFunctions/arm_biquad_cascade_stereo_df2T_f32.c ****             p0b = b0 * Xn3b;
 285              		.loc 1 552 17 view .LVU127
 286 00e4 24EEA06A 		vmul.f32	s12, s9, s1
 287              	.LVL42:
 569:DSP/Source/FilteringFunctions/arm_biquad_cascade_stereo_df2T_f32.c ****             acc3b = p0b + d1b;
 288              		.loc 1 569 19 view .LVU128
 289 00e8 35EE065A 		vadd.f32	s10, s10, s12
 290              	.LVL43:
 570:DSP/Source/FilteringFunctions/arm_biquad_cascade_stereo_df2T_f32.c ****             p0a = b0 * Xn4a;
 291              		.loc 1 570 13 is_stmt 1 view .LVU129
 538:DSP/Source/FilteringFunctions/arm_biquad_cascade_stereo_df2T_f32.c ****             A1a = p1a + p3a;
 292              		.loc 1 538 17 is_stmt 0 view .LVU130
 293 00ec 63EEA66A 		vmul.f32	s13, s7, s13
 294              	.LVL44:
 542:DSP/Source/FilteringFunctions/arm_biquad_cascade_stereo_df2T_f32.c ****             d1a = A1a + d2a;
 295              		.loc 1 542 17 view .LVU131
 296 00f0 22EE806A 		vmul.f32	s12, s5, s0
 297              	.LVL45:
 546:DSP/Source/FilteringFunctions/arm_biquad_cascade_stereo_df2T_f32.c **** 
 298              		.loc 1 546 17 view .LVU132
 299 00f4 76EE866A 		vadd.f32	s13, s13, s12
 549:DSP/Source/FilteringFunctions/arm_biquad_cascade_stereo_df2T_f32.c ****             acc2a = p0a + d1a;
 300              		.loc 1 549 17 view .LVU133
 301 00f8 24EE276A 		vmul.f32	s12, s8, s15
 555:DSP/Source/FilteringFunctions/arm_biquad_cascade_stereo_df2T_f32.c ****             p2a = b2 * Xn2a;
 302              		.loc 1 555 17 view .LVU134
 303 00fc 63EE025A 		vmul.f32	s11, s6, s4
 304              	.LVL46:
 559:DSP/Source/FilteringFunctions/arm_biquad_cascade_stereo_df2T_f32.c ****             p4a = a2 * acc2a;
 305              		.loc 1 559 17 view .LVU135
 306 0100 36EE256A 		vadd.f32	s12, s12, s11
 307              	.LVL47:
 563:DSP/Source/FilteringFunctions/arm_biquad_cascade_stereo_df2T_f32.c ****             d2a = p2a + p4a;
 308              		.loc 1 563 17 view .LVU136
 309 0104 76EE866A 		vadd.f32	s13, s13, s12
 310              	.LVL48:
ARM GAS  /var/folders/ck/g3dcd5x55xs4107jgdl0snvr0000gn/T//cc4d5yUa.s 			page 20


 553:DSP/Source/FilteringFunctions/arm_biquad_cascade_stereo_df2T_f32.c ****             p3a = a1 * acc2a;
 311              		.loc 1 553 17 view .LVU137
 312 0108 24EE816A 		vmul.f32	s12, s9, s2
 313              	.LVL49:
 570:DSP/Source/FilteringFunctions/arm_biquad_cascade_stereo_df2T_f32.c ****             p0a = b0 * Xn4a;
 314              		.loc 1 570 19 view .LVU138
 315 010c 76EE866A 		vadd.f32	s13, s13, s12
 316              	.LVL50:
 571:DSP/Source/FilteringFunctions/arm_biquad_cascade_stereo_df2T_f32.c ****             p0b = b0 * Xn4b;
 317              		.loc 1 571 13 is_stmt 1 view .LVU139
 572:DSP/Source/FilteringFunctions/arm_biquad_cascade_stereo_df2T_f32.c ****             p3a = a1 * acc3a;
 318              		.loc 1 572 13 view .LVU140
 573:DSP/Source/FilteringFunctions/arm_biquad_cascade_stereo_df2T_f32.c ****             p3b = a1 * acc3b;
 319              		.loc 1 573 13 view .LVU141
 574:DSP/Source/FilteringFunctions/arm_biquad_cascade_stereo_df2T_f32.c ****             p2a = b2 * Xn3a;
 320              		.loc 1 574 13 view .LVU142
 575:DSP/Source/FilteringFunctions/arm_biquad_cascade_stereo_df2T_f32.c ****             p2b = b2 * Xn3b;
 321              		.loc 1 575 13 view .LVU143
 576:DSP/Source/FilteringFunctions/arm_biquad_cascade_stereo_df2T_f32.c ****             A1a = p1a + p3a;
 322              		.loc 1 576 13 view .LVU144
 577:DSP/Source/FilteringFunctions/arm_biquad_cascade_stereo_df2T_f32.c ****             A1b = p1b + p3b;
 323              		.loc 1 577 13 view .LVU145
 578:DSP/Source/FilteringFunctions/arm_biquad_cascade_stereo_df2T_f32.c ****             p4a = a2 * acc3a;
 324              		.loc 1 578 13 view .LVU146
 579:DSP/Source/FilteringFunctions/arm_biquad_cascade_stereo_df2T_f32.c ****             p4b = a2 * acc3b;
 325              		.loc 1 579 13 view .LVU147
 580:DSP/Source/FilteringFunctions/arm_biquad_cascade_stereo_df2T_f32.c ****             d1a = A1a + d2a;
 326              		.loc 1 580 13 view .LVU148
 581:DSP/Source/FilteringFunctions/arm_biquad_cascade_stereo_df2T_f32.c ****             d1b = A1b + d2b;
 327              		.loc 1 581 13 view .LVU149
 582:DSP/Source/FilteringFunctions/arm_biquad_cascade_stereo_df2T_f32.c ****             d2a = p2a + p4a;
 328              		.loc 1 582 13 view .LVU150
 583:DSP/Source/FilteringFunctions/arm_biquad_cascade_stereo_df2T_f32.c ****             d2b = p2b + p4b;
 329              		.loc 1 583 13 view .LVU151
 584:DSP/Source/FilteringFunctions/arm_biquad_cascade_stereo_df2T_f32.c **** 
 330              		.loc 1 584 13 view .LVU152
 586:DSP/Source/FilteringFunctions/arm_biquad_cascade_stereo_df2T_f32.c ****             acc4b = p0b + d1b;
 331              		.loc 1 586 13 view .LVU153
 556:DSP/Source/FilteringFunctions/arm_biquad_cascade_stereo_df2T_f32.c ****             p2b = b2 * Xn2b;
 332              		.loc 1 556 17 is_stmt 0 view .LVU154
 333 0110 23EE877A 		vmul.f32	s14, s7, s14
 334              	.LVL51:
 560:DSP/Source/FilteringFunctions/arm_biquad_cascade_stereo_df2T_f32.c ****             p4b = a2 * acc2b;
 335              		.loc 1 560 17 view .LVU155
 336 0114 22EEA16A 		vmul.f32	s12, s5, s3
 564:DSP/Source/FilteringFunctions/arm_biquad_cascade_stereo_df2T_f32.c ****             d2b = p2b + p4b;
 337              		.loc 1 564 17 view .LVU156
 338 0118 37EE067A 		vadd.f32	s14, s14, s12
 567:DSP/Source/FilteringFunctions/arm_biquad_cascade_stereo_df2T_f32.c ****             p1b = b1 * Xn3b;
 339              		.loc 1 567 17 view .LVU157
 340 011c 24EE206A 		vmul.f32	s12, s8, s1
 341              	.LVL52:
 573:DSP/Source/FilteringFunctions/arm_biquad_cascade_stereo_df2T_f32.c ****             p3b = a1 * acc3b;
 342              		.loc 1 573 17 view .LVU158
 343 0120 63EE055A 		vmul.f32	s11, s6, s10
 344              	.LVL53:
 577:DSP/Source/FilteringFunctions/arm_biquad_cascade_stereo_df2T_f32.c ****             A1b = p1b + p3b;
ARM GAS  /var/folders/ck/g3dcd5x55xs4107jgdl0snvr0000gn/T//cc4d5yUa.s 			page 21


 345              		.loc 1 577 17 view .LVU159
 346 0124 36EE256A 		vadd.f32	s12, s12, s11
 347              	.LVL54:
 581:DSP/Source/FilteringFunctions/arm_biquad_cascade_stereo_df2T_f32.c ****             d1b = A1b + d2b;
 348              		.loc 1 581 17 view .LVU160
 349 0128 37EE067A 		vadd.f32	s14, s14, s12
 350              	.LVL55:
 571:DSP/Source/FilteringFunctions/arm_biquad_cascade_stereo_df2T_f32.c ****             p0b = b0 * Xn4b;
 351              		.loc 1 571 17 view .LVU161
 352 012c 24EE896A 		vmul.f32	s12, s9, s18
 353              	.LVL56:
 586:DSP/Source/FilteringFunctions/arm_biquad_cascade_stereo_df2T_f32.c ****             acc4b = p0b + d1b;
 354              		.loc 1 586 19 view .LVU162
 355 0130 37EE067A 		vadd.f32	s14, s14, s12
 356              	.LVL57:
 587:DSP/Source/FilteringFunctions/arm_biquad_cascade_stereo_df2T_f32.c ****             p1a = b1 * Xn4a;
 357              		.loc 1 587 13 is_stmt 1 view .LVU163
 557:DSP/Source/FilteringFunctions/arm_biquad_cascade_stereo_df2T_f32.c ****             A1a = p1a + p3a;
 358              		.loc 1 557 17 is_stmt 0 view .LVU164
 359 0134 63EEA77A 		vmul.f32	s15, s7, s15
 360              	.LVL58:
 561:DSP/Source/FilteringFunctions/arm_biquad_cascade_stereo_df2T_f32.c ****             d1a = A1a + d2a;
 361              		.loc 1 561 17 view .LVU165
 362 0138 22EE826A 		vmul.f32	s12, s5, s4
 363              	.LVL59:
 565:DSP/Source/FilteringFunctions/arm_biquad_cascade_stereo_df2T_f32.c **** 
 364              		.loc 1 565 17 view .LVU166
 365 013c 77EE867A 		vadd.f32	s15, s15, s12
 568:DSP/Source/FilteringFunctions/arm_biquad_cascade_stereo_df2T_f32.c ****             acc3a = p0a + d1a;
 366              		.loc 1 568 17 view .LVU167
 367 0140 24EE016A 		vmul.f32	s12, s8, s2
 368              	.LVL60:
 574:DSP/Source/FilteringFunctions/arm_biquad_cascade_stereo_df2T_f32.c ****             p2a = b2 * Xn3a;
 369              		.loc 1 574 17 view .LVU168
 370 0144 63EE265A 		vmul.f32	s11, s6, s13
 371              	.LVL61:
 578:DSP/Source/FilteringFunctions/arm_biquad_cascade_stereo_df2T_f32.c ****             p4a = a2 * acc3a;
 372              		.loc 1 578 17 view .LVU169
 373 0148 36EE256A 		vadd.f32	s12, s12, s11
 374              	.LVL62:
 582:DSP/Source/FilteringFunctions/arm_biquad_cascade_stereo_df2T_f32.c ****             d2a = p2a + p4a;
 375              		.loc 1 582 17 view .LVU170
 376 014c 77EE867A 		vadd.f32	s15, s15, s12
 377              	.LVL63:
 572:DSP/Source/FilteringFunctions/arm_biquad_cascade_stereo_df2T_f32.c ****             p3a = a1 * acc3a;
 378              		.loc 1 572 17 view .LVU171
 379 0150 24EEA86A 		vmul.f32	s12, s9, s17
 380              	.LVL64:
 587:DSP/Source/FilteringFunctions/arm_biquad_cascade_stereo_df2T_f32.c ****             p1a = b1 * Xn4a;
 381              		.loc 1 587 19 view .LVU172
 382 0154 77EE867A 		vadd.f32	s15, s15, s12
 383              	.LVL65:
 588:DSP/Source/FilteringFunctions/arm_biquad_cascade_stereo_df2T_f32.c ****             p1b = b1 * Xn4b;
 384              		.loc 1 588 13 is_stmt 1 view .LVU173
 589:DSP/Source/FilteringFunctions/arm_biquad_cascade_stereo_df2T_f32.c ****             p3a = a1 * acc4a;
 385              		.loc 1 589 13 view .LVU174
 590:DSP/Source/FilteringFunctions/arm_biquad_cascade_stereo_df2T_f32.c ****             p3b = a1 * acc4b;
ARM GAS  /var/folders/ck/g3dcd5x55xs4107jgdl0snvr0000gn/T//cc4d5yUa.s 			page 22


 386              		.loc 1 590 13 view .LVU175
 591:DSP/Source/FilteringFunctions/arm_biquad_cascade_stereo_df2T_f32.c ****             p2a = b2 * Xn4a;
 387              		.loc 1 591 13 view .LVU176
 592:DSP/Source/FilteringFunctions/arm_biquad_cascade_stereo_df2T_f32.c ****             p2b = b2 * Xn4b;
 388              		.loc 1 592 13 view .LVU177
 593:DSP/Source/FilteringFunctions/arm_biquad_cascade_stereo_df2T_f32.c ****             A1a = p1a + p3a;
 389              		.loc 1 593 13 view .LVU178
 594:DSP/Source/FilteringFunctions/arm_biquad_cascade_stereo_df2T_f32.c ****             A1b = p1b + p3b;
 390              		.loc 1 594 13 view .LVU179
 595:DSP/Source/FilteringFunctions/arm_biquad_cascade_stereo_df2T_f32.c ****             p4a = a2 * acc4a;
 391              		.loc 1 595 13 view .LVU180
 596:DSP/Source/FilteringFunctions/arm_biquad_cascade_stereo_df2T_f32.c ****             p4b = a2 * acc4b;
 392              		.loc 1 596 13 view .LVU181
 597:DSP/Source/FilteringFunctions/arm_biquad_cascade_stereo_df2T_f32.c ****             d1a = A1a + d2a;
 393              		.loc 1 597 13 view .LVU182
 598:DSP/Source/FilteringFunctions/arm_biquad_cascade_stereo_df2T_f32.c ****             d1b = A1b + d2b;
 394              		.loc 1 598 13 view .LVU183
 575:DSP/Source/FilteringFunctions/arm_biquad_cascade_stereo_df2T_f32.c ****             p2b = b2 * Xn3b;
 395              		.loc 1 575 17 is_stmt 0 view .LVU184
 396 0158 63EEA00A 		vmul.f32	s1, s7, s1
 397              	.LVL66:
 579:DSP/Source/FilteringFunctions/arm_biquad_cascade_stereo_df2T_f32.c ****             p4b = a2 * acc3b;
 398              		.loc 1 579 17 view .LVU185
 399 015c 22EE856A 		vmul.f32	s12, s5, s10
 400              	.LVL67:
 583:DSP/Source/FilteringFunctions/arm_biquad_cascade_stereo_df2T_f32.c ****             d2b = p2b + p4b;
 401              		.loc 1 583 17 view .LVU186
 402 0160 70EE860A 		vadd.f32	s1, s1, s12
 403              	.LVL68:
 588:DSP/Source/FilteringFunctions/arm_biquad_cascade_stereo_df2T_f32.c ****             p1b = b1 * Xn4b;
 404              		.loc 1 588 17 view .LVU187
 405 0164 64EE095A 		vmul.f32	s11, s8, s18
 406              	.LVL69:
 590:DSP/Source/FilteringFunctions/arm_biquad_cascade_stereo_df2T_f32.c ****             p3b = a1 * acc4b;
 407              		.loc 1 590 17 view .LVU188
 408 0168 23EE076A 		vmul.f32	s12, s6, s14
 409              	.LVL70:
 594:DSP/Source/FilteringFunctions/arm_biquad_cascade_stereo_df2T_f32.c ****             A1b = p1b + p3b;
 410              		.loc 1 594 17 view .LVU189
 411 016c 75EE865A 		vadd.f32	s11, s11, s12
 412              	.LVL71:
 598:DSP/Source/FilteringFunctions/arm_biquad_cascade_stereo_df2T_f32.c ****             d1b = A1b + d2b;
 413              		.loc 1 598 17 view .LVU190
 414 0170 70EEA55A 		vadd.f32	s11, s1, s11
 415              	.LVL72:
 599:DSP/Source/FilteringFunctions/arm_biquad_cascade_stereo_df2T_f32.c ****             d2a = p2a + p4a;
 416              		.loc 1 599 13 is_stmt 1 view .LVU191
 576:DSP/Source/FilteringFunctions/arm_biquad_cascade_stereo_df2T_f32.c ****             A1a = p1a + p3a;
 417              		.loc 1 576 17 is_stmt 0 view .LVU192
 418 0174 23EE811A 		vmul.f32	s2, s7, s2
 419              	.LVL73:
 580:DSP/Source/FilteringFunctions/arm_biquad_cascade_stereo_df2T_f32.c ****             d1a = A1a + d2a;
 420              		.loc 1 580 17 view .LVU193
 421 0178 22EEA66A 		vmul.f32	s12, s5, s13
 422              	.LVL74:
 584:DSP/Source/FilteringFunctions/arm_biquad_cascade_stereo_df2T_f32.c **** 
 423              		.loc 1 584 17 view .LVU194
ARM GAS  /var/folders/ck/g3dcd5x55xs4107jgdl0snvr0000gn/T//cc4d5yUa.s 			page 23


 424 017c 31EE061A 		vadd.f32	s2, s2, s12
 425              	.LVL75:
 589:DSP/Source/FilteringFunctions/arm_biquad_cascade_stereo_df2T_f32.c ****             p3a = a1 * acc4a;
 426              		.loc 1 589 17 view .LVU195
 427 0180 24EE286A 		vmul.f32	s12, s8, s17
 428              	.LVL76:
 591:DSP/Source/FilteringFunctions/arm_biquad_cascade_stereo_df2T_f32.c ****             p2a = b2 * Xn4a;
 429              		.loc 1 591 17 view .LVU196
 430 0184 63EE270A 		vmul.f32	s1, s6, s15
 431              	.LVL77:
 595:DSP/Source/FilteringFunctions/arm_biquad_cascade_stereo_df2T_f32.c ****             p4a = a2 * acc4a;
 432              		.loc 1 595 17 view .LVU197
 433 0188 36EE206A 		vadd.f32	s12, s12, s1
 434              	.LVL78:
 599:DSP/Source/FilteringFunctions/arm_biquad_cascade_stereo_df2T_f32.c ****             d2a = p2a + p4a;
 435              		.loc 1 599 17 view .LVU198
 436 018c 31EE066A 		vadd.f32	s12, s2, s12
 437              	.LVL79:
 600:DSP/Source/FilteringFunctions/arm_biquad_cascade_stereo_df2T_f32.c ****             d2b = p2b + p4b;
 438              		.loc 1 600 13 is_stmt 1 view .LVU199
 592:DSP/Source/FilteringFunctions/arm_biquad_cascade_stereo_df2T_f32.c ****             p2b = b2 * Xn4b;
 439              		.loc 1 592 17 is_stmt 0 view .LVU200
 440 0190 23EE899A 		vmul.f32	s18, s7, s18
 441              	.LVL80:
 596:DSP/Source/FilteringFunctions/arm_biquad_cascade_stereo_df2T_f32.c ****             p4b = a2 * acc4b;
 442              		.loc 1 596 17 view .LVU201
 443 0194 22EE87AA 		vmul.f32	s20, s5, s14
 444              	.LVL81:
 600:DSP/Source/FilteringFunctions/arm_biquad_cascade_stereo_df2T_f32.c ****             d2b = p2b + p4b;
 445              		.loc 1 600 17 view .LVU202
 446 0198 39EE0AAA 		vadd.f32	s20, s18, s20
 447              	.LVL82:
 601:DSP/Source/FilteringFunctions/arm_biquad_cascade_stereo_df2T_f32.c **** 
 448              		.loc 1 601 13 is_stmt 1 view .LVU203
 593:DSP/Source/FilteringFunctions/arm_biquad_cascade_stereo_df2T_f32.c ****             A1a = p1a + p3a;
 449              		.loc 1 593 17 is_stmt 0 view .LVU204
 450 019c 63EEA88A 		vmul.f32	s17, s7, s17
 451              	.LVL83:
 597:DSP/Source/FilteringFunctions/arm_biquad_cascade_stereo_df2T_f32.c ****             d1a = A1a + d2a;
 452              		.loc 1 597 17 view .LVU205
 453 01a0 62EEA79A 		vmul.f32	s19, s5, s15
 454              	.LVL84:
 601:DSP/Source/FilteringFunctions/arm_biquad_cascade_stereo_df2T_f32.c **** 
 455              		.loc 1 601 17 view .LVU206
 456 01a4 78EEA99A 		vadd.f32	s19, s17, s19
 457              	.LVL85:
 603:DSP/Source/FilteringFunctions/arm_biquad_cascade_stereo_df2T_f32.c ****             pOut[1] = acc1b;
 458              		.loc 1 603 13 is_stmt 1 view .LVU207
 603:DSP/Source/FilteringFunctions/arm_biquad_cascade_stereo_df2T_f32.c ****             pOut[1] = acc1b;
 459              		.loc 1 603 21 is_stmt 0 view .LVU208
 460 01a8 03ED088A 		vstr.32	s16, [r3, #-32]
 461              	.LVL86:
 604:DSP/Source/FilteringFunctions/arm_biquad_cascade_stereo_df2T_f32.c ****             pOut[2] = acc2a;
 462              		.loc 1 604 13 is_stmt 1 view .LVU209
 604:DSP/Source/FilteringFunctions/arm_biquad_cascade_stereo_df2T_f32.c ****             pOut[2] = acc2a;
 463              		.loc 1 604 21 is_stmt 0 view .LVU210
 464 01ac 03ED070A 		vstr.32	s0, [r3, #-28]
ARM GAS  /var/folders/ck/g3dcd5x55xs4107jgdl0snvr0000gn/T//cc4d5yUa.s 			page 24


 605:DSP/Source/FilteringFunctions/arm_biquad_cascade_stereo_df2T_f32.c ****             pOut[3] = acc2b;
 465              		.loc 1 605 13 is_stmt 1 view .LVU211
 605:DSP/Source/FilteringFunctions/arm_biquad_cascade_stereo_df2T_f32.c ****             pOut[3] = acc2b;
 466              		.loc 1 605 21 is_stmt 0 view .LVU212
 467 01b0 43ED061A 		vstr.32	s3, [r3, #-24]
 606:DSP/Source/FilteringFunctions/arm_biquad_cascade_stereo_df2T_f32.c ****             pOut[4] = acc3a;
 468              		.loc 1 606 13 is_stmt 1 view .LVU213
 606:DSP/Source/FilteringFunctions/arm_biquad_cascade_stereo_df2T_f32.c ****             pOut[4] = acc3a;
 469              		.loc 1 606 21 is_stmt 0 view .LVU214
 470 01b4 03ED052A 		vstr.32	s4, [r3, #-20]
 607:DSP/Source/FilteringFunctions/arm_biquad_cascade_stereo_df2T_f32.c ****             pOut[5] = acc3b;
 471              		.loc 1 607 13 is_stmt 1 view .LVU215
 607:DSP/Source/FilteringFunctions/arm_biquad_cascade_stereo_df2T_f32.c ****             pOut[5] = acc3b;
 472              		.loc 1 607 21 is_stmt 0 view .LVU216
 473 01b8 03ED045A 		vstr.32	s10, [r3, #-16]
 608:DSP/Source/FilteringFunctions/arm_biquad_cascade_stereo_df2T_f32.c ****             pOut[6] = acc4a;
 474              		.loc 1 608 13 is_stmt 1 view .LVU217
 608:DSP/Source/FilteringFunctions/arm_biquad_cascade_stereo_df2T_f32.c ****             pOut[6] = acc4a;
 475              		.loc 1 608 21 is_stmt 0 view .LVU218
 476 01bc 43ED036A 		vstr.32	s13, [r3, #-12]
 609:DSP/Source/FilteringFunctions/arm_biquad_cascade_stereo_df2T_f32.c ****             pOut[7] = acc4b;
 477              		.loc 1 609 13 is_stmt 1 view .LVU219
 609:DSP/Source/FilteringFunctions/arm_biquad_cascade_stereo_df2T_f32.c ****             pOut[7] = acc4b;
 478              		.loc 1 609 21 is_stmt 0 view .LVU220
 479 01c0 03ED027A 		vstr.32	s14, [r3, #-8]
 610:DSP/Source/FilteringFunctions/arm_biquad_cascade_stereo_df2T_f32.c ****             pOut += 8;
 480              		.loc 1 610 13 is_stmt 1 view .LVU221
 610:DSP/Source/FilteringFunctions/arm_biquad_cascade_stereo_df2T_f32.c ****             pOut += 8;
 481              		.loc 1 610 21 is_stmt 0 view .LVU222
 482 01c4 43ED017A 		vstr.32	s15, [r3, #-4]
 611:DSP/Source/FilteringFunctions/arm_biquad_cascade_stereo_df2T_f32.c **** 
 483              		.loc 1 611 13 is_stmt 1 view .LVU223
 484              	.LVL87:
 613:DSP/Source/FilteringFunctions/arm_biquad_cascade_stereo_df2T_f32.c ****         }
 485              		.loc 1 613 13 view .LVU224
 510:DSP/Source/FilteringFunctions/arm_biquad_cascade_stereo_df2T_f32.c **** 
 486              		.loc 1 510 23 view .LVU225
 487 01c8 2030     		adds	r0, r0, #32
 488              	.LVL88:
 510:DSP/Source/FilteringFunctions/arm_biquad_cascade_stereo_df2T_f32.c **** 
 489              		.loc 1 510 23 is_stmt 0 view .LVU226
 490 01ca 2033     		adds	r3, r3, #32
 491 01cc BBF1010B 		subs	fp, fp, #1
 492              	.LVL89:
 510:DSP/Source/FilteringFunctions/arm_biquad_cascade_stereo_df2T_f32.c **** 
 493              		.loc 1 510 23 view .LVU227
 494 01d0 7FF44AAF 		bne	.L3
 495 01d4 5144     		add	r1, r1, r10
 496 01d6 4846     		mov	r0, r9
 497              	.LVL90:
 498              	.L2:
 616:DSP/Source/FilteringFunctions/arm_biquad_cascade_stereo_df2T_f32.c ****         while (sample > 0U) {
 499              		.loc 1 616 9 is_stmt 1 view .LVU228
 617:DSP/Source/FilteringFunctions/arm_biquad_cascade_stereo_df2T_f32.c ****             Xn1a = *pIn++;
 500              		.loc 1 617 9 view .LVU229
 617:DSP/Source/FilteringFunctions/arm_biquad_cascade_stereo_df2T_f32.c ****             Xn1a = *pIn++;
 501              		.loc 1 617 23 view .LVU230
ARM GAS  /var/folders/ck/g3dcd5x55xs4107jgdl0snvr0000gn/T//cc4d5yUa.s 			page 25


 502 01d8 9FB3     		cbz	r7, .L4
 617:DSP/Source/FilteringFunctions/arm_biquad_cascade_stereo_df2T_f32.c ****             Xn1a = *pIn++;
 503              		.loc 1 617 23 is_stmt 0 view .LVU231
 504 01da 01F10803 		add	r3, r1, #8
 505 01de 0830     		adds	r0, r0, #8
 506 01e0 4144     		add	r1, r1, r8
 507              	.LVL91:
 508              	.L5:
 618:DSP/Source/FilteringFunctions/arm_biquad_cascade_stereo_df2T_f32.c ****             Xn1b = *pIn++;
 509              		.loc 1 618 13 is_stmt 1 view .LVU232
 618:DSP/Source/FilteringFunctions/arm_biquad_cascade_stereo_df2T_f32.c ****             Xn1b = *pIn++;
 510              		.loc 1 618 18 is_stmt 0 view .LVU233
 511 01e2 13ED025A 		vldr.32	s10, [r3, #-8]
 512              	.LVL92:
 619:DSP/Source/FilteringFunctions/arm_biquad_cascade_stereo_df2T_f32.c **** 
 513              		.loc 1 619 13 is_stmt 1 view .LVU234
 619:DSP/Source/FilteringFunctions/arm_biquad_cascade_stereo_df2T_f32.c **** 
 514              		.loc 1 619 18 is_stmt 0 view .LVU235
 515 01e6 53ED016A 		vldr.32	s13, [r3, #-4]
 516              	.LVL93:
 621:DSP/Source/FilteringFunctions/arm_biquad_cascade_stereo_df2T_f32.c ****             p0b = b0 * Xn1b;
 517              		.loc 1 621 13 is_stmt 1 view .LVU236
 622:DSP/Source/FilteringFunctions/arm_biquad_cascade_stereo_df2T_f32.c ****             p1a = b1 * Xn1a;
 518              		.loc 1 622 13 view .LVU237
 623:DSP/Source/FilteringFunctions/arm_biquad_cascade_stereo_df2T_f32.c ****             p1b = b1 * Xn1b;
 519              		.loc 1 623 13 view .LVU238
 624:DSP/Source/FilteringFunctions/arm_biquad_cascade_stereo_df2T_f32.c ****             acc1a = p0a + d1a;
 520              		.loc 1 624 13 view .LVU239
 625:DSP/Source/FilteringFunctions/arm_biquad_cascade_stereo_df2T_f32.c ****             acc1b = p0b + d1b;
 521              		.loc 1 625 13 view .LVU240
 621:DSP/Source/FilteringFunctions/arm_biquad_cascade_stereo_df2T_f32.c ****             p0b = b0 * Xn1b;
 522              		.loc 1 621 17 is_stmt 0 view .LVU241
 523 01ea 24EE857A 		vmul.f32	s14, s9, s10
 524              	.LVL94:
 625:DSP/Source/FilteringFunctions/arm_biquad_cascade_stereo_df2T_f32.c ****             acc1b = p0b + d1b;
 525              		.loc 1 625 19 view .LVU242
 526 01ee 37EE257A 		vadd.f32	s14, s14, s11
 527              	.LVL95:
 626:DSP/Source/FilteringFunctions/arm_biquad_cascade_stereo_df2T_f32.c ****             p3a = a1 * acc1a;
 528              		.loc 1 626 13 is_stmt 1 view .LVU243
 622:DSP/Source/FilteringFunctions/arm_biquad_cascade_stereo_df2T_f32.c ****             p1a = b1 * Xn1a;
 529              		.loc 1 622 17 is_stmt 0 view .LVU244
 530 01f2 64EEA67A 		vmul.f32	s15, s9, s13
 531              	.LVL96:
 626:DSP/Source/FilteringFunctions/arm_biquad_cascade_stereo_df2T_f32.c ****             p3a = a1 * acc1a;
 532              		.loc 1 626 19 view .LVU245
 533 01f6 77EE867A 		vadd.f32	s15, s15, s12
 534              	.LVL97:
 627:DSP/Source/FilteringFunctions/arm_biquad_cascade_stereo_df2T_f32.c ****             p3b = a1 * acc1b;
 535              		.loc 1 627 13 is_stmt 1 view .LVU246
 628:DSP/Source/FilteringFunctions/arm_biquad_cascade_stereo_df2T_f32.c ****             p2a = b2 * Xn1a;
 536              		.loc 1 628 13 view .LVU247
 629:DSP/Source/FilteringFunctions/arm_biquad_cascade_stereo_df2T_f32.c ****             p2b = b2 * Xn1b;
 537              		.loc 1 629 13 view .LVU248
 630:DSP/Source/FilteringFunctions/arm_biquad_cascade_stereo_df2T_f32.c ****             A1a = p1a + p3a;
 538              		.loc 1 630 13 view .LVU249
 631:DSP/Source/FilteringFunctions/arm_biquad_cascade_stereo_df2T_f32.c ****             A1b = p1b + p3b;
ARM GAS  /var/folders/ck/g3dcd5x55xs4107jgdl0snvr0000gn/T//cc4d5yUa.s 			page 26


 539              		.loc 1 631 13 view .LVU250
 632:DSP/Source/FilteringFunctions/arm_biquad_cascade_stereo_df2T_f32.c ****             p4a = a2 * acc1a;
 540              		.loc 1 632 13 view .LVU251
 633:DSP/Source/FilteringFunctions/arm_biquad_cascade_stereo_df2T_f32.c ****             p4b = a2 * acc1b;
 541              		.loc 1 633 13 view .LVU252
 634:DSP/Source/FilteringFunctions/arm_biquad_cascade_stereo_df2T_f32.c ****             d1a = A1a + d2a;
 542              		.loc 1 634 13 view .LVU253
 635:DSP/Source/FilteringFunctions/arm_biquad_cascade_stereo_df2T_f32.c ****             d1b = A1b + d2b;
 543              		.loc 1 635 13 view .LVU254
 623:DSP/Source/FilteringFunctions/arm_biquad_cascade_stereo_df2T_f32.c ****             p1b = b1 * Xn1b;
 544              		.loc 1 623 17 is_stmt 0 view .LVU255
 545 01fa 64EE055A 		vmul.f32	s11, s8, s10
 546              	.LVL98:
 627:DSP/Source/FilteringFunctions/arm_biquad_cascade_stereo_df2T_f32.c ****             p3b = a1 * acc1b;
 547              		.loc 1 627 17 view .LVU256
 548 01fe 23EE076A 		vmul.f32	s12, s6, s14
 549              	.LVL99:
 631:DSP/Source/FilteringFunctions/arm_biquad_cascade_stereo_df2T_f32.c ****             A1b = p1b + p3b;
 550              		.loc 1 631 17 view .LVU257
 551 0202 75EE865A 		vadd.f32	s11, s11, s12
 552              	.LVL100:
 635:DSP/Source/FilteringFunctions/arm_biquad_cascade_stereo_df2T_f32.c ****             d1b = A1b + d2b;
 553              		.loc 1 635 17 view .LVU258
 554 0206 75EE8A5A 		vadd.f32	s11, s11, s20
 555              	.LVL101:
 636:DSP/Source/FilteringFunctions/arm_biquad_cascade_stereo_df2T_f32.c ****             d2a = p2a + p4a;
 556              		.loc 1 636 13 is_stmt 1 view .LVU259
 624:DSP/Source/FilteringFunctions/arm_biquad_cascade_stereo_df2T_f32.c ****             acc1a = p0a + d1a;
 557              		.loc 1 624 17 is_stmt 0 view .LVU260
 558 020a 24EE266A 		vmul.f32	s12, s8, s13
 559              	.LVL102:
 628:DSP/Source/FilteringFunctions/arm_biquad_cascade_stereo_df2T_f32.c ****             p2a = b2 * Xn1a;
 560              		.loc 1 628 17 view .LVU261
 561 020e 23EE272A 		vmul.f32	s4, s6, s15
 562              	.LVL103:
 632:DSP/Source/FilteringFunctions/arm_biquad_cascade_stereo_df2T_f32.c ****             p4a = a2 * acc1a;
 563              		.loc 1 632 17 view .LVU262
 564 0212 36EE026A 		vadd.f32	s12, s12, s4
 565              	.LVL104:
 636:DSP/Source/FilteringFunctions/arm_biquad_cascade_stereo_df2T_f32.c ****             d2a = p2a + p4a;
 566              		.loc 1 636 17 view .LVU263
 567 0216 36EE296A 		vadd.f32	s12, s12, s19
 568              	.LVL105:
 637:DSP/Source/FilteringFunctions/arm_biquad_cascade_stereo_df2T_f32.c ****             d2b = p2b + p4b;
 569              		.loc 1 637 13 is_stmt 1 view .LVU264
 629:DSP/Source/FilteringFunctions/arm_biquad_cascade_stereo_df2T_f32.c ****             p2b = b2 * Xn1b;
 570              		.loc 1 629 17 is_stmt 0 view .LVU265
 571 021a 23EE855A 		vmul.f32	s10, s7, s10
 572              	.LVL106:
 633:DSP/Source/FilteringFunctions/arm_biquad_cascade_stereo_df2T_f32.c ****             p4b = a2 * acc1b;
 573              		.loc 1 633 17 view .LVU266
 574 021e 22EE87AA 		vmul.f32	s20, s5, s14
 575              	.LVL107:
 637:DSP/Source/FilteringFunctions/arm_biquad_cascade_stereo_df2T_f32.c ****             d2b = p2b + p4b;
 576              		.loc 1 637 17 view .LVU267
 577 0222 35EE0AAA 		vadd.f32	s20, s10, s20
 578              	.LVL108:
ARM GAS  /var/folders/ck/g3dcd5x55xs4107jgdl0snvr0000gn/T//cc4d5yUa.s 			page 27


 638:DSP/Source/FilteringFunctions/arm_biquad_cascade_stereo_df2T_f32.c **** 
 579              		.loc 1 638 13 is_stmt 1 view .LVU268
 630:DSP/Source/FilteringFunctions/arm_biquad_cascade_stereo_df2T_f32.c ****             A1a = p1a + p3a;
 580              		.loc 1 630 17 is_stmt 0 view .LVU269
 581 0226 63EEA66A 		vmul.f32	s13, s7, s13
 582              	.LVL109:
 634:DSP/Source/FilteringFunctions/arm_biquad_cascade_stereo_df2T_f32.c ****             d1a = A1a + d2a;
 583              		.loc 1 634 17 view .LVU270
 584 022a 62EEA79A 		vmul.f32	s19, s5, s15
 585              	.LVL110:
 638:DSP/Source/FilteringFunctions/arm_biquad_cascade_stereo_df2T_f32.c **** 
 586              		.loc 1 638 17 view .LVU271
 587 022e 76EEA99A 		vadd.f32	s19, s13, s19
 588              	.LVL111:
 640:DSP/Source/FilteringFunctions/arm_biquad_cascade_stereo_df2T_f32.c ****             *pOut++ = acc1b;
 589              		.loc 1 640 13 is_stmt 1 view .LVU272
 640:DSP/Source/FilteringFunctions/arm_biquad_cascade_stereo_df2T_f32.c ****             *pOut++ = acc1b;
 590              		.loc 1 640 21 is_stmt 0 view .LVU273
 591 0232 00ED027A 		vstr.32	s14, [r0, #-8]
 592              	.LVL112:
 641:DSP/Source/FilteringFunctions/arm_biquad_cascade_stereo_df2T_f32.c **** 
 593              		.loc 1 641 13 is_stmt 1 view .LVU274
 641:DSP/Source/FilteringFunctions/arm_biquad_cascade_stereo_df2T_f32.c **** 
 594              		.loc 1 641 21 is_stmt 0 view .LVU275
 595 0236 40ED017A 		vstr.32	s15, [r0, #-4]
 643:DSP/Source/FilteringFunctions/arm_biquad_cascade_stereo_df2T_f32.c ****         }
 596              		.loc 1 643 13 is_stmt 1 view .LVU276
 617:DSP/Source/FilteringFunctions/arm_biquad_cascade_stereo_df2T_f32.c ****             Xn1a = *pIn++;
 597              		.loc 1 617 23 view .LVU277
 598 023a 0833     		adds	r3, r3, #8
 599              	.LVL113:
 617:DSP/Source/FilteringFunctions/arm_biquad_cascade_stereo_df2T_f32.c ****             Xn1a = *pIn++;
 600              		.loc 1 617 23 is_stmt 0 view .LVU278
 601 023c 0830     		adds	r0, r0, #8
 602 023e 8B42     		cmp	r3, r1
 603 0240 CFD1     		bne	.L5
 604              	.LVL114:
 605              	.L4:
 647:DSP/Source/FilteringFunctions/arm_biquad_cascade_stereo_df2T_f32.c ****         *pState++ = d2a;
 606              		.loc 1 647 9 is_stmt 1 view .LVU279
 647:DSP/Source/FilteringFunctions/arm_biquad_cascade_stereo_df2T_f32.c ****         *pState++ = d2a;
 607              		.loc 1 647 19 is_stmt 0 view .LVU280
 608 0242 42ED045A 		vstr.32	s11, [r2, #-16]
 648:DSP/Source/FilteringFunctions/arm_biquad_cascade_stereo_df2T_f32.c ****         *pState++ = d1b;
 609              		.loc 1 648 9 is_stmt 1 view .LVU281
 610              	.LVL115:
 648:DSP/Source/FilteringFunctions/arm_biquad_cascade_stereo_df2T_f32.c ****         *pState++ = d1b;
 611              		.loc 1 648 19 is_stmt 0 view .LVU282
 612 0246 02ED03AA 		vstr.32	s20, [r2, #-12]
 649:DSP/Source/FilteringFunctions/arm_biquad_cascade_stereo_df2T_f32.c ****         *pState++ = d2b;
 613              		.loc 1 649 9 is_stmt 1 view .LVU283
 614              	.LVL116:
 649:DSP/Source/FilteringFunctions/arm_biquad_cascade_stereo_df2T_f32.c ****         *pState++ = d2b;
 615              		.loc 1 649 19 is_stmt 0 view .LVU284
 616 024a 02ED026A 		vstr.32	s12, [r2, #-8]
 650:DSP/Source/FilteringFunctions/arm_biquad_cascade_stereo_df2T_f32.c **** 
 617              		.loc 1 650 9 is_stmt 1 view .LVU285
ARM GAS  /var/folders/ck/g3dcd5x55xs4107jgdl0snvr0000gn/T//cc4d5yUa.s 			page 28


 618              	.LVL117:
 650:DSP/Source/FilteringFunctions/arm_biquad_cascade_stereo_df2T_f32.c **** 
 619              		.loc 1 650 19 is_stmt 0 view .LVU286
 620 024e 42ED019A 		vstr.32	s19, [r2, #-4]
 621              		.loc 1 653 9 is_stmt 1 view .LVU287
 654:DSP/Source/FilteringFunctions/arm_biquad_cascade_stereo_df2T_f32.c **** 
 655:DSP/Source/FilteringFunctions/arm_biquad_cascade_stereo_df2T_f32.c ****         /*Reset the output working pointer */
 656:DSP/Source/FilteringFunctions/arm_biquad_cascade_stereo_df2T_f32.c ****         pOut = pDst;
 622              		.loc 1 656 9 view .LVU288
 657:DSP/Source/FilteringFunctions/arm_biquad_cascade_stereo_df2T_f32.c **** 
 658:DSP/Source/FilteringFunctions/arm_biquad_cascade_stereo_df2T_f32.c ****         /* decrement the loop counter */
 659:DSP/Source/FilteringFunctions/arm_biquad_cascade_stereo_df2T_f32.c ****         stage--;
 623              		.loc 1 659 9 view .LVU289
 624              	.LVL118:
 660:DSP/Source/FilteringFunctions/arm_biquad_cascade_stereo_df2T_f32.c **** 
 661:DSP/Source/FilteringFunctions/arm_biquad_cascade_stereo_df2T_f32.c ****     } while (stage > 0U);
 625              		.loc 1 661 20 view .LVU290
 626 0252 0EF1140E 		add	lr, lr, #20
 627              	.LVL119:
 628              		.loc 1 661 20 is_stmt 0 view .LVU291
 629 0256 0CF1100C 		add	ip, ip, #16
 630              	.LVL120:
 631              		.loc 1 661 20 view .LVU292
 632 025a 013C     		subs	r4, r4, #1
 633              	.LVL121:
 634              		.loc 1 661 20 view .LVU293
 635 025c 7FF4E8AE 		bne	.L8
 662:DSP/Source/FilteringFunctions/arm_biquad_cascade_stereo_df2T_f32.c **** 
 663:DSP/Source/FilteringFunctions/arm_biquad_cascade_stereo_df2T_f32.c **** #endif
 664:DSP/Source/FilteringFunctions/arm_biquad_cascade_stereo_df2T_f32.c **** 
 665:DSP/Source/FilteringFunctions/arm_biquad_cascade_stereo_df2T_f32.c **** }
 636              		.loc 1 665 1 view .LVU294
 637 0260 BDEC068B 		vldm	sp!, {d8-d10}
 638              	.LCFI2:
 639              		.cfi_remember_state
 640              		.cfi_restore 84
 641              		.cfi_restore 85
 642              		.cfi_restore 82
 643              		.cfi_restore 83
 644              		.cfi_restore 80
 645              		.cfi_restore 81
 646              		.cfi_def_cfa_offset 36
 647              	.LVL122:
 648              		.loc 1 665 1 view .LVU295
 649 0264 BDE8F08F 		pop	{r4, r5, r6, r7, r8, r9, r10, fp, pc}
 650              	.LVL123:
 651              	.L7:
 652              	.LCFI3:
 653              		.cfi_restore_state
 510:DSP/Source/FilteringFunctions/arm_biquad_cascade_stereo_df2T_f32.c **** 
 654              		.loc 1 510 23 view .LVU296
 655 0268 2846     		mov	r0, r5
 656 026a B5E7     		b	.L2
 657              		.cfi_endproc
 658              	.LFE139:
 660              		.text
 661              	.Letext0:
ARM GAS  /var/folders/ck/g3dcd5x55xs4107jgdl0snvr0000gn/T//cc4d5yUa.s 			page 29


 662              		.file 2 "/Users/luban/.local/xPacks/arm-none-eabi-gcc/xpack-arm-none-eabi-gcc-13.2.1-1.1/arm-none-
 663              		.file 3 "/Users/luban/.local/xPacks/arm-none-eabi-gcc/xpack-arm-none-eabi-gcc-13.2.1-1.1/arm-none-
 664              		.file 4 "DSP/Inc/arm_math.h"
ARM GAS  /var/folders/ck/g3dcd5x55xs4107jgdl0snvr0000gn/T//cc4d5yUa.s 			page 30

